ARM GAS  C:\Users\Bart\AppData\Local\Temp\ccRry0AF.s 			page 1


   1              		.syntax unified
   2              		.cpu cortex-m3
   3              		.fpu softvfp
   4              		.eabi_attribute 20, 1
   5              		.eabi_attribute 21, 1
   6              		.eabi_attribute 23, 3
   7              		.eabi_attribute 24, 1
   8              		.eabi_attribute 25, 1
   9              		.eabi_attribute 26, 1
  10              		.eabi_attribute 30, 1
  11              		.eabi_attribute 34, 1
  12              		.eabi_attribute 18, 4
  13              		.thumb
  14              		.file	"coolant_control.c"
  15              		.text
  16              	.Ltext0:
  17              		.cfi_sections	.debug_frame
  18              		.section	.text.coolant_get_state,"ax",%progbits
  19              		.align	2
  20              		.global	coolant_get_state
  21              		.thumb
  22              		.thumb_func
  23              		.type	coolant_get_state, %function
  24              	coolant_get_state:
  25              	.LFB64:
  26              		.file 1 "coolant_control.c"
   1:coolant_control.c **** /*
   2:coolant_control.c ****   coolant_control.c - coolant control methods
   3:coolant_control.c ****   Part of Grbl
   4:coolant_control.c **** 
   5:coolant_control.c ****   Copyright (c) 2012-2015 Sungeun K. Jeon
   6:coolant_control.c **** 
   7:coolant_control.c ****   Grbl is free software: you can redistribute it and/or modify
   8:coolant_control.c ****   it under the terms of the GNU General Public License as published by
   9:coolant_control.c ****   the Free Software Foundation, either version 3 of the License, or
  10:coolant_control.c ****   (at your option) any later version.
  11:coolant_control.c **** 
  12:coolant_control.c ****   Grbl is distributed in the hope that it will be useful,
  13:coolant_control.c ****   but WITHOUT ANY WARRANTY; without even the implied warranty of
  14:coolant_control.c ****   MERCHANTABILITY or FITNESS FOR A PARTICULAR PURPOSE.  See the
  15:coolant_control.c ****   GNU General Public License for more details.
  16:coolant_control.c **** 
  17:coolant_control.c ****   You should have received a copy of the GNU General Public License
  18:coolant_control.c ****   along with Grbl.  If not, see <http://www.gnu.org/licenses/>.
  19:coolant_control.c **** */  
  20:coolant_control.c **** 
  21:coolant_control.c **** #include "grbl.h"
  22:coolant_control.c **** 
  23:coolant_control.c **** 
  24:coolant_control.c **** void coolant_init()
  25:coolant_control.c **** { 
  26:coolant_control.c ****   coolant_set_state(COOLANT_DISABLE);
  27:coolant_control.c **** }
  28:coolant_control.c **** 
  29:coolant_control.c **** // Returns current coolant output state. Overrides may alter it from programmed state.
  30:coolant_control.c **** uint8_t coolant_get_state()
  31:coolant_control.c **** {
ARM GAS  C:\Users\Bart\AppData\Local\Temp\ccRry0AF.s 			page 2


  27              		.loc 1 31 0
  28              		.cfi_startproc
  29              		@ args = 0, pretend = 0, frame = 0
  30              		@ frame_needed = 0, uses_anonymous_args = 0
  31 0000 10B5     		push	{r4, lr}
  32              		.cfi_def_cfa_offset 8
  33              		.cfi_offset 4, -8
  34              		.cfi_offset 14, -4
  35              	.LVL0:
  32:coolant_control.c ****   uint8_t cl_state = COOLANT_STATE_DISABLE;
  33:coolant_control.c ****   
  34:coolant_control.c ****   if (Flood_Coolant_Pin_Read()) 
  36              		.loc 1 34 0
  37 0002 FFF7FEFF 		bl	Flood_Coolant_Pin_Read
  38              	.LVL1:
  39 0006 08B9     		cbnz	r0, .L4
  32:coolant_control.c ****   uint8_t cl_state = COOLANT_STATE_DISABLE;
  40              		.loc 1 32 0
  41 0008 0024     		movs	r4, #0
  42 000a 00E0     		b	.L2
  43              	.L4:
  35:coolant_control.c ****   {  
  36:coolant_control.c ****   cl_state |= COOLANT_STATE_FLOOD;
  44              		.loc 1 36 0
  45 000c 0124     		movs	r4, #1
  46              	.L2:
  47              	.LVL2:
  37:coolant_control.c ****   }
  38:coolant_control.c **** 
  39:coolant_control.c ****   if (Mist_Coolant_Pin_Read()) 
  48              		.loc 1 39 0
  49 000e FFF7FEFF 		bl	Mist_Coolant_Pin_Read
  50              	.LVL3:
  51 0012 08B1     		cbz	r0, .L3
  40:coolant_control.c ****   {  
  41:coolant_control.c ****   cl_state |= COOLANT_STATE_MIST;
  52              		.loc 1 41 0
  53 0014 44F00204 		orr	r4, r4, #2
  54              	.LVL4:
  55              	.L3:
  42:coolant_control.c ****   }
  43:coolant_control.c ****   
  44:coolant_control.c ****   return(cl_state);
  45:coolant_control.c **** }
  56              		.loc 1 45 0
  57 0018 2046     		mov	r0, r4
  58 001a 10BD     		pop	{r4, pc}
  59              		.cfi_endproc
  60              	.LFE64:
  61              		.size	coolant_get_state, .-coolant_get_state
  62              		.section	.text.coolant_stop,"ax",%progbits
  63              		.align	2
  64              		.global	coolant_stop
  65              		.thumb
  66              		.thumb_func
  67              		.type	coolant_stop, %function
  68              	coolant_stop:
ARM GAS  C:\Users\Bart\AppData\Local\Temp\ccRry0AF.s 			page 3


  69              	.LFB65:
  46:coolant_control.c **** 
  47:coolant_control.c **** 
  48:coolant_control.c **** void coolant_stop()
  49:coolant_control.c **** {
  70              		.loc 1 49 0
  71              		.cfi_startproc
  72              		@ args = 0, pretend = 0, frame = 0
  73              		@ frame_needed = 0, uses_anonymous_args = 0
  74 0000 08B5     		push	{r3, lr}
  75              		.cfi_def_cfa_offset 8
  76              		.cfi_offset 3, -8
  77              		.cfi_offset 14, -4
  50:coolant_control.c ****   Flood_Coolant_Pin_Write(0);
  78              		.loc 1 50 0
  79 0002 0020     		movs	r0, #0
  80 0004 FFF7FEFF 		bl	Flood_Coolant_Pin_Write
  81              	.LVL5:
  51:coolant_control.c ****   Mist_Coolant_Pin_Write(0);
  82              		.loc 1 51 0
  83 0008 0020     		movs	r0, #0
  84 000a FFF7FEFF 		bl	Mist_Coolant_Pin_Write
  85              	.LVL6:
  86 000e 08BD     		pop	{r3, pc}
  87              		.cfi_endproc
  88              	.LFE65:
  89              		.size	coolant_stop, .-coolant_stop
  90              		.section	.text.coolant_set_state,"ax",%progbits
  91              		.align	2
  92              		.global	coolant_set_state
  93              		.thumb
  94              		.thumb_func
  95              		.type	coolant_set_state, %function
  96              	coolant_set_state:
  97              	.LFB66:
  52:coolant_control.c **** }
  53:coolant_control.c **** 
  54:coolant_control.c **** 
  55:coolant_control.c **** void coolant_set_state(uint8_t mode)
  56:coolant_control.c **** {
  98              		.loc 1 56 0
  99              		.cfi_startproc
 100              		@ args = 0, pretend = 0, frame = 0
 101              		@ frame_needed = 0, uses_anonymous_args = 0
 102              	.LVL7:
  57:coolant_control.c ****   if (sys.abort) { return; } // Block during abort.
 103              		.loc 1 57 0
 104 0000 0C4B     		ldr	r3, .L15
 105 0002 5B78     		ldrb	r3, [r3, #1]	@ zero_extendqisi2
 106 0004 ABB9     		cbnz	r3, .L14
  56:coolant_control.c ****   if (sys.abort) { return; } // Block during abort.
 107              		.loc 1 56 0
 108 0006 10B5     		push	{r4, lr}
 109              		.cfi_def_cfa_offset 8
 110              		.cfi_offset 4, -8
 111              		.cfi_offset 14, -4
 112 0008 0446     		mov	r4, r0
ARM GAS  C:\Users\Bart\AppData\Local\Temp\ccRry0AF.s 			page 4


  58:coolant_control.c ****   
  59:coolant_control.c ****   if (mode == COOLANT_DISABLE) 
 113              		.loc 1 59 0
 114 000a 10B9     		cbnz	r0, .L10
  60:coolant_control.c ****   {  
  61:coolant_control.c ****     coolant_stop();
 115              		.loc 1 61 0
 116 000c FFF7FEFF 		bl	coolant_stop
 117              	.LVL8:
 118 0010 0BE0     		b	.L11
 119              	.LVL9:
 120              	.L10:
  62:coolant_control.c ****   }
  63:coolant_control.c ****   else
  64:coolant_control.c ****   {
  65:coolant_control.c ****     if (mode & COOLANT_FLOOD_ENABLE)
 121              		.loc 1 65 0
 122 0012 10F0400F 		tst	r0, #64
 123 0016 02D0     		beq	.L12
  66:coolant_control.c ****     {
  67:coolant_control.c ****       Flood_Coolant_Pin_Write(1);
 124              		.loc 1 67 0
 125 0018 0120     		movs	r0, #1
 126              	.LVL10:
 127 001a FFF7FEFF 		bl	Flood_Coolant_Pin_Write
 128              	.LVL11:
 129              	.L12:
  68:coolant_control.c ****     }
  69:coolant_control.c ****     if (mode & COOLANT_MIST_ENABLE)
 130              		.loc 1 69 0
 131 001e 14F0800F 		tst	r4, #128
 132 0022 02D0     		beq	.L11
  70:coolant_control.c ****     {
  71:coolant_control.c ****        Mist_Coolant_Pin_Write(1);
 133              		.loc 1 71 0
 134 0024 0120     		movs	r0, #1
 135 0026 FFF7FEFF 		bl	Mist_Coolant_Pin_Write
 136              	.LVL12:
 137              	.L11:
  72:coolant_control.c ****     }    
  73:coolant_control.c ****   }
  74:coolant_control.c ****   sys.report_ovr_counter = 0; // Set to report change immediately
 138              		.loc 1 74 0
 139 002a 0022     		movs	r2, #0
 140 002c 014B     		ldr	r3, .L15
 141 002e DA72     		strb	r2, [r3, #11]
 142 0030 10BD     		pop	{r4, pc}
 143              	.LVL13:
 144              	.L14:
 145              		.cfi_def_cfa_offset 0
 146              		.cfi_restore 4
 147              		.cfi_restore 14
 148 0032 7047     		bx	lr
 149              	.L16:
 150              		.align	2
 151              	.L15:
 152 0034 00000000 		.word	sys
ARM GAS  C:\Users\Bart\AppData\Local\Temp\ccRry0AF.s 			page 5


 153              		.cfi_endproc
 154              	.LFE66:
 155              		.size	coolant_set_state, .-coolant_set_state
 156              		.section	.text.coolant_init,"ax",%progbits
 157              		.align	2
 158              		.global	coolant_init
 159              		.thumb
 160              		.thumb_func
 161              		.type	coolant_init, %function
 162              	coolant_init:
 163              	.LFB63:
  25:coolant_control.c ****   coolant_set_state(COOLANT_DISABLE);
 164              		.loc 1 25 0
 165              		.cfi_startproc
 166              		@ args = 0, pretend = 0, frame = 0
 167              		@ frame_needed = 0, uses_anonymous_args = 0
 168 0000 08B5     		push	{r3, lr}
 169              		.cfi_def_cfa_offset 8
 170              		.cfi_offset 3, -8
 171              		.cfi_offset 14, -4
  26:coolant_control.c **** }
 172              		.loc 1 26 0
 173 0002 0020     		movs	r0, #0
 174 0004 FFF7FEFF 		bl	coolant_set_state
 175              	.LVL14:
 176 0008 08BD     		pop	{r3, pc}
 177              		.cfi_endproc
 178              	.LFE63:
 179              		.size	coolant_init, .-coolant_init
 180 000a 00BF     		.section	.text.coolant_sync,"ax",%progbits
 181              		.align	2
 182              		.global	coolant_sync
 183              		.thumb
 184              		.thumb_func
 185              		.type	coolant_sync, %function
 186              	coolant_sync:
 187              	.LFB67:
  75:coolant_control.c ****  
  76:coolant_control.c **** }
  77:coolant_control.c **** 
  78:coolant_control.c **** 
  79:coolant_control.c **** // G-code parser entry-point for setting coolant state. Forces a planner buffer sync and bails 
  80:coolant_control.c **** // if an abort or check-mode is active.
  81:coolant_control.c **** void coolant_sync(uint8_t mode)
  82:coolant_control.c **** {
 188              		.loc 1 82 0
 189              		.cfi_startproc
 190              		@ args = 0, pretend = 0, frame = 0
 191              		@ frame_needed = 0, uses_anonymous_args = 0
 192              	.LVL15:
  83:coolant_control.c ****   if (sys.state == STATE_CHECK_MODE) { return; }
 193              		.loc 1 83 0
 194 0000 064B     		ldr	r3, .L23
 195 0002 1B78     		ldrb	r3, [r3]	@ zero_extendqisi2
 196 0004 022B     		cmp	r3, #2
 197 0006 07D0     		beq	.L22
  82:coolant_control.c ****   if (sys.state == STATE_CHECK_MODE) { return; }
ARM GAS  C:\Users\Bart\AppData\Local\Temp\ccRry0AF.s 			page 6


 198              		.loc 1 82 0
 199 0008 10B5     		push	{r4, lr}
 200              		.cfi_def_cfa_offset 8
 201              		.cfi_offset 4, -8
 202              		.cfi_offset 14, -4
 203 000a 0446     		mov	r4, r0
  84:coolant_control.c ****   protocol_buffer_synchronize(); // Ensure coolant turns on when specified in program.
 204              		.loc 1 84 0
 205 000c FFF7FEFF 		bl	protocol_buffer_synchronize
 206              	.LVL16:
  85:coolant_control.c ****   coolant_set_state(mode);
 207              		.loc 1 85 0
 208 0010 2046     		mov	r0, r4
 209 0012 FFF7FEFF 		bl	coolant_set_state
 210              	.LVL17:
 211 0016 10BD     		pop	{r4, pc}
 212              	.LVL18:
 213              	.L22:
 214              		.cfi_def_cfa_offset 0
 215              		.cfi_restore 4
 216              		.cfi_restore 14
 217 0018 7047     		bx	lr
 218              	.L24:
 219 001a 00BF     		.align	2
 220              	.L23:
 221 001c 00000000 		.word	sys
 222              		.cfi_endproc
 223              	.LFE67:
 224              		.size	coolant_sync, .-coolant_sync
 225              		.comm	exec_lcd_status,1,1
 226              		.comm	sys_rt_exec_debug,1,1
 227              		.comm	sys_rt_exec_accessory_override,1,1
 228              		.comm	sys_rt_exec_motion_override,1,1
 229              		.comm	sys_rt_exec_alarm,1,1
 230              		.comm	sys_rt_exec_state,1,1
 231              		.comm	sys_probe_state,1,1
 232              		.comm	sys_probe_position,12,4
 233              		.comm	sys_position,12,4
 234              		.text
 235              	.Letext0:
 236              		.file 2 "d:\\program files (x86)\\cypress\\psoc creator\\4.0\\psoc creator\\import\\gnu\\arm\\4.9.
 237              		.file 3 "d:\\program files (x86)\\cypress\\psoc creator\\4.0\\psoc creator\\import\\gnu\\arm\\4.9.
 238              		.file 4 "Generated_Source\\PSoC5/cytypes.h"
 239              		.file 5 "system.h"
 240              		.file 6 "Generated_Source\\PSoC5/core_cm3.h"
 241              		.file 7 "lcd_report.h"
 242              		.file 8 "Generated_Source\\PSoC5/Flood_Coolant_Pin.h"
 243              		.file 9 "Generated_Source\\PSoC5/Mist_Coolant_Pin.h"
 244              		.file 10 "protocol.h"