ARM GAS  C:\Users\Bart\AppData\Local\Temp\ccfH3Kjw.s 			page 1


   1              		.syntax unified
   2              		.cpu cortex-m3
   3              		.fpu softvfp
   4              		.eabi_attribute 20, 1
   5              		.eabi_attribute 21, 1
   6              		.eabi_attribute 23, 3
   7              		.eabi_attribute 24, 1
   8              		.eabi_attribute 25, 1
   9              		.eabi_attribute 26, 1
  10              		.eabi_attribute 30, 1
  11              		.eabi_attribute 34, 1
  12              		.eabi_attribute 18, 4
  13              		.thumb
  14              		.file	"cyfitter_cfg.c"
  15              		.text
  16              	.Ltext0:
  17              		.cfi_sections	.debug_frame
  18              		.section	.text.CyClockStartupError,"ax",%progbits
  19              		.align	2
  20              		.thumb
  21              		.thumb_func
  22              		.type	CyClockStartupError, %function
  23              	CyClockStartupError:
  24              	.LFB3:
  25              		.file 1 "Generated_Source\\PSoC5\\cyfitter_cfg.c"
   1:Generated_Source\PSoC5/cyfitter_cfg.c **** /*******************************************************************************
   2:Generated_Source\PSoC5/cyfitter_cfg.c **** * File Name: cyfitter_cfg.c
   3:Generated_Source\PSoC5/cyfitter_cfg.c **** * 
   4:Generated_Source\PSoC5/cyfitter_cfg.c **** * PSoC Creator  4.0 Update 1
   5:Generated_Source\PSoC5/cyfitter_cfg.c **** *
   6:Generated_Source\PSoC5/cyfitter_cfg.c **** * Description:
   7:Generated_Source\PSoC5/cyfitter_cfg.c **** * This file contains device initialization code.
   8:Generated_Source\PSoC5/cyfitter_cfg.c **** * Except for the user defined sections in CyClockStartupError(), this file should not be modified.
   9:Generated_Source\PSoC5/cyfitter_cfg.c **** * This file is automatically generated by PSoC Creator.
  10:Generated_Source\PSoC5/cyfitter_cfg.c **** *
  11:Generated_Source\PSoC5/cyfitter_cfg.c **** ********************************************************************************
  12:Generated_Source\PSoC5/cyfitter_cfg.c **** * Copyright (c) 2007-2016 Cypress Semiconductor.  All rights reserved.
  13:Generated_Source\PSoC5/cyfitter_cfg.c **** * You may use this file only in accordance with the license, terms, conditions, 
  14:Generated_Source\PSoC5/cyfitter_cfg.c **** * disclaimers, and limitations in the end user license agreement accompanying 
  15:Generated_Source\PSoC5/cyfitter_cfg.c **** * the software package with which this file was provided.
  16:Generated_Source\PSoC5/cyfitter_cfg.c **** ********************************************************************************/
  17:Generated_Source\PSoC5/cyfitter_cfg.c **** 
  18:Generated_Source\PSoC5/cyfitter_cfg.c **** #include <string.h>
  19:Generated_Source\PSoC5/cyfitter_cfg.c **** #include "cytypes.h"
  20:Generated_Source\PSoC5/cyfitter_cfg.c **** #include "cydevice_trm.h"
  21:Generated_Source\PSoC5/cyfitter_cfg.c **** #include "cyfitter.h"
  22:Generated_Source\PSoC5/cyfitter_cfg.c **** #include "CyLib.h"
  23:Generated_Source\PSoC5/cyfitter_cfg.c **** #include "cyfitter_cfg.h"
  24:Generated_Source\PSoC5/cyfitter_cfg.c **** #include "cyapicallbacks.h"
  25:Generated_Source\PSoC5/cyfitter_cfg.c **** 
  26:Generated_Source\PSoC5/cyfitter_cfg.c **** #define CY_NEED_CYCLOCKSTARTUPERROR 1
  27:Generated_Source\PSoC5/cyfitter_cfg.c **** 
  28:Generated_Source\PSoC5/cyfitter_cfg.c **** 
  29:Generated_Source\PSoC5/cyfitter_cfg.c **** #if defined(__GNUC__) || defined(__ARMCC_VERSION)
  30:Generated_Source\PSoC5/cyfitter_cfg.c ****     #define CYPACKED 
  31:Generated_Source\PSoC5/cyfitter_cfg.c ****     #define CYPACKED_ATTR __attribute__ ((packed))
  32:Generated_Source\PSoC5/cyfitter_cfg.c ****     #define CYALIGNED __attribute__ ((aligned))
ARM GAS  C:\Users\Bart\AppData\Local\Temp\ccfH3Kjw.s 			page 2


  33:Generated_Source\PSoC5/cyfitter_cfg.c ****     #define CY_CFG_UNUSED __attribute__ ((unused))
  34:Generated_Source\PSoC5/cyfitter_cfg.c ****     #ifndef CY_CFG_SECTION
  35:Generated_Source\PSoC5/cyfitter_cfg.c ****         #define CY_CFG_SECTION __attribute__ ((section(".psocinit")))
  36:Generated_Source\PSoC5/cyfitter_cfg.c ****     #endif
  37:Generated_Source\PSoC5/cyfitter_cfg.c ****     
  38:Generated_Source\PSoC5/cyfitter_cfg.c ****     #if defined(__ARMCC_VERSION)
  39:Generated_Source\PSoC5/cyfitter_cfg.c ****         #define CY_CFG_MEMORY_BARRIER() __memory_changed()
  40:Generated_Source\PSoC5/cyfitter_cfg.c ****     #else
  41:Generated_Source\PSoC5/cyfitter_cfg.c ****         #define CY_CFG_MEMORY_BARRIER() __sync_synchronize()
  42:Generated_Source\PSoC5/cyfitter_cfg.c ****     #endif
  43:Generated_Source\PSoC5/cyfitter_cfg.c ****     
  44:Generated_Source\PSoC5/cyfitter_cfg.c **** #elif defined(__ICCARM__)
  45:Generated_Source\PSoC5/cyfitter_cfg.c ****     #include <intrinsics.h>
  46:Generated_Source\PSoC5/cyfitter_cfg.c **** 
  47:Generated_Source\PSoC5/cyfitter_cfg.c ****     #define CYPACKED __packed
  48:Generated_Source\PSoC5/cyfitter_cfg.c ****     #define CYPACKED_ATTR 
  49:Generated_Source\PSoC5/cyfitter_cfg.c ****     #define CYALIGNED _Pragma("data_alignment=4")
  50:Generated_Source\PSoC5/cyfitter_cfg.c ****     #define CY_CFG_UNUSED _Pragma("diag_suppress=Pe177")
  51:Generated_Source\PSoC5/cyfitter_cfg.c ****     #define CY_CFG_SECTION _Pragma("location=\".psocinit\"")
  52:Generated_Source\PSoC5/cyfitter_cfg.c ****     
  53:Generated_Source\PSoC5/cyfitter_cfg.c ****     #define CY_CFG_MEMORY_BARRIER() __DMB()
  54:Generated_Source\PSoC5/cyfitter_cfg.c ****     
  55:Generated_Source\PSoC5/cyfitter_cfg.c **** #else
  56:Generated_Source\PSoC5/cyfitter_cfg.c ****     #error Unsupported toolchain
  57:Generated_Source\PSoC5/cyfitter_cfg.c **** #endif
  58:Generated_Source\PSoC5/cyfitter_cfg.c **** 
  59:Generated_Source\PSoC5/cyfitter_cfg.c **** 
  60:Generated_Source\PSoC5/cyfitter_cfg.c **** CY_CFG_UNUSED
  61:Generated_Source\PSoC5/cyfitter_cfg.c **** static void CYMEMZERO(void *s, size_t n);
  62:Generated_Source\PSoC5/cyfitter_cfg.c **** CY_CFG_UNUSED
  63:Generated_Source\PSoC5/cyfitter_cfg.c **** static void CYMEMZERO(void *s, size_t n)
  64:Generated_Source\PSoC5/cyfitter_cfg.c **** {
  65:Generated_Source\PSoC5/cyfitter_cfg.c **** 	(void)memset(s, 0, n);
  66:Generated_Source\PSoC5/cyfitter_cfg.c **** }
  67:Generated_Source\PSoC5/cyfitter_cfg.c **** CY_CFG_UNUSED
  68:Generated_Source\PSoC5/cyfitter_cfg.c **** static void CYCONFIGCPY(void *dest, const void *src, size_t n);
  69:Generated_Source\PSoC5/cyfitter_cfg.c **** CY_CFG_UNUSED
  70:Generated_Source\PSoC5/cyfitter_cfg.c **** static void CYCONFIGCPY(void *dest, const void *src, size_t n)
  71:Generated_Source\PSoC5/cyfitter_cfg.c **** {
  72:Generated_Source\PSoC5/cyfitter_cfg.c **** 	(void)memcpy(dest, src, n);
  73:Generated_Source\PSoC5/cyfitter_cfg.c **** }
  74:Generated_Source\PSoC5/cyfitter_cfg.c **** CY_CFG_UNUSED
  75:Generated_Source\PSoC5/cyfitter_cfg.c **** static void CYCONFIGCPYCODE(void *dest, const void *src, size_t n);
  76:Generated_Source\PSoC5/cyfitter_cfg.c **** CY_CFG_UNUSED
  77:Generated_Source\PSoC5/cyfitter_cfg.c **** static void CYCONFIGCPYCODE(void *dest, const void *src, size_t n)
  78:Generated_Source\PSoC5/cyfitter_cfg.c **** {
  79:Generated_Source\PSoC5/cyfitter_cfg.c **** 	(void)memcpy(dest, src, n);
  80:Generated_Source\PSoC5/cyfitter_cfg.c **** }
  81:Generated_Source\PSoC5/cyfitter_cfg.c **** 
  82:Generated_Source\PSoC5/cyfitter_cfg.c **** 
  83:Generated_Source\PSoC5/cyfitter_cfg.c **** 
  84:Generated_Source\PSoC5/cyfitter_cfg.c **** 
  85:Generated_Source\PSoC5/cyfitter_cfg.c **** /* Clock startup error codes                                                   */
  86:Generated_Source\PSoC5/cyfitter_cfg.c **** #define CYCLOCKSTART_NO_ERROR    0u
  87:Generated_Source\PSoC5/cyfitter_cfg.c **** #define CYCLOCKSTART_XTAL_ERROR  1u
  88:Generated_Source\PSoC5/cyfitter_cfg.c **** #define CYCLOCKSTART_32KHZ_ERROR 2u
  89:Generated_Source\PSoC5/cyfitter_cfg.c **** #define CYCLOCKSTART_PLL_ERROR   3u
ARM GAS  C:\Users\Bart\AppData\Local\Temp\ccfH3Kjw.s 			page 3


  90:Generated_Source\PSoC5/cyfitter_cfg.c **** 
  91:Generated_Source\PSoC5/cyfitter_cfg.c **** 
  92:Generated_Source\PSoC5/cyfitter_cfg.c **** #ifdef CY_NEED_CYCLOCKSTARTUPERROR
  93:Generated_Source\PSoC5/cyfitter_cfg.c **** /*******************************************************************************
  94:Generated_Source\PSoC5/cyfitter_cfg.c **** * Function Name: CyClockStartupError
  95:Generated_Source\PSoC5/cyfitter_cfg.c **** ********************************************************************************
  96:Generated_Source\PSoC5/cyfitter_cfg.c **** * Summary:
  97:Generated_Source\PSoC5/cyfitter_cfg.c **** *  If an error is encountered during clock configuration (crystal startup error,
  98:Generated_Source\PSoC5/cyfitter_cfg.c **** *  PLL lock error, etc.), the system will end up here.  Unless reimplemented by
  99:Generated_Source\PSoC5/cyfitter_cfg.c **** *  the customer, this function will stop in an infinite loop.
 100:Generated_Source\PSoC5/cyfitter_cfg.c **** *
 101:Generated_Source\PSoC5/cyfitter_cfg.c **** * Parameters:
 102:Generated_Source\PSoC5/cyfitter_cfg.c **** *   void
 103:Generated_Source\PSoC5/cyfitter_cfg.c **** *
 104:Generated_Source\PSoC5/cyfitter_cfg.c **** * Return:
 105:Generated_Source\PSoC5/cyfitter_cfg.c **** *   void
 106:Generated_Source\PSoC5/cyfitter_cfg.c **** *
 107:Generated_Source\PSoC5/cyfitter_cfg.c **** *******************************************************************************/
 108:Generated_Source\PSoC5/cyfitter_cfg.c **** CY_CFG_UNUSED
 109:Generated_Source\PSoC5/cyfitter_cfg.c **** static void CyClockStartupError(uint8 errorCode);
 110:Generated_Source\PSoC5/cyfitter_cfg.c **** CY_CFG_UNUSED
 111:Generated_Source\PSoC5/cyfitter_cfg.c **** static void CyClockStartupError(uint8 errorCode)
 112:Generated_Source\PSoC5/cyfitter_cfg.c **** {
  26              		.loc 1 112 0
  27              		.cfi_startproc
  28              		@ Volatile: function does not return.
  29              		@ args = 0, pretend = 0, frame = 0
  30              		@ frame_needed = 0, uses_anonymous_args = 0
  31              		@ link register save eliminated.
  32              	.LVL0:
  33              	.L2:
 113:Generated_Source\PSoC5/cyfitter_cfg.c ****     /* To remove the compiler warning if errorCode not used.                */
 114:Generated_Source\PSoC5/cyfitter_cfg.c ****     errorCode = errorCode;
 115:Generated_Source\PSoC5/cyfitter_cfg.c **** 
 116:Generated_Source\PSoC5/cyfitter_cfg.c ****     /* If we have a clock startup error (bad MHz crystal, PLL lock, etc.),  */
 117:Generated_Source\PSoC5/cyfitter_cfg.c ****     /* we will end up here to allow the customer to implement something to  */
 118:Generated_Source\PSoC5/cyfitter_cfg.c ****     /* deal with the clock condition.                                       */
 119:Generated_Source\PSoC5/cyfitter_cfg.c **** 
 120:Generated_Source\PSoC5/cyfitter_cfg.c **** #ifdef CY_CFG_CLOCK_STARTUP_ERROR_CALLBACK
 121:Generated_Source\PSoC5/cyfitter_cfg.c **** 	CY_CFG_Clock_Startup_ErrorCallback();
 122:Generated_Source\PSoC5/cyfitter_cfg.c **** #else
 123:Generated_Source\PSoC5/cyfitter_cfg.c **** 	/*  If not using CY_CFG_CLOCK_STARTUP_ERROR_CALLBACK, place your clock startup code here. */
 124:Generated_Source\PSoC5/cyfitter_cfg.c ****     /* `#START CyClockStartupError` */
 125:Generated_Source\PSoC5/cyfitter_cfg.c **** 
 126:Generated_Source\PSoC5/cyfitter_cfg.c ****     /* If we have a clock startup error (bad MHz crystal, PLL lock, etc.),  */
 127:Generated_Source\PSoC5/cyfitter_cfg.c ****     /* we will end up here to allow the customer to implement something to  */
 128:Generated_Source\PSoC5/cyfitter_cfg.c ****     /* deal with the clock condition.                                       */
 129:Generated_Source\PSoC5/cyfitter_cfg.c **** 
 130:Generated_Source\PSoC5/cyfitter_cfg.c ****     /* `#END` */
 131:Generated_Source\PSoC5/cyfitter_cfg.c **** 
 132:Generated_Source\PSoC5/cyfitter_cfg.c ****     /* If nothing else, stop here since the clocks have not started         */
 133:Generated_Source\PSoC5/cyfitter_cfg.c ****     /* correctly.                                                           */
 134:Generated_Source\PSoC5/cyfitter_cfg.c ****     while(1) {}
  34              		.loc 1 134 0 discriminator 1
  35 0000 FEE7     		b	.L2
  36              		.cfi_endproc
  37              	.LFE3:
ARM GAS  C:\Users\Bart\AppData\Local\Temp\ccfH3Kjw.s 			page 4


  38              		.size	CyClockStartupError, .-CyClockStartupError
  39 0002 00BF     		.section	.text.cfg_write_bytes32,"ax",%progbits
  40              		.align	2
  41              		.thumb
  42              		.thumb_func
  43              		.type	cfg_write_bytes32, %function
  44              	cfg_write_bytes32:
  45              	.LFB4:
 135:Generated_Source\PSoC5/cyfitter_cfg.c **** #endif /* CY_CFG_CLOCK_STARTUP_ERROR_CALLBACK */ 
 136:Generated_Source\PSoC5/cyfitter_cfg.c **** }
 137:Generated_Source\PSoC5/cyfitter_cfg.c **** #endif
 138:Generated_Source\PSoC5/cyfitter_cfg.c **** 
 139:Generated_Source\PSoC5/cyfitter_cfg.c **** #define CY_CFG_BASE_ADDR_COUNT 36u
 140:Generated_Source\PSoC5/cyfitter_cfg.c **** CYPACKED typedef struct
 141:Generated_Source\PSoC5/cyfitter_cfg.c **** {
 142:Generated_Source\PSoC5/cyfitter_cfg.c **** 	uint8 offset;
 143:Generated_Source\PSoC5/cyfitter_cfg.c **** 	uint8 value;
 144:Generated_Source\PSoC5/cyfitter_cfg.c **** } CYPACKED_ATTR cy_cfg_addrvalue_t;
 145:Generated_Source\PSoC5/cyfitter_cfg.c **** 
 146:Generated_Source\PSoC5/cyfitter_cfg.c **** #define cy_cfg_addr_table ((const uint32 CYFAR *)0x48000000u)
 147:Generated_Source\PSoC5/cyfitter_cfg.c **** #define cy_cfg_data_table ((const cy_cfg_addrvalue_t CYFAR *)0x48000090u)
 148:Generated_Source\PSoC5/cyfitter_cfg.c **** 
 149:Generated_Source\PSoC5/cyfitter_cfg.c **** /* IOPINS0_0 Address: CYREG_PRT0_DM0 Size (bytes): 8 */
 150:Generated_Source\PSoC5/cyfitter_cfg.c **** #define BS_IOPINS0_0_VAL ((const uint8 CYFAR *)0x480009C4u)
 151:Generated_Source\PSoC5/cyfitter_cfg.c **** 
 152:Generated_Source\PSoC5/cyfitter_cfg.c **** /* IOPINS0_7 Address: CYREG_PRT12_DR Size (bytes): 10 */
 153:Generated_Source\PSoC5/cyfitter_cfg.c **** #define BS_IOPINS0_7_VAL ((const uint8 CYFAR *)0x480009CCu)
 154:Generated_Source\PSoC5/cyfitter_cfg.c **** 
 155:Generated_Source\PSoC5/cyfitter_cfg.c **** /* IOPINS0_8 Address: CYREG_PRT15_DR Size (bytes): 10 */
 156:Generated_Source\PSoC5/cyfitter_cfg.c **** #define BS_IOPINS0_8_VAL ((const uint8 CYFAR *)0x480009D8u)
 157:Generated_Source\PSoC5/cyfitter_cfg.c **** 
 158:Generated_Source\PSoC5/cyfitter_cfg.c **** /* IOPINS0_1 Address: CYREG_PRT1_DR Size (bytes): 10 */
 159:Generated_Source\PSoC5/cyfitter_cfg.c **** #define BS_IOPINS0_1_VAL ((const uint8 CYFAR *)0x480009E4u)
 160:Generated_Source\PSoC5/cyfitter_cfg.c **** 
 161:Generated_Source\PSoC5/cyfitter_cfg.c **** /* IOPINS0_2 Address: CYREG_PRT2_DM0 Size (bytes): 8 */
 162:Generated_Source\PSoC5/cyfitter_cfg.c **** #define BS_IOPINS0_2_VAL ((const uint8 CYFAR *)0x480009F0u)
 163:Generated_Source\PSoC5/cyfitter_cfg.c **** 
 164:Generated_Source\PSoC5/cyfitter_cfg.c **** /* IOPINS0_3 Address: CYREG_PRT3_DM0 Size (bytes): 8 */
 165:Generated_Source\PSoC5/cyfitter_cfg.c **** #define BS_IOPINS0_3_VAL ((const uint8 CYFAR *)0x480009F8u)
 166:Generated_Source\PSoC5/cyfitter_cfg.c **** 
 167:Generated_Source\PSoC5/cyfitter_cfg.c **** 
 168:Generated_Source\PSoC5/cyfitter_cfg.c **** /*******************************************************************************
 169:Generated_Source\PSoC5/cyfitter_cfg.c **** * Function Name: cfg_write_bytes32
 170:Generated_Source\PSoC5/cyfitter_cfg.c **** ********************************************************************************
 171:Generated_Source\PSoC5/cyfitter_cfg.c **** * Summary:
 172:Generated_Source\PSoC5/cyfitter_cfg.c **** *  This function is used for setting up the chip configuration areas that
 173:Generated_Source\PSoC5/cyfitter_cfg.c **** *  contain relatively sparse data.
 174:Generated_Source\PSoC5/cyfitter_cfg.c **** *
 175:Generated_Source\PSoC5/cyfitter_cfg.c **** * Parameters:
 176:Generated_Source\PSoC5/cyfitter_cfg.c **** *   void
 177:Generated_Source\PSoC5/cyfitter_cfg.c **** *
 178:Generated_Source\PSoC5/cyfitter_cfg.c **** * Return:
 179:Generated_Source\PSoC5/cyfitter_cfg.c **** *   void
 180:Generated_Source\PSoC5/cyfitter_cfg.c **** *
 181:Generated_Source\PSoC5/cyfitter_cfg.c **** *******************************************************************************/
 182:Generated_Source\PSoC5/cyfitter_cfg.c **** static void cfg_write_bytes32(const uint32 addr_table[], const cy_cfg_addrvalue_t data_table[]);
 183:Generated_Source\PSoC5/cyfitter_cfg.c **** static void cfg_write_bytes32(const uint32 addr_table[], const cy_cfg_addrvalue_t data_table[])
ARM GAS  C:\Users\Bart\AppData\Local\Temp\ccfH3Kjw.s 			page 5


 184:Generated_Source\PSoC5/cyfitter_cfg.c **** {
  46              		.loc 1 184 0
  47              		.cfi_startproc
  48              		@ args = 0, pretend = 0, frame = 0
  49              		@ frame_needed = 0, uses_anonymous_args = 0
  50              		@ link register save eliminated.
  51              	.LVL1:
  52 0000 F0B4     		push	{r4, r5, r6, r7}
  53              		.cfi_def_cfa_offset 16
  54              		.cfi_offset 4, -16
  55              		.cfi_offset 5, -12
  56              		.cfi_offset 6, -8
  57              		.cfi_offset 7, -4
  58              	.LVL2:
 185:Generated_Source\PSoC5/cyfitter_cfg.c **** 	/* For 32-bit little-endian architectures */
 186:Generated_Source\PSoC5/cyfitter_cfg.c **** 	uint32 i, j = 0u;
  59              		.loc 1 186 0
  60 0002 0022     		movs	r2, #0
 187:Generated_Source\PSoC5/cyfitter_cfg.c **** 	for (i = 0u; i < CY_CFG_BASE_ADDR_COUNT; i++)
  61              		.loc 1 187 0
  62 0004 1746     		mov	r7, r2
  63 0006 11E0     		b	.L4
  64              	.LVL3:
  65              	.L7:
  66              	.LBB2:
 188:Generated_Source\PSoC5/cyfitter_cfg.c **** 	{
 189:Generated_Source\PSoC5/cyfitter_cfg.c **** 		uint32 baseAddr = addr_table[i];
  67              		.loc 1 189 0
  68 0008 50F82760 		ldr	r6, [r0, r7, lsl #2]
  69              	.LVL4:
 190:Generated_Source\PSoC5/cyfitter_cfg.c **** 		uint8 count = (uint8)baseAddr;
  70              		.loc 1 190 0
  71 000c F3B2     		uxtb	r3, r6
  72              	.LVL5:
 191:Generated_Source\PSoC5/cyfitter_cfg.c **** 		baseAddr &= 0xFFFFFF00u;
  73              		.loc 1 191 0
  74 000e 26F0FF06 		bic	r6, r6, #255
  75              	.LVL6:
 192:Generated_Source\PSoC5/cyfitter_cfg.c **** 		while (count != 0u)
  76              		.loc 1 192 0
  77 0012 08E0     		b	.L5
  78              	.L6:
 193:Generated_Source\PSoC5/cyfitter_cfg.c **** 		{
 194:Generated_Source\PSoC5/cyfitter_cfg.c **** 			CY_SET_XTND_REG8((void CYFAR *)(baseAddr + data_table[j].offset), data_table[j].value);
  79              		.loc 1 194 0
  80 0014 01EB4205 		add	r5, r1, r2, lsl #1
  81 0018 11F81240 		ldrb	r4, [r1, r2, lsl #1]	@ zero_extendqisi2
  82 001c 6D78     		ldrb	r5, [r5, #1]	@ zero_extendqisi2
  83 001e A555     		strb	r5, [r4, r6]
 195:Generated_Source\PSoC5/cyfitter_cfg.c **** 			j++;
  84              		.loc 1 195 0
  85 0020 0132     		adds	r2, r2, #1
  86              	.LVL7:
 196:Generated_Source\PSoC5/cyfitter_cfg.c **** 			count--;
  87              		.loc 1 196 0
  88 0022 013B     		subs	r3, r3, #1
  89              	.LVL8:
ARM GAS  C:\Users\Bart\AppData\Local\Temp\ccfH3Kjw.s 			page 6


  90 0024 DBB2     		uxtb	r3, r3
  91              	.LVL9:
  92              	.L5:
 192:Generated_Source\PSoC5/cyfitter_cfg.c **** 		{
  93              		.loc 1 192 0
  94 0026 002B     		cmp	r3, #0
  95 0028 F4D1     		bne	.L6
  96              	.LBE2:
 187:Generated_Source\PSoC5/cyfitter_cfg.c **** 	{
  97              		.loc 1 187 0 discriminator 2
  98 002a 0137     		adds	r7, r7, #1
  99              	.LVL10:
 100              	.L4:
 187:Generated_Source\PSoC5/cyfitter_cfg.c **** 	{
 101              		.loc 1 187 0 is_stmt 0 discriminator 1
 102 002c 232F     		cmp	r7, #35
 103 002e EBD9     		bls	.L7
 197:Generated_Source\PSoC5/cyfitter_cfg.c **** 		}
 198:Generated_Source\PSoC5/cyfitter_cfg.c **** 	}
 199:Generated_Source\PSoC5/cyfitter_cfg.c **** }
 104              		.loc 1 199 0 is_stmt 1
 105 0030 F0BC     		pop	{r4, r5, r6, r7}
 106              		.cfi_restore 7
 107              		.cfi_restore 6
 108              		.cfi_restore 5
 109              		.cfi_restore 4
 110              		.cfi_def_cfa_offset 0
 111              	.LVL11:
 112 0032 7047     		bx	lr
 113              		.cfi_endproc
 114              	.LFE4:
 115              		.size	cfg_write_bytes32, .-cfg_write_bytes32
 116              		.section	.text.AnalogSetDefault,"ax",%progbits
 117              		.align	2
 118              		.thumb
 119              		.thumb_func
 120              		.type	AnalogSetDefault, %function
 121              	AnalogSetDefault:
 122              	.LFB6:
 200:Generated_Source\PSoC5/cyfitter_cfg.c **** 
 201:Generated_Source\PSoC5/cyfitter_cfg.c **** /*******************************************************************************
 202:Generated_Source\PSoC5/cyfitter_cfg.c **** * Function Name: ClockSetup
 203:Generated_Source\PSoC5/cyfitter_cfg.c **** ********************************************************************************
 204:Generated_Source\PSoC5/cyfitter_cfg.c **** *
 205:Generated_Source\PSoC5/cyfitter_cfg.c **** * Summary:
 206:Generated_Source\PSoC5/cyfitter_cfg.c **** *  Performs the initialization of all of the clocks in the device based on the
 207:Generated_Source\PSoC5/cyfitter_cfg.c **** *  settings in the Clock tab of the DWR.  This includes enabling the requested
 208:Generated_Source\PSoC5/cyfitter_cfg.c **** *  clocks and setting the necessary dividers to produce the desired frequency. 
 209:Generated_Source\PSoC5/cyfitter_cfg.c **** *
 210:Generated_Source\PSoC5/cyfitter_cfg.c **** * Parameters:
 211:Generated_Source\PSoC5/cyfitter_cfg.c **** *  void
 212:Generated_Source\PSoC5/cyfitter_cfg.c **** *
 213:Generated_Source\PSoC5/cyfitter_cfg.c **** * Return:
 214:Generated_Source\PSoC5/cyfitter_cfg.c **** *  void
 215:Generated_Source\PSoC5/cyfitter_cfg.c **** *
 216:Generated_Source\PSoC5/cyfitter_cfg.c **** *******************************************************************************/
 217:Generated_Source\PSoC5/cyfitter_cfg.c **** static void ClockSetup(void);
ARM GAS  C:\Users\Bart\AppData\Local\Temp\ccfH3Kjw.s 			page 7


 218:Generated_Source\PSoC5/cyfitter_cfg.c **** static void ClockSetup(void)
 219:Generated_Source\PSoC5/cyfitter_cfg.c **** {
 220:Generated_Source\PSoC5/cyfitter_cfg.c **** 	uint32 timeout;
 221:Generated_Source\PSoC5/cyfitter_cfg.c **** 	uint8 pllLock;
 222:Generated_Source\PSoC5/cyfitter_cfg.c **** 
 223:Generated_Source\PSoC5/cyfitter_cfg.c **** 
 224:Generated_Source\PSoC5/cyfitter_cfg.c **** 	/* Configure Digital Clocks based on settings from Clock DWR */
 225:Generated_Source\PSoC5/cyfitter_cfg.c **** 	CY_SET_XTND_REG16((void CYFAR *)(CYREG_CLKDIST_DCFG0_CFG0), 0x0013u);
 226:Generated_Source\PSoC5/cyfitter_cfg.c **** 	CY_SET_XTND_REG8((void CYFAR *)(CYREG_CLKDIST_DCFG0_CFG0 + 0x2u), 0x18u);
 227:Generated_Source\PSoC5/cyfitter_cfg.c **** 	CY_SET_XTND_REG16((void CYFAR *)(CYREG_CLKDIST_DCFG1_CFG0), 0x0019u);
 228:Generated_Source\PSoC5/cyfitter_cfg.c **** 	CY_SET_XTND_REG8((void CYFAR *)(CYREG_CLKDIST_DCFG1_CFG0 + 0x2u), 0x18u);
 229:Generated_Source\PSoC5/cyfitter_cfg.c **** 	CY_SET_XTND_REG16((void CYFAR *)(CYREG_CLKDIST_DCFG2_CFG0), 0x005Fu);
 230:Generated_Source\PSoC5/cyfitter_cfg.c **** 	CY_SET_XTND_REG8((void CYFAR *)(CYREG_CLKDIST_DCFG2_CFG0 + 0x2u), 0x18u);
 231:Generated_Source\PSoC5/cyfitter_cfg.c **** 	CY_SET_XTND_REG16((void CYFAR *)(CYREG_CLKDIST_DCFG3_CFG0), 0x0063u);
 232:Generated_Source\PSoC5/cyfitter_cfg.c **** 	CY_SET_XTND_REG8((void CYFAR *)(CYREG_CLKDIST_DCFG3_CFG0 + 0x2u), 0x1Bu);
 233:Generated_Source\PSoC5/cyfitter_cfg.c **** 	CY_SET_XTND_REG16((void CYFAR *)(CYREG_CLKDIST_DCFG4_CFG0), 0x0063u);
 234:Generated_Source\PSoC5/cyfitter_cfg.c **** 	CY_SET_XTND_REG8((void CYFAR *)(CYREG_CLKDIST_DCFG4_CFG0 + 0x2u), 0x1Bu);
 235:Generated_Source\PSoC5/cyfitter_cfg.c **** 	CY_SET_XTND_REG16((void CYFAR *)(CYREG_CLKDIST_DCFG5_CFG0), 0x007Cu);
 236:Generated_Source\PSoC5/cyfitter_cfg.c **** 	CY_SET_XTND_REG8((void CYFAR *)(CYREG_CLKDIST_DCFG5_CFG0 + 0x2u), 0x1Bu);
 237:Generated_Source\PSoC5/cyfitter_cfg.c **** 
 238:Generated_Source\PSoC5/cyfitter_cfg.c **** 	/* Configure ILO based on settings from Clock DWR */
 239:Generated_Source\PSoC5/cyfitter_cfg.c **** 	CY_SET_XTND_REG8((void CYFAR *)(CYREG_SLOWCLK_ILO_CR0), 0x02u);
 240:Generated_Source\PSoC5/cyfitter_cfg.c **** 	CY_SET_XTND_REG8((void CYFAR *)(CYREG_CLKDIST_CR), 0x08u);
 241:Generated_Source\PSoC5/cyfitter_cfg.c **** 
 242:Generated_Source\PSoC5/cyfitter_cfg.c **** 	/* Configure IMO based on settings from Clock DWR */
 243:Generated_Source\PSoC5/cyfitter_cfg.c **** 	CY_SET_XTND_REG8((void CYFAR *)(CYREG_FASTCLK_IMO_CR), 0x03u);
 244:Generated_Source\PSoC5/cyfitter_cfg.c **** 	CY_SET_XTND_REG8((void CYFAR *)(CYREG_IMO_TR1), (CY_GET_XTND_REG8((void CYFAR *)CYREG_FLSHID_CUST_
 245:Generated_Source\PSoC5/cyfitter_cfg.c **** 
 246:Generated_Source\PSoC5/cyfitter_cfg.c **** 	/* Configure PLL based on settings from Clock DWR */
 247:Generated_Source\PSoC5/cyfitter_cfg.c **** 	CY_SET_XTND_REG16((void CYFAR *)(CYREG_FASTCLK_PLL_P), 0x0008u);
 248:Generated_Source\PSoC5/cyfitter_cfg.c **** 	CY_SET_XTND_REG16((void CYFAR *)(CYREG_FASTCLK_PLL_CFG0), 0x1251u);
 249:Generated_Source\PSoC5/cyfitter_cfg.c **** 	/* Wait up to 250us for the PLL to lock */
 250:Generated_Source\PSoC5/cyfitter_cfg.c **** 	pllLock = 0u;
 251:Generated_Source\PSoC5/cyfitter_cfg.c **** 	for (timeout = 250u / 10u; (timeout > 0u) && (pllLock != 0x03u); timeout--)
 252:Generated_Source\PSoC5/cyfitter_cfg.c **** 	{ 
 253:Generated_Source\PSoC5/cyfitter_cfg.c **** 		pllLock = 0x03u & ((uint8)((uint8)pllLock << 1) | ((CY_GET_XTND_REG8((void CYFAR *)CYREG_FASTCLK_
 254:Generated_Source\PSoC5/cyfitter_cfg.c **** 		CyDelayCycles(10u * 48u); /* Delay 10us based on 48MHz clock */
 255:Generated_Source\PSoC5/cyfitter_cfg.c **** 	}
 256:Generated_Source\PSoC5/cyfitter_cfg.c **** 	/* If we ran out of time the PLL didn't lock so go to the error function */
 257:Generated_Source\PSoC5/cyfitter_cfg.c **** 	if (timeout == 0u)
 258:Generated_Source\PSoC5/cyfitter_cfg.c **** 	{
 259:Generated_Source\PSoC5/cyfitter_cfg.c **** 		CyClockStartupError(CYCLOCKSTART_PLL_ERROR);
 260:Generated_Source\PSoC5/cyfitter_cfg.c **** 	}
 261:Generated_Source\PSoC5/cyfitter_cfg.c **** 
 262:Generated_Source\PSoC5/cyfitter_cfg.c **** 	/* Configure Bus/Master Clock based on settings from Clock DWR */
 263:Generated_Source\PSoC5/cyfitter_cfg.c **** 	CY_SET_XTND_REG16((void CYFAR *)(CYREG_CLKDIST_MSTR0), 0x0100u);
 264:Generated_Source\PSoC5/cyfitter_cfg.c **** 	CY_SET_XTND_REG8((void CYFAR *)(CYREG_CLKDIST_MSTR0), 0x07u);
 265:Generated_Source\PSoC5/cyfitter_cfg.c **** 	CY_SET_XTND_REG8((void CYFAR *)(CYREG_CLKDIST_BCFG0), 0x00u);
 266:Generated_Source\PSoC5/cyfitter_cfg.c **** 	CY_SET_XTND_REG8((void CYFAR *)(CYREG_CLKDIST_BCFG2), 0x48u);
 267:Generated_Source\PSoC5/cyfitter_cfg.c **** 	CY_SET_XTND_REG8((void CYFAR *)(CYREG_CLKDIST_MSTR0), 0x00u);
 268:Generated_Source\PSoC5/cyfitter_cfg.c **** 	CY_SET_XTND_REG8((void CYFAR *)(CYREG_CLKDIST_LD), 0x02u);
 269:Generated_Source\PSoC5/cyfitter_cfg.c **** 
 270:Generated_Source\PSoC5/cyfitter_cfg.c **** 	CY_SET_XTND_REG8((void CYFAR *)(CYREG_PM_ACT_CFG2), ((CY_GET_XTND_REG8((void CYFAR *)CYREG_PM_ACT_
 271:Generated_Source\PSoC5/cyfitter_cfg.c **** }
 272:Generated_Source\PSoC5/cyfitter_cfg.c **** 
 273:Generated_Source\PSoC5/cyfitter_cfg.c **** 
 274:Generated_Source\PSoC5/cyfitter_cfg.c **** /* Analog API Functions */
ARM GAS  C:\Users\Bart\AppData\Local\Temp\ccfH3Kjw.s 			page 8


 275:Generated_Source\PSoC5/cyfitter_cfg.c **** 
 276:Generated_Source\PSoC5/cyfitter_cfg.c **** 
 277:Generated_Source\PSoC5/cyfitter_cfg.c **** /*******************************************************************************
 278:Generated_Source\PSoC5/cyfitter_cfg.c **** * Function Name: AnalogSetDefault
 279:Generated_Source\PSoC5/cyfitter_cfg.c **** ********************************************************************************
 280:Generated_Source\PSoC5/cyfitter_cfg.c **** *
 281:Generated_Source\PSoC5/cyfitter_cfg.c **** * Summary:
 282:Generated_Source\PSoC5/cyfitter_cfg.c **** *  Sets up the analog portions of the chip to default values based on chip
 283:Generated_Source\PSoC5/cyfitter_cfg.c **** *  configuration options from the project.
 284:Generated_Source\PSoC5/cyfitter_cfg.c **** *
 285:Generated_Source\PSoC5/cyfitter_cfg.c **** * Parameters:
 286:Generated_Source\PSoC5/cyfitter_cfg.c **** *  void
 287:Generated_Source\PSoC5/cyfitter_cfg.c **** *
 288:Generated_Source\PSoC5/cyfitter_cfg.c **** * Return:
 289:Generated_Source\PSoC5/cyfitter_cfg.c **** *  void
 290:Generated_Source\PSoC5/cyfitter_cfg.c **** *
 291:Generated_Source\PSoC5/cyfitter_cfg.c **** *******************************************************************************/
 292:Generated_Source\PSoC5/cyfitter_cfg.c **** static void AnalogSetDefault(void);
 293:Generated_Source\PSoC5/cyfitter_cfg.c **** static void AnalogSetDefault(void)
 294:Generated_Source\PSoC5/cyfitter_cfg.c **** {
 123              		.loc 1 294 0
 124              		.cfi_startproc
 125              		@ args = 0, pretend = 0, frame = 0
 126              		@ frame_needed = 0, uses_anonymous_args = 0
 127              		@ link register save eliminated.
 295:Generated_Source\PSoC5/cyfitter_cfg.c **** 	uint8 bg_xover_inl_trim = CY_GET_XTND_REG8((void CYFAR *)(CYREG_FLSHID_MFG_CFG_BG_XOVER_INL_TRIM +
 128              		.loc 1 295 0
 129 0000 064B     		ldr	r3, .L10
 130 0002 1B78     		ldrb	r3, [r3]	@ zero_extendqisi2
 131 0004 DBB2     		uxtb	r3, r3
 132              	.LVL12:
 296:Generated_Source\PSoC5/cyfitter_cfg.c **** 	CY_SET_XTND_REG8((void CYFAR *)(CYREG_BG_DFT0), (bg_xover_inl_trim & 0x07u));
 133              		.loc 1 296 0
 134 0006 03F00701 		and	r1, r3, #7
 135 000a 054A     		ldr	r2, .L10+4
 136 000c 1170     		strb	r1, [r2]
 297:Generated_Source\PSoC5/cyfitter_cfg.c **** 	CY_SET_XTND_REG8((void CYFAR *)(CYREG_BG_DFT1), ((bg_xover_inl_trim >> 4) & 0x0Fu));
 137              		.loc 1 297 0
 138 000e 1B09     		lsrs	r3, r3, #4
 139              	.LVL13:
 140 0010 0132     		adds	r2, r2, #1
 141 0012 1370     		strb	r3, [r2]
 298:Generated_Source\PSoC5/cyfitter_cfg.c **** 	CY_SET_XTND_REG8((void CYFAR *)CYREG_PUMP_CR0, 0x44u);
 142              		.loc 1 298 0
 143 0014 4422     		movs	r2, #68
 144 0016 034B     		ldr	r3, .L10+8
 145 0018 1A70     		strb	r2, [r3]
 146 001a 7047     		bx	lr
 147              	.L11:
 148              		.align	2
 149              	.L10:
 150 001c CF010049 		.word	1224737231
 151 0020 6E580040 		.word	1073764462
 152 0024 76580040 		.word	1073764470
 153              		.cfi_endproc
 154              	.LFE6:
 155              		.size	AnalogSetDefault, .-AnalogSetDefault
ARM GAS  C:\Users\Bart\AppData\Local\Temp\ccfH3Kjw.s 			page 9


 156              		.section	.text.CYMEMZERO,"ax",%progbits
 157              		.align	2
 158              		.thumb
 159              		.thumb_func
 160              		.type	CYMEMZERO, %function
 161              	CYMEMZERO:
 162              	.LFB0:
  64:Generated_Source\PSoC5/cyfitter_cfg.c **** 	(void)memset(s, 0, n);
 163              		.loc 1 64 0
 164              		.cfi_startproc
 165              		@ args = 0, pretend = 0, frame = 0
 166              		@ frame_needed = 0, uses_anonymous_args = 0
 167              	.LVL14:
 168 0000 08B5     		push	{r3, lr}
 169              		.cfi_def_cfa_offset 8
 170              		.cfi_offset 3, -8
 171              		.cfi_offset 14, -4
 172 0002 0A46     		mov	r2, r1
  65:Generated_Source\PSoC5/cyfitter_cfg.c **** }
 173              		.loc 1 65 0
 174 0004 0021     		movs	r1, #0
 175              	.LVL15:
 176 0006 FFF7FEFF 		bl	memset
 177              	.LVL16:
 178 000a 08BD     		pop	{r3, pc}
 179              		.cfi_endproc
 180              	.LFE0:
 181              		.size	CYMEMZERO, .-CYMEMZERO
 182              		.section	.text.ClockSetup,"ax",%progbits
 183              		.align	2
 184              		.thumb
 185              		.thumb_func
 186              		.type	ClockSetup, %function
 187              	ClockSetup:
 188              	.LFB5:
 219:Generated_Source\PSoC5/cyfitter_cfg.c **** 	uint32 timeout;
 189              		.loc 1 219 0
 190              		.cfi_startproc
 191              		@ args = 0, pretend = 0, frame = 0
 192              		@ frame_needed = 0, uses_anonymous_args = 0
 193 0000 38B5     		push	{r3, r4, r5, lr}
 194              		.cfi_def_cfa_offset 16
 195              		.cfi_offset 3, -16
 196              		.cfi_offset 4, -12
 197              		.cfi_offset 5, -8
 198              		.cfi_offset 14, -4
 225:Generated_Source\PSoC5/cyfitter_cfg.c **** 	CY_SET_XTND_REG8((void CYFAR *)(CYREG_CLKDIST_DCFG0_CFG0 + 0x2u), 0x18u);
 199              		.loc 1 225 0
 200 0002 1322     		movs	r2, #19
 201 0004 2F4B     		ldr	r3, .L20
 202 0006 1A80     		strh	r2, [r3]	@ movhi
 226:Generated_Source\PSoC5/cyfitter_cfg.c **** 	CY_SET_XTND_REG16((void CYFAR *)(CYREG_CLKDIST_DCFG1_CFG0), 0x0019u);
 203              		.loc 1 226 0
 204 0008 1823     		movs	r3, #24
 205 000a 2F4A     		ldr	r2, .L20+4
 206 000c 1370     		strb	r3, [r2]
 227:Generated_Source\PSoC5/cyfitter_cfg.c **** 	CY_SET_XTND_REG8((void CYFAR *)(CYREG_CLKDIST_DCFG1_CFG0 + 0x2u), 0x18u);
ARM GAS  C:\Users\Bart\AppData\Local\Temp\ccfH3Kjw.s 			page 10


 207              		.loc 1 227 0
 208 000e 1925     		movs	r5, #25
 209 0010 0232     		adds	r2, r2, #2
 210 0012 1580     		strh	r5, [r2]	@ movhi
 228:Generated_Source\PSoC5/cyfitter_cfg.c **** 	CY_SET_XTND_REG16((void CYFAR *)(CYREG_CLKDIST_DCFG2_CFG0), 0x005Fu);
 211              		.loc 1 228 0
 212 0014 0232     		adds	r2, r2, #2
 213 0016 1370     		strb	r3, [r2]
 229:Generated_Source\PSoC5/cyfitter_cfg.c **** 	CY_SET_XTND_REG8((void CYFAR *)(CYREG_CLKDIST_DCFG2_CFG0 + 0x2u), 0x18u);
 214              		.loc 1 229 0
 215 0018 5F21     		movs	r1, #95
 216 001a 0232     		adds	r2, r2, #2
 217 001c 1180     		strh	r1, [r2]	@ movhi
 230:Generated_Source\PSoC5/cyfitter_cfg.c **** 	CY_SET_XTND_REG16((void CYFAR *)(CYREG_CLKDIST_DCFG3_CFG0), 0x0063u);
 218              		.loc 1 230 0
 219 001e 0232     		adds	r2, r2, #2
 220 0020 1370     		strb	r3, [r2]
 231:Generated_Source\PSoC5/cyfitter_cfg.c **** 	CY_SET_XTND_REG8((void CYFAR *)(CYREG_CLKDIST_DCFG3_CFG0 + 0x2u), 0x1Bu);
 221              		.loc 1 231 0
 222 0022 6322     		movs	r2, #99
 223 0024 294B     		ldr	r3, .L20+8
 224 0026 1A80     		strh	r2, [r3]	@ movhi
 232:Generated_Source\PSoC5/cyfitter_cfg.c **** 	CY_SET_XTND_REG16((void CYFAR *)(CYREG_CLKDIST_DCFG4_CFG0), 0x0063u);
 225              		.loc 1 232 0
 226 0028 1B23     		movs	r3, #27
 227 002a 2949     		ldr	r1, .L20+12
 228 002c 0B70     		strb	r3, [r1]
 233:Generated_Source\PSoC5/cyfitter_cfg.c **** 	CY_SET_XTND_REG8((void CYFAR *)(CYREG_CLKDIST_DCFG4_CFG0 + 0x2u), 0x1Bu);
 229              		.loc 1 233 0
 230 002e 0231     		adds	r1, r1, #2
 231 0030 0A80     		strh	r2, [r1]	@ movhi
 234:Generated_Source\PSoC5/cyfitter_cfg.c **** 	CY_SET_XTND_REG16((void CYFAR *)(CYREG_CLKDIST_DCFG5_CFG0), 0x007Cu);
 232              		.loc 1 234 0
 233 0032 284A     		ldr	r2, .L20+16
 234 0034 1370     		strb	r3, [r2]
 235:Generated_Source\PSoC5/cyfitter_cfg.c **** 	CY_SET_XTND_REG8((void CYFAR *)(CYREG_CLKDIST_DCFG5_CFG0 + 0x2u), 0x1Bu);
 235              		.loc 1 235 0
 236 0036 7C21     		movs	r1, #124
 237 0038 0232     		adds	r2, r2, #2
 238 003a 1180     		strh	r1, [r2]	@ movhi
 236:Generated_Source\PSoC5/cyfitter_cfg.c **** 
 239              		.loc 1 236 0
 240 003c 0232     		adds	r2, r2, #2
 241 003e 1370     		strb	r3, [r2]
 239:Generated_Source\PSoC5/cyfitter_cfg.c **** 	CY_SET_XTND_REG8((void CYFAR *)(CYREG_CLKDIST_CR), 0x08u);
 242              		.loc 1 239 0
 243 0040 0222     		movs	r2, #2
 244 0042 254B     		ldr	r3, .L20+20
 245 0044 1A70     		strb	r2, [r3]
 240:Generated_Source\PSoC5/cyfitter_cfg.c **** 
 246              		.loc 1 240 0
 247 0046 0822     		movs	r2, #8
 248 0048 4FF04023 		mov	r3, #1073758208
 249 004c 1A70     		strb	r2, [r3]
 243:Generated_Source\PSoC5/cyfitter_cfg.c **** 	CY_SET_XTND_REG8((void CYFAR *)(CYREG_IMO_TR1), (CY_GET_XTND_REG8((void CYFAR *)CYREG_FLSHID_CUST_
 250              		.loc 1 243 0
 251 004e 0321     		movs	r1, #3
ARM GAS  C:\Users\Bart\AppData\Local\Temp\ccfH3Kjw.s 			page 11


 252 0050 03F50073 		add	r3, r3, #512
 253 0054 1970     		strb	r1, [r3]
 244:Generated_Source\PSoC5/cyfitter_cfg.c **** 
 254              		.loc 1 244 0
 255 0056 214B     		ldr	r3, .L20+24
 256 0058 1B78     		ldrb	r3, [r3]	@ zero_extendqisi2
 257 005a DBB2     		uxtb	r3, r3
 258 005c 2049     		ldr	r1, .L20+28
 259 005e 0B70     		strb	r3, [r1]
 247:Generated_Source\PSoC5/cyfitter_cfg.c **** 	CY_SET_XTND_REG16((void CYFAR *)(CYREG_FASTCLK_PLL_CFG0), 0x1251u);
 260              		.loc 1 247 0
 261 0060 204B     		ldr	r3, .L20+32
 262 0062 1A80     		strh	r2, [r3]	@ movhi
 248:Generated_Source\PSoC5/cyfitter_cfg.c **** 	/* Wait up to 250us for the PLL to lock */
 263              		.loc 1 248 0
 264 0064 41F25122 		movw	r2, #4689
 265 0068 023B     		subs	r3, r3, #2
 266 006a 1A80     		strh	r2, [r3]	@ movhi
 267              	.LVL17:
 250:Generated_Source\PSoC5/cyfitter_cfg.c **** 	for (timeout = 250u / 10u; (timeout > 0u) && (pllLock != 0x03u); timeout--)
 268              		.loc 1 250 0
 269 006c 0024     		movs	r4, #0
 251:Generated_Source\PSoC5/cyfitter_cfg.c **** 	{ 
 270              		.loc 1 251 0
 271 006e 0CE0     		b	.L15
 272              	.LVL18:
 273              	.L17:
 253:Generated_Source\PSoC5/cyfitter_cfg.c **** 		CyDelayCycles(10u * 48u); /* Delay 10us based on 48MHz clock */
 274              		.loc 1 253 0 discriminator 4
 275 0070 1D4B     		ldr	r3, .L20+36
 276 0072 1B78     		ldrb	r3, [r3]	@ zero_extendqisi2
 277 0074 03F00103 		and	r3, r3, #1
 278 0078 43EA4404 		orr	r4, r3, r4, lsl #1
 279              	.LVL19:
 280 007c 04F00304 		and	r4, r4, #3
 281              	.LVL20:
 254:Generated_Source\PSoC5/cyfitter_cfg.c **** 	}
 282              		.loc 1 254 0 discriminator 4
 283 0080 4FF4F070 		mov	r0, #480
 284 0084 FFF7FEFF 		bl	CyDelayCycles
 285              	.LVL21:
 251:Generated_Source\PSoC5/cyfitter_cfg.c **** 	{ 
 286              		.loc 1 251 0 discriminator 4
 287 0088 013D     		subs	r5, r5, #1
 288              	.LVL22:
 289              	.L15:
 251:Generated_Source\PSoC5/cyfitter_cfg.c **** 	{ 
 290              		.loc 1 251 0 is_stmt 0 discriminator 1
 291 008a 0DB1     		cbz	r5, .L16
 251:Generated_Source\PSoC5/cyfitter_cfg.c **** 	{ 
 292              		.loc 1 251 0 discriminator 3
 293 008c 032C     		cmp	r4, #3
 294 008e EFD1     		bne	.L17
 295              	.L16:
 257:Generated_Source\PSoC5/cyfitter_cfg.c **** 	{
 296              		.loc 1 257 0 is_stmt 1
 297 0090 15B9     		cbnz	r5, .L18
ARM GAS  C:\Users\Bart\AppData\Local\Temp\ccfH3Kjw.s 			page 12


 259:Generated_Source\PSoC5/cyfitter_cfg.c **** 	}
 298              		.loc 1 259 0
 299 0092 0320     		movs	r0, #3
 300 0094 FFF7FEFF 		bl	CyClockStartupError
 301              	.LVL23:
 302              	.L18:
 263:Generated_Source\PSoC5/cyfitter_cfg.c **** 	CY_SET_XTND_REG8((void CYFAR *)(CYREG_CLKDIST_MSTR0), 0x07u);
 303              		.loc 1 263 0
 304 0098 144B     		ldr	r3, .L20+40
 305 009a 4FF48072 		mov	r2, #256
 306 009e 1A80     		strh	r2, [r3]	@ movhi
 264:Generated_Source\PSoC5/cyfitter_cfg.c **** 	CY_SET_XTND_REG8((void CYFAR *)(CYREG_CLKDIST_BCFG0), 0x00u);
 307              		.loc 1 264 0
 308 00a0 0722     		movs	r2, #7
 309 00a2 1A70     		strb	r2, [r3]
 265:Generated_Source\PSoC5/cyfitter_cfg.c **** 	CY_SET_XTND_REG8((void CYFAR *)(CYREG_CLKDIST_BCFG2), 0x48u);
 310              		.loc 1 265 0
 311 00a4 0022     		movs	r2, #0
 312 00a6 1249     		ldr	r1, .L20+44
 313 00a8 0A70     		strb	r2, [r1]
 266:Generated_Source\PSoC5/cyfitter_cfg.c **** 	CY_SET_XTND_REG8((void CYFAR *)(CYREG_CLKDIST_MSTR0), 0x00u);
 314              		.loc 1 266 0
 315 00aa 4820     		movs	r0, #72
 316 00ac 0231     		adds	r1, r1, #2
 317 00ae 0870     		strb	r0, [r1]
 267:Generated_Source\PSoC5/cyfitter_cfg.c **** 	CY_SET_XTND_REG8((void CYFAR *)(CYREG_CLKDIST_LD), 0x02u);
 318              		.loc 1 267 0
 319 00b0 1A70     		strb	r2, [r3]
 268:Generated_Source\PSoC5/cyfitter_cfg.c **** 
 320              		.loc 1 268 0
 321 00b2 0222     		movs	r2, #2
 322 00b4 033B     		subs	r3, r3, #3
 323 00b6 1A70     		strb	r2, [r3]
 270:Generated_Source\PSoC5/cyfitter_cfg.c **** }
 324              		.loc 1 270 0
 325 00b8 0E4A     		ldr	r2, .L20+48
 326 00ba 1378     		ldrb	r3, [r2]	@ zero_extendqisi2
 327 00bc 43F03F03 		orr	r3, r3, #63
 328 00c0 1370     		strb	r3, [r2]
 329 00c2 38BD     		pop	{r3, r4, r5, pc}
 330              	.LVL24:
 331              	.L21:
 332              		.align	2
 333              	.L20:
 334 00c4 80400040 		.word	1073758336
 335 00c8 82400040 		.word	1073758338
 336 00cc 8C400040 		.word	1073758348
 337 00d0 8E400040 		.word	1073758350
 338 00d4 92400040 		.word	1073758354
 339 00d8 00430040 		.word	1073758976
 340 00dc 08010049 		.word	1224737032
 341 00e0 A1460040 		.word	1073759905
 342 00e4 22420040 		.word	1073758754
 343 00e8 25420040 		.word	1073758757
 344 00ec 04400040 		.word	1073758212
 345 00f0 06400040 		.word	1073758214
 346 00f4 A2430040 		.word	1073759138
ARM GAS  C:\Users\Bart\AppData\Local\Temp\ccfH3Kjw.s 			page 13


 347              		.cfi_endproc
 348              	.LFE5:
 349              		.size	ClockSetup, .-ClockSetup
 350              		.section	.text.CYCONFIGCPY,"ax",%progbits
 351              		.align	2
 352              		.thumb
 353              		.thumb_func
 354              		.type	CYCONFIGCPY, %function
 355              	CYCONFIGCPY:
 356              	.LFB1:
  71:Generated_Source\PSoC5/cyfitter_cfg.c **** 	(void)memcpy(dest, src, n);
 357              		.loc 1 71 0
 358              		.cfi_startproc
 359              		@ args = 0, pretend = 0, frame = 0
 360              		@ frame_needed = 0, uses_anonymous_args = 0
 361              	.LVL25:
 362 0000 08B5     		push	{r3, lr}
 363              		.cfi_def_cfa_offset 8
 364              		.cfi_offset 3, -8
 365              		.cfi_offset 14, -4
  72:Generated_Source\PSoC5/cyfitter_cfg.c **** }
 366              		.loc 1 72 0
 367 0002 FFF7FEFF 		bl	memcpy
 368              	.LVL26:
 369 0006 08BD     		pop	{r3, pc}
 370              		.cfi_endproc
 371              	.LFE1:
 372              		.size	CYCONFIGCPY, .-CYCONFIGCPY
 373              		.section	.text.SetAnalogRoutingPumps,"ax",%progbits
 374              		.align	2
 375              		.global	SetAnalogRoutingPumps
 376              		.thumb
 377              		.thumb_func
 378              		.type	SetAnalogRoutingPumps, %function
 379              	SetAnalogRoutingPumps:
 380              	.LFB7:
 299:Generated_Source\PSoC5/cyfitter_cfg.c **** }
 300:Generated_Source\PSoC5/cyfitter_cfg.c **** 
 301:Generated_Source\PSoC5/cyfitter_cfg.c **** 
 302:Generated_Source\PSoC5/cyfitter_cfg.c **** /*******************************************************************************
 303:Generated_Source\PSoC5/cyfitter_cfg.c **** * Function Name: SetAnalogRoutingPumps
 304:Generated_Source\PSoC5/cyfitter_cfg.c **** ********************************************************************************
 305:Generated_Source\PSoC5/cyfitter_cfg.c **** *
 306:Generated_Source\PSoC5/cyfitter_cfg.c **** * Summary:
 307:Generated_Source\PSoC5/cyfitter_cfg.c **** * Enables or disables the analog pumps feeding analog routing switches.
 308:Generated_Source\PSoC5/cyfitter_cfg.c **** * Intended to be called at startup, based on the Vdda system configuration;
 309:Generated_Source\PSoC5/cyfitter_cfg.c **** * may be called during operation when the user informs us that the Vdda voltage
 310:Generated_Source\PSoC5/cyfitter_cfg.c **** * crossed the pump threshold.
 311:Generated_Source\PSoC5/cyfitter_cfg.c **** *
 312:Generated_Source\PSoC5/cyfitter_cfg.c **** * Parameters:
 313:Generated_Source\PSoC5/cyfitter_cfg.c **** *  enabled - 1 to enable the pumps, 0 to disable the pumps
 314:Generated_Source\PSoC5/cyfitter_cfg.c **** *
 315:Generated_Source\PSoC5/cyfitter_cfg.c **** * Return:
 316:Generated_Source\PSoC5/cyfitter_cfg.c **** *  void
 317:Generated_Source\PSoC5/cyfitter_cfg.c **** *
 318:Generated_Source\PSoC5/cyfitter_cfg.c **** *******************************************************************************/
 319:Generated_Source\PSoC5/cyfitter_cfg.c **** void SetAnalogRoutingPumps(uint8 enabled)
ARM GAS  C:\Users\Bart\AppData\Local\Temp\ccfH3Kjw.s 			page 14


 320:Generated_Source\PSoC5/cyfitter_cfg.c **** {
 381              		.loc 1 320 0
 382              		.cfi_startproc
 383              		@ args = 0, pretend = 0, frame = 0
 384              		@ frame_needed = 0, uses_anonymous_args = 0
 385              		@ link register save eliminated.
 386              	.LVL27:
 321:Generated_Source\PSoC5/cyfitter_cfg.c **** 	uint8 regValue = CY_GET_XTND_REG8((void CYFAR *)CYREG_PUMP_CR0);
 387              		.loc 1 321 0
 388 0000 024A     		ldr	r2, .L25
 389 0002 1378     		ldrb	r3, [r2]	@ zero_extendqisi2
 390 0004 DBB2     		uxtb	r3, r3
 391              	.LVL28:
 322:Generated_Source\PSoC5/cyfitter_cfg.c **** 	if (enabled != 0u)
 323:Generated_Source\PSoC5/cyfitter_cfg.c **** 	{
 324:Generated_Source\PSoC5/cyfitter_cfg.c **** 		regValue |= 0x00u;
 325:Generated_Source\PSoC5/cyfitter_cfg.c **** 	}
 326:Generated_Source\PSoC5/cyfitter_cfg.c **** 	else
 327:Generated_Source\PSoC5/cyfitter_cfg.c **** 	{
 328:Generated_Source\PSoC5/cyfitter_cfg.c **** 		regValue &= (uint8)~0x00u;
 329:Generated_Source\PSoC5/cyfitter_cfg.c **** 	}
 330:Generated_Source\PSoC5/cyfitter_cfg.c **** 	CY_SET_XTND_REG8((void CYFAR *)CYREG_PUMP_CR0, regValue);
 392              		.loc 1 330 0
 393 0006 1370     		strb	r3, [r2]
 394 0008 7047     		bx	lr
 395              	.L26:
 396 000a 00BF     		.align	2
 397              	.L25:
 398 000c 76580040 		.word	1073764470
 399              		.cfi_endproc
 400              	.LFE7:
 401              		.size	SetAnalogRoutingPumps, .-SetAnalogRoutingPumps
 402              		.section	.text.cyfitter_cfg,"ax",%progbits
 403              		.align	2
 404              		.global	cyfitter_cfg
 405              		.thumb
 406              		.thumb_func
 407              		.type	cyfitter_cfg, %function
 408              	cyfitter_cfg:
 409              	.LFB8:
 331:Generated_Source\PSoC5/cyfitter_cfg.c **** }
 332:Generated_Source\PSoC5/cyfitter_cfg.c **** 
 333:Generated_Source\PSoC5/cyfitter_cfg.c **** #define CY_AMUX_UNUSED CYREG_BOOST_SR
 334:Generated_Source\PSoC5/cyfitter_cfg.c **** 
 335:Generated_Source\PSoC5/cyfitter_cfg.c **** 
 336:Generated_Source\PSoC5/cyfitter_cfg.c **** /*******************************************************************************
 337:Generated_Source\PSoC5/cyfitter_cfg.c **** * Function Name: cyfitter_cfg
 338:Generated_Source\PSoC5/cyfitter_cfg.c **** ********************************************************************************
 339:Generated_Source\PSoC5/cyfitter_cfg.c **** * Summary:
 340:Generated_Source\PSoC5/cyfitter_cfg.c **** *  This function is called by the start-up code for the selected device. It
 341:Generated_Source\PSoC5/cyfitter_cfg.c **** *  performs all of the necessary device configuration based on the design
 342:Generated_Source\PSoC5/cyfitter_cfg.c **** *  settings.  This includes settings from the Design Wide Resources (DWR) such
 343:Generated_Source\PSoC5/cyfitter_cfg.c **** *  as Clocks and Pins as well as any component configuration that is necessary.
 344:Generated_Source\PSoC5/cyfitter_cfg.c **** *
 345:Generated_Source\PSoC5/cyfitter_cfg.c **** * Parameters:  
 346:Generated_Source\PSoC5/cyfitter_cfg.c **** *   void
 347:Generated_Source\PSoC5/cyfitter_cfg.c **** *
ARM GAS  C:\Users\Bart\AppData\Local\Temp\ccfH3Kjw.s 			page 15


 348:Generated_Source\PSoC5/cyfitter_cfg.c **** * Return:
 349:Generated_Source\PSoC5/cyfitter_cfg.c **** *   void
 350:Generated_Source\PSoC5/cyfitter_cfg.c **** *
 351:Generated_Source\PSoC5/cyfitter_cfg.c **** *******************************************************************************/
 352:Generated_Source\PSoC5/cyfitter_cfg.c **** 
 353:Generated_Source\PSoC5/cyfitter_cfg.c **** void cyfitter_cfg(void)
 354:Generated_Source\PSoC5/cyfitter_cfg.c **** {
 410              		.loc 1 354 0
 411              		.cfi_startproc
 412              		@ args = 0, pretend = 0, frame = 0
 413              		@ frame_needed = 0, uses_anonymous_args = 0
 414 0000 38B5     		push	{r3, r4, r5, lr}
 415              		.cfi_def_cfa_offset 16
 416              		.cfi_offset 3, -16
 417              		.cfi_offset 4, -12
 418              		.cfi_offset 5, -8
 419              		.cfi_offset 14, -4
 355:Generated_Source\PSoC5/cyfitter_cfg.c **** #ifdef CYGlobalIntDisable
 356:Generated_Source\PSoC5/cyfitter_cfg.c **** 	/* Disable interrupts by default. Let user enable if/when they want. */
 357:Generated_Source\PSoC5/cyfitter_cfg.c **** 	CYGlobalIntDisable
 420              		.loc 1 357 0
 421              	@ 357 "Generated_Source\PSoC5\cyfitter_cfg.c" 1
 422 0002 72B6     		CPSID   i
 423              	@ 0 "" 2
 358:Generated_Source\PSoC5/cyfitter_cfg.c **** #endif
 359:Generated_Source\PSoC5/cyfitter_cfg.c **** 
 360:Generated_Source\PSoC5/cyfitter_cfg.c **** 	/* Enable/Disable Debug functionality based on settings from System DWR */
 361:Generated_Source\PSoC5/cyfitter_cfg.c **** 	CY_SET_XTND_REG8((void CYFAR *)CYREG_MLOGIC_DEBUG, (CY_GET_XTND_REG8((void CYFAR *)CYREG_MLOGIC_DE
 424              		.loc 1 361 0
 425              		.thumb
 426 0004 344A     		ldr	r2, .L31
 427 0006 1378     		ldrb	r3, [r2]	@ zero_extendqisi2
 428 0008 43F00403 		orr	r3, r3, #4
 429 000c 1370     		strb	r3, [r2]
 430              	.LVL29:
 431              	.LBB3:
 362:Generated_Source\PSoC5/cyfitter_cfg.c **** 
 363:Generated_Source\PSoC5/cyfitter_cfg.c **** 	{
 364:Generated_Source\PSoC5/cyfitter_cfg.c **** 
 365:Generated_Source\PSoC5/cyfitter_cfg.c **** 		CYPACKED typedef struct {
 366:Generated_Source\PSoC5/cyfitter_cfg.c **** 			void CYFAR *address;
 367:Generated_Source\PSoC5/cyfitter_cfg.c **** 			uint16 size;
 368:Generated_Source\PSoC5/cyfitter_cfg.c **** 		} CYPACKED_ATTR cfg_memset_t;
 369:Generated_Source\PSoC5/cyfitter_cfg.c **** 
 370:Generated_Source\PSoC5/cyfitter_cfg.c **** 		static const cfg_memset_t CYCODE cfg_memset_list [] = {
 371:Generated_Source\PSoC5/cyfitter_cfg.c **** 			/* address, size */
 372:Generated_Source\PSoC5/cyfitter_cfg.c **** 			{(void CYFAR *)(CYREG_TMR0_CFG0), 24u},
 373:Generated_Source\PSoC5/cyfitter_cfg.c **** 			{(void CYFAR *)(CYREG_PRT4_DR), 48u},
 374:Generated_Source\PSoC5/cyfitter_cfg.c **** 			{(void CYFAR *)(CYDEV_UCFG_B0_P0_U0_BASE), 4096u},
 375:Generated_Source\PSoC5/cyfitter_cfg.c **** 			{(void CYFAR *)(CYDEV_UCFG_B1_P2_U0_BASE), 2048u},
 376:Generated_Source\PSoC5/cyfitter_cfg.c **** 			{(void CYFAR *)(CYDEV_UCFG_DSI0_BASE), 2560u},
 377:Generated_Source\PSoC5/cyfitter_cfg.c **** 			{(void CYFAR *)(CYDEV_UCFG_DSI12_BASE), 512u},
 378:Generated_Source\PSoC5/cyfitter_cfg.c **** 			{(void CYFAR *)(CYREG_BCTL0_MDCLK_EN), 32u},
 379:Generated_Source\PSoC5/cyfitter_cfg.c **** 		};
 380:Generated_Source\PSoC5/cyfitter_cfg.c **** 
 381:Generated_Source\PSoC5/cyfitter_cfg.c **** 		uint8 CYDATA i;
 382:Generated_Source\PSoC5/cyfitter_cfg.c **** 
ARM GAS  C:\Users\Bart\AppData\Local\Temp\ccfH3Kjw.s 			page 16


 383:Generated_Source\PSoC5/cyfitter_cfg.c **** 		/* Zero out critical memory blocks before beginning configuration */
 384:Generated_Source\PSoC5/cyfitter_cfg.c **** 		for (i = 0u; i < (sizeof(cfg_memset_list)/sizeof(cfg_memset_list[0])); i++)
 432              		.loc 1 384 0
 433 000e 0024     		movs	r4, #0
 434 0010 0CE0     		b	.L28
 435              	.LVL30:
 436              	.L29:
 437              	.LBB4:
 385:Generated_Source\PSoC5/cyfitter_cfg.c **** 		{
 386:Generated_Source\PSoC5/cyfitter_cfg.c **** 			const cfg_memset_t CYCODE * CYDATA ms = &cfg_memset_list[i];
 387:Generated_Source\PSoC5/cyfitter_cfg.c **** 			CYMEMZERO(ms->address, (size_t)(uint32)(ms->size));
 438              		.loc 1 387 0 discriminator 3
 439 0012 3249     		ldr	r1, .L31+4
 440 0014 6300     		lsls	r3, r4, #1
 441 0016 1A19     		adds	r2, r3, r4
 442 0018 5200     		lsls	r2, r2, #1
 443 001a 0A44     		add	r2, r2, r1
 444 001c 2344     		add	r3, r3, r4
 445 001e 5B00     		lsls	r3, r3, #1
 446 0020 C858     		ldr	r0, [r1, r3]	@ unaligned
 447 0022 9188     		ldrh	r1, [r2, #4]
 448 0024 FFF7FEFF 		bl	CYMEMZERO
 449              	.LVL31:
 450              	.LBE4:
 384:Generated_Source\PSoC5/cyfitter_cfg.c **** 		{
 451              		.loc 1 384 0 discriminator 3
 452 0028 0134     		adds	r4, r4, #1
 453              	.LVL32:
 454 002a E4B2     		uxtb	r4, r4
 455              	.LVL33:
 456              	.L28:
 384:Generated_Source\PSoC5/cyfitter_cfg.c **** 		{
 457              		.loc 1 384 0 is_stmt 0 discriminator 1
 458 002c 062C     		cmp	r4, #6
 459 002e F0D9     		bls	.L29
 388:Generated_Source\PSoC5/cyfitter_cfg.c **** 		}
 389:Generated_Source\PSoC5/cyfitter_cfg.c **** 
 390:Generated_Source\PSoC5/cyfitter_cfg.c **** 		cfg_write_bytes32(cy_cfg_addr_table, cy_cfg_data_table);
 460              		.loc 1 390 0 is_stmt 1
 461 0030 4FF09040 		mov	r0, #1207959552
 462 0034 2A49     		ldr	r1, .L31+8
 463 0036 FFF7FEFF 		bl	cfg_write_bytes32
 464              	.LVL34:
 391:Generated_Source\PSoC5/cyfitter_cfg.c **** 
 392:Generated_Source\PSoC5/cyfitter_cfg.c **** 		/* Enable digital routing */
 393:Generated_Source\PSoC5/cyfitter_cfg.c **** 		CY_SET_XTND_REG8((void CYFAR *)CYREG_BCTL0_BANK_CTL, CY_GET_XTND_REG8((void CYFAR *)CYREG_BCTL0_B
 465              		.loc 1 393 0
 466 003a 2A4A     		ldr	r2, .L31+12
 467 003c 1378     		ldrb	r3, [r2]	@ zero_extendqisi2
 468 003e 43F00203 		orr	r3, r3, #2
 469 0042 1370     		strb	r3, [r2]
 394:Generated_Source\PSoC5/cyfitter_cfg.c **** 		CY_SET_XTND_REG8((void CYFAR *)CYREG_BCTL1_BANK_CTL, CY_GET_XTND_REG8((void CYFAR *)CYREG_BCTL1_B
 470              		.loc 1 394 0
 471 0044 1032     		adds	r2, r2, #16
 472 0046 1378     		ldrb	r3, [r2]	@ zero_extendqisi2
 473 0048 43F00203 		orr	r3, r3, #2
 474 004c 1370     		strb	r3, [r2]
ARM GAS  C:\Users\Bart\AppData\Local\Temp\ccfH3Kjw.s 			page 17


 395:Generated_Source\PSoC5/cyfitter_cfg.c **** 
 396:Generated_Source\PSoC5/cyfitter_cfg.c **** 		/* Enable UDB array */
 397:Generated_Source\PSoC5/cyfitter_cfg.c **** 		CY_SET_XTND_REG8((void CYFAR *)CYREG_PM_ACT_CFG0, CY_GET_XTND_REG8((void CYFAR *)CYREG_PM_ACT_CFG
 475              		.loc 1 397 0
 476 004e 264C     		ldr	r4, .L31+16
 477              	.LVL35:
 478 0050 2378     		ldrb	r3, [r4]	@ zero_extendqisi2
 479 0052 43F04003 		orr	r3, r3, #64
 480 0056 2370     		strb	r3, [r4]
 398:Generated_Source\PSoC5/cyfitter_cfg.c **** 		CY_SET_XTND_REG8((void CYFAR *)CYREG_PM_AVAIL_CR2, CY_GET_XTND_REG8((void CYFAR *)CYREG_PM_AVAIL_
 481              		.loc 1 398 0
 482 0058 A2F58632 		sub	r2, r2, #68608
 483 005c 513A     		subs	r2, r2, #81
 484 005e 1378     		ldrb	r3, [r2]	@ zero_extendqisi2
 485 0060 43F01003 		orr	r3, r3, #16
 486 0064 1370     		strb	r3, [r2]
 487              	.LBE3:
 399:Generated_Source\PSoC5/cyfitter_cfg.c **** 	}
 400:Generated_Source\PSoC5/cyfitter_cfg.c **** 
 401:Generated_Source\PSoC5/cyfitter_cfg.c **** 
 402:Generated_Source\PSoC5/cyfitter_cfg.c **** 	/* Perform second pass device configuration. These items must be configured in specific order afte
 403:Generated_Source\PSoC5/cyfitter_cfg.c **** 	CYCONFIGCPY((void CYFAR *)(CYREG_PRT0_DM0), (const void CYFAR *)(BS_IOPINS0_0_VAL), 8u);
 488              		.loc 1 403 0
 489 0066 2148     		ldr	r0, .L31+20
 490 0068 2149     		ldr	r1, .L31+24
 491 006a 0822     		movs	r2, #8
 492 006c FFF7FEFF 		bl	CYCONFIGCPY
 493              	.LVL36:
 404:Generated_Source\PSoC5/cyfitter_cfg.c **** 	CYCONFIGCPY((void CYFAR *)(CYREG_PRT12_DR), (const void CYFAR *)(BS_IOPINS0_7_VAL), 10u);
 494              		.loc 1 404 0
 495 0070 2048     		ldr	r0, .L31+28
 496 0072 2149     		ldr	r1, .L31+32
 497 0074 0A22     		movs	r2, #10
 498 0076 FFF7FEFF 		bl	CYCONFIGCPY
 499              	.LVL37:
 405:Generated_Source\PSoC5/cyfitter_cfg.c **** 	CYCONFIGCPY((void CYFAR *)(CYREG_PRT15_DR), (const void CYFAR *)(BS_IOPINS0_8_VAL), 10u);
 500              		.loc 1 405 0
 501 007a 2048     		ldr	r0, .L31+36
 502 007c 2049     		ldr	r1, .L31+40
 503 007e 0A22     		movs	r2, #10
 504 0080 FFF7FEFF 		bl	CYCONFIGCPY
 505              	.LVL38:
 406:Generated_Source\PSoC5/cyfitter_cfg.c **** 	CYCONFIGCPY((void CYFAR *)(CYREG_PRT1_DR), (const void CYFAR *)(BS_IOPINS0_1_VAL), 10u);
 506              		.loc 1 406 0
 507 0084 1F48     		ldr	r0, .L31+44
 508 0086 2049     		ldr	r1, .L31+48
 509 0088 0A22     		movs	r2, #10
 510 008a FFF7FEFF 		bl	CYCONFIGCPY
 511              	.LVL39:
 407:Generated_Source\PSoC5/cyfitter_cfg.c **** 	CYCONFIGCPY((void CYFAR *)(CYREG_PRT2_DM0), (const void CYFAR *)(BS_IOPINS0_2_VAL), 8u);
 512              		.loc 1 407 0
 513 008e 1F48     		ldr	r0, .L31+52
 514 0090 1F49     		ldr	r1, .L31+56
 515 0092 0822     		movs	r2, #8
 516 0094 FFF7FEFF 		bl	CYCONFIGCPY
 517              	.LVL40:
 408:Generated_Source\PSoC5/cyfitter_cfg.c **** 	CYCONFIGCPY((void CYFAR *)(CYREG_PRT3_DM0), (const void CYFAR *)(BS_IOPINS0_3_VAL), 8u);
ARM GAS  C:\Users\Bart\AppData\Local\Temp\ccfH3Kjw.s 			page 18


 518              		.loc 1 408 0
 519 0098 1E48     		ldr	r0, .L31+60
 520 009a 1F49     		ldr	r1, .L31+64
 521 009c 0822     		movs	r2, #8
 522 009e FFF7FEFF 		bl	CYCONFIGCPY
 523              	.LVL41:
 409:Generated_Source\PSoC5/cyfitter_cfg.c **** 	CY_SET_XTND_REG8((void CYFAR *)(CYREG_B1_P4_U1_CFG27), 0x84u);
 524              		.loc 1 409 0
 525 00a2 8422     		movs	r2, #132
 526 00a4 1D4B     		ldr	r3, .L31+68
 527 00a6 1A70     		strb	r2, [r3]
 410:Generated_Source\PSoC5/cyfitter_cfg.c **** 	/* Switch Boost to the precision bandgap reference from its internal reference */
 411:Generated_Source\PSoC5/cyfitter_cfg.c **** 	CY_SET_REG8((void CYXDATA *)CYREG_BOOST_CR2, (CY_GET_REG8((void CYXDATA *)CYREG_BOOST_CR2) | 0x08u
 528              		.loc 1 411 0
 529 00a8 1D4A     		ldr	r2, .L31+72
 530 00aa 1378     		ldrb	r3, [r2]	@ zero_extendqisi2
 531 00ac 43F00803 		orr	r3, r3, #8
 532 00b0 1370     		strb	r3, [r2]
 412:Generated_Source\PSoC5/cyfitter_cfg.c **** 
 413:Generated_Source\PSoC5/cyfitter_cfg.c **** 	/* Set Flash Cycles based on max possible frequency in case a glitch occurs during ClockSetup(). *
 414:Generated_Source\PSoC5/cyfitter_cfg.c **** 	CY_SET_XTND_REG8((void CYFAR *)(CYREG_CACHE_CC_CTL), (((CYDEV_INSTRUCT_CACHE_ENABLED) != 0) ? 0x61
 533              		.loc 1 414 0
 534 00b2 1C4D     		ldr	r5, .L31+76
 535 00b4 6123     		movs	r3, #97
 536 00b6 2B70     		strb	r3, [r5]
 415:Generated_Source\PSoC5/cyfitter_cfg.c **** 	/* Setup clocks based on selections from Clock DWR */
 416:Generated_Source\PSoC5/cyfitter_cfg.c **** 	ClockSetup();
 537              		.loc 1 416 0
 538 00b8 FFF7FEFF 		bl	ClockSetup
 539              	.LVL42:
 417:Generated_Source\PSoC5/cyfitter_cfg.c **** 	/* Set Flash Cycles based on newly configured 24.00MHz Bus Clock. */
 418:Generated_Source\PSoC5/cyfitter_cfg.c **** 	CY_SET_XTND_REG8((void CYFAR *)(CYREG_CACHE_CC_CTL), (((CYDEV_INSTRUCT_CACHE_ENABLED) != 0) ? 0x81
 540              		.loc 1 418 0
 541 00bc 8123     		movs	r3, #129
 542 00be 2B70     		strb	r3, [r5]
 419:Generated_Source\PSoC5/cyfitter_cfg.c **** 	CY_SET_XTND_REG8((void CYFAR *)(CYREG_PANTHER_WAITPIPE), 0x01u);
 543              		.loc 1 419 0
 544 00c0 0122     		movs	r2, #1
 545 00c2 194B     		ldr	r3, .L31+80
 546 00c4 1A70     		strb	r2, [r3]
 420:Generated_Source\PSoC5/cyfitter_cfg.c **** 
 421:Generated_Source\PSoC5/cyfitter_cfg.c **** 	/* Perform basic analog initialization to defaults */
 422:Generated_Source\PSoC5/cyfitter_cfg.c **** 	AnalogSetDefault();
 547              		.loc 1 422 0
 548 00c6 FFF7FEFF 		bl	AnalogSetDefault
 549              	.LVL43:
 423:Generated_Source\PSoC5/cyfitter_cfg.c **** 
 424:Generated_Source\PSoC5/cyfitter_cfg.c **** 	/* Configure alternate active mode */
 425:Generated_Source\PSoC5/cyfitter_cfg.c **** 	CYCONFIGCPY((void CYFAR *)CYDEV_PM_STBY_BASE, (const void CYFAR *)CYDEV_PM_ACT_BASE, 14u);
 550              		.loc 1 425 0
 551 00ca 1848     		ldr	r0, .L31+84
 552 00cc 2146     		mov	r1, r4
 553 00ce 0E22     		movs	r2, #14
 554 00d0 FFF7FEFF 		bl	CYCONFIGCPY
 555              	.LVL44:
 556 00d4 38BD     		pop	{r3, r4, r5, pc}
 557              	.L32:
ARM GAS  C:\Users\Bart\AppData\Local\Temp\ccfH3Kjw.s 			page 19


 558 00d6 00BF     		.align	2
 559              	.L31:
 560 00d8 E8460040 		.word	1073759976
 561 00dc 00000000 		.word	.LANCHOR0
 562 00e0 90000048 		.word	1207959696
 563 00e4 03500140 		.word	1073827843
 564 00e8 A0430040 		.word	1073759136
 565 00ec 02510040 		.word	1073762562
 566 00f0 C4090048 		.word	1207962052
 567 00f4 C0510040 		.word	1073762752
 568 00f8 CC090048 		.word	1207962060
 569 00fc F0510040 		.word	1073762800
 570 0100 D8090048 		.word	1207962072
 571 0104 10510040 		.word	1073762576
 572 0108 E4090048 		.word	1207962084
 573 010c 22510040 		.word	1073762594
 574 0110 F0090048 		.word	1207962096
 575 0114 32510040 		.word	1073762610
 576 0118 F8090048 		.word	1207962104
 577 011c DB180140 		.word	1073813723
 578 0120 22430040 		.word	1073759010
 579 0124 00480040 		.word	1073760256
 580 0128 04000840 		.word	1074266116
 581 012c B0430040 		.word	1073759152
 582              		.cfi_endproc
 583              	.LFE8:
 584              		.size	cyfitter_cfg, .-cyfitter_cfg
 585              		.section	.rodata
 586              		.align	2
 587              		.set	.LANCHOR0,. + 0
 588              		.type	cfg_memset_list.4888, %object
 589              		.size	cfg_memset_list.4888, 42
 590              	cfg_memset_list.4888:
 591 0000 004F0040 		.word	1073762048
 592 0004 1800     		.short	24
 593 0006 40510040 		.4byte	1073762624
 594 000a 3000     		.short	48
 595 000c 00000140 		.word	1073807360
 596 0010 0010     		.short	4096
 597 0012 00140140 		.4byte	1073812480
 598 0016 0008     		.short	2048
 599 0018 00400140 		.word	1073823744
 600 001c 000A     		.short	2560
 601 001e 004C0140 		.4byte	1073826816
 602 0022 0002     		.short	512
 603 0024 00500140 		.word	1073827840
 604 0028 2000     		.short	32
 605 002a 0000     		.text
 606              	.Letext0:
 607              		.file 2 "d:\\program files (x86)\\cypress\\psoc creator\\4.0\\psoc creator\\import\\gnu\\arm\\4.9.
 608              		.file 3 "Generated_Source\\PSoC5\\cytypes.h"
 609              		.file 4 "Generated_Source\\PSoC5\\CyLib.h"