ARM GAS  C:\Users\Bart\AppData\Local\Temp\ccRlR46i.s 			page 1


   1              		.syntax unified
   2              		.cpu cortex-m3
   3              		.fpu softvfp
   4              		.eabi_attribute 20, 1
   5              		.eabi_attribute 21, 1
   6              		.eabi_attribute 23, 3
   7              		.eabi_attribute 24, 1
   8              		.eabi_attribute 25, 1
   9              		.eabi_attribute 26, 1
  10              		.eabi_attribute 30, 1
  11              		.eabi_attribute 34, 1
  12              		.eabi_attribute 18, 4
  13              		.thumb
  14              		.file	"EEPROM_PSoC.c"
  15              		.text
  16              	.Ltext0:
  17              		.cfi_sections	.debug_frame
  18              		.section	.text.EEPROM_PSoC_Enable,"ax",%progbits
  19              		.align	2
  20              		.global	EEPROM_PSoC_Enable
  21              		.thumb
  22              		.thumb_func
  23              		.type	EEPROM_PSoC_Enable, %function
  24              	EEPROM_PSoC_Enable:
  25              	.LFB0:
  26              		.file 1 "Generated_Source\\PSoC5\\EEPROM_PSoC.c"
   1:Generated_Source\PSoC5/EEPROM_PSoC.c **** /*******************************************************************************
   2:Generated_Source\PSoC5/EEPROM_PSoC.c **** * File Name: EEPROM_PSoC.c
   3:Generated_Source\PSoC5/EEPROM_PSoC.c **** * Version 3.0
   4:Generated_Source\PSoC5/EEPROM_PSoC.c **** *
   5:Generated_Source\PSoC5/EEPROM_PSoC.c **** *  Description:
   6:Generated_Source\PSoC5/EEPROM_PSoC.c **** *   Provides the source code to the API for the EEPROM component.
   7:Generated_Source\PSoC5/EEPROM_PSoC.c **** *
   8:Generated_Source\PSoC5/EEPROM_PSoC.c **** ********************************************************************************
   9:Generated_Source\PSoC5/EEPROM_PSoC.c **** * Copyright 2008-2015, Cypress Semiconductor Corporation.  All rights reserved.
  10:Generated_Source\PSoC5/EEPROM_PSoC.c **** * You may use this file only in accordance with the license, terms, conditions,
  11:Generated_Source\PSoC5/EEPROM_PSoC.c **** * disclaimers, and limitations in the end user license agreement accompanying
  12:Generated_Source\PSoC5/EEPROM_PSoC.c **** * the software package with which this file was provided.
  13:Generated_Source\PSoC5/EEPROM_PSoC.c **** *******************************************************************************/
  14:Generated_Source\PSoC5/EEPROM_PSoC.c **** 
  15:Generated_Source\PSoC5/EEPROM_PSoC.c **** #include "EEPROM_PSoC.h"
  16:Generated_Source\PSoC5/EEPROM_PSoC.c **** 
  17:Generated_Source\PSoC5/EEPROM_PSoC.c **** 
  18:Generated_Source\PSoC5/EEPROM_PSoC.c **** /*******************************************************************************
  19:Generated_Source\PSoC5/EEPROM_PSoC.c **** * Function Name: EEPROM_PSoC_Enable
  20:Generated_Source\PSoC5/EEPROM_PSoC.c **** ********************************************************************************
  21:Generated_Source\PSoC5/EEPROM_PSoC.c **** *
  22:Generated_Source\PSoC5/EEPROM_PSoC.c **** * Summary:
  23:Generated_Source\PSoC5/EEPROM_PSoC.c **** *  Enable the EEPROM block. Also reads the temperature and stores it for
  24:Generated_Source\PSoC5/EEPROM_PSoC.c **** *  future writes.
  25:Generated_Source\PSoC5/EEPROM_PSoC.c **** *
  26:Generated_Source\PSoC5/EEPROM_PSoC.c **** * Parameters:
  27:Generated_Source\PSoC5/EEPROM_PSoC.c **** *  None
  28:Generated_Source\PSoC5/EEPROM_PSoC.c **** *
  29:Generated_Source\PSoC5/EEPROM_PSoC.c **** * Return:
  30:Generated_Source\PSoC5/EEPROM_PSoC.c **** *  None
  31:Generated_Source\PSoC5/EEPROM_PSoC.c **** *
ARM GAS  C:\Users\Bart\AppData\Local\Temp\ccRlR46i.s 			page 2


  32:Generated_Source\PSoC5/EEPROM_PSoC.c **** *******************************************************************************/
  33:Generated_Source\PSoC5/EEPROM_PSoC.c **** void EEPROM_PSoC_Enable(void) 
  34:Generated_Source\PSoC5/EEPROM_PSoC.c **** {
  27              		.loc 1 34 0
  28              		.cfi_startproc
  29              		@ args = 0, pretend = 0, frame = 0
  30              		@ frame_needed = 0, uses_anonymous_args = 0
  31 0000 08B5     		push	{r3, lr}
  32              		.cfi_def_cfa_offset 8
  33              		.cfi_offset 3, -8
  34              		.cfi_offset 14, -4
  35:Generated_Source\PSoC5/EEPROM_PSoC.c ****     /* Read temperature value */
  36:Generated_Source\PSoC5/EEPROM_PSoC.c ****     (void)CySetTemp();
  35              		.loc 1 36 0
  36 0002 FFF7FEFF 		bl	CySetTemp
  37              	.LVL0:
  37:Generated_Source\PSoC5/EEPROM_PSoC.c **** 
  38:Generated_Source\PSoC5/EEPROM_PSoC.c ****     /* Start EEPROM block */
  39:Generated_Source\PSoC5/EEPROM_PSoC.c ****     CyEEPROM_Start();
  38              		.loc 1 39 0
  39 0006 FFF7FEFF 		bl	CyEEPROM_Start
  40              	.LVL1:
  41 000a 08BD     		pop	{r3, pc}
  42              		.cfi_endproc
  43              	.LFE0:
  44              		.size	EEPROM_PSoC_Enable, .-EEPROM_PSoC_Enable
  45              		.section	.text.EEPROM_PSoC_Start,"ax",%progbits
  46              		.align	2
  47              		.global	EEPROM_PSoC_Start
  48              		.thumb
  49              		.thumb_func
  50              		.type	EEPROM_PSoC_Start, %function
  51              	EEPROM_PSoC_Start:
  52              	.LFB1:
  40:Generated_Source\PSoC5/EEPROM_PSoC.c **** }
  41:Generated_Source\PSoC5/EEPROM_PSoC.c **** 
  42:Generated_Source\PSoC5/EEPROM_PSoC.c **** 
  43:Generated_Source\PSoC5/EEPROM_PSoC.c **** /*******************************************************************************
  44:Generated_Source\PSoC5/EEPROM_PSoC.c **** * Function Name: EEPROM_PSoC_Start
  45:Generated_Source\PSoC5/EEPROM_PSoC.c **** ********************************************************************************
  46:Generated_Source\PSoC5/EEPROM_PSoC.c **** *
  47:Generated_Source\PSoC5/EEPROM_PSoC.c **** * Summary:
  48:Generated_Source\PSoC5/EEPROM_PSoC.c **** *  Starts EEPROM.
  49:Generated_Source\PSoC5/EEPROM_PSoC.c **** *
  50:Generated_Source\PSoC5/EEPROM_PSoC.c **** * Parameters:
  51:Generated_Source\PSoC5/EEPROM_PSoC.c **** *  None
  52:Generated_Source\PSoC5/EEPROM_PSoC.c **** *
  53:Generated_Source\PSoC5/EEPROM_PSoC.c **** * Return:
  54:Generated_Source\PSoC5/EEPROM_PSoC.c **** *  None
  55:Generated_Source\PSoC5/EEPROM_PSoC.c **** *
  56:Generated_Source\PSoC5/EEPROM_PSoC.c **** *******************************************************************************/
  57:Generated_Source\PSoC5/EEPROM_PSoC.c **** void EEPROM_PSoC_Start(void) 
  58:Generated_Source\PSoC5/EEPROM_PSoC.c **** {
  53              		.loc 1 58 0
  54              		.cfi_startproc
  55              		@ args = 0, pretend = 0, frame = 0
  56              		@ frame_needed = 0, uses_anonymous_args = 0
ARM GAS  C:\Users\Bart\AppData\Local\Temp\ccRlR46i.s 			page 3


  57 0000 08B5     		push	{r3, lr}
  58              		.cfi_def_cfa_offset 8
  59              		.cfi_offset 3, -8
  60              		.cfi_offset 14, -4
  59:Generated_Source\PSoC5/EEPROM_PSoC.c ****     EEPROM_PSoC_Enable();
  61              		.loc 1 59 0
  62 0002 FFF7FEFF 		bl	EEPROM_PSoC_Enable
  63              	.LVL2:
  64 0006 08BD     		pop	{r3, pc}
  65              		.cfi_endproc
  66              	.LFE1:
  67              		.size	EEPROM_PSoC_Start, .-EEPROM_PSoC_Start
  68              		.section	.text.EEPROM_PSoC_Stop,"ax",%progbits
  69              		.align	2
  70              		.global	EEPROM_PSoC_Stop
  71              		.thumb
  72              		.thumb_func
  73              		.type	EEPROM_PSoC_Stop, %function
  74              	EEPROM_PSoC_Stop:
  75              	.LFB2:
  60:Generated_Source\PSoC5/EEPROM_PSoC.c **** }
  61:Generated_Source\PSoC5/EEPROM_PSoC.c **** 
  62:Generated_Source\PSoC5/EEPROM_PSoC.c **** 
  63:Generated_Source\PSoC5/EEPROM_PSoC.c **** /*******************************************************************************
  64:Generated_Source\PSoC5/EEPROM_PSoC.c **** * Function Name: EEPROM_PSoC_Stop
  65:Generated_Source\PSoC5/EEPROM_PSoC.c **** ********************************************************************************
  66:Generated_Source\PSoC5/EEPROM_PSoC.c **** *
  67:Generated_Source\PSoC5/EEPROM_PSoC.c **** * Summary:
  68:Generated_Source\PSoC5/EEPROM_PSoC.c **** *  Stops and powers down EEPROM.
  69:Generated_Source\PSoC5/EEPROM_PSoC.c **** *
  70:Generated_Source\PSoC5/EEPROM_PSoC.c **** * Parameters:
  71:Generated_Source\PSoC5/EEPROM_PSoC.c **** *  None
  72:Generated_Source\PSoC5/EEPROM_PSoC.c **** *
  73:Generated_Source\PSoC5/EEPROM_PSoC.c **** * Return:
  74:Generated_Source\PSoC5/EEPROM_PSoC.c **** *  None
  75:Generated_Source\PSoC5/EEPROM_PSoC.c **** *
  76:Generated_Source\PSoC5/EEPROM_PSoC.c **** *******************************************************************************/
  77:Generated_Source\PSoC5/EEPROM_PSoC.c **** void EEPROM_PSoC_Stop (void) 
  78:Generated_Source\PSoC5/EEPROM_PSoC.c **** {
  76              		.loc 1 78 0
  77              		.cfi_startproc
  78              		@ args = 0, pretend = 0, frame = 0
  79              		@ frame_needed = 0, uses_anonymous_args = 0
  80 0000 08B5     		push	{r3, lr}
  81              		.cfi_def_cfa_offset 8
  82              		.cfi_offset 3, -8
  83              		.cfi_offset 14, -4
  79:Generated_Source\PSoC5/EEPROM_PSoC.c ****     /* Stop and power down EEPROM block */
  80:Generated_Source\PSoC5/EEPROM_PSoC.c ****     CyEEPROM_Stop();
  84              		.loc 1 80 0
  85 0002 FFF7FEFF 		bl	CyEEPROM_Stop
  86              	.LVL3:
  87 0006 08BD     		pop	{r3, pc}
  88              		.cfi_endproc
  89              	.LFE2:
  90              		.size	EEPROM_PSoC_Stop, .-EEPROM_PSoC_Stop
  91              		.section	.text.EEPROM_PSoC_WriteByte,"ax",%progbits
ARM GAS  C:\Users\Bart\AppData\Local\Temp\ccRlR46i.s 			page 4


  92              		.align	2
  93              		.global	EEPROM_PSoC_WriteByte
  94              		.thumb
  95              		.thumb_func
  96              		.type	EEPROM_PSoC_WriteByte, %function
  97              	EEPROM_PSoC_WriteByte:
  98              	.LFB3:
  81:Generated_Source\PSoC5/EEPROM_PSoC.c **** }
  82:Generated_Source\PSoC5/EEPROM_PSoC.c **** 
  83:Generated_Source\PSoC5/EEPROM_PSoC.c **** 
  84:Generated_Source\PSoC5/EEPROM_PSoC.c **** /*******************************************************************************
  85:Generated_Source\PSoC5/EEPROM_PSoC.c **** * Function Name: EEPROM_PSoC_WriteByte
  86:Generated_Source\PSoC5/EEPROM_PSoC.c **** ********************************************************************************
  87:Generated_Source\PSoC5/EEPROM_PSoC.c **** *
  88:Generated_Source\PSoC5/EEPROM_PSoC.c **** * Summary:
  89:Generated_Source\PSoC5/EEPROM_PSoC.c **** *  Writes a byte of data to the EEPROM. This function blocks until
  90:Generated_Source\PSoC5/EEPROM_PSoC.c **** *  the function is complete. For a reliable write procedure to occur you should
  91:Generated_Source\PSoC5/EEPROM_PSoC.c **** *  call EEPROM_PSoC_UpdateTemperature() function if the temperature of the
  92:Generated_Source\PSoC5/EEPROM_PSoC.c **** *  silicon has been changed for more than 10C since the component was started.
  93:Generated_Source\PSoC5/EEPROM_PSoC.c **** *
  94:Generated_Source\PSoC5/EEPROM_PSoC.c **** * Parameters:
  95:Generated_Source\PSoC5/EEPROM_PSoC.c **** *  dataByte:  The byte of data to write to the EEPROM
  96:Generated_Source\PSoC5/EEPROM_PSoC.c **** *  address:   The address of data to be written. The maximum address is dependent
  97:Generated_Source\PSoC5/EEPROM_PSoC.c **** *             on the EEPROM size.
  98:Generated_Source\PSoC5/EEPROM_PSoC.c **** *
  99:Generated_Source\PSoC5/EEPROM_PSoC.c **** * Return:
 100:Generated_Source\PSoC5/EEPROM_PSoC.c **** *  CYRET_SUCCESS, if the operation was successful.
 101:Generated_Source\PSoC5/EEPROM_PSoC.c **** *  CYRET_BAD_PARAM, if the parameter sectorNumber is out of range.
 102:Generated_Source\PSoC5/EEPROM_PSoC.c **** *  CYRET_LOCKED, if the SPC is being used.
 103:Generated_Source\PSoC5/EEPROM_PSoC.c **** *  CYRET_UNKNOWN, if there was an SPC error.
 104:Generated_Source\PSoC5/EEPROM_PSoC.c **** *
 105:Generated_Source\PSoC5/EEPROM_PSoC.c **** *******************************************************************************/
 106:Generated_Source\PSoC5/EEPROM_PSoC.c **** cystatus EEPROM_PSoC_WriteByte(uint8 dataByte, uint16 address) 
 107:Generated_Source\PSoC5/EEPROM_PSoC.c **** {
  99              		.loc 1 107 0
 100              		.cfi_startproc
 101              		@ args = 0, pretend = 0, frame = 8
 102              		@ frame_needed = 0, uses_anonymous_args = 0
 103              	.LVL4:
 104 0000 30B5     		push	{r4, r5, lr}
 105              		.cfi_def_cfa_offset 12
 106              		.cfi_offset 4, -12
 107              		.cfi_offset 5, -8
 108              		.cfi_offset 14, -4
 109 0002 83B0     		sub	sp, sp, #12
 110              		.cfi_def_cfa_offset 24
 111 0004 0C46     		mov	r4, r1
 112 0006 8DF80700 		strb	r0, [sp, #7]
 108:Generated_Source\PSoC5/EEPROM_PSoC.c ****     cystatus status;
 109:Generated_Source\PSoC5/EEPROM_PSoC.c ****     uint16 rowNumber;
 110:Generated_Source\PSoC5/EEPROM_PSoC.c ****     uint16 byteNumber;
 111:Generated_Source\PSoC5/EEPROM_PSoC.c ****     
 112:Generated_Source\PSoC5/EEPROM_PSoC.c ****     CySpcStart();
 113              		.loc 1 112 0
 114 000a FFF7FEFF 		bl	CySpcStart
 115              	.LVL5:
 113:Generated_Source\PSoC5/EEPROM_PSoC.c **** 
ARM GAS  C:\Users\Bart\AppData\Local\Temp\ccRlR46i.s 			page 5


 114:Generated_Source\PSoC5/EEPROM_PSoC.c ****     if (address < CY_EEPROM_SIZE)
 116              		.loc 1 114 0
 117 000e B4F5006F 		cmp	r4, #2048
 118 0012 54D2     		bcs	.L14
 115:Generated_Source\PSoC5/EEPROM_PSoC.c ****     {
 116:Generated_Source\PSoC5/EEPROM_PSoC.c ****         rowNumber = address/(uint16)CY_EEPROM_SIZEOF_ROW;
 119              		.loc 1 116 0
 120 0014 2509     		lsrs	r5, r4, #4
 121              	.LVL6:
 117:Generated_Source\PSoC5/EEPROM_PSoC.c ****         byteNumber = address - (rowNumber * ((uint16)CY_EEPROM_SIZEOF_ROW));
 122              		.loc 1 117 0
 123 0016 C5EB0533 		rsb	r3, r5, r5, lsl #12
 124 001a 1901     		lsls	r1, r3, #4
 125 001c 0C44     		add	r4, r4, r1
 126 001e A4B2     		uxth	r4, r4
 127              	.LVL7:
 118:Generated_Source\PSoC5/EEPROM_PSoC.c ****         if(CYRET_SUCCESS == CySpcLock())
 128              		.loc 1 118 0
 129 0020 FFF7FEFF 		bl	CySpcLock
 130              	.LVL8:
 131 0024 0028     		cmp	r0, #0
 132 0026 4CD1     		bne	.L15
 119:Generated_Source\PSoC5/EEPROM_PSoC.c ****         {
 120:Generated_Source\PSoC5/EEPROM_PSoC.c ****             status = CySpcLoadMultiByte(CY_SPC_FIRST_EE_ARRAYID, byteNumber, &dataByte, \
 133              		.loc 1 120 0
 134 0028 4020     		movs	r0, #64
 135 002a 2146     		mov	r1, r4
 136 002c 0DF10702 		add	r2, sp, #7
 137              	.LVL9:
 138 0030 0123     		movs	r3, #1
 139 0032 FFF7FEFF 		bl	CySpcLoadMultiByte
 140              	.LVL10:
 141 0036 0446     		mov	r4, r0
 142              	.LVL11:
 121:Generated_Source\PSoC5/EEPROM_PSoC.c ****                                                                     EEPROM_PSoC_SPC_BYTE_WRITE_SIZE
 122:Generated_Source\PSoC5/EEPROM_PSoC.c ****             if (CYRET_STARTED == status)
 143              		.loc 1 122 0
 144 0038 0728     		cmp	r0, #7
 145 003a 2FD1     		bne	.L9
 146              	.L10:
 123:Generated_Source\PSoC5/EEPROM_PSoC.c ****             {
 124:Generated_Source\PSoC5/EEPROM_PSoC.c ****                 /* Plan for failure */
 125:Generated_Source\PSoC5/EEPROM_PSoC.c ****                 status = CYRET_UNKNOWN;
 126:Generated_Source\PSoC5/EEPROM_PSoC.c **** 
 127:Generated_Source\PSoC5/EEPROM_PSoC.c ****                 while(CY_SPC_BUSY)
 147              		.loc 1 127 0 discriminator 1
 148 003c 234B     		ldr	r3, .L23
 149 003e 1B78     		ldrb	r3, [r3]	@ zero_extendqisi2
 150 0040 13F0020F 		tst	r3, #2
 151 0044 FAD0     		beq	.L10
 128:Generated_Source\PSoC5/EEPROM_PSoC.c ****                 {
 129:Generated_Source\PSoC5/EEPROM_PSoC.c ****                     /* Wait until SPC becomes idle */
 130:Generated_Source\PSoC5/EEPROM_PSoC.c ****                 }
 131:Generated_Source\PSoC5/EEPROM_PSoC.c **** 
 132:Generated_Source\PSoC5/EEPROM_PSoC.c ****                 if(CY_SPC_STATUS_SUCCESS == CY_SPC_READ_STATUS)
 152              		.loc 1 132 0
 153 0046 214B     		ldr	r3, .L23
ARM GAS  C:\Users\Bart\AppData\Local\Temp\ccRlR46i.s 			page 6


 154 0048 1B78     		ldrb	r3, [r3]	@ zero_extendqisi2
 155 004a 13F0020F 		tst	r3, #2
 156 004e 06D0     		beq	.L16
 157              		.loc 1 132 0 is_stmt 0 discriminator 1
 158 0050 1E4B     		ldr	r3, .L23
 159 0052 1B78     		ldrb	r3, [r3]	@ zero_extendqisi2
 160 0054 9B08     		lsrs	r3, r3, #2
 161 0056 05D0     		beq	.L17
 125:Generated_Source\PSoC5/EEPROM_PSoC.c **** 
 162              		.loc 1 125 0 is_stmt 1
 163 0058 4FF0FF34 		mov	r4, #-1
 164 005c 03E0     		b	.L11
 165              	.L16:
 166 005e 4FF0FF34 		mov	r4, #-1
 167 0062 00E0     		b	.L11
 168              	.L17:
 133:Generated_Source\PSoC5/EEPROM_PSoC.c ****                 {
 134:Generated_Source\PSoC5/EEPROM_PSoC.c ****                     status = CYRET_SUCCESS;
 169              		.loc 1 134 0
 170 0064 0024     		movs	r4, #0
 171              	.L11:
 172              	.LVL12:
 135:Generated_Source\PSoC5/EEPROM_PSoC.c ****                 }
 136:Generated_Source\PSoC5/EEPROM_PSoC.c ****                 /* Command to erase and program the row. */
 137:Generated_Source\PSoC5/EEPROM_PSoC.c ****                 if(CYRET_SUCCESS == status)
 173              		.loc 1 137 0
 174 0066 E4B9     		cbnz	r4, .L18
 138:Generated_Source\PSoC5/EEPROM_PSoC.c ****                 {
 139:Generated_Source\PSoC5/EEPROM_PSoC.c ****                     if(CySpcWriteRow(CY_SPC_FIRST_EE_ARRAYID, (uint16)rowNumber, dieTemperature[0u]
 175              		.loc 1 139 0
 176 0068 194B     		ldr	r3, .L23+4
 177 006a 4020     		movs	r0, #64
 178 006c 2946     		mov	r1, r5
 179 006e 1A78     		ldrb	r2, [r3]	@ zero_extendqisi2
 180 0070 5B78     		ldrb	r3, [r3, #1]	@ zero_extendqisi2
 181 0072 FFF7FEFF 		bl	CySpcWriteRow
 182              	.LVL13:
 183 0076 0728     		cmp	r0, #7
 184 0078 16D1     		bne	.L19
 185              	.L13:
 140:Generated_Source\PSoC5/EEPROM_PSoC.c ****                     dieTemperature[1u]) == CYRET_STARTED)
 141:Generated_Source\PSoC5/EEPROM_PSoC.c ****                     {
 142:Generated_Source\PSoC5/EEPROM_PSoC.c ****                         /* Plan for failure */
 143:Generated_Source\PSoC5/EEPROM_PSoC.c ****                         status = CYRET_UNKNOWN;
 144:Generated_Source\PSoC5/EEPROM_PSoC.c **** 
 145:Generated_Source\PSoC5/EEPROM_PSoC.c ****                         while(CY_SPC_BUSY)
 186              		.loc 1 145 0 discriminator 1
 187 007a 144B     		ldr	r3, .L23
 188 007c 1B78     		ldrb	r3, [r3]	@ zero_extendqisi2
 189 007e 13F0020F 		tst	r3, #2
 190 0082 FAD0     		beq	.L13
 146:Generated_Source\PSoC5/EEPROM_PSoC.c ****                         {
 147:Generated_Source\PSoC5/EEPROM_PSoC.c ****                             /* Wait until SPC becomes idle */
 148:Generated_Source\PSoC5/EEPROM_PSoC.c ****                         }
 149:Generated_Source\PSoC5/EEPROM_PSoC.c **** 
 150:Generated_Source\PSoC5/EEPROM_PSoC.c ****                         /* SPC is idle now */
 151:Generated_Source\PSoC5/EEPROM_PSoC.c ****                         if(CY_SPC_STATUS_SUCCESS == CY_SPC_READ_STATUS)
ARM GAS  C:\Users\Bart\AppData\Local\Temp\ccRlR46i.s 			page 7


 191              		.loc 1 151 0
 192 0084 114B     		ldr	r3, .L23
 193 0086 1B78     		ldrb	r3, [r3]	@ zero_extendqisi2
 194 0088 13F0020F 		tst	r3, #2
 195 008c 0FD0     		beq	.L20
 196              		.loc 1 151 0 is_stmt 0 discriminator 1
 197 008e 0F4B     		ldr	r3, .L23
 198 0090 1B78     		ldrb	r3, [r3]	@ zero_extendqisi2
 199 0092 9B08     		lsrs	r3, r3, #2
 200 0094 10D0     		beq	.L12
 143:Generated_Source\PSoC5/EEPROM_PSoC.c **** 
 201              		.loc 1 143 0 is_stmt 1
 202 0096 4FF0FF34 		mov	r4, #-1
 203              	.LVL14:
 204 009a 0DE0     		b	.L12
 205              	.LVL15:
 206              	.L9:
 152:Generated_Source\PSoC5/EEPROM_PSoC.c ****                         {
 153:Generated_Source\PSoC5/EEPROM_PSoC.c ****                             status = CYRET_SUCCESS;
 154:Generated_Source\PSoC5/EEPROM_PSoC.c ****                         }
 155:Generated_Source\PSoC5/EEPROM_PSoC.c ****                     }
 156:Generated_Source\PSoC5/EEPROM_PSoC.c ****                     else
 157:Generated_Source\PSoC5/EEPROM_PSoC.c ****                     {
 158:Generated_Source\PSoC5/EEPROM_PSoC.c ****                         status = CYRET_UNKNOWN;
 159:Generated_Source\PSoC5/EEPROM_PSoC.c ****                     }
 160:Generated_Source\PSoC5/EEPROM_PSoC.c ****                 }
 161:Generated_Source\PSoC5/EEPROM_PSoC.c ****                 else
 162:Generated_Source\PSoC5/EEPROM_PSoC.c ****                 {
 163:Generated_Source\PSoC5/EEPROM_PSoC.c ****                     status = CYRET_UNKNOWN;
 164:Generated_Source\PSoC5/EEPROM_PSoC.c ****                 }
 165:Generated_Source\PSoC5/EEPROM_PSoC.c ****             }
 166:Generated_Source\PSoC5/EEPROM_PSoC.c ****             else
 167:Generated_Source\PSoC5/EEPROM_PSoC.c ****             {
 168:Generated_Source\PSoC5/EEPROM_PSoC.c ****                 if (CYRET_BAD_PARAM != status)
 207              		.loc 1 168 0
 208 009c 0128     		cmp	r0, #1
 209 009e 09D1     		bne	.L21
 210 00a0 0AE0     		b	.L12
 211              	.LVL16:
 212              	.L18:
 163:Generated_Source\PSoC5/EEPROM_PSoC.c ****                 }
 213              		.loc 1 163 0
 214 00a2 4FF0FF34 		mov	r4, #-1
 215              	.LVL17:
 216 00a6 07E0     		b	.L12
 217              	.LVL18:
 218              	.L19:
 158:Generated_Source\PSoC5/EEPROM_PSoC.c ****                     }
 219              		.loc 1 158 0
 220 00a8 4FF0FF34 		mov	r4, #-1
 221              	.LVL19:
 222 00ac 04E0     		b	.L12
 223              	.LVL20:
 224              	.L20:
 143:Generated_Source\PSoC5/EEPROM_PSoC.c **** 
 225              		.loc 1 143 0
 226 00ae 4FF0FF34 		mov	r4, #-1
ARM GAS  C:\Users\Bart\AppData\Local\Temp\ccRlR46i.s 			page 8


 227              	.LVL21:
 228 00b2 01E0     		b	.L12
 229              	.LVL22:
 230              	.L21:
 169:Generated_Source\PSoC5/EEPROM_PSoC.c ****                 {
 170:Generated_Source\PSoC5/EEPROM_PSoC.c ****                     status = CYRET_UNKNOWN;
 231              		.loc 1 170 0
 232 00b4 4FF0FF34 		mov	r4, #-1
 233              	.LVL23:
 234              	.L12:
 171:Generated_Source\PSoC5/EEPROM_PSoC.c ****                 }
 172:Generated_Source\PSoC5/EEPROM_PSoC.c ****             }
 173:Generated_Source\PSoC5/EEPROM_PSoC.c ****             CySpcUnlock();
 235              		.loc 1 173 0
 236 00b8 FFF7FEFF 		bl	CySpcUnlock
 237              	.LVL24:
 238 00bc 02E0     		b	.L8
 239              	.LVL25:
 240              	.L14:
 174:Generated_Source\PSoC5/EEPROM_PSoC.c ****         }
 175:Generated_Source\PSoC5/EEPROM_PSoC.c ****         else
 176:Generated_Source\PSoC5/EEPROM_PSoC.c ****         {
 177:Generated_Source\PSoC5/EEPROM_PSoC.c ****             status = CYRET_LOCKED;
 178:Generated_Source\PSoC5/EEPROM_PSoC.c ****         }
 179:Generated_Source\PSoC5/EEPROM_PSoC.c ****     }
 180:Generated_Source\PSoC5/EEPROM_PSoC.c ****     else
 181:Generated_Source\PSoC5/EEPROM_PSoC.c ****     {
 182:Generated_Source\PSoC5/EEPROM_PSoC.c ****         status = CYRET_BAD_PARAM;
 241              		.loc 1 182 0
 242 00be 0124     		movs	r4, #1
 243 00c0 00E0     		b	.L8
 244              	.LVL26:
 245              	.L15:
 177:Generated_Source\PSoC5/EEPROM_PSoC.c ****         }
 246              		.loc 1 177 0
 247 00c2 0424     		movs	r4, #4
 248              	.LVL27:
 249              	.L8:
 183:Generated_Source\PSoC5/EEPROM_PSoC.c ****     }
 184:Generated_Source\PSoC5/EEPROM_PSoC.c **** 
 185:Generated_Source\PSoC5/EEPROM_PSoC.c **** 
 186:Generated_Source\PSoC5/EEPROM_PSoC.c ****     return (status);
 187:Generated_Source\PSoC5/EEPROM_PSoC.c **** }
 250              		.loc 1 187 0
 251 00c4 2046     		mov	r0, r4
 252 00c6 03B0     		add	sp, sp, #12
 253              		.cfi_def_cfa_offset 12
 254              		@ sp needed
 255 00c8 30BD     		pop	{r4, r5, pc}
 256              	.LVL28:
 257              	.L24:
 258 00ca 00BF     		.align	2
 259              	.L23:
 260 00cc 22470040 		.word	1073760034
 261 00d0 00000000 		.word	dieTemperature
 262              		.cfi_endproc
 263              	.LFE3:
ARM GAS  C:\Users\Bart\AppData\Local\Temp\ccRlR46i.s 			page 9


 264              		.size	EEPROM_PSoC_WriteByte, .-EEPROM_PSoC_WriteByte
 265              		.section	.text.EEPROM_PSoC_ReadByte,"ax",%progbits
 266              		.align	2
 267              		.global	EEPROM_PSoC_ReadByte
 268              		.thumb
 269              		.thumb_func
 270              		.type	EEPROM_PSoC_ReadByte, %function
 271              	EEPROM_PSoC_ReadByte:
 272              	.LFB4:
 188:Generated_Source\PSoC5/EEPROM_PSoC.c **** 
 189:Generated_Source\PSoC5/EEPROM_PSoC.c **** 
 190:Generated_Source\PSoC5/EEPROM_PSoC.c **** /*******************************************************************************
 191:Generated_Source\PSoC5/EEPROM_PSoC.c **** * Function Name: EEPROM_PSoC_ReadByte
 192:Generated_Source\PSoC5/EEPROM_PSoC.c **** ********************************************************************************
 193:Generated_Source\PSoC5/EEPROM_PSoC.c **** *
 194:Generated_Source\PSoC5/EEPROM_PSoC.c **** * Summary:
 195:Generated_Source\PSoC5/EEPROM_PSoC.c **** *  Reads and returns a byte of data from the on-chip EEPROM memory. Although
 196:Generated_Source\PSoC5/EEPROM_PSoC.c **** *  the data is present in the CPU memory space, this function provides an
 197:Generated_Source\PSoC5/EEPROM_PSoC.c **** *  intuitive user interface, addressing the EEPROM memory as a separate block with
 198:Generated_Source\PSoC5/EEPROM_PSoC.c **** *  the first EERPOM byte address equal to 0x0000.
 199:Generated_Source\PSoC5/EEPROM_PSoC.c **** *
 200:Generated_Source\PSoC5/EEPROM_PSoC.c **** * Parameters:
 201:Generated_Source\PSoC5/EEPROM_PSoC.c **** *  address:   The address of data to be read. The maximum address is limited by the
 202:Generated_Source\PSoC5/EEPROM_PSoC.c **** *             size of the EEPROM array on a specific device.
 203:Generated_Source\PSoC5/EEPROM_PSoC.c **** *
 204:Generated_Source\PSoC5/EEPROM_PSoC.c **** * Return:
 205:Generated_Source\PSoC5/EEPROM_PSoC.c **** *  Data located at an address.
 206:Generated_Source\PSoC5/EEPROM_PSoC.c **** *
 207:Generated_Source\PSoC5/EEPROM_PSoC.c **** *******************************************************************************/
 208:Generated_Source\PSoC5/EEPROM_PSoC.c **** uint8 EEPROM_PSoC_ReadByte(uint16 address) 
 209:Generated_Source\PSoC5/EEPROM_PSoC.c **** {
 273              		.loc 1 209 0
 274              		.cfi_startproc
 275              		@ args = 0, pretend = 0, frame = 0
 276              		@ frame_needed = 0, uses_anonymous_args = 0
 277              	.LVL29:
 278 0000 38B5     		push	{r3, r4, r5, lr}
 279              		.cfi_def_cfa_offset 16
 280              		.cfi_offset 3, -16
 281              		.cfi_offset 4, -12
 282              		.cfi_offset 5, -8
 283              		.cfi_offset 14, -4
 284 0002 0446     		mov	r4, r0
 210:Generated_Source\PSoC5/EEPROM_PSoC.c ****     uint8 retByte;
 211:Generated_Source\PSoC5/EEPROM_PSoC.c ****     uint8 interruptState;
 212:Generated_Source\PSoC5/EEPROM_PSoC.c **** 
 213:Generated_Source\PSoC5/EEPROM_PSoC.c ****     interruptState = CyEnterCriticalSection();
 285              		.loc 1 213 0
 286 0004 FFF7FEFF 		bl	CyEnterCriticalSection
 287              	.LVL30:
 288 0008 0546     		mov	r5, r0
 289              	.LVL31:
 214:Generated_Source\PSoC5/EEPROM_PSoC.c **** 
 215:Generated_Source\PSoC5/EEPROM_PSoC.c ****     /* Request access to EEPROM for reading.
 216:Generated_Source\PSoC5/EEPROM_PSoC.c ****     This is needed to reserve PHUB for read operation from EEPROM */
 217:Generated_Source\PSoC5/EEPROM_PSoC.c ****     CyEEPROM_ReadReserve();
 290              		.loc 1 217 0
ARM GAS  C:\Users\Bart\AppData\Local\Temp\ccRlR46i.s 			page 10


 291 000a FFF7FEFF 		bl	CyEEPROM_ReadReserve
 292              	.LVL32:
 218:Generated_Source\PSoC5/EEPROM_PSoC.c ****     
 219:Generated_Source\PSoC5/EEPROM_PSoC.c ****     retByte = *((reg8 *) (CYDEV_EE_BASE + address));
 293              		.loc 1 219 0
 294 000e 04F18040 		add	r0, r4, #1073741824
 295 0012 00F50040 		add	r0, r0, #32768
 296 0016 0478     		ldrb	r4, [r0]	@ zero_extendqisi2
 297 0018 E4B2     		uxtb	r4, r4
 298              	.LVL33:
 220:Generated_Source\PSoC5/EEPROM_PSoC.c **** 
 221:Generated_Source\PSoC5/EEPROM_PSoC.c ****     /* Release EEPROM array */
 222:Generated_Source\PSoC5/EEPROM_PSoC.c ****     CyEEPROM_ReadRelease();
 299              		.loc 1 222 0
 300 001a FFF7FEFF 		bl	CyEEPROM_ReadRelease
 301              	.LVL34:
 223:Generated_Source\PSoC5/EEPROM_PSoC.c ****     
 224:Generated_Source\PSoC5/EEPROM_PSoC.c ****     CyExitCriticalSection(interruptState);
 302              		.loc 1 224 0
 303 001e 2846     		mov	r0, r5
 304 0020 FFF7FEFF 		bl	CyExitCriticalSection
 305              	.LVL35:
 225:Generated_Source\PSoC5/EEPROM_PSoC.c **** 
 226:Generated_Source\PSoC5/EEPROM_PSoC.c ****     return (retByte);
 227:Generated_Source\PSoC5/EEPROM_PSoC.c **** }
 306              		.loc 1 227 0
 307 0024 2046     		mov	r0, r4
 308 0026 38BD     		pop	{r3, r4, r5, pc}
 309              		.cfi_endproc
 310              	.LFE4:
 311              		.size	EEPROM_PSoC_ReadByte, .-EEPROM_PSoC_ReadByte
 312              		.section	.text.EEPROM_PSoC_UpdateTemperature,"ax",%progbits
 313              		.align	2
 314              		.global	EEPROM_PSoC_UpdateTemperature
 315              		.thumb
 316              		.thumb_func
 317              		.type	EEPROM_PSoC_UpdateTemperature, %function
 318              	EEPROM_PSoC_UpdateTemperature:
 319              	.LFB5:
 228:Generated_Source\PSoC5/EEPROM_PSoC.c **** 
 229:Generated_Source\PSoC5/EEPROM_PSoC.c **** 
 230:Generated_Source\PSoC5/EEPROM_PSoC.c **** /*******************************************************************************
 231:Generated_Source\PSoC5/EEPROM_PSoC.c **** * Function Name: EEPROM_PSoC_UpdateTemperature
 232:Generated_Source\PSoC5/EEPROM_PSoC.c **** ********************************************************************************
 233:Generated_Source\PSoC5/EEPROM_PSoC.c **** *
 234:Generated_Source\PSoC5/EEPROM_PSoC.c **** * Summary:
 235:Generated_Source\PSoC5/EEPROM_PSoC.c **** *  Updates and stores the temperature value. This function should be called
 236:Generated_Source\PSoC5/EEPROM_PSoC.c **** *  before EEPROM writes if the temperature may have been changed by more than
 237:Generated_Source\PSoC5/EEPROM_PSoC.c **** *  10 degrees Celsius.
 238:Generated_Source\PSoC5/EEPROM_PSoC.c **** *
 239:Generated_Source\PSoC5/EEPROM_PSoC.c **** * Parameters:
 240:Generated_Source\PSoC5/EEPROM_PSoC.c **** *  None
 241:Generated_Source\PSoC5/EEPROM_PSoC.c **** *
 242:Generated_Source\PSoC5/EEPROM_PSoC.c **** * Return:
 243:Generated_Source\PSoC5/EEPROM_PSoC.c **** *  Status of operation, 0 if operation complete, non-zero value if error
 244:Generated_Source\PSoC5/EEPROM_PSoC.c **** *  was detected.
 245:Generated_Source\PSoC5/EEPROM_PSoC.c **** *
ARM GAS  C:\Users\Bart\AppData\Local\Temp\ccRlR46i.s 			page 11


 246:Generated_Source\PSoC5/EEPROM_PSoC.c **** *******************************************************************************/
 247:Generated_Source\PSoC5/EEPROM_PSoC.c **** uint8 EEPROM_PSoC_UpdateTemperature(void) 
 248:Generated_Source\PSoC5/EEPROM_PSoC.c **** {
 320              		.loc 1 248 0
 321              		.cfi_startproc
 322              		@ args = 0, pretend = 0, frame = 0
 323              		@ frame_needed = 0, uses_anonymous_args = 0
 324 0000 08B5     		push	{r3, lr}
 325              		.cfi_def_cfa_offset 8
 326              		.cfi_offset 3, -8
 327              		.cfi_offset 14, -4
 249:Generated_Source\PSoC5/EEPROM_PSoC.c ****     return ((uint8)CySetTemp());
 328              		.loc 1 249 0
 329 0002 FFF7FEFF 		bl	CySetTemp
 330              	.LVL36:
 250:Generated_Source\PSoC5/EEPROM_PSoC.c **** }
 331              		.loc 1 250 0
 332 0006 C0B2     		uxtb	r0, r0
 333 0008 08BD     		pop	{r3, pc}
 334              		.cfi_endproc
 335              	.LFE5:
 336              		.size	EEPROM_PSoC_UpdateTemperature, .-EEPROM_PSoC_UpdateTemperature
 337              		.section	.text.EEPROM_PSoC_EraseSector,"ax",%progbits
 338              		.align	2
 339              		.global	EEPROM_PSoC_EraseSector
 340              		.thumb
 341              		.thumb_func
 342              		.type	EEPROM_PSoC_EraseSector, %function
 343              	EEPROM_PSoC_EraseSector:
 344              	.LFB6:
 251:Generated_Source\PSoC5/EEPROM_PSoC.c **** 
 252:Generated_Source\PSoC5/EEPROM_PSoC.c **** 
 253:Generated_Source\PSoC5/EEPROM_PSoC.c **** /*******************************************************************************
 254:Generated_Source\PSoC5/EEPROM_PSoC.c **** * Function Name: EEPROM_PSoC_EraseSector
 255:Generated_Source\PSoC5/EEPROM_PSoC.c **** ********************************************************************************
 256:Generated_Source\PSoC5/EEPROM_PSoC.c **** *
 257:Generated_Source\PSoC5/EEPROM_PSoC.c **** * Summary:
 258:Generated_Source\PSoC5/EEPROM_PSoC.c **** *  Erase an EEPROM sector (64 rows). This function blocks until the erase
 259:Generated_Source\PSoC5/EEPROM_PSoC.c **** *  operation is complete. Using this API helps to erase the EEPROM sector at
 260:Generated_Source\PSoC5/EEPROM_PSoC.c **** *  a time. This is faster than using individual writes but affects a cycle
 261:Generated_Source\PSoC5/EEPROM_PSoC.c **** *  recourse of the whole EEPROM row.
 262:Generated_Source\PSoC5/EEPROM_PSoC.c **** *
 263:Generated_Source\PSoC5/EEPROM_PSoC.c **** * Parameters:
 264:Generated_Source\PSoC5/EEPROM_PSoC.c **** *  sectorNumber:  The sector number to erase.
 265:Generated_Source\PSoC5/EEPROM_PSoC.c **** *
 266:Generated_Source\PSoC5/EEPROM_PSoC.c **** * Return:
 267:Generated_Source\PSoC5/EEPROM_PSoC.c **** *  CYRET_SUCCESS, if the operation was successful.
 268:Generated_Source\PSoC5/EEPROM_PSoC.c **** *  CYRET_BAD_PARAM, if the parameter sectorNumber is out of range.
 269:Generated_Source\PSoC5/EEPROM_PSoC.c **** *  CYRET_LOCKED, if the SPC is being used.
 270:Generated_Source\PSoC5/EEPROM_PSoC.c **** *  CYRET_UNKNOWN, if there was an SPC error.
 271:Generated_Source\PSoC5/EEPROM_PSoC.c **** *
 272:Generated_Source\PSoC5/EEPROM_PSoC.c **** *******************************************************************************/
 273:Generated_Source\PSoC5/EEPROM_PSoC.c **** cystatus EEPROM_PSoC_EraseSector(uint8 sectorNumber) 
 274:Generated_Source\PSoC5/EEPROM_PSoC.c **** {
 345              		.loc 1 274 0
 346              		.cfi_startproc
 347              		@ args = 0, pretend = 0, frame = 0
ARM GAS  C:\Users\Bart\AppData\Local\Temp\ccRlR46i.s 			page 12


 348              		@ frame_needed = 0, uses_anonymous_args = 0
 349              	.LVL37:
 350 0000 10B5     		push	{r4, lr}
 351              		.cfi_def_cfa_offset 8
 352              		.cfi_offset 4, -8
 353              		.cfi_offset 14, -4
 354 0002 0446     		mov	r4, r0
 275:Generated_Source\PSoC5/EEPROM_PSoC.c ****     cystatus status;
 276:Generated_Source\PSoC5/EEPROM_PSoC.c ****     
 277:Generated_Source\PSoC5/EEPROM_PSoC.c ****     CySpcStart();
 355              		.loc 1 277 0
 356 0004 FFF7FEFF 		bl	CySpcStart
 357              	.LVL38:
 278:Generated_Source\PSoC5/EEPROM_PSoC.c **** 
 279:Generated_Source\PSoC5/EEPROM_PSoC.c ****     if(sectorNumber < (uint8) EEPROM_PSoC_SECTORS_NUMBER)
 358              		.loc 1 279 0
 359 0008 012C     		cmp	r4, #1
 360 000a 23D8     		bhi	.L33
 280:Generated_Source\PSoC5/EEPROM_PSoC.c ****     {
 281:Generated_Source\PSoC5/EEPROM_PSoC.c ****         /* See if we can get SPC. */
 282:Generated_Source\PSoC5/EEPROM_PSoC.c ****         if(CySpcLock() == CYRET_SUCCESS)
 361              		.loc 1 282 0
 362 000c FFF7FEFF 		bl	CySpcLock
 363              	.LVL39:
 364 0010 10BB     		cbnz	r0, .L34
 283:Generated_Source\PSoC5/EEPROM_PSoC.c ****         {
 284:Generated_Source\PSoC5/EEPROM_PSoC.c ****             if(CySpcEraseSector(CY_SPC_FIRST_EE_ARRAYID, sectorNumber) == CYRET_STARTED)
 365              		.loc 1 284 0
 366 0012 4020     		movs	r0, #64
 367 0014 2146     		mov	r1, r4
 368 0016 FFF7FEFF 		bl	CySpcEraseSector
 369              	.LVL40:
 370 001a 0728     		cmp	r0, #7
 371 001c 10D1     		bne	.L35
 372              	.L32:
 285:Generated_Source\PSoC5/EEPROM_PSoC.c ****             {
 286:Generated_Source\PSoC5/EEPROM_PSoC.c ****                 /* Plan for failure */
 287:Generated_Source\PSoC5/EEPROM_PSoC.c ****                 status = CYRET_UNKNOWN;
 288:Generated_Source\PSoC5/EEPROM_PSoC.c **** 
 289:Generated_Source\PSoC5/EEPROM_PSoC.c ****                 while(CY_SPC_BUSY)
 373              		.loc 1 289 0 discriminator 1
 374 001e 104B     		ldr	r3, .L39
 375 0020 1B78     		ldrb	r3, [r3]	@ zero_extendqisi2
 376 0022 13F0020F 		tst	r3, #2
 377 0026 FAD0     		beq	.L32
 290:Generated_Source\PSoC5/EEPROM_PSoC.c ****                 {
 291:Generated_Source\PSoC5/EEPROM_PSoC.c ****                     /* Wait until SPC becomes idle */
 292:Generated_Source\PSoC5/EEPROM_PSoC.c ****                 }
 293:Generated_Source\PSoC5/EEPROM_PSoC.c **** 
 294:Generated_Source\PSoC5/EEPROM_PSoC.c ****                 /* SPC is idle now */
 295:Generated_Source\PSoC5/EEPROM_PSoC.c ****                 if(CY_SPC_STATUS_SUCCESS == CY_SPC_READ_STATUS)
 378              		.loc 1 295 0
 379 0028 0D4B     		ldr	r3, .L39
 380 002a 1B78     		ldrb	r3, [r3]	@ zero_extendqisi2
 381 002c 13F0020F 		tst	r3, #2
 382 0030 09D0     		beq	.L36
 383              		.loc 1 295 0 is_stmt 0 discriminator 1
ARM GAS  C:\Users\Bart\AppData\Local\Temp\ccRlR46i.s 			page 13


 384 0032 0B4B     		ldr	r3, .L39
 385 0034 1B78     		ldrb	r3, [r3]	@ zero_extendqisi2
 386 0036 9B08     		lsrs	r3, r3, #2
 387 0038 08D0     		beq	.L37
 287:Generated_Source\PSoC5/EEPROM_PSoC.c **** 
 388              		.loc 1 287 0 is_stmt 1
 389 003a 4FF0FF34 		mov	r4, #-1
 390 003e 06E0     		b	.L31
 391              	.L35:
 296:Generated_Source\PSoC5/EEPROM_PSoC.c ****                 {
 297:Generated_Source\PSoC5/EEPROM_PSoC.c ****                     status = CYRET_SUCCESS;
 298:Generated_Source\PSoC5/EEPROM_PSoC.c ****                 }
 299:Generated_Source\PSoC5/EEPROM_PSoC.c ****             }
 300:Generated_Source\PSoC5/EEPROM_PSoC.c ****             else
 301:Generated_Source\PSoC5/EEPROM_PSoC.c ****             {
 302:Generated_Source\PSoC5/EEPROM_PSoC.c ****                 status = CYRET_UNKNOWN;
 392              		.loc 1 302 0
 393 0040 4FF0FF34 		mov	r4, #-1
 394 0044 03E0     		b	.L31
 395              	.L36:
 287:Generated_Source\PSoC5/EEPROM_PSoC.c **** 
 396              		.loc 1 287 0
 397 0046 4FF0FF34 		mov	r4, #-1
 398 004a 00E0     		b	.L31
 399              	.L37:
 297:Generated_Source\PSoC5/EEPROM_PSoC.c ****                 }
 400              		.loc 1 297 0
 401 004c 0024     		movs	r4, #0
 402              	.L31:
 403              	.LVL41:
 303:Generated_Source\PSoC5/EEPROM_PSoC.c ****             }
 304:Generated_Source\PSoC5/EEPROM_PSoC.c **** 
 305:Generated_Source\PSoC5/EEPROM_PSoC.c ****             /* Unlock SPC so that someone else can use it. */
 306:Generated_Source\PSoC5/EEPROM_PSoC.c ****             CySpcUnlock();
 404              		.loc 1 306 0
 405 004e FFF7FEFF 		bl	CySpcUnlock
 406              	.LVL42:
 407 0052 02E0     		b	.L30
 408              	.LVL43:
 409              	.L33:
 307:Generated_Source\PSoC5/EEPROM_PSoC.c ****         }
 308:Generated_Source\PSoC5/EEPROM_PSoC.c ****         else
 309:Generated_Source\PSoC5/EEPROM_PSoC.c ****         {
 310:Generated_Source\PSoC5/EEPROM_PSoC.c ****             status = CYRET_LOCKED;
 311:Generated_Source\PSoC5/EEPROM_PSoC.c ****         }
 312:Generated_Source\PSoC5/EEPROM_PSoC.c ****     }
 313:Generated_Source\PSoC5/EEPROM_PSoC.c ****     else
 314:Generated_Source\PSoC5/EEPROM_PSoC.c ****     {
 315:Generated_Source\PSoC5/EEPROM_PSoC.c ****         status = CYRET_BAD_PARAM;
 410              		.loc 1 315 0
 411 0054 0124     		movs	r4, #1
 412 0056 00E0     		b	.L30
 413              	.L34:
 310:Generated_Source\PSoC5/EEPROM_PSoC.c ****         }
 414              		.loc 1 310 0
 415 0058 0424     		movs	r4, #4
 416              	.L30:
ARM GAS  C:\Users\Bart\AppData\Local\Temp\ccRlR46i.s 			page 14


 417              	.LVL44:
 316:Generated_Source\PSoC5/EEPROM_PSoC.c ****     }
 317:Generated_Source\PSoC5/EEPROM_PSoC.c **** 
 318:Generated_Source\PSoC5/EEPROM_PSoC.c ****     return(status);
 319:Generated_Source\PSoC5/EEPROM_PSoC.c **** }
 418              		.loc 1 319 0
 419 005a 2046     		mov	r0, r4
 420 005c 10BD     		pop	{r4, pc}
 421              	.LVL45:
 422              	.L40:
 423 005e 00BF     		.align	2
 424              	.L39:
 425 0060 22470040 		.word	1073760034
 426              		.cfi_endproc
 427              	.LFE6:
 428              		.size	EEPROM_PSoC_EraseSector, .-EEPROM_PSoC_EraseSector
 429              		.section	.text.EEPROM_PSoC_Write,"ax",%progbits
 430              		.align	2
 431              		.global	EEPROM_PSoC_Write
 432              		.thumb
 433              		.thumb_func
 434              		.type	EEPROM_PSoC_Write, %function
 435              	EEPROM_PSoC_Write:
 436              	.LFB7:
 320:Generated_Source\PSoC5/EEPROM_PSoC.c **** 
 321:Generated_Source\PSoC5/EEPROM_PSoC.c **** 
 322:Generated_Source\PSoC5/EEPROM_PSoC.c **** /*******************************************************************************
 323:Generated_Source\PSoC5/EEPROM_PSoC.c **** * Function Name: EEPROM_PSoC_Write
 324:Generated_Source\PSoC5/EEPROM_PSoC.c **** ********************************************************************************
 325:Generated_Source\PSoC5/EEPROM_PSoC.c **** *
 326:Generated_Source\PSoC5/EEPROM_PSoC.c **** * Summary:
 327:Generated_Source\PSoC5/EEPROM_PSoC.c **** *  Writes a row (16 bytes) of data to the EEPROM. This function blocks until
 328:Generated_Source\PSoC5/EEPROM_PSoC.c **** *  the write operation is complete. Compared to functions that write one byte,
 329:Generated_Source\PSoC5/EEPROM_PSoC.c **** *  this function allows writing a whole row (16 bytes) at a time. For
 330:Generated_Source\PSoC5/EEPROM_PSoC.c **** *  a reliable write procedure to occur you should call the
 331:Generated_Source\PSoC5/EEPROM_PSoC.c **** *  EEPROM_PSoC_UpdateTemperature() function if the temperature of the
 332:Generated_Source\PSoC5/EEPROM_PSoC.c **** *  silicon has changed for more than 10C since component was started.
 333:Generated_Source\PSoC5/EEPROM_PSoC.c **** *
 334:Generated_Source\PSoC5/EEPROM_PSoC.c **** * Parameters:
 335:Generated_Source\PSoC5/EEPROM_PSoC.c **** *  rowData:    The address of the data to write to the EEPROM.
 336:Generated_Source\PSoC5/EEPROM_PSoC.c **** *  rowNumber:  The row number to write.
 337:Generated_Source\PSoC5/EEPROM_PSoC.c **** *
 338:Generated_Source\PSoC5/EEPROM_PSoC.c **** * Return:
 339:Generated_Source\PSoC5/EEPROM_PSoC.c **** *  CYRET_SUCCESS, if the operation was successful.
 340:Generated_Source\PSoC5/EEPROM_PSoC.c **** *  CYRET_BAD_PARAM, if the parameter rowNumber is out of range.
 341:Generated_Source\PSoC5/EEPROM_PSoC.c **** *  CYRET_LOCKED, if the SPC is being used.
 342:Generated_Source\PSoC5/EEPROM_PSoC.c **** *  CYRET_UNKNOWN, if there was an SPC error.
 343:Generated_Source\PSoC5/EEPROM_PSoC.c **** *
 344:Generated_Source\PSoC5/EEPROM_PSoC.c **** *******************************************************************************/
 345:Generated_Source\PSoC5/EEPROM_PSoC.c **** cystatus EEPROM_PSoC_Write(const uint8 * rowData, uint8 rowNumber) 
 346:Generated_Source\PSoC5/EEPROM_PSoC.c **** {
 437              		.loc 1 346 0
 438              		.cfi_startproc
 439              		@ args = 0, pretend = 0, frame = 0
 440              		@ frame_needed = 0, uses_anonymous_args = 0
 441              	.LVL46:
 442 0000 38B5     		push	{r3, r4, r5, lr}
ARM GAS  C:\Users\Bart\AppData\Local\Temp\ccRlR46i.s 			page 15


 443              		.cfi_def_cfa_offset 16
 444              		.cfi_offset 3, -16
 445              		.cfi_offset 4, -12
 446              		.cfi_offset 5, -8
 447              		.cfi_offset 14, -4
 448 0002 0446     		mov	r4, r0
 449 0004 0D46     		mov	r5, r1
 347:Generated_Source\PSoC5/EEPROM_PSoC.c ****     cystatus status;
 348:Generated_Source\PSoC5/EEPROM_PSoC.c ****     
 349:Generated_Source\PSoC5/EEPROM_PSoC.c ****     CySpcStart();
 450              		.loc 1 349 0
 451 0006 FFF7FEFF 		bl	CySpcStart
 452              	.LVL47:
 350:Generated_Source\PSoC5/EEPROM_PSoC.c **** 
 351:Generated_Source\PSoC5/EEPROM_PSoC.c ****     if(rowNumber < (uint8) CY_EEPROM_NUMBER_ROWS)
 453              		.loc 1 351 0
 454 000a 15F0800F 		tst	r5, #128
 455 000e 48D1     		bne	.L47
 352:Generated_Source\PSoC5/EEPROM_PSoC.c ****     {
 353:Generated_Source\PSoC5/EEPROM_PSoC.c ****         /* See if we can get SPC. */
 354:Generated_Source\PSoC5/EEPROM_PSoC.c ****         if(CySpcLock() == CYRET_SUCCESS)
 456              		.loc 1 354 0
 457 0010 FFF7FEFF 		bl	CySpcLock
 458              	.LVL48:
 459 0014 0028     		cmp	r0, #0
 460 0016 46D1     		bne	.L48
 461              	.LVL49:
 355:Generated_Source\PSoC5/EEPROM_PSoC.c ****         {
 356:Generated_Source\PSoC5/EEPROM_PSoC.c ****             /* Plan for failure */
 357:Generated_Source\PSoC5/EEPROM_PSoC.c ****             status = CYRET_UNKNOWN;
 358:Generated_Source\PSoC5/EEPROM_PSoC.c **** 
 359:Generated_Source\PSoC5/EEPROM_PSoC.c ****             /* Command to load a row of data */
 360:Generated_Source\PSoC5/EEPROM_PSoC.c ****             if(CySpcLoadRow(CY_SPC_FIRST_EE_ARRAYID, rowData, CYDEV_EEPROM_ROW_SIZE) == CYRET_START
 462              		.loc 1 360 0
 463 0018 4020     		movs	r0, #64
 464 001a 2146     		mov	r1, r4
 465 001c 1022     		movs	r2, #16
 466 001e FFF7FEFF 		bl	CySpcLoadRow
 467              	.LVL50:
 468 0022 0728     		cmp	r0, #7
 469 0024 2FD1     		bne	.L49
 470              	.L44:
 361:Generated_Source\PSoC5/EEPROM_PSoC.c ****             {
 362:Generated_Source\PSoC5/EEPROM_PSoC.c ****                 while(CY_SPC_BUSY)
 471              		.loc 1 362 0 discriminator 1
 472 0026 214B     		ldr	r3, .L56
 473 0028 1B78     		ldrb	r3, [r3]	@ zero_extendqisi2
 474 002a 13F0020F 		tst	r3, #2
 475 002e FAD0     		beq	.L44
 363:Generated_Source\PSoC5/EEPROM_PSoC.c ****                 {
 364:Generated_Source\PSoC5/EEPROM_PSoC.c ****                     /* Wait until SPC becomes idle */
 365:Generated_Source\PSoC5/EEPROM_PSoC.c ****                 }
 366:Generated_Source\PSoC5/EEPROM_PSoC.c **** 
 367:Generated_Source\PSoC5/EEPROM_PSoC.c ****                 /* SPC is idle now */
 368:Generated_Source\PSoC5/EEPROM_PSoC.c ****                 if(CY_SPC_STATUS_SUCCESS == CY_SPC_READ_STATUS)
 476              		.loc 1 368 0
 477 0030 1E4B     		ldr	r3, .L56
ARM GAS  C:\Users\Bart\AppData\Local\Temp\ccRlR46i.s 			page 16


 478 0032 1B78     		ldrb	r3, [r3]	@ zero_extendqisi2
 479 0034 13F0020F 		tst	r3, #2
 480 0038 06D0     		beq	.L50
 481              		.loc 1 368 0 is_stmt 0 discriminator 1
 482 003a 1C4B     		ldr	r3, .L56
 483 003c 1B78     		ldrb	r3, [r3]	@ zero_extendqisi2
 484 003e 9B08     		lsrs	r3, r3, #2
 485 0040 05D0     		beq	.L51
 357:Generated_Source\PSoC5/EEPROM_PSoC.c **** 
 486              		.loc 1 357 0 is_stmt 1
 487 0042 4FF0FF34 		mov	r4, #-1
 488              	.LVL51:
 489 0046 03E0     		b	.L45
 490              	.LVL52:
 491              	.L50:
 492 0048 4FF0FF34 		mov	r4, #-1
 493              	.LVL53:
 494 004c 00E0     		b	.L45
 495              	.LVL54:
 496              	.L51:
 369:Generated_Source\PSoC5/EEPROM_PSoC.c ****                 {
 370:Generated_Source\PSoC5/EEPROM_PSoC.c ****                     status = CYRET_SUCCESS;
 497              		.loc 1 370 0
 498 004e 0024     		movs	r4, #0
 499              	.LVL55:
 500              	.L45:
 371:Generated_Source\PSoC5/EEPROM_PSoC.c ****                 }
 372:Generated_Source\PSoC5/EEPROM_PSoC.c **** 
 373:Generated_Source\PSoC5/EEPROM_PSoC.c ****                 /* Command to erase and program the row. */
 374:Generated_Source\PSoC5/EEPROM_PSoC.c ****                 if(status == CYRET_SUCCESS)
 501              		.loc 1 374 0
 502 0050 E4B9     		cbnz	r4, .L52
 375:Generated_Source\PSoC5/EEPROM_PSoC.c ****                 {
 376:Generated_Source\PSoC5/EEPROM_PSoC.c ****                     if(CySpcWriteRow(CY_SPC_FIRST_EE_ARRAYID, (uint16)rowNumber, dieTemperature[0u]
 503              		.loc 1 376 0
 504 0052 174B     		ldr	r3, .L56+4
 505 0054 4020     		movs	r0, #64
 506 0056 2946     		mov	r1, r5
 507 0058 1A78     		ldrb	r2, [r3]	@ zero_extendqisi2
 508 005a 5B78     		ldrb	r3, [r3, #1]	@ zero_extendqisi2
 509 005c FFF7FEFF 		bl	CySpcWriteRow
 510              	.LVL56:
 511 0060 0728     		cmp	r0, #7
 512 0062 16D1     		bne	.L53
 513              	.L46:
 377:Generated_Source\PSoC5/EEPROM_PSoC.c ****                     dieTemperature[1u]) == CYRET_STARTED)
 378:Generated_Source\PSoC5/EEPROM_PSoC.c ****                     {
 379:Generated_Source\PSoC5/EEPROM_PSoC.c ****                         /* Plan for failure */
 380:Generated_Source\PSoC5/EEPROM_PSoC.c ****                         status = CYRET_UNKNOWN;
 381:Generated_Source\PSoC5/EEPROM_PSoC.c **** 
 382:Generated_Source\PSoC5/EEPROM_PSoC.c ****                         while(CY_SPC_BUSY)
 514              		.loc 1 382 0 discriminator 1
 515 0064 114B     		ldr	r3, .L56
 516 0066 1B78     		ldrb	r3, [r3]	@ zero_extendqisi2
 517 0068 13F0020F 		tst	r3, #2
 518 006c FAD0     		beq	.L46
 383:Generated_Source\PSoC5/EEPROM_PSoC.c ****                         {
ARM GAS  C:\Users\Bart\AppData\Local\Temp\ccRlR46i.s 			page 17


 384:Generated_Source\PSoC5/EEPROM_PSoC.c ****                             /* Wait until SPC becomes idle */
 385:Generated_Source\PSoC5/EEPROM_PSoC.c ****                         }
 386:Generated_Source\PSoC5/EEPROM_PSoC.c **** 
 387:Generated_Source\PSoC5/EEPROM_PSoC.c ****                         /* SPC is idle now */
 388:Generated_Source\PSoC5/EEPROM_PSoC.c ****                         if(CY_SPC_STATUS_SUCCESS == CY_SPC_READ_STATUS)
 519              		.loc 1 388 0
 520 006e 0F4B     		ldr	r3, .L56
 521 0070 1B78     		ldrb	r3, [r3]	@ zero_extendqisi2
 522 0072 13F0020F 		tst	r3, #2
 523 0076 0FD0     		beq	.L54
 524              		.loc 1 388 0 is_stmt 0 discriminator 1
 525 0078 0C4B     		ldr	r3, .L56
 526 007a 1B78     		ldrb	r3, [r3]	@ zero_extendqisi2
 527 007c 9B08     		lsrs	r3, r3, #2
 528 007e 0DD0     		beq	.L43
 380:Generated_Source\PSoC5/EEPROM_PSoC.c **** 
 529              		.loc 1 380 0 is_stmt 1
 530 0080 4FF0FF34 		mov	r4, #-1
 531              	.LVL57:
 532 0084 0AE0     		b	.L43
 533              	.LVL58:
 534              	.L49:
 357:Generated_Source\PSoC5/EEPROM_PSoC.c **** 
 535              		.loc 1 357 0
 536 0086 4FF0FF34 		mov	r4, #-1
 537              	.LVL59:
 538 008a 07E0     		b	.L43
 539              	.LVL60:
 540              	.L52:
 389:Generated_Source\PSoC5/EEPROM_PSoC.c ****                         {
 390:Generated_Source\PSoC5/EEPROM_PSoC.c ****                             status = CYRET_SUCCESS;
 391:Generated_Source\PSoC5/EEPROM_PSoC.c ****                         }
 392:Generated_Source\PSoC5/EEPROM_PSoC.c ****                     }
 393:Generated_Source\PSoC5/EEPROM_PSoC.c ****                     else
 394:Generated_Source\PSoC5/EEPROM_PSoC.c ****                     {
 395:Generated_Source\PSoC5/EEPROM_PSoC.c ****                         status = CYRET_UNKNOWN;
 396:Generated_Source\PSoC5/EEPROM_PSoC.c ****                     }
 397:Generated_Source\PSoC5/EEPROM_PSoC.c ****                 }
 398:Generated_Source\PSoC5/EEPROM_PSoC.c ****                 else
 399:Generated_Source\PSoC5/EEPROM_PSoC.c ****                 {
 400:Generated_Source\PSoC5/EEPROM_PSoC.c ****                     status = CYRET_UNKNOWN;
 541              		.loc 1 400 0
 542 008c 4FF0FF34 		mov	r4, #-1
 543              	.LVL61:
 544 0090 04E0     		b	.L43
 545              	.LVL62:
 546              	.L53:
 395:Generated_Source\PSoC5/EEPROM_PSoC.c ****                     }
 547              		.loc 1 395 0
 548 0092 4FF0FF34 		mov	r4, #-1
 549              	.LVL63:
 550 0096 01E0     		b	.L43
 551              	.LVL64:
 552              	.L54:
 380:Generated_Source\PSoC5/EEPROM_PSoC.c **** 
 553              		.loc 1 380 0
 554 0098 4FF0FF34 		mov	r4, #-1
ARM GAS  C:\Users\Bart\AppData\Local\Temp\ccRlR46i.s 			page 18


 555              	.LVL65:
 556              	.L43:
 401:Generated_Source\PSoC5/EEPROM_PSoC.c ****                 }
 402:Generated_Source\PSoC5/EEPROM_PSoC.c ****             }
 403:Generated_Source\PSoC5/EEPROM_PSoC.c **** 
 404:Generated_Source\PSoC5/EEPROM_PSoC.c ****             /* Unlock SPC so that someone else can use it. */
 405:Generated_Source\PSoC5/EEPROM_PSoC.c ****             CySpcUnlock();
 557              		.loc 1 405 0
 558 009c FFF7FEFF 		bl	CySpcUnlock
 559              	.LVL66:
 560 00a0 02E0     		b	.L42
 561              	.LVL67:
 562              	.L47:
 406:Generated_Source\PSoC5/EEPROM_PSoC.c ****         }
 407:Generated_Source\PSoC5/EEPROM_PSoC.c ****         else
 408:Generated_Source\PSoC5/EEPROM_PSoC.c ****         {
 409:Generated_Source\PSoC5/EEPROM_PSoC.c ****             status = CYRET_LOCKED;
 410:Generated_Source\PSoC5/EEPROM_PSoC.c ****         }
 411:Generated_Source\PSoC5/EEPROM_PSoC.c ****     }
 412:Generated_Source\PSoC5/EEPROM_PSoC.c ****     else
 413:Generated_Source\PSoC5/EEPROM_PSoC.c ****     {
 414:Generated_Source\PSoC5/EEPROM_PSoC.c ****         status = CYRET_BAD_PARAM;
 563              		.loc 1 414 0
 564 00a2 0124     		movs	r4, #1
 565              	.LVL68:
 566 00a4 00E0     		b	.L42
 567              	.LVL69:
 568              	.L48:
 409:Generated_Source\PSoC5/EEPROM_PSoC.c ****         }
 569              		.loc 1 409 0
 570 00a6 0424     		movs	r4, #4
 571              	.LVL70:
 572              	.L42:
 415:Generated_Source\PSoC5/EEPROM_PSoC.c ****     }
 416:Generated_Source\PSoC5/EEPROM_PSoC.c **** 
 417:Generated_Source\PSoC5/EEPROM_PSoC.c ****     return(status);
 418:Generated_Source\PSoC5/EEPROM_PSoC.c **** }
 573              		.loc 1 418 0
 574 00a8 2046     		mov	r0, r4
 575 00aa 38BD     		pop	{r3, r4, r5, pc}
 576              	.LVL71:
 577              	.L57:
 578              		.align	2
 579              	.L56:
 580 00ac 22470040 		.word	1073760034
 581 00b0 00000000 		.word	dieTemperature
 582              		.cfi_endproc
 583              	.LFE7:
 584              		.size	EEPROM_PSoC_Write, .-EEPROM_PSoC_Write
 585              		.section	.text.EEPROM_PSoC_StartWrite,"ax",%progbits
 586              		.align	2
 587              		.global	EEPROM_PSoC_StartWrite
 588              		.thumb
 589              		.thumb_func
 590              		.type	EEPROM_PSoC_StartWrite, %function
 591              	EEPROM_PSoC_StartWrite:
 592              	.LFB8:
ARM GAS  C:\Users\Bart\AppData\Local\Temp\ccRlR46i.s 			page 19


 419:Generated_Source\PSoC5/EEPROM_PSoC.c **** 
 420:Generated_Source\PSoC5/EEPROM_PSoC.c **** 
 421:Generated_Source\PSoC5/EEPROM_PSoC.c **** /*******************************************************************************
 422:Generated_Source\PSoC5/EEPROM_PSoC.c **** * Function Name: EEPROM_PSoC_StartWrite
 423:Generated_Source\PSoC5/EEPROM_PSoC.c **** ********************************************************************************
 424:Generated_Source\PSoC5/EEPROM_PSoC.c **** *
 425:Generated_Source\PSoC5/EEPROM_PSoC.c **** * Summary:
 426:Generated_Source\PSoC5/EEPROM_PSoC.c **** *  Starts a write of a row (16 bytes) of data to the EEPROM.
 427:Generated_Source\PSoC5/EEPROM_PSoC.c **** *  This function does not block. The function returns once the SPC has begun
 428:Generated_Source\PSoC5/EEPROM_PSoC.c **** *  writing the data. This function must be used in combination with
 429:Generated_Source\PSoC5/EEPROM_PSoC.c **** *  EEPROM_PSoC_Query(). EEPROM_PSoC_Query() must be called
 430:Generated_Source\PSoC5/EEPROM_PSoC.c **** *  until it returns a status other than CYRET_STARTED. That indicates that the
 431:Generated_Source\PSoC5/EEPROM_PSoC.c **** *  write has completed. Until EEPROM_PSoC_Query() detects that
 432:Generated_Source\PSoC5/EEPROM_PSoC.c **** *  the write is complete, the SPC is marked as locked to prevent another
 433:Generated_Source\PSoC5/EEPROM_PSoC.c **** *  SPC operation from being performed. For a reliable write procedure to occur
 434:Generated_Source\PSoC5/EEPROM_PSoC.c **** *  you should call EEPROM_PSoC_UpdateTemperature() API if the temperature
 435:Generated_Source\PSoC5/EEPROM_PSoC.c **** *  of the silicon has changed for more than 10C since component was started.
 436:Generated_Source\PSoC5/EEPROM_PSoC.c **** *
 437:Generated_Source\PSoC5/EEPROM_PSoC.c **** * Parameters:
 438:Generated_Source\PSoC5/EEPROM_PSoC.c **** *  rowData:    The address of the data to write to the EEPROM.
 439:Generated_Source\PSoC5/EEPROM_PSoC.c **** *  rowNumber:  The row number to write.
 440:Generated_Source\PSoC5/EEPROM_PSoC.c **** *
 441:Generated_Source\PSoC5/EEPROM_PSoC.c **** * Return:
 442:Generated_Source\PSoC5/EEPROM_PSoC.c **** *  CYRET_STARTED, if the SPC command to write was successfully started.
 443:Generated_Source\PSoC5/EEPROM_PSoC.c **** *  CYRET_BAD_PARAM, if the parameter rowNumber is out of range.
 444:Generated_Source\PSoC5/EEPROM_PSoC.c **** *  CYRET_LOCKED, if the SPC is being used.
 445:Generated_Source\PSoC5/EEPROM_PSoC.c **** *  CYRET_UNKNOWN, if there was an SPC error.
 446:Generated_Source\PSoC5/EEPROM_PSoC.c **** *
 447:Generated_Source\PSoC5/EEPROM_PSoC.c **** * Side effects:
 448:Generated_Source\PSoC5/EEPROM_PSoC.c **** *  After calling this API, the device should not be powered down, reset or switched
 449:Generated_Source\PSoC5/EEPROM_PSoC.c **** *  to low power modes until EEPROM operation is complete. 
 450:Generated_Source\PSoC5/EEPROM_PSoC.c **** *  Ignoring this recommendation may lead to data corruption or silicon
 451:Generated_Source\PSoC5/EEPROM_PSoC.c **** *  unexpected behavior.
 452:Generated_Source\PSoC5/EEPROM_PSoC.c **** *
 453:Generated_Source\PSoC5/EEPROM_PSoC.c **** *******************************************************************************/
 454:Generated_Source\PSoC5/EEPROM_PSoC.c **** cystatus EEPROM_PSoC_StartWrite(const uint8 * rowData, uint8 rowNumber) \
 455:Generated_Source\PSoC5/EEPROM_PSoC.c **** 
 456:Generated_Source\PSoC5/EEPROM_PSoC.c **** {
 593              		.loc 1 456 0
 594              		.cfi_startproc
 595              		@ args = 0, pretend = 0, frame = 0
 596              		@ frame_needed = 0, uses_anonymous_args = 0
 597              	.LVL72:
 598 0000 38B5     		push	{r3, r4, r5, lr}
 599              		.cfi_def_cfa_offset 16
 600              		.cfi_offset 3, -16
 601              		.cfi_offset 4, -12
 602              		.cfi_offset 5, -8
 603              		.cfi_offset 14, -4
 604 0002 0546     		mov	r5, r0
 605 0004 0C46     		mov	r4, r1
 457:Generated_Source\PSoC5/EEPROM_PSoC.c ****     cystatus status;
 458:Generated_Source\PSoC5/EEPROM_PSoC.c ****     
 459:Generated_Source\PSoC5/EEPROM_PSoC.c ****     CySpcStart();
 606              		.loc 1 459 0
 607 0006 FFF7FEFF 		bl	CySpcStart
 608              	.LVL73:
ARM GAS  C:\Users\Bart\AppData\Local\Temp\ccRlR46i.s 			page 20


 460:Generated_Source\PSoC5/EEPROM_PSoC.c **** 
 461:Generated_Source\PSoC5/EEPROM_PSoC.c ****     if(rowNumber < (uint8) CY_EEPROM_NUMBER_ROWS)
 609              		.loc 1 461 0
 610 000a 14F0800F 		tst	r4, #128
 611 000e 29D1     		bne	.L62
 462:Generated_Source\PSoC5/EEPROM_PSoC.c ****     {
 463:Generated_Source\PSoC5/EEPROM_PSoC.c ****         /* See if we can get SPC. */
 464:Generated_Source\PSoC5/EEPROM_PSoC.c ****         if(CySpcLock() == CYRET_SUCCESS)
 612              		.loc 1 464 0
 613 0010 FFF7FEFF 		bl	CySpcLock
 614              	.LVL74:
 615 0014 40BB     		cbnz	r0, .L63
 616              	.LVL75:
 465:Generated_Source\PSoC5/EEPROM_PSoC.c ****         {
 466:Generated_Source\PSoC5/EEPROM_PSoC.c ****             /* Plan for failure */
 467:Generated_Source\PSoC5/EEPROM_PSoC.c ****             status = CYRET_UNKNOWN;
 468:Generated_Source\PSoC5/EEPROM_PSoC.c **** 
 469:Generated_Source\PSoC5/EEPROM_PSoC.c ****             /* Command to load a row of data */
 470:Generated_Source\PSoC5/EEPROM_PSoC.c ****             if(CySpcLoadRow(CY_SPC_FIRST_EE_ARRAYID, rowData, CYDEV_EEPROM_ROW_SIZE) == CYRET_START
 617              		.loc 1 470 0
 618 0016 4020     		movs	r0, #64
 619 0018 2946     		mov	r1, r5
 620 001a 1022     		movs	r2, #16
 621 001c FFF7FEFF 		bl	CySpcLoadRow
 622              	.LVL76:
 623 0020 0728     		cmp	r0, #7
 624 0022 23D1     		bne	.L64
 625              	.L60:
 471:Generated_Source\PSoC5/EEPROM_PSoC.c ****             {
 472:Generated_Source\PSoC5/EEPROM_PSoC.c ****                 while(CY_SPC_BUSY)
 626              		.loc 1 472 0 discriminator 1
 627 0024 164B     		ldr	r3, .L70
 628 0026 1B78     		ldrb	r3, [r3]	@ zero_extendqisi2
 629 0028 13F0020F 		tst	r3, #2
 630 002c FAD0     		beq	.L60
 473:Generated_Source\PSoC5/EEPROM_PSoC.c ****                 {
 474:Generated_Source\PSoC5/EEPROM_PSoC.c ****                     /* Wait until SPC becomes idle */
 475:Generated_Source\PSoC5/EEPROM_PSoC.c ****                 }
 476:Generated_Source\PSoC5/EEPROM_PSoC.c **** 
 477:Generated_Source\PSoC5/EEPROM_PSoC.c ****                 /* SPC is idle now */
 478:Generated_Source\PSoC5/EEPROM_PSoC.c ****                 if(CY_SPC_STATUS_SUCCESS == CY_SPC_READ_STATUS)
 631              		.loc 1 478 0
 632 002e 144B     		ldr	r3, .L70
 633 0030 1B78     		ldrb	r3, [r3]	@ zero_extendqisi2
 634 0032 13F0020F 		tst	r3, #2
 635 0036 06D0     		beq	.L65
 636              		.loc 1 478 0 is_stmt 0 discriminator 1
 637 0038 114B     		ldr	r3, .L70
 638 003a 1B78     		ldrb	r3, [r3]	@ zero_extendqisi2
 639 003c 9B08     		lsrs	r3, r3, #2
 640 003e 05D0     		beq	.L66
 467:Generated_Source\PSoC5/EEPROM_PSoC.c **** 
 641              		.loc 1 467 0 is_stmt 1
 642 0040 4FF0FF33 		mov	r3, #-1
 643 0044 03E0     		b	.L61
 644              	.L65:
 645 0046 4FF0FF33 		mov	r3, #-1
ARM GAS  C:\Users\Bart\AppData\Local\Temp\ccRlR46i.s 			page 21


 646 004a 00E0     		b	.L61
 647              	.L66:
 479:Generated_Source\PSoC5/EEPROM_PSoC.c ****                 {
 480:Generated_Source\PSoC5/EEPROM_PSoC.c ****                     status = CYRET_SUCCESS;
 648              		.loc 1 480 0
 649 004c 0023     		movs	r3, #0
 650              	.L61:
 651              	.LVL77:
 481:Generated_Source\PSoC5/EEPROM_PSoC.c ****                 }
 482:Generated_Source\PSoC5/EEPROM_PSoC.c **** 
 483:Generated_Source\PSoC5/EEPROM_PSoC.c ****                 /* Command to erase and program the row. */
 484:Generated_Source\PSoC5/EEPROM_PSoC.c ****                 if(status == CYRET_SUCCESS)
 652              		.loc 1 484 0
 653 004e 83B9     		cbnz	r3, .L67
 485:Generated_Source\PSoC5/EEPROM_PSoC.c ****                 {
 486:Generated_Source\PSoC5/EEPROM_PSoC.c ****                     if(CySpcWriteRow(CY_SPC_FIRST_EE_ARRAYID, (uint16)rowNumber, dieTemperature[0u]
 654              		.loc 1 486 0
 655 0050 0C4B     		ldr	r3, .L70+4
 656              	.LVL78:
 657 0052 4020     		movs	r0, #64
 658 0054 2146     		mov	r1, r4
 659 0056 1A78     		ldrb	r2, [r3]	@ zero_extendqisi2
 660 0058 5B78     		ldrb	r3, [r3, #1]	@ zero_extendqisi2
 661 005a FFF7FEFF 		bl	CySpcWriteRow
 662              	.LVL79:
 663 005e 0728     		cmp	r0, #7
 664 0060 0AD1     		bne	.L68
 665 0062 38BD     		pop	{r3, r4, r5, pc}
 666              	.LVL80:
 667              	.L62:
 487:Generated_Source\PSoC5/EEPROM_PSoC.c ****                     dieTemperature[1u]) == CYRET_STARTED)
 488:Generated_Source\PSoC5/EEPROM_PSoC.c ****                     {
 489:Generated_Source\PSoC5/EEPROM_PSoC.c ****                         status = CYRET_STARTED;
 490:Generated_Source\PSoC5/EEPROM_PSoC.c ****                     }
 491:Generated_Source\PSoC5/EEPROM_PSoC.c ****                     else
 492:Generated_Source\PSoC5/EEPROM_PSoC.c ****                     {
 493:Generated_Source\PSoC5/EEPROM_PSoC.c ****                         status = CYRET_UNKNOWN;
 494:Generated_Source\PSoC5/EEPROM_PSoC.c ****                     }
 495:Generated_Source\PSoC5/EEPROM_PSoC.c ****                 }
 496:Generated_Source\PSoC5/EEPROM_PSoC.c ****                 else
 497:Generated_Source\PSoC5/EEPROM_PSoC.c ****                 {
 498:Generated_Source\PSoC5/EEPROM_PSoC.c ****                     status = CYRET_UNKNOWN;
 499:Generated_Source\PSoC5/EEPROM_PSoC.c ****                 }
 500:Generated_Source\PSoC5/EEPROM_PSoC.c ****             }
 501:Generated_Source\PSoC5/EEPROM_PSoC.c ****         }
 502:Generated_Source\PSoC5/EEPROM_PSoC.c ****         else
 503:Generated_Source\PSoC5/EEPROM_PSoC.c ****         {
 504:Generated_Source\PSoC5/EEPROM_PSoC.c ****             status = CYRET_LOCKED;
 505:Generated_Source\PSoC5/EEPROM_PSoC.c ****         }
 506:Generated_Source\PSoC5/EEPROM_PSoC.c ****     }
 507:Generated_Source\PSoC5/EEPROM_PSoC.c ****     else
 508:Generated_Source\PSoC5/EEPROM_PSoC.c ****     {
 509:Generated_Source\PSoC5/EEPROM_PSoC.c ****         status = CYRET_BAD_PARAM;
 668              		.loc 1 509 0
 669 0064 0120     		movs	r0, #1
 670 0066 38BD     		pop	{r3, r4, r5, pc}
 671              	.LVL81:
ARM GAS  C:\Users\Bart\AppData\Local\Temp\ccRlR46i.s 			page 22


 672              	.L63:
 504:Generated_Source\PSoC5/EEPROM_PSoC.c ****         }
 673              		.loc 1 504 0
 674 0068 0420     		movs	r0, #4
 675 006a 38BD     		pop	{r3, r4, r5, pc}
 676              	.LVL82:
 677              	.L64:
 467:Generated_Source\PSoC5/EEPROM_PSoC.c **** 
 678              		.loc 1 467 0
 679 006c 4FF0FF30 		mov	r0, #-1
 680 0070 38BD     		pop	{r3, r4, r5, pc}
 681              	.LVL83:
 682              	.L67:
 498:Generated_Source\PSoC5/EEPROM_PSoC.c ****                 }
 683              		.loc 1 498 0
 684 0072 4FF0FF30 		mov	r0, #-1
 685 0076 38BD     		pop	{r3, r4, r5, pc}
 686              	.LVL84:
 687              	.L68:
 493:Generated_Source\PSoC5/EEPROM_PSoC.c ****                     }
 688              		.loc 1 493 0
 689 0078 4FF0FF30 		mov	r0, #-1
 690              	.LVL85:
 510:Generated_Source\PSoC5/EEPROM_PSoC.c ****     }
 511:Generated_Source\PSoC5/EEPROM_PSoC.c **** 
 512:Generated_Source\PSoC5/EEPROM_PSoC.c ****     return(status);
 513:Generated_Source\PSoC5/EEPROM_PSoC.c **** }
 691              		.loc 1 513 0
 692 007c 38BD     		pop	{r3, r4, r5, pc}
 693              	.LVL86:
 694              	.L71:
 695 007e 00BF     		.align	2
 696              	.L70:
 697 0080 22470040 		.word	1073760034
 698 0084 00000000 		.word	dieTemperature
 699              		.cfi_endproc
 700              	.LFE8:
 701              		.size	EEPROM_PSoC_StartWrite, .-EEPROM_PSoC_StartWrite
 702              		.section	.text.EEPROM_PSoC_StartErase,"ax",%progbits
 703              		.align	2
 704              		.global	EEPROM_PSoC_StartErase
 705              		.thumb
 706              		.thumb_func
 707              		.type	EEPROM_PSoC_StartErase, %function
 708              	EEPROM_PSoC_StartErase:
 709              	.LFB9:
 514:Generated_Source\PSoC5/EEPROM_PSoC.c **** 
 515:Generated_Source\PSoC5/EEPROM_PSoC.c **** 
 516:Generated_Source\PSoC5/EEPROM_PSoC.c **** /*******************************************************************************
 517:Generated_Source\PSoC5/EEPROM_PSoC.c **** * Function Name: EEPROM_PSoC_StartErase
 518:Generated_Source\PSoC5/EEPROM_PSoC.c **** ********************************************************************************
 519:Generated_Source\PSoC5/EEPROM_PSoC.c **** *
 520:Generated_Source\PSoC5/EEPROM_PSoC.c **** * Summary:
 521:Generated_Source\PSoC5/EEPROM_PSoC.c **** *  Starts the EEPROM sector erase. This function does not block.
 522:Generated_Source\PSoC5/EEPROM_PSoC.c **** *  The function returns once the SPC has begun writing the data. This function
 523:Generated_Source\PSoC5/EEPROM_PSoC.c **** *  must be used in combination with EEPROM_PSoC_Query().
 524:Generated_Source\PSoC5/EEPROM_PSoC.c **** *  EEPROM_PSoC_Query() must be called until it returns a status
ARM GAS  C:\Users\Bart\AppData\Local\Temp\ccRlR46i.s 			page 23


 525:Generated_Source\PSoC5/EEPROM_PSoC.c **** *  other than CYRET_STARTED. That indicates the erase has been completed.
 526:Generated_Source\PSoC5/EEPROM_PSoC.c **** *  Until EEPROM_PSoC_Query() detects that the erase is
 527:Generated_Source\PSoC5/EEPROM_PSoC.c **** *  complete, the SPC is marked as locked to prevent another SPC operation
 528:Generated_Source\PSoC5/EEPROM_PSoC.c **** *  from being performed.
 529:Generated_Source\PSoC5/EEPROM_PSoC.c **** *
 530:Generated_Source\PSoC5/EEPROM_PSoC.c **** * Parameters:
 531:Generated_Source\PSoC5/EEPROM_PSoC.c **** *  sectorNumber:  The sector number to erase.
 532:Generated_Source\PSoC5/EEPROM_PSoC.c **** *
 533:Generated_Source\PSoC5/EEPROM_PSoC.c **** * Return:
 534:Generated_Source\PSoC5/EEPROM_PSoC.c **** *  CYRET_STARTED, if the SPC command to erase was successfully started.
 535:Generated_Source\PSoC5/EEPROM_PSoC.c **** *  CYRET_BAD_PARAM, if the parameter sectorNumber is out of range.
 536:Generated_Source\PSoC5/EEPROM_PSoC.c **** *  CYRET_LOCKED, if the SPC is being used.
 537:Generated_Source\PSoC5/EEPROM_PSoC.c **** *  CYRET_UNKNOWN, if there was an SPC error.
 538:Generated_Source\PSoC5/EEPROM_PSoC.c **** *
 539:Generated_Source\PSoC5/EEPROM_PSoC.c **** * Side effects:
 540:Generated_Source\PSoC5/EEPROM_PSoC.c **** *  After calling this API, the device should not be powered down, reset or switched
 541:Generated_Source\PSoC5/EEPROM_PSoC.c **** *  to low power modes until EEPROM operation is complete.
 542:Generated_Source\PSoC5/EEPROM_PSoC.c **** *  Ignoring this recommendation may lead to data corruption or silicon
 543:Generated_Source\PSoC5/EEPROM_PSoC.c **** *  unexpected behavior.
 544:Generated_Source\PSoC5/EEPROM_PSoC.c **** *
 545:Generated_Source\PSoC5/EEPROM_PSoC.c **** *******************************************************************************/
 546:Generated_Source\PSoC5/EEPROM_PSoC.c **** cystatus EEPROM_PSoC_StartErase(uint8 sectorNumber) 
 547:Generated_Source\PSoC5/EEPROM_PSoC.c **** {
 710              		.loc 1 547 0
 711              		.cfi_startproc
 712              		@ args = 0, pretend = 0, frame = 0
 713              		@ frame_needed = 0, uses_anonymous_args = 0
 714              	.LVL87:
 715 0000 10B5     		push	{r4, lr}
 716              		.cfi_def_cfa_offset 8
 717              		.cfi_offset 4, -8
 718              		.cfi_offset 14, -4
 719 0002 0446     		mov	r4, r0
 548:Generated_Source\PSoC5/EEPROM_PSoC.c ****     cystatus status;
 549:Generated_Source\PSoC5/EEPROM_PSoC.c ****     
 550:Generated_Source\PSoC5/EEPROM_PSoC.c ****     CySpcStart();
 720              		.loc 1 550 0
 721 0004 FFF7FEFF 		bl	CySpcStart
 722              	.LVL88:
 551:Generated_Source\PSoC5/EEPROM_PSoC.c **** 
 552:Generated_Source\PSoC5/EEPROM_PSoC.c ****     if(sectorNumber < (uint8) CY_EEPROM_NUMBER_ARRAYS)
 723              		.loc 1 552 0
 724 0008 5CB9     		cbnz	r4, .L74
 553:Generated_Source\PSoC5/EEPROM_PSoC.c ****     {
 554:Generated_Source\PSoC5/EEPROM_PSoC.c ****         /* See if we can get SPC. */
 555:Generated_Source\PSoC5/EEPROM_PSoC.c ****         if(CySpcLock() == CYRET_SUCCESS)
 725              		.loc 1 555 0
 726 000a FFF7FEFF 		bl	CySpcLock
 727              	.LVL89:
 728 000e 50B9     		cbnz	r0, .L75
 729              	.LVL90:
 556:Generated_Source\PSoC5/EEPROM_PSoC.c ****         {
 557:Generated_Source\PSoC5/EEPROM_PSoC.c ****             /* Plan for failure */
 558:Generated_Source\PSoC5/EEPROM_PSoC.c ****             status = CYRET_UNKNOWN;
 559:Generated_Source\PSoC5/EEPROM_PSoC.c **** 
 560:Generated_Source\PSoC5/EEPROM_PSoC.c ****             /* Command to load a row of data */
 561:Generated_Source\PSoC5/EEPROM_PSoC.c ****             if(CySpcEraseSector(CY_SPC_FIRST_EE_ARRAYID, sectorNumber) == CYRET_STARTED)
ARM GAS  C:\Users\Bart\AppData\Local\Temp\ccRlR46i.s 			page 24


 730              		.loc 1 561 0
 731 0010 4020     		movs	r0, #64
 732 0012 2146     		mov	r1, r4
 733 0014 FFF7FEFF 		bl	CySpcEraseSector
 734              	.LVL91:
 735 0018 0728     		cmp	r0, #7
 736 001a 06D0     		beq	.L76
 558:Generated_Source\PSoC5/EEPROM_PSoC.c **** 
 737              		.loc 1 558 0
 738 001c 4FF0FF30 		mov	r0, #-1
 739 0020 10BD     		pop	{r4, pc}
 740              	.LVL92:
 741              	.L74:
 562:Generated_Source\PSoC5/EEPROM_PSoC.c ****             {
 563:Generated_Source\PSoC5/EEPROM_PSoC.c ****                 status = CYRET_SUCCESS;
 564:Generated_Source\PSoC5/EEPROM_PSoC.c ****             }
 565:Generated_Source\PSoC5/EEPROM_PSoC.c ****         }
 566:Generated_Source\PSoC5/EEPROM_PSoC.c ****         else
 567:Generated_Source\PSoC5/EEPROM_PSoC.c ****         {
 568:Generated_Source\PSoC5/EEPROM_PSoC.c ****             status = CYRET_LOCKED;
 569:Generated_Source\PSoC5/EEPROM_PSoC.c ****         }
 570:Generated_Source\PSoC5/EEPROM_PSoC.c ****     }
 571:Generated_Source\PSoC5/EEPROM_PSoC.c ****     else
 572:Generated_Source\PSoC5/EEPROM_PSoC.c ****     {
 573:Generated_Source\PSoC5/EEPROM_PSoC.c ****         status = CYRET_BAD_PARAM;
 742              		.loc 1 573 0
 743 0022 0120     		movs	r0, #1
 744 0024 10BD     		pop	{r4, pc}
 745              	.L75:
 568:Generated_Source\PSoC5/EEPROM_PSoC.c ****         }
 746              		.loc 1 568 0
 747 0026 0420     		movs	r0, #4
 748 0028 10BD     		pop	{r4, pc}
 749              	.LVL93:
 750              	.L76:
 563:Generated_Source\PSoC5/EEPROM_PSoC.c ****             }
 751              		.loc 1 563 0
 752 002a 0020     		movs	r0, #0
 753              	.LVL94:
 574:Generated_Source\PSoC5/EEPROM_PSoC.c ****     }
 575:Generated_Source\PSoC5/EEPROM_PSoC.c **** 
 576:Generated_Source\PSoC5/EEPROM_PSoC.c ****     return(status);
 577:Generated_Source\PSoC5/EEPROM_PSoC.c **** }
 754              		.loc 1 577 0
 755 002c 10BD     		pop	{r4, pc}
 756              		.cfi_endproc
 757              	.LFE9:
 758              		.size	EEPROM_PSoC_StartErase, .-EEPROM_PSoC_StartErase
 759 002e 00BF     		.section	.text.EEPROM_PSoC_Query,"ax",%progbits
 760              		.align	2
 761              		.global	EEPROM_PSoC_Query
 762              		.thumb
 763              		.thumb_func
 764              		.type	EEPROM_PSoC_Query, %function
 765              	EEPROM_PSoC_Query:
 766              	.LFB10:
 578:Generated_Source\PSoC5/EEPROM_PSoC.c **** 
ARM GAS  C:\Users\Bart\AppData\Local\Temp\ccRlR46i.s 			page 25


 579:Generated_Source\PSoC5/EEPROM_PSoC.c **** 
 580:Generated_Source\PSoC5/EEPROM_PSoC.c **** /*******************************************************************************
 581:Generated_Source\PSoC5/EEPROM_PSoC.c **** * Function Name: EEPROM_PSoC_Query
 582:Generated_Source\PSoC5/EEPROM_PSoC.c **** ********************************************************************************
 583:Generated_Source\PSoC5/EEPROM_PSoC.c **** *
 584:Generated_Source\PSoC5/EEPROM_PSoC.c **** * Summary:
 585:Generated_Source\PSoC5/EEPROM_PSoC.c **** *  Checks the status of an earlier call to EEPROM_PSoC_StartWrite() or
 586:Generated_Source\PSoC5/EEPROM_PSoC.c **** *  EEPROM_PSoC_StartErase().
 587:Generated_Source\PSoC5/EEPROM_PSoC.c **** *  This function must be called until it returns a value other than
 588:Generated_Source\PSoC5/EEPROM_PSoC.c **** *  CYRET_STARTED. Once that occurs, the write or erase has been completed and
 589:Generated_Source\PSoC5/EEPROM_PSoC.c **** *  the SPC is unlocked.
 590:Generated_Source\PSoC5/EEPROM_PSoC.c **** *
 591:Generated_Source\PSoC5/EEPROM_PSoC.c **** * Parameters:
 592:Generated_Source\PSoC5/EEPROM_PSoC.c **** *  None
 593:Generated_Source\PSoC5/EEPROM_PSoC.c **** *
 594:Generated_Source\PSoC5/EEPROM_PSoC.c **** * Return:
 595:Generated_Source\PSoC5/EEPROM_PSoC.c **** *  CYRET_STARTED, if the SPC command is still processing.
 596:Generated_Source\PSoC5/EEPROM_PSoC.c **** *  CYRET_SUCCESS, if the operation was completed successfully.
 597:Generated_Source\PSoC5/EEPROM_PSoC.c **** *  CYRET_UNKNOWN, if there was an SPC error.
 598:Generated_Source\PSoC5/EEPROM_PSoC.c **** *
 599:Generated_Source\PSoC5/EEPROM_PSoC.c **** *******************************************************************************/
 600:Generated_Source\PSoC5/EEPROM_PSoC.c **** cystatus EEPROM_PSoC_Query(void) 
 601:Generated_Source\PSoC5/EEPROM_PSoC.c **** {
 767              		.loc 1 601 0
 768              		.cfi_startproc
 769              		@ args = 0, pretend = 0, frame = 0
 770              		@ frame_needed = 0, uses_anonymous_args = 0
 771 0000 10B5     		push	{r4, lr}
 772              		.cfi_def_cfa_offset 8
 773              		.cfi_offset 4, -8
 774              		.cfi_offset 14, -4
 602:Generated_Source\PSoC5/EEPROM_PSoC.c ****     cystatus status;
 603:Generated_Source\PSoC5/EEPROM_PSoC.c ****     
 604:Generated_Source\PSoC5/EEPROM_PSoC.c ****     CySpcStart();
 775              		.loc 1 604 0
 776 0002 FFF7FEFF 		bl	CySpcStart
 777              	.LVL95:
 605:Generated_Source\PSoC5/EEPROM_PSoC.c **** 
 606:Generated_Source\PSoC5/EEPROM_PSoC.c ****     /* Check if SPC is idle */
 607:Generated_Source\PSoC5/EEPROM_PSoC.c ****     if(CY_SPC_IDLE)
 778              		.loc 1 607 0
 779 0006 0D4B     		ldr	r3, .L85
 780 0008 1B78     		ldrb	r3, [r3]	@ zero_extendqisi2
 781 000a 13F0020F 		tst	r3, #2
 782 000e 12D0     		beq	.L81
 608:Generated_Source\PSoC5/EEPROM_PSoC.c ****     {
 609:Generated_Source\PSoC5/EEPROM_PSoC.c ****         /* SPC is idle now */
 610:Generated_Source\PSoC5/EEPROM_PSoC.c ****         if(CY_SPC_STATUS_SUCCESS == CY_SPC_READ_STATUS)
 783              		.loc 1 610 0
 784 0010 0A4B     		ldr	r3, .L85
 785 0012 1B78     		ldrb	r3, [r3]	@ zero_extendqisi2
 786 0014 13F0020F 		tst	r3, #2
 787 0018 06D0     		beq	.L82
 788              		.loc 1 610 0 is_stmt 0 discriminator 1
 789 001a 084B     		ldr	r3, .L85
 790 001c 1B78     		ldrb	r3, [r3]	@ zero_extendqisi2
 791 001e 9B08     		lsrs	r3, r3, #2
ARM GAS  C:\Users\Bart\AppData\Local\Temp\ccRlR46i.s 			page 26


 792 0020 05D0     		beq	.L83
 611:Generated_Source\PSoC5/EEPROM_PSoC.c ****         {
 612:Generated_Source\PSoC5/EEPROM_PSoC.c ****             status = CYRET_SUCCESS;
 613:Generated_Source\PSoC5/EEPROM_PSoC.c ****         }
 614:Generated_Source\PSoC5/EEPROM_PSoC.c ****         else
 615:Generated_Source\PSoC5/EEPROM_PSoC.c ****         {
 616:Generated_Source\PSoC5/EEPROM_PSoC.c ****             status = CYRET_UNKNOWN;
 793              		.loc 1 616 0 is_stmt 1
 794 0022 4FF0FF34 		mov	r4, #-1
 795 0026 03E0     		b	.L80
 796              	.L82:
 797 0028 4FF0FF34 		mov	r4, #-1
 798 002c 00E0     		b	.L80
 799              	.L83:
 612:Generated_Source\PSoC5/EEPROM_PSoC.c ****         }
 800              		.loc 1 612 0
 801 002e 0024     		movs	r4, #0
 802              	.L80:
 803              	.LVL96:
 617:Generated_Source\PSoC5/EEPROM_PSoC.c ****         }
 618:Generated_Source\PSoC5/EEPROM_PSoC.c **** 
 619:Generated_Source\PSoC5/EEPROM_PSoC.c ****         /* Unlock SPC so that someone else can use it. */
 620:Generated_Source\PSoC5/EEPROM_PSoC.c ****         CySpcUnlock();
 804              		.loc 1 620 0
 805 0030 FFF7FEFF 		bl	CySpcUnlock
 806              	.LVL97:
 807 0034 00E0     		b	.L79
 808              	.LVL98:
 809              	.L81:
 621:Generated_Source\PSoC5/EEPROM_PSoC.c ****     }
 622:Generated_Source\PSoC5/EEPROM_PSoC.c ****     else
 623:Generated_Source\PSoC5/EEPROM_PSoC.c ****     {
 624:Generated_Source\PSoC5/EEPROM_PSoC.c ****         status = CYRET_STARTED;
 810              		.loc 1 624 0
 811 0036 0724     		movs	r4, #7
 812              	.L79:
 813              	.LVL99:
 625:Generated_Source\PSoC5/EEPROM_PSoC.c ****     }
 626:Generated_Source\PSoC5/EEPROM_PSoC.c **** 
 627:Generated_Source\PSoC5/EEPROM_PSoC.c ****     return(status);
 628:Generated_Source\PSoC5/EEPROM_PSoC.c **** }
 814              		.loc 1 628 0
 815 0038 2046     		mov	r0, r4
 816 003a 10BD     		pop	{r4, pc}
 817              	.LVL100:
 818              	.L86:
 819              		.align	2
 820              	.L85:
 821 003c 22470040 		.word	1073760034
 822              		.cfi_endproc
 823              	.LFE10:
 824              		.size	EEPROM_PSoC_Query, .-EEPROM_PSoC_Query
 825              		.section	.text.EEPROM_PSoC_ByteWritePos,"ax",%progbits
 826              		.align	2
 827              		.global	EEPROM_PSoC_ByteWritePos
 828              		.thumb
 829              		.thumb_func
ARM GAS  C:\Users\Bart\AppData\Local\Temp\ccRlR46i.s 			page 27


 830              		.type	EEPROM_PSoC_ByteWritePos, %function
 831              	EEPROM_PSoC_ByteWritePos:
 832              	.LFB11:
 629:Generated_Source\PSoC5/EEPROM_PSoC.c **** 
 630:Generated_Source\PSoC5/EEPROM_PSoC.c **** 
 631:Generated_Source\PSoC5/EEPROM_PSoC.c **** /*******************************************************************************
 632:Generated_Source\PSoC5/EEPROM_PSoC.c **** * Function Name: EEPROM_PSoC_ByteWritePos
 633:Generated_Source\PSoC5/EEPROM_PSoC.c **** ********************************************************************************
 634:Generated_Source\PSoC5/EEPROM_PSoC.c **** *
 635:Generated_Source\PSoC5/EEPROM_PSoC.c **** * Summary:
 636:Generated_Source\PSoC5/EEPROM_PSoC.c **** *  Writes a byte of data to the EEPROM. This is a blocking call. It will not
 637:Generated_Source\PSoC5/EEPROM_PSoC.c **** *  return until the write operation succeeds or fails.
 638:Generated_Source\PSoC5/EEPROM_PSoC.c **** *
 639:Generated_Source\PSoC5/EEPROM_PSoC.c **** * Parameters:
 640:Generated_Source\PSoC5/EEPROM_PSoC.c **** *  dataByte:   The byte of data to write to the EEPROM.
 641:Generated_Source\PSoC5/EEPROM_PSoC.c **** *  rowNumber:  The EEPROM row number to program.
 642:Generated_Source\PSoC5/EEPROM_PSoC.c **** *  byteNumber: The byte number within the row to program.
 643:Generated_Source\PSoC5/EEPROM_PSoC.c **** *
 644:Generated_Source\PSoC5/EEPROM_PSoC.c **** * Return:
 645:Generated_Source\PSoC5/EEPROM_PSoC.c **** *  CYRET_SUCCESS, if the operation was successful.
 646:Generated_Source\PSoC5/EEPROM_PSoC.c **** *  CYRET_BAD_PARAM, if the parameter rowNumber or byteNumber is out of range.
 647:Generated_Source\PSoC5/EEPROM_PSoC.c **** *  CYRET_LOCKED, if the SPC is being used.
 648:Generated_Source\PSoC5/EEPROM_PSoC.c **** *  CYRET_UNKNOWN, if there was an SPC error.
 649:Generated_Source\PSoC5/EEPROM_PSoC.c **** *
 650:Generated_Source\PSoC5/EEPROM_PSoC.c **** *******************************************************************************/
 651:Generated_Source\PSoC5/EEPROM_PSoC.c **** cystatus EEPROM_PSoC_ByteWritePos(uint8 dataByte, uint8 rowNumber, uint8 byteNumber) \
 652:Generated_Source\PSoC5/EEPROM_PSoC.c **** 
 653:Generated_Source\PSoC5/EEPROM_PSoC.c **** {
 833              		.loc 1 653 0
 834              		.cfi_startproc
 835              		@ args = 0, pretend = 0, frame = 8
 836              		@ frame_needed = 0, uses_anonymous_args = 0
 837              	.LVL101:
 838 0000 30B5     		push	{r4, r5, lr}
 839              		.cfi_def_cfa_offset 12
 840              		.cfi_offset 4, -12
 841              		.cfi_offset 5, -8
 842              		.cfi_offset 14, -4
 843 0002 83B0     		sub	sp, sp, #12
 844              		.cfi_def_cfa_offset 24
 845 0004 0D46     		mov	r5, r1
 846 0006 1446     		mov	r4, r2
 847 0008 8DF80700 		strb	r0, [sp, #7]
 654:Generated_Source\PSoC5/EEPROM_PSoC.c ****     cystatus status;
 655:Generated_Source\PSoC5/EEPROM_PSoC.c **** 
 656:Generated_Source\PSoC5/EEPROM_PSoC.c ****     /* Start SPC */
 657:Generated_Source\PSoC5/EEPROM_PSoC.c ****     CySpcStart();
 848              		.loc 1 657 0
 849 000c FFF7FEFF 		bl	CySpcStart
 850              	.LVL102:
 658:Generated_Source\PSoC5/EEPROM_PSoC.c **** 
 659:Generated_Source\PSoC5/EEPROM_PSoC.c ****     if((rowNumber < (uint8) CY_EEPROM_NUMBER_ROWS) && (byteNumber < (uint8) SIZEOF_EEPROM_ROW))
 851              		.loc 1 659 0
 852 0010 15F0800F 		tst	r5, #128
 853 0014 4CD1     		bne	.L93
 854              		.loc 1 659 0 is_stmt 0 discriminator 1
 855 0016 0F2C     		cmp	r4, #15
ARM GAS  C:\Users\Bart\AppData\Local\Temp\ccRlR46i.s 			page 28


 856 0018 4CD8     		bhi	.L94
 660:Generated_Source\PSoC5/EEPROM_PSoC.c ****     {
 661:Generated_Source\PSoC5/EEPROM_PSoC.c ****         /* See if we can get SPC. */
 662:Generated_Source\PSoC5/EEPROM_PSoC.c ****         if(CySpcLock() == CYRET_SUCCESS)
 857              		.loc 1 662 0 is_stmt 1
 858 001a FFF7FEFF 		bl	CySpcLock
 859              	.LVL103:
 860 001e 0028     		cmp	r0, #0
 861 0020 4AD1     		bne	.L95
 862              	.LVL104:
 663:Generated_Source\PSoC5/EEPROM_PSoC.c ****         {
 664:Generated_Source\PSoC5/EEPROM_PSoC.c ****             /* Plan for failure */
 665:Generated_Source\PSoC5/EEPROM_PSoC.c ****             status = CYRET_UNKNOWN;
 666:Generated_Source\PSoC5/EEPROM_PSoC.c **** 
 667:Generated_Source\PSoC5/EEPROM_PSoC.c ****             /* Command to load byte of data */
 668:Generated_Source\PSoC5/EEPROM_PSoC.c ****             if(CySpcLoadMultiByte(CY_SPC_FIRST_EE_ARRAYID, (uint16)byteNumber, &dataByte,\
 863              		.loc 1 668 0
 864 0022 4020     		movs	r0, #64
 865 0024 2146     		mov	r1, r4
 866 0026 0DF10702 		add	r2, sp, #7
 867              	.LVL105:
 868 002a 0123     		movs	r3, #1
 869 002c FFF7FEFF 		bl	CySpcLoadMultiByte
 870              	.LVL106:
 871 0030 0728     		cmp	r0, #7
 872 0032 2FD1     		bne	.L96
 873              	.L90:
 669:Generated_Source\PSoC5/EEPROM_PSoC.c ****                                                                 EEPROM_PSoC_SPC_BYTE_WRITE_SIZE) ==
 670:Generated_Source\PSoC5/EEPROM_PSoC.c ****             {
 671:Generated_Source\PSoC5/EEPROM_PSoC.c ****                 while(CY_SPC_BUSY)
 874              		.loc 1 671 0 discriminator 1
 875 0034 224B     		ldr	r3, .L103
 876 0036 1B78     		ldrb	r3, [r3]	@ zero_extendqisi2
 877 0038 13F0020F 		tst	r3, #2
 878 003c FAD0     		beq	.L90
 672:Generated_Source\PSoC5/EEPROM_PSoC.c ****                 {
 673:Generated_Source\PSoC5/EEPROM_PSoC.c ****                     /* Wait until SPC becomes idle */
 674:Generated_Source\PSoC5/EEPROM_PSoC.c ****                 }
 675:Generated_Source\PSoC5/EEPROM_PSoC.c **** 
 676:Generated_Source\PSoC5/EEPROM_PSoC.c ****                 /* SPC is idle now */
 677:Generated_Source\PSoC5/EEPROM_PSoC.c ****                 if(CY_SPC_STATUS_SUCCESS == CY_SPC_READ_STATUS)
 879              		.loc 1 677 0
 880 003e 204B     		ldr	r3, .L103
 881 0040 1B78     		ldrb	r3, [r3]	@ zero_extendqisi2
 882 0042 13F0020F 		tst	r3, #2
 883 0046 06D0     		beq	.L97
 884              		.loc 1 677 0 is_stmt 0 discriminator 1
 885 0048 1D4B     		ldr	r3, .L103
 886 004a 1B78     		ldrb	r3, [r3]	@ zero_extendqisi2
 887 004c 9B08     		lsrs	r3, r3, #2
 888 004e 05D0     		beq	.L98
 665:Generated_Source\PSoC5/EEPROM_PSoC.c **** 
 889              		.loc 1 665 0 is_stmt 1
 890 0050 4FF0FF34 		mov	r4, #-1
 891 0054 03E0     		b	.L91
 892              	.L97:
 893 0056 4FF0FF34 		mov	r4, #-1
ARM GAS  C:\Users\Bart\AppData\Local\Temp\ccRlR46i.s 			page 29


 894 005a 00E0     		b	.L91
 895              	.L98:
 678:Generated_Source\PSoC5/EEPROM_PSoC.c ****                 {
 679:Generated_Source\PSoC5/EEPROM_PSoC.c ****                     status = CYRET_SUCCESS;
 896              		.loc 1 679 0
 897 005c 0024     		movs	r4, #0
 898              	.L91:
 899              	.LVL107:
 680:Generated_Source\PSoC5/EEPROM_PSoC.c ****                 }
 681:Generated_Source\PSoC5/EEPROM_PSoC.c **** 
 682:Generated_Source\PSoC5/EEPROM_PSoC.c ****                 /* Command to erase and program the row. */
 683:Generated_Source\PSoC5/EEPROM_PSoC.c ****                 if(status == CYRET_SUCCESS)
 900              		.loc 1 683 0
 901 005e E4B9     		cbnz	r4, .L99
 684:Generated_Source\PSoC5/EEPROM_PSoC.c ****                 {
 685:Generated_Source\PSoC5/EEPROM_PSoC.c ****                     if(CySpcWriteRow(CY_SPC_FIRST_EE_ARRAYID, (uint16)rowNumber, dieTemperature[0u]
 902              		.loc 1 685 0
 903 0060 184B     		ldr	r3, .L103+4
 904 0062 4020     		movs	r0, #64
 905 0064 2946     		mov	r1, r5
 906 0066 1A78     		ldrb	r2, [r3]	@ zero_extendqisi2
 907 0068 5B78     		ldrb	r3, [r3, #1]	@ zero_extendqisi2
 908 006a FFF7FEFF 		bl	CySpcWriteRow
 909              	.LVL108:
 910 006e 0728     		cmp	r0, #7
 911 0070 16D1     		bne	.L100
 912              	.L92:
 686:Generated_Source\PSoC5/EEPROM_PSoC.c ****                     dieTemperature[1u]) == CYRET_STARTED)
 687:Generated_Source\PSoC5/EEPROM_PSoC.c ****                     {
 688:Generated_Source\PSoC5/EEPROM_PSoC.c ****                         /* Plan for failure */
 689:Generated_Source\PSoC5/EEPROM_PSoC.c ****                         status = CYRET_UNKNOWN;
 690:Generated_Source\PSoC5/EEPROM_PSoC.c **** 
 691:Generated_Source\PSoC5/EEPROM_PSoC.c ****                         while(CY_SPC_BUSY)
 913              		.loc 1 691 0 discriminator 1
 914 0072 134B     		ldr	r3, .L103
 915 0074 1B78     		ldrb	r3, [r3]	@ zero_extendqisi2
 916 0076 13F0020F 		tst	r3, #2
 917 007a FAD0     		beq	.L92
 692:Generated_Source\PSoC5/EEPROM_PSoC.c ****                         {
 693:Generated_Source\PSoC5/EEPROM_PSoC.c ****                             /* Wait until SPC becomes idle */
 694:Generated_Source\PSoC5/EEPROM_PSoC.c ****                         }
 695:Generated_Source\PSoC5/EEPROM_PSoC.c **** 
 696:Generated_Source\PSoC5/EEPROM_PSoC.c ****                         /* SPC is idle now */
 697:Generated_Source\PSoC5/EEPROM_PSoC.c ****                         if(CY_SPC_STATUS_SUCCESS == CY_SPC_READ_STATUS)
 918              		.loc 1 697 0
 919 007c 104B     		ldr	r3, .L103
 920 007e 1B78     		ldrb	r3, [r3]	@ zero_extendqisi2
 921 0080 13F0020F 		tst	r3, #2
 922 0084 0FD0     		beq	.L101
 923              		.loc 1 697 0 is_stmt 0 discriminator 1
 924 0086 0E4B     		ldr	r3, .L103
 925 0088 1B78     		ldrb	r3, [r3]	@ zero_extendqisi2
 926 008a 9B08     		lsrs	r3, r3, #2
 927 008c 0DD0     		beq	.L89
 689:Generated_Source\PSoC5/EEPROM_PSoC.c **** 
 928              		.loc 1 689 0 is_stmt 1
 929 008e 4FF0FF34 		mov	r4, #-1
ARM GAS  C:\Users\Bart\AppData\Local\Temp\ccRlR46i.s 			page 30


 930              	.LVL109:
 931 0092 0AE0     		b	.L89
 932              	.LVL110:
 933              	.L96:
 665:Generated_Source\PSoC5/EEPROM_PSoC.c **** 
 934              		.loc 1 665 0
 935 0094 4FF0FF34 		mov	r4, #-1
 936 0098 07E0     		b	.L89
 937              	.LVL111:
 938              	.L99:
 698:Generated_Source\PSoC5/EEPROM_PSoC.c ****                         {
 699:Generated_Source\PSoC5/EEPROM_PSoC.c ****                             status = CYRET_SUCCESS;
 700:Generated_Source\PSoC5/EEPROM_PSoC.c ****                         }
 701:Generated_Source\PSoC5/EEPROM_PSoC.c ****                     }
 702:Generated_Source\PSoC5/EEPROM_PSoC.c ****                     else
 703:Generated_Source\PSoC5/EEPROM_PSoC.c ****                     {
 704:Generated_Source\PSoC5/EEPROM_PSoC.c ****                         status = CYRET_UNKNOWN;
 705:Generated_Source\PSoC5/EEPROM_PSoC.c ****                     }
 706:Generated_Source\PSoC5/EEPROM_PSoC.c ****                 }
 707:Generated_Source\PSoC5/EEPROM_PSoC.c ****                 else
 708:Generated_Source\PSoC5/EEPROM_PSoC.c ****                 {
 709:Generated_Source\PSoC5/EEPROM_PSoC.c ****                     status = CYRET_UNKNOWN;
 939              		.loc 1 709 0
 940 009a 4FF0FF34 		mov	r4, #-1
 941              	.LVL112:
 942 009e 04E0     		b	.L89
 943              	.LVL113:
 944              	.L100:
 704:Generated_Source\PSoC5/EEPROM_PSoC.c ****                     }
 945              		.loc 1 704 0
 946 00a0 4FF0FF34 		mov	r4, #-1
 947              	.LVL114:
 948 00a4 01E0     		b	.L89
 949              	.LVL115:
 950              	.L101:
 689:Generated_Source\PSoC5/EEPROM_PSoC.c **** 
 951              		.loc 1 689 0
 952 00a6 4FF0FF34 		mov	r4, #-1
 953              	.LVL116:
 954              	.L89:
 710:Generated_Source\PSoC5/EEPROM_PSoC.c ****                 }
 711:Generated_Source\PSoC5/EEPROM_PSoC.c ****             }
 712:Generated_Source\PSoC5/EEPROM_PSoC.c **** 
 713:Generated_Source\PSoC5/EEPROM_PSoC.c ****             /* Unlock SPC so that someone else can use it. */
 714:Generated_Source\PSoC5/EEPROM_PSoC.c ****             CySpcUnlock();
 955              		.loc 1 714 0
 956 00aa FFF7FEFF 		bl	CySpcUnlock
 957              	.LVL117:
 958 00ae 04E0     		b	.L88
 959              	.LVL118:
 960              	.L93:
 715:Generated_Source\PSoC5/EEPROM_PSoC.c ****         }
 716:Generated_Source\PSoC5/EEPROM_PSoC.c ****         else
 717:Generated_Source\PSoC5/EEPROM_PSoC.c ****         {
 718:Generated_Source\PSoC5/EEPROM_PSoC.c ****             status = CYRET_LOCKED;
 719:Generated_Source\PSoC5/EEPROM_PSoC.c ****         }
 720:Generated_Source\PSoC5/EEPROM_PSoC.c ****     }
ARM GAS  C:\Users\Bart\AppData\Local\Temp\ccRlR46i.s 			page 31


 721:Generated_Source\PSoC5/EEPROM_PSoC.c ****     else
 722:Generated_Source\PSoC5/EEPROM_PSoC.c ****     {
 723:Generated_Source\PSoC5/EEPROM_PSoC.c ****         status = CYRET_BAD_PARAM;
 961              		.loc 1 723 0
 962 00b0 0124     		movs	r4, #1
 963 00b2 02E0     		b	.L88
 964              	.L94:
 965 00b4 0124     		movs	r4, #1
 966 00b6 00E0     		b	.L88
 967              	.L95:
 718:Generated_Source\PSoC5/EEPROM_PSoC.c ****         }
 968              		.loc 1 718 0
 969 00b8 0424     		movs	r4, #4
 970              	.L88:
 971              	.LVL119:
 724:Generated_Source\PSoC5/EEPROM_PSoC.c ****     }
 725:Generated_Source\PSoC5/EEPROM_PSoC.c **** 
 726:Generated_Source\PSoC5/EEPROM_PSoC.c ****     return(status);
 727:Generated_Source\PSoC5/EEPROM_PSoC.c **** }
 972              		.loc 1 727 0
 973 00ba 2046     		mov	r0, r4
 974 00bc 03B0     		add	sp, sp, #12
 975              		.cfi_def_cfa_offset 12
 976              		@ sp needed
 977 00be 30BD     		pop	{r4, r5, pc}
 978              	.LVL120:
 979              	.L104:
 980              		.align	2
 981              	.L103:
 982 00c0 22470040 		.word	1073760034
 983 00c4 00000000 		.word	dieTemperature
 984              		.cfi_endproc
 985              	.LFE11:
 986              		.size	EEPROM_PSoC_ByteWritePos, .-EEPROM_PSoC_ByteWritePos
 987              		.text
 988              	.Letext0:
 989              		.file 2 "Generated_Source\\PSoC5\\cytypes.h"
 990              		.file 3 "Generated_Source\\PSoC5\\CyFlash.h"
 991              		.file 4 "Generated_Source\\PSoC5\\CySpc.h"
 992              		.file 5 "Generated_Source\\PSoC5\\CyLib.h"