ARM GAS  C:\Users\Bart\AppData\Local\Temp\cc1kVqwy.s 			page 1


   1              		.syntax unified
   2              		.cpu cortex-m3
   3              		.fpu softvfp
   4              		.eabi_attribute 20, 1
   5              		.eabi_attribute 21, 1
   6              		.eabi_attribute 23, 3
   7              		.eabi_attribute 24, 1
   8              		.eabi_attribute 25, 1
   9              		.eabi_attribute 26, 1
  10              		.eabi_attribute 30, 1
  11              		.eabi_attribute 34, 1
  12              		.eabi_attribute 18, 4
  13              		.thumb
  14              		.file	"eeprom.c"
  15              		.text
  16              	.Ltext0:
  17              		.cfi_sections	.debug_frame
  18              		.section	.text.eeprom_get_char,"ax",%progbits
  19              		.align	2
  20              		.global	eeprom_get_char
  21              		.thumb
  22              		.thumb_func
  23              		.type	eeprom_get_char, %function
  24              	eeprom_get_char:
  25              	.LFB0:
  26              		.file 1 "eeprom.c"
   1:eeprom.c      **** // This file has been prepared for Doxygen automatic documentation generation.
   2:eeprom.c      **** /*! \file ********************************************************************
   3:eeprom.c      **** *
   4:eeprom.c      **** * Atmel Corporation
   5:eeprom.c      **** *
   6:eeprom.c      **** * \li File:               eeprom.c
   7:eeprom.c      **** * \li Compiler:           IAR EWAAVR 3.10c
   8:eeprom.c      **** * \li Support mail:       avr@atmel.com
   9:eeprom.c      **** *
  10:eeprom.c      **** * \li Supported devices:  All devices with split EEPROM erase/write
  11:eeprom.c      **** *                         capabilities can be used.
  12:eeprom.c      **** *                         The example is written for ATmega48.
  13:eeprom.c      **** *
  14:eeprom.c      **** * \li AppNote:            AVR103 - Using the EEPROM Programming Modes.
  15:eeprom.c      **** *
  16:eeprom.c      **** * \li Description:        Example on how to use the split EEPROM erase/write
  17:eeprom.c      **** *                         capabilities in e.g. ATmega48. All EEPROM
  18:eeprom.c      **** *                         programming modes are tested, i.e. Erase+Write,
  19:eeprom.c      **** *                         Erase-only and Write-only.
  20:eeprom.c      **** *
  21:eeprom.c      **** *                         $Revision: 1.6 $
  22:eeprom.c      **** *                         $Date: Friday, February 11, 2005 07:16:44 UTC $
  23:eeprom.c      **** 
  24:eeprom.c      **** Updated For PSOC BJD 2017
  25:eeprom.c      **** 
  26:eeprom.c      **** ****************************************************************************/
  27:eeprom.c      **** 
  28:eeprom.c      **** 
  29:eeprom.c      **** #include "EEPROM_PSoC.h"
  30:eeprom.c      **** 
  31:eeprom.c      **** 
ARM GAS  C:\Users\Bart\AppData\Local\Temp\cc1kVqwy.s 			page 2


  32:eeprom.c      **** unsigned char eeprom_get_char( unsigned int addr )
  33:eeprom.c      **** {
  27              		.loc 1 33 0
  28              		.cfi_startproc
  29              		@ args = 0, pretend = 0, frame = 0
  30              		@ frame_needed = 0, uses_anonymous_args = 0
  31              	.LVL0:
  32 0000 08B5     		push	{r3, lr}
  33              		.cfi_def_cfa_offset 8
  34              		.cfi_offset 3, -8
  35              		.cfi_offset 14, -4
  34:eeprom.c      **** 	return EEPROM_PSoC_ReadByte(addr);
  36              		.loc 1 34 0
  37 0002 80B2     		uxth	r0, r0
  38              	.LVL1:
  39 0004 FFF7FEFF 		bl	EEPROM_PSoC_ReadByte
  40              	.LVL2:
  35:eeprom.c      **** }
  41              		.loc 1 35 0
  42 0008 08BD     		pop	{r3, pc}
  43              		.cfi_endproc
  44              	.LFE0:
  45              		.size	eeprom_get_char, .-eeprom_get_char
  46 000a 00BF     		.section	.text.eeprom_put_char,"ax",%progbits
  47              		.align	2
  48              		.global	eeprom_put_char
  49              		.thumb
  50              		.thumb_func
  51              		.type	eeprom_put_char, %function
  52              	eeprom_put_char:
  53              	.LFB1:
  36:eeprom.c      **** 
  37:eeprom.c      **** /*! \brief  Write byte to EEPROM.
  38:eeprom.c      ****  *
  39:eeprom.c      ****  *  This function writes one byte to a given EEPROM address.
  40:eeprom.c      ****  *  The differences between the existing byte and the new value is used
  41:eeprom.c      ****  *  to select the most efficient EEPROM programming mode.
  42:eeprom.c      ****  *
  43:eeprom.c      ****  *  \note  The CPU is halted for 2 clock cycles during EEPROM programming.
  44:eeprom.c      ****  *
  45:eeprom.c      ****  *  \note  When this function returns, the new EEPROM value is not available
  46:eeprom.c      ****  *         until the EEPROM programming time has passed. The EEPE bit in EECR
  47:eeprom.c      ****  *         should be polled to check whether the programming is finished.
  48:eeprom.c      ****  *
  49:eeprom.c      ****  *  \note  The EEPROM_GetChar() function checks the EEPE bit automatically.
  50:eeprom.c      ****  *
  51:eeprom.c      ****  *  \param  addr  EEPROM address to write to.
  52:eeprom.c      ****  *  \param  new_value  New EEPROM value.
  53:eeprom.c      ****  */
  54:eeprom.c      **** void eeprom_put_char( unsigned int addr, unsigned char new_value )
  55:eeprom.c      **** {	
  54              		.loc 1 55 0
  55              		.cfi_startproc
  56              		@ args = 0, pretend = 0, frame = 0
  57              		@ frame_needed = 0, uses_anonymous_args = 0
  58              	.LVL3:
  59 0000 08B5     		push	{r3, lr}
ARM GAS  C:\Users\Bart\AppData\Local\Temp\cc1kVqwy.s 			page 3


  60              		.cfi_def_cfa_offset 8
  61              		.cfi_offset 3, -8
  62              		.cfi_offset 14, -4
  56:eeprom.c      ****     EEPROM_PSoC_WriteByte(new_value, addr);
  63              		.loc 1 56 0
  64 0002 83B2     		uxth	r3, r0
  65 0004 0846     		mov	r0, r1
  66              	.LVL4:
  67 0006 1946     		mov	r1, r3
  68              	.LVL5:
  69 0008 FFF7FEFF 		bl	EEPROM_PSoC_WriteByte
  70              	.LVL6:
  71 000c 08BD     		pop	{r3, pc}
  72              		.cfi_endproc
  73              	.LFE1:
  74              		.size	eeprom_put_char, .-eeprom_put_char
  75 000e 00BF     		.section	.text.memcpy_to_eeprom_with_checksum,"ax",%progbits
  76              		.align	2
  77              		.global	memcpy_to_eeprom_with_checksum
  78              		.thumb
  79              		.thumb_func
  80              		.type	memcpy_to_eeprom_with_checksum, %function
  81              	memcpy_to_eeprom_with_checksum:
  82              	.LFB2:
  57:eeprom.c      **** }
  58:eeprom.c      **** 
  59:eeprom.c      **** // Extensions added as part of Grbl 
  60:eeprom.c      **** 
  61:eeprom.c      **** 
  62:eeprom.c      **** void memcpy_to_eeprom_with_checksum(unsigned int destination, char *source, unsigned int size) {
  83              		.loc 1 62 0
  84              		.cfi_startproc
  85              		@ args = 0, pretend = 0, frame = 0
  86              		@ frame_needed = 0, uses_anonymous_args = 0
  87              	.LVL7:
  88 0000 F8B5     		push	{r3, r4, r5, r6, r7, lr}
  89              		.cfi_def_cfa_offset 24
  90              		.cfi_offset 3, -24
  91              		.cfi_offset 4, -20
  92              		.cfi_offset 5, -16
  93              		.cfi_offset 6, -12
  94              		.cfi_offset 7, -8
  95              		.cfi_offset 14, -4
  96 0002 0E46     		mov	r6, r1
  97 0004 1546     		mov	r5, r2
  98              	.LVL8:
  63:eeprom.c      ****   unsigned char checksum = 0;
  99              		.loc 1 63 0
 100 0006 0024     		movs	r4, #0
  64:eeprom.c      ****   for(; size > 0; size--) { 
 101              		.loc 1 64 0
 102 0008 11E0     		b	.L6
 103              	.LVL9:
 104              	.L8:
  65:eeprom.c      ****     checksum = (checksum << 1) || (checksum >> 7);
 105              		.loc 1 65 0
 106 000a 6300     		lsls	r3, r4, #1
ARM GAS  C:\Users\Bart\AppData\Local\Temp\cc1kVqwy.s 			page 4


 107 000c 24B9     		cbnz	r4, .L9
 108              		.loc 1 65 0 is_stmt 0 discriminator 2
 109 000e 14F0800F 		tst	r4, #128
 110 0012 02D0     		beq	.L7
 111              		.loc 1 65 0
 112 0014 0123     		movs	r3, #1
 113 0016 00E0     		b	.L7
 114              	.L9:
 115 0018 0123     		movs	r3, #1
 116              	.L7:
 117              	.LVL10:
  66:eeprom.c      ****     checksum += *source;
 118              		.loc 1 66 0 is_stmt 1 discriminator 6
 119 001a 16F8011B 		ldrb	r1, [r6], #1	@ zero_extendqisi2
 120              	.LVL11:
 121 001e 0B44     		add	r3, r3, r1
 122              	.LVL12:
 123 0020 03F0FF04 		and	r4, r3, #255
 124              	.LVL13:
  67:eeprom.c      ****     eeprom_put_char(destination++, *(source++)); 
 125              		.loc 1 67 0 discriminator 6
 126 0024 471C     		adds	r7, r0, #1
 127              	.LVL14:
 128 0026 FFF7FEFF 		bl	eeprom_put_char
 129              	.LVL15:
  64:eeprom.c      ****     checksum = (checksum << 1) || (checksum >> 7);
 130              		.loc 1 64 0 discriminator 6
 131 002a 013D     		subs	r5, r5, #1
 132              	.LVL16:
 133              		.loc 1 67 0 discriminator 6
 134 002c 3846     		mov	r0, r7
 135              	.LVL17:
 136              	.L6:
  64:eeprom.c      ****     checksum = (checksum << 1) || (checksum >> 7);
 137              		.loc 1 64 0 discriminator 1
 138 002e 002D     		cmp	r5, #0
 139 0030 EBD1     		bne	.L8
  68:eeprom.c      ****   }
  69:eeprom.c      ****   eeprom_put_char(destination, checksum);
 140              		.loc 1 69 0
 141 0032 2146     		mov	r1, r4
 142 0034 FFF7FEFF 		bl	eeprom_put_char
 143              	.LVL18:
 144 0038 F8BD     		pop	{r3, r4, r5, r6, r7, pc}
 145              		.cfi_endproc
 146              	.LFE2:
 147              		.size	memcpy_to_eeprom_with_checksum, .-memcpy_to_eeprom_with_checksum
 148 003a 00BF     		.section	.text.memcpy_from_eeprom_with_checksum,"ax",%progbits
 149              		.align	2
 150              		.global	memcpy_from_eeprom_with_checksum
 151              		.thumb
 152              		.thumb_func
 153              		.type	memcpy_from_eeprom_with_checksum, %function
 154              	memcpy_from_eeprom_with_checksum:
 155              	.LFB3:
  70:eeprom.c      **** }
  71:eeprom.c      **** 
ARM GAS  C:\Users\Bart\AppData\Local\Temp\cc1kVqwy.s 			page 5


  72:eeprom.c      **** int memcpy_from_eeprom_with_checksum(char *destination, unsigned int source, unsigned int size) {
 156              		.loc 1 72 0
 157              		.cfi_startproc
 158              		@ args = 0, pretend = 0, frame = 0
 159              		@ frame_needed = 0, uses_anonymous_args = 0
 160              	.LVL19:
 161 0000 F8B5     		push	{r3, r4, r5, r6, r7, lr}
 162              		.cfi_def_cfa_offset 24
 163              		.cfi_offset 3, -24
 164              		.cfi_offset 4, -20
 165              		.cfi_offset 5, -16
 166              		.cfi_offset 6, -12
 167              		.cfi_offset 7, -8
 168              		.cfi_offset 14, -4
 169 0002 0646     		mov	r6, r0
 170 0004 0846     		mov	r0, r1
 171              	.LVL20:
 172 0006 1546     		mov	r5, r2
 173              	.LVL21:
  73:eeprom.c      ****   unsigned char data, checksum = 0;
 174              		.loc 1 73 0
 175 0008 0024     		movs	r4, #0
  74:eeprom.c      ****   for(; size > 0; size--) { 
 176              		.loc 1 74 0
 177 000a 11E0     		b	.L12
 178              	.LVL22:
 179              	.L14:
  75:eeprom.c      ****     data = eeprom_get_char(source++);
 180              		.loc 1 75 0
 181 000c 471C     		adds	r7, r0, #1
 182              	.LVL23:
 183 000e FFF7FEFF 		bl	eeprom_get_char
 184              	.LVL24:
  76:eeprom.c      ****     checksum = (checksum << 1) || (checksum >> 7);
 185              		.loc 1 76 0
 186 0012 6300     		lsls	r3, r4, #1
 187 0014 24B9     		cbnz	r4, .L15
 188              		.loc 1 76 0 is_stmt 0 discriminator 2
 189 0016 14F0800F 		tst	r4, #128
 190 001a 02D0     		beq	.L13
 191              		.loc 1 76 0
 192 001c 0123     		movs	r3, #1
 193 001e 00E0     		b	.L13
 194              	.L15:
 195 0020 0123     		movs	r3, #1
 196              	.L13:
 197              	.LVL25:
  77:eeprom.c      ****     checksum += data;    
 198              		.loc 1 77 0 is_stmt 1 discriminator 6
 199 0022 0344     		add	r3, r3, r0
 200              	.LVL26:
 201 0024 03F0FF04 		and	r4, r3, #255
 202              	.LVL27:
  78:eeprom.c      ****     *(destination++) = data; 
 203              		.loc 1 78 0 discriminator 6
 204 0028 3070     		strb	r0, [r6]
  74:eeprom.c      ****     data = eeprom_get_char(source++);
ARM GAS  C:\Users\Bart\AppData\Local\Temp\cc1kVqwy.s 			page 6


 205              		.loc 1 74 0 discriminator 6
 206 002a 013D     		subs	r5, r5, #1
 207              	.LVL28:
  75:eeprom.c      ****     checksum = (checksum << 1) || (checksum >> 7);
 208              		.loc 1 75 0 discriminator 6
 209 002c 3846     		mov	r0, r7
 210              	.LVL29:
 211              		.loc 1 78 0 discriminator 6
 212 002e 0136     		adds	r6, r6, #1
 213              	.LVL30:
 214              	.L12:
  74:eeprom.c      ****     data = eeprom_get_char(source++);
 215              		.loc 1 74 0 discriminator 1
 216 0030 002D     		cmp	r5, #0
 217 0032 EBD1     		bne	.L14
  79:eeprom.c      ****   }
  80:eeprom.c      ****   return(checksum == eeprom_get_char(source));
 218              		.loc 1 80 0
 219 0034 FFF7FEFF 		bl	eeprom_get_char
 220              	.LVL31:
  81:eeprom.c      **** }
 221              		.loc 1 81 0
 222 0038 A042     		cmp	r0, r4
 223 003a 14BF     		ite	ne
 224 003c 0020     		movne	r0, #0
 225 003e 0120     		moveq	r0, #1
 226 0040 F8BD     		pop	{r3, r4, r5, r6, r7, pc}
 227              		.cfi_endproc
 228              	.LFE3:
 229              		.size	memcpy_from_eeprom_with_checksum, .-memcpy_from_eeprom_with_checksum
 230 0042 00BF     		.text
 231              	.Letext0:
 232              		.file 2 "Generated_Source\\PSoC5/cytypes.h"
 233              		.file 3 "Generated_Source\\PSoC5/EEPROM_PSoC.h"