ARM GAS  C:\Users\Bart\AppData\Local\Temp\ccsQMRp5.s 			page 1


   1              		.syntax unified
   2              		.cpu cortex-m3
   3              		.fpu softvfp
   4              		.eabi_attribute 20, 1
   5              		.eabi_attribute 21, 1
   6              		.eabi_attribute 23, 3
   7              		.eabi_attribute 24, 1
   8              		.eabi_attribute 25, 1
   9              		.eabi_attribute 26, 1
  10              		.eabi_attribute 30, 1
  11              		.eabi_attribute 34, 1
  12              		.eabi_attribute 18, 4
  13              		.thumb
  14              		.file	"isr_Step.c"
  15              		.text
  16              	.Ltext0:
  17              		.cfi_sections	.debug_frame
  18              		.section	.text.isr_Step_Interrupt,"ax",%progbits
  19              		.align	2
  20              		.global	isr_Step_Interrupt
  21              		.thumb
  22              		.thumb_func
  23              		.type	isr_Step_Interrupt, %function
  24              	isr_Step_Interrupt:
  25              	.LFB3:
  26              		.file 1 "Generated_Source\\PSoC5\\isr_Step.c"
   1:Generated_Source\PSoC5/isr_Step.c **** /*******************************************************************************
   2:Generated_Source\PSoC5/isr_Step.c **** * File Name: isr_Step.c  
   3:Generated_Source\PSoC5/isr_Step.c **** * Version 1.70
   4:Generated_Source\PSoC5/isr_Step.c **** *
   5:Generated_Source\PSoC5/isr_Step.c **** *  Description:
   6:Generated_Source\PSoC5/isr_Step.c **** *   API for controlling the state of an interrupt.
   7:Generated_Source\PSoC5/isr_Step.c **** *
   8:Generated_Source\PSoC5/isr_Step.c **** *
   9:Generated_Source\PSoC5/isr_Step.c **** *  Note:
  10:Generated_Source\PSoC5/isr_Step.c **** *
  11:Generated_Source\PSoC5/isr_Step.c **** ********************************************************************************
  12:Generated_Source\PSoC5/isr_Step.c **** * Copyright 2008-2015, Cypress Semiconductor Corporation.  All rights reserved.
  13:Generated_Source\PSoC5/isr_Step.c **** * You may use this file only in accordance with the license, terms, conditions, 
  14:Generated_Source\PSoC5/isr_Step.c **** * disclaimers, and limitations in the end user license agreement accompanying 
  15:Generated_Source\PSoC5/isr_Step.c **** * the software package with which this file was provided.
  16:Generated_Source\PSoC5/isr_Step.c **** *******************************************************************************/
  17:Generated_Source\PSoC5/isr_Step.c **** 
  18:Generated_Source\PSoC5/isr_Step.c **** 
  19:Generated_Source\PSoC5/isr_Step.c **** #include <cydevice_trm.h>
  20:Generated_Source\PSoC5/isr_Step.c **** #include <CyLib.h>
  21:Generated_Source\PSoC5/isr_Step.c **** #include <isr_Step.h>
  22:Generated_Source\PSoC5/isr_Step.c **** #include "cyapicallbacks.h"
  23:Generated_Source\PSoC5/isr_Step.c **** 
  24:Generated_Source\PSoC5/isr_Step.c **** #if !defined(isr_Step__REMOVED) /* Check for removal by optimization */
  25:Generated_Source\PSoC5/isr_Step.c **** 
  26:Generated_Source\PSoC5/isr_Step.c **** /*******************************************************************************
  27:Generated_Source\PSoC5/isr_Step.c **** *  Place your includes, defines and code here 
  28:Generated_Source\PSoC5/isr_Step.c **** ********************************************************************************/
  29:Generated_Source\PSoC5/isr_Step.c **** /* `#START isr_Step_intc` */
  30:Generated_Source\PSoC5/isr_Step.c **** 
  31:Generated_Source\PSoC5/isr_Step.c **** /* `#END` */
ARM GAS  C:\Users\Bart\AppData\Local\Temp\ccsQMRp5.s 			page 2


  32:Generated_Source\PSoC5/isr_Step.c **** 
  33:Generated_Source\PSoC5/isr_Step.c **** #ifndef CYINT_IRQ_BASE
  34:Generated_Source\PSoC5/isr_Step.c **** #define CYINT_IRQ_BASE      16
  35:Generated_Source\PSoC5/isr_Step.c **** #endif /* CYINT_IRQ_BASE */
  36:Generated_Source\PSoC5/isr_Step.c **** #ifndef CYINT_VECT_TABLE
  37:Generated_Source\PSoC5/isr_Step.c **** #define CYINT_VECT_TABLE    ((cyisraddress **) CYREG_NVIC_VECT_OFFSET)
  38:Generated_Source\PSoC5/isr_Step.c **** #endif /* CYINT_VECT_TABLE */
  39:Generated_Source\PSoC5/isr_Step.c **** 
  40:Generated_Source\PSoC5/isr_Step.c **** /* Declared in startup, used to set unused interrupts to. */
  41:Generated_Source\PSoC5/isr_Step.c **** CY_ISR_PROTO(IntDefaultHandler);
  42:Generated_Source\PSoC5/isr_Step.c **** 
  43:Generated_Source\PSoC5/isr_Step.c **** 
  44:Generated_Source\PSoC5/isr_Step.c **** /*******************************************************************************
  45:Generated_Source\PSoC5/isr_Step.c **** * Function Name: isr_Step_Start
  46:Generated_Source\PSoC5/isr_Step.c **** ********************************************************************************
  47:Generated_Source\PSoC5/isr_Step.c **** *
  48:Generated_Source\PSoC5/isr_Step.c **** * Summary:
  49:Generated_Source\PSoC5/isr_Step.c **** *  Set up the interrupt and enable it. This function disables the interrupt, 
  50:Generated_Source\PSoC5/isr_Step.c **** *  sets the default interrupt vector, sets the priority from the value in the
  51:Generated_Source\PSoC5/isr_Step.c **** *  Design Wide Resources Interrupt Editor, then enables the interrupt to the 
  52:Generated_Source\PSoC5/isr_Step.c **** *  interrupt controller.
  53:Generated_Source\PSoC5/isr_Step.c **** *
  54:Generated_Source\PSoC5/isr_Step.c **** * Parameters:  
  55:Generated_Source\PSoC5/isr_Step.c **** *   None
  56:Generated_Source\PSoC5/isr_Step.c **** *
  57:Generated_Source\PSoC5/isr_Step.c **** * Return:
  58:Generated_Source\PSoC5/isr_Step.c **** *   None
  59:Generated_Source\PSoC5/isr_Step.c **** *
  60:Generated_Source\PSoC5/isr_Step.c **** *******************************************************************************/
  61:Generated_Source\PSoC5/isr_Step.c **** void isr_Step_Start(void)
  62:Generated_Source\PSoC5/isr_Step.c **** {
  63:Generated_Source\PSoC5/isr_Step.c ****     /* For all we know the interrupt is active. */
  64:Generated_Source\PSoC5/isr_Step.c ****     isr_Step_Disable();
  65:Generated_Source\PSoC5/isr_Step.c **** 
  66:Generated_Source\PSoC5/isr_Step.c ****     /* Set the ISR to point to the isr_Step Interrupt. */
  67:Generated_Source\PSoC5/isr_Step.c ****     isr_Step_SetVector(&isr_Step_Interrupt);
  68:Generated_Source\PSoC5/isr_Step.c **** 
  69:Generated_Source\PSoC5/isr_Step.c ****     /* Set the priority. */
  70:Generated_Source\PSoC5/isr_Step.c ****     isr_Step_SetPriority((uint8)isr_Step_INTC_PRIOR_NUMBER);
  71:Generated_Source\PSoC5/isr_Step.c **** 
  72:Generated_Source\PSoC5/isr_Step.c ****     /* Enable it. */
  73:Generated_Source\PSoC5/isr_Step.c ****     isr_Step_Enable();
  74:Generated_Source\PSoC5/isr_Step.c **** }
  75:Generated_Source\PSoC5/isr_Step.c **** 
  76:Generated_Source\PSoC5/isr_Step.c **** 
  77:Generated_Source\PSoC5/isr_Step.c **** /*******************************************************************************
  78:Generated_Source\PSoC5/isr_Step.c **** * Function Name: isr_Step_StartEx
  79:Generated_Source\PSoC5/isr_Step.c **** ********************************************************************************
  80:Generated_Source\PSoC5/isr_Step.c **** *
  81:Generated_Source\PSoC5/isr_Step.c **** * Summary:
  82:Generated_Source\PSoC5/isr_Step.c **** *  Sets up the interrupt and enables it. This function disables the interrupt,
  83:Generated_Source\PSoC5/isr_Step.c **** *  sets the interrupt vector based on the address passed in, sets the priority 
  84:Generated_Source\PSoC5/isr_Step.c **** *  from the value in the Design Wide Resources Interrupt Editor, then enables 
  85:Generated_Source\PSoC5/isr_Step.c **** *  the interrupt to the interrupt controller.
  86:Generated_Source\PSoC5/isr_Step.c **** *  
  87:Generated_Source\PSoC5/isr_Step.c **** *  When defining ISR functions, the CY_ISR and CY_ISR_PROTO macros should be 
  88:Generated_Source\PSoC5/isr_Step.c **** *  used to provide consistent definition across compilers:
ARM GAS  C:\Users\Bart\AppData\Local\Temp\ccsQMRp5.s 			page 3


  89:Generated_Source\PSoC5/isr_Step.c **** *  
  90:Generated_Source\PSoC5/isr_Step.c **** *  Function definition example:
  91:Generated_Source\PSoC5/isr_Step.c **** *   CY_ISR(MyISR)
  92:Generated_Source\PSoC5/isr_Step.c **** *   {
  93:Generated_Source\PSoC5/isr_Step.c **** *   }
  94:Generated_Source\PSoC5/isr_Step.c **** *   Function prototype example:
  95:Generated_Source\PSoC5/isr_Step.c **** *   CY_ISR_PROTO(MyISR);
  96:Generated_Source\PSoC5/isr_Step.c **** *
  97:Generated_Source\PSoC5/isr_Step.c **** * Parameters:  
  98:Generated_Source\PSoC5/isr_Step.c **** *   address: Address of the ISR to set in the interrupt vector table.
  99:Generated_Source\PSoC5/isr_Step.c **** *
 100:Generated_Source\PSoC5/isr_Step.c **** * Return:
 101:Generated_Source\PSoC5/isr_Step.c **** *   None
 102:Generated_Source\PSoC5/isr_Step.c **** *
 103:Generated_Source\PSoC5/isr_Step.c **** *******************************************************************************/
 104:Generated_Source\PSoC5/isr_Step.c **** void isr_Step_StartEx(cyisraddress address)
 105:Generated_Source\PSoC5/isr_Step.c **** {
 106:Generated_Source\PSoC5/isr_Step.c ****     /* For all we know the interrupt is active. */
 107:Generated_Source\PSoC5/isr_Step.c ****     isr_Step_Disable();
 108:Generated_Source\PSoC5/isr_Step.c **** 
 109:Generated_Source\PSoC5/isr_Step.c ****     /* Set the ISR to point to the isr_Step Interrupt. */
 110:Generated_Source\PSoC5/isr_Step.c ****     isr_Step_SetVector(address);
 111:Generated_Source\PSoC5/isr_Step.c **** 
 112:Generated_Source\PSoC5/isr_Step.c ****     /* Set the priority. */
 113:Generated_Source\PSoC5/isr_Step.c ****     isr_Step_SetPriority((uint8)isr_Step_INTC_PRIOR_NUMBER);
 114:Generated_Source\PSoC5/isr_Step.c **** 
 115:Generated_Source\PSoC5/isr_Step.c ****     /* Enable it. */
 116:Generated_Source\PSoC5/isr_Step.c ****     isr_Step_Enable();
 117:Generated_Source\PSoC5/isr_Step.c **** }
 118:Generated_Source\PSoC5/isr_Step.c **** 
 119:Generated_Source\PSoC5/isr_Step.c **** 
 120:Generated_Source\PSoC5/isr_Step.c **** /*******************************************************************************
 121:Generated_Source\PSoC5/isr_Step.c **** * Function Name: isr_Step_Stop
 122:Generated_Source\PSoC5/isr_Step.c **** ********************************************************************************
 123:Generated_Source\PSoC5/isr_Step.c **** *
 124:Generated_Source\PSoC5/isr_Step.c **** * Summary:
 125:Generated_Source\PSoC5/isr_Step.c **** *   Disables and removes the interrupt.
 126:Generated_Source\PSoC5/isr_Step.c **** *
 127:Generated_Source\PSoC5/isr_Step.c **** * Parameters:  
 128:Generated_Source\PSoC5/isr_Step.c **** *   None
 129:Generated_Source\PSoC5/isr_Step.c **** *
 130:Generated_Source\PSoC5/isr_Step.c **** * Return:
 131:Generated_Source\PSoC5/isr_Step.c **** *   None
 132:Generated_Source\PSoC5/isr_Step.c **** *
 133:Generated_Source\PSoC5/isr_Step.c **** *******************************************************************************/
 134:Generated_Source\PSoC5/isr_Step.c **** void isr_Step_Stop(void)
 135:Generated_Source\PSoC5/isr_Step.c **** {
 136:Generated_Source\PSoC5/isr_Step.c ****     /* Disable this interrupt. */
 137:Generated_Source\PSoC5/isr_Step.c ****     isr_Step_Disable();
 138:Generated_Source\PSoC5/isr_Step.c **** 
 139:Generated_Source\PSoC5/isr_Step.c ****     /* Set the ISR to point to the passive one. */
 140:Generated_Source\PSoC5/isr_Step.c ****     isr_Step_SetVector(&IntDefaultHandler);
 141:Generated_Source\PSoC5/isr_Step.c **** }
 142:Generated_Source\PSoC5/isr_Step.c **** 
 143:Generated_Source\PSoC5/isr_Step.c **** 
 144:Generated_Source\PSoC5/isr_Step.c **** /*******************************************************************************
 145:Generated_Source\PSoC5/isr_Step.c **** * Function Name: isr_Step_Interrupt
ARM GAS  C:\Users\Bart\AppData\Local\Temp\ccsQMRp5.s 			page 4


 146:Generated_Source\PSoC5/isr_Step.c **** ********************************************************************************
 147:Generated_Source\PSoC5/isr_Step.c **** *
 148:Generated_Source\PSoC5/isr_Step.c **** * Summary:
 149:Generated_Source\PSoC5/isr_Step.c **** *   The default Interrupt Service Routine for isr_Step.
 150:Generated_Source\PSoC5/isr_Step.c **** *
 151:Generated_Source\PSoC5/isr_Step.c **** *   Add custom code between the coments to keep the next version of this file
 152:Generated_Source\PSoC5/isr_Step.c **** *   from over writting your code.
 153:Generated_Source\PSoC5/isr_Step.c **** *
 154:Generated_Source\PSoC5/isr_Step.c **** * Parameters:  
 155:Generated_Source\PSoC5/isr_Step.c **** *
 156:Generated_Source\PSoC5/isr_Step.c **** * Return:
 157:Generated_Source\PSoC5/isr_Step.c **** *   None
 158:Generated_Source\PSoC5/isr_Step.c **** *
 159:Generated_Source\PSoC5/isr_Step.c **** *******************************************************************************/
 160:Generated_Source\PSoC5/isr_Step.c **** CY_ISR(isr_Step_Interrupt)
 161:Generated_Source\PSoC5/isr_Step.c **** {
  27              		.loc 1 161 0
  28              		.cfi_startproc
  29              		@ args = 0, pretend = 0, frame = 0
  30              		@ frame_needed = 0, uses_anonymous_args = 0
  31              		@ link register save eliminated.
  32 0000 7047     		bx	lr
  33              		.cfi_endproc
  34              	.LFE3:
  35              		.size	isr_Step_Interrupt, .-isr_Step_Interrupt
  36 0002 00BF     		.section	.text.isr_Step_SetVector,"ax",%progbits
  37              		.align	2
  38              		.global	isr_Step_SetVector
  39              		.thumb
  40              		.thumb_func
  41              		.type	isr_Step_SetVector, %function
  42              	isr_Step_SetVector:
  43              	.LFB4:
 162:Generated_Source\PSoC5/isr_Step.c ****     #ifdef isr_Step_INTERRUPT_INTERRUPT_CALLBACK
 163:Generated_Source\PSoC5/isr_Step.c ****         isr_Step_Interrupt_InterruptCallback();
 164:Generated_Source\PSoC5/isr_Step.c ****     #endif /* isr_Step_INTERRUPT_INTERRUPT_CALLBACK */ 
 165:Generated_Source\PSoC5/isr_Step.c **** 
 166:Generated_Source\PSoC5/isr_Step.c ****     /*  Place your Interrupt code here. */
 167:Generated_Source\PSoC5/isr_Step.c ****     /* `#START isr_Step_Interrupt` */
 168:Generated_Source\PSoC5/isr_Step.c **** 
 169:Generated_Source\PSoC5/isr_Step.c ****     /* `#END` */
 170:Generated_Source\PSoC5/isr_Step.c **** }
 171:Generated_Source\PSoC5/isr_Step.c **** 
 172:Generated_Source\PSoC5/isr_Step.c **** 
 173:Generated_Source\PSoC5/isr_Step.c **** /*******************************************************************************
 174:Generated_Source\PSoC5/isr_Step.c **** * Function Name: isr_Step_SetVector
 175:Generated_Source\PSoC5/isr_Step.c **** ********************************************************************************
 176:Generated_Source\PSoC5/isr_Step.c **** *
 177:Generated_Source\PSoC5/isr_Step.c **** * Summary:
 178:Generated_Source\PSoC5/isr_Step.c **** *   Change the ISR vector for the Interrupt. Note calling isr_Step_Start
 179:Generated_Source\PSoC5/isr_Step.c **** *   will override any effect this method would have had. To set the vector 
 180:Generated_Source\PSoC5/isr_Step.c **** *   before the component has been started use isr_Step_StartEx instead.
 181:Generated_Source\PSoC5/isr_Step.c **** * 
 182:Generated_Source\PSoC5/isr_Step.c **** *   When defining ISR functions, the CY_ISR and CY_ISR_PROTO macros should be 
 183:Generated_Source\PSoC5/isr_Step.c **** *   used to provide consistent definition across compilers:
 184:Generated_Source\PSoC5/isr_Step.c **** *
 185:Generated_Source\PSoC5/isr_Step.c **** *   Function definition example:
ARM GAS  C:\Users\Bart\AppData\Local\Temp\ccsQMRp5.s 			page 5


 186:Generated_Source\PSoC5/isr_Step.c **** *   CY_ISR(MyISR)
 187:Generated_Source\PSoC5/isr_Step.c **** *   {
 188:Generated_Source\PSoC5/isr_Step.c **** *   }
 189:Generated_Source\PSoC5/isr_Step.c **** *
 190:Generated_Source\PSoC5/isr_Step.c **** *   Function prototype example:
 191:Generated_Source\PSoC5/isr_Step.c **** *     CY_ISR_PROTO(MyISR);
 192:Generated_Source\PSoC5/isr_Step.c **** *
 193:Generated_Source\PSoC5/isr_Step.c **** * Parameters:
 194:Generated_Source\PSoC5/isr_Step.c **** *   address: Address of the ISR to set in the interrupt vector table.
 195:Generated_Source\PSoC5/isr_Step.c **** *
 196:Generated_Source\PSoC5/isr_Step.c **** * Return:
 197:Generated_Source\PSoC5/isr_Step.c **** *   None
 198:Generated_Source\PSoC5/isr_Step.c **** *
 199:Generated_Source\PSoC5/isr_Step.c **** *******************************************************************************/
 200:Generated_Source\PSoC5/isr_Step.c **** void isr_Step_SetVector(cyisraddress address)
 201:Generated_Source\PSoC5/isr_Step.c **** {
  44              		.loc 1 201 0
  45              		.cfi_startproc
  46              		@ args = 0, pretend = 0, frame = 0
  47              		@ frame_needed = 0, uses_anonymous_args = 0
  48              		@ link register save eliminated.
  49              	.LVL0:
 202:Generated_Source\PSoC5/isr_Step.c ****     cyisraddress * ramVectorTable;
 203:Generated_Source\PSoC5/isr_Step.c **** 
 204:Generated_Source\PSoC5/isr_Step.c ****     ramVectorTable = (cyisraddress *) *CYINT_VECT_TABLE;
  50              		.loc 1 204 0
  51 0000 024B     		ldr	r3, .L3
  52 0002 1B68     		ldr	r3, [r3]
  53              	.LVL1:
 205:Generated_Source\PSoC5/isr_Step.c **** 
 206:Generated_Source\PSoC5/isr_Step.c ****     ramVectorTable[CYINT_IRQ_BASE + (uint32)isr_Step__INTC_NUMBER] = address;
  54              		.loc 1 206 0
  55 0004 C3F88800 		str	r0, [r3, #136]
  56 0008 7047     		bx	lr
  57              	.L4:
  58 000a 00BF     		.align	2
  59              	.L3:
  60 000c 08ED00E0 		.word	-536810232
  61              		.cfi_endproc
  62              	.LFE4:
  63              		.size	isr_Step_SetVector, .-isr_Step_SetVector
  64              		.section	.text.isr_Step_GetVector,"ax",%progbits
  65              		.align	2
  66              		.global	isr_Step_GetVector
  67              		.thumb
  68              		.thumb_func
  69              		.type	isr_Step_GetVector, %function
  70              	isr_Step_GetVector:
  71              	.LFB5:
 207:Generated_Source\PSoC5/isr_Step.c **** }
 208:Generated_Source\PSoC5/isr_Step.c **** 
 209:Generated_Source\PSoC5/isr_Step.c **** 
 210:Generated_Source\PSoC5/isr_Step.c **** /*******************************************************************************
 211:Generated_Source\PSoC5/isr_Step.c **** * Function Name: isr_Step_GetVector
 212:Generated_Source\PSoC5/isr_Step.c **** ********************************************************************************
 213:Generated_Source\PSoC5/isr_Step.c **** *
 214:Generated_Source\PSoC5/isr_Step.c **** * Summary:
ARM GAS  C:\Users\Bart\AppData\Local\Temp\ccsQMRp5.s 			page 6


 215:Generated_Source\PSoC5/isr_Step.c **** *   Gets the "address" of the current ISR vector for the Interrupt.
 216:Generated_Source\PSoC5/isr_Step.c **** *
 217:Generated_Source\PSoC5/isr_Step.c **** * Parameters:
 218:Generated_Source\PSoC5/isr_Step.c **** *   None
 219:Generated_Source\PSoC5/isr_Step.c **** *
 220:Generated_Source\PSoC5/isr_Step.c **** * Return:
 221:Generated_Source\PSoC5/isr_Step.c **** *   Address of the ISR in the interrupt vector table.
 222:Generated_Source\PSoC5/isr_Step.c **** *
 223:Generated_Source\PSoC5/isr_Step.c **** *******************************************************************************/
 224:Generated_Source\PSoC5/isr_Step.c **** cyisraddress isr_Step_GetVector(void)
 225:Generated_Source\PSoC5/isr_Step.c **** {
  72              		.loc 1 225 0
  73              		.cfi_startproc
  74              		@ args = 0, pretend = 0, frame = 0
  75              		@ frame_needed = 0, uses_anonymous_args = 0
  76              		@ link register save eliminated.
 226:Generated_Source\PSoC5/isr_Step.c ****     cyisraddress * ramVectorTable;
 227:Generated_Source\PSoC5/isr_Step.c **** 
 228:Generated_Source\PSoC5/isr_Step.c ****     ramVectorTable = (cyisraddress *) *CYINT_VECT_TABLE;
  77              		.loc 1 228 0
  78 0000 024B     		ldr	r3, .L6
  79 0002 1B68     		ldr	r3, [r3]
  80              	.LVL2:
 229:Generated_Source\PSoC5/isr_Step.c **** 
 230:Generated_Source\PSoC5/isr_Step.c ****     return ramVectorTable[CYINT_IRQ_BASE + (uint32)isr_Step__INTC_NUMBER];
 231:Generated_Source\PSoC5/isr_Step.c **** }
  81              		.loc 1 231 0
  82 0004 D3F88800 		ldr	r0, [r3, #136]
  83 0008 7047     		bx	lr
  84              	.L7:
  85 000a 00BF     		.align	2
  86              	.L6:
  87 000c 08ED00E0 		.word	-536810232
  88              		.cfi_endproc
  89              	.LFE5:
  90              		.size	isr_Step_GetVector, .-isr_Step_GetVector
  91              		.section	.text.isr_Step_SetPriority,"ax",%progbits
  92              		.align	2
  93              		.global	isr_Step_SetPriority
  94              		.thumb
  95              		.thumb_func
  96              		.type	isr_Step_SetPriority, %function
  97              	isr_Step_SetPriority:
  98              	.LFB6:
 232:Generated_Source\PSoC5/isr_Step.c **** 
 233:Generated_Source\PSoC5/isr_Step.c **** 
 234:Generated_Source\PSoC5/isr_Step.c **** /*******************************************************************************
 235:Generated_Source\PSoC5/isr_Step.c **** * Function Name: isr_Step_SetPriority
 236:Generated_Source\PSoC5/isr_Step.c **** ********************************************************************************
 237:Generated_Source\PSoC5/isr_Step.c **** *
 238:Generated_Source\PSoC5/isr_Step.c **** * Summary:
 239:Generated_Source\PSoC5/isr_Step.c **** *   Sets the Priority of the Interrupt. 
 240:Generated_Source\PSoC5/isr_Step.c **** *
 241:Generated_Source\PSoC5/isr_Step.c **** *   Note calling isr_Step_Start or isr_Step_StartEx will 
 242:Generated_Source\PSoC5/isr_Step.c **** *   override any effect this API would have had. This API should only be called
 243:Generated_Source\PSoC5/isr_Step.c **** *   after isr_Step_Start or isr_Step_StartEx has been called. 
 244:Generated_Source\PSoC5/isr_Step.c **** *   To set the initial priority for the component, use the Design-Wide Resources
ARM GAS  C:\Users\Bart\AppData\Local\Temp\ccsQMRp5.s 			page 7


 245:Generated_Source\PSoC5/isr_Step.c **** *   Interrupt Editor.
 246:Generated_Source\PSoC5/isr_Step.c **** *
 247:Generated_Source\PSoC5/isr_Step.c **** *   Note This API has no effect on Non-maskable interrupt NMI).
 248:Generated_Source\PSoC5/isr_Step.c **** *
 249:Generated_Source\PSoC5/isr_Step.c **** * Parameters:
 250:Generated_Source\PSoC5/isr_Step.c **** *   priority: Priority of the interrupt, 0 being the highest priority
 251:Generated_Source\PSoC5/isr_Step.c **** *             PSoC 3 and PSoC 5LP: Priority is from 0 to 7.
 252:Generated_Source\PSoC5/isr_Step.c **** *             PSoC 4: Priority is from 0 to 3.
 253:Generated_Source\PSoC5/isr_Step.c **** *
 254:Generated_Source\PSoC5/isr_Step.c **** * Return:
 255:Generated_Source\PSoC5/isr_Step.c **** *   None
 256:Generated_Source\PSoC5/isr_Step.c **** *
 257:Generated_Source\PSoC5/isr_Step.c **** *******************************************************************************/
 258:Generated_Source\PSoC5/isr_Step.c **** void isr_Step_SetPriority(uint8 priority)
 259:Generated_Source\PSoC5/isr_Step.c **** {
  99              		.loc 1 259 0
 100              		.cfi_startproc
 101              		@ args = 0, pretend = 0, frame = 0
 102              		@ frame_needed = 0, uses_anonymous_args = 0
 103              		@ link register save eliminated.
 104              	.LVL3:
 260:Generated_Source\PSoC5/isr_Step.c ****     *isr_Step_INTC_PRIOR = priority << 5;
 105              		.loc 1 260 0
 106 0000 4001     		lsls	r0, r0, #5
 107              	.LVL4:
 108 0002 C0B2     		uxtb	r0, r0
 109 0004 014B     		ldr	r3, .L9
 110 0006 1870     		strb	r0, [r3]
 111 0008 7047     		bx	lr
 112              	.L10:
 113 000a 00BF     		.align	2
 114              	.L9:
 115 000c 12E400E0 		.word	-536812526
 116              		.cfi_endproc
 117              	.LFE6:
 118              		.size	isr_Step_SetPriority, .-isr_Step_SetPriority
 119              		.section	.text.isr_Step_GetPriority,"ax",%progbits
 120              		.align	2
 121              		.global	isr_Step_GetPriority
 122              		.thumb
 123              		.thumb_func
 124              		.type	isr_Step_GetPriority, %function
 125              	isr_Step_GetPriority:
 126              	.LFB7:
 261:Generated_Source\PSoC5/isr_Step.c **** }
 262:Generated_Source\PSoC5/isr_Step.c **** 
 263:Generated_Source\PSoC5/isr_Step.c **** 
 264:Generated_Source\PSoC5/isr_Step.c **** /*******************************************************************************
 265:Generated_Source\PSoC5/isr_Step.c **** * Function Name: isr_Step_GetPriority
 266:Generated_Source\PSoC5/isr_Step.c **** ********************************************************************************
 267:Generated_Source\PSoC5/isr_Step.c **** *
 268:Generated_Source\PSoC5/isr_Step.c **** * Summary:
 269:Generated_Source\PSoC5/isr_Step.c **** *   Gets the Priority of the Interrupt.
 270:Generated_Source\PSoC5/isr_Step.c **** *
 271:Generated_Source\PSoC5/isr_Step.c **** * Parameters:
 272:Generated_Source\PSoC5/isr_Step.c **** *   None
 273:Generated_Source\PSoC5/isr_Step.c **** *
ARM GAS  C:\Users\Bart\AppData\Local\Temp\ccsQMRp5.s 			page 8


 274:Generated_Source\PSoC5/isr_Step.c **** * Return:
 275:Generated_Source\PSoC5/isr_Step.c **** *   Priority of the interrupt, 0 being the highest priority
 276:Generated_Source\PSoC5/isr_Step.c **** *    PSoC 3 and PSoC 5LP: Priority is from 0 to 7.
 277:Generated_Source\PSoC5/isr_Step.c **** *    PSoC 4: Priority is from 0 to 3.
 278:Generated_Source\PSoC5/isr_Step.c **** *
 279:Generated_Source\PSoC5/isr_Step.c **** *******************************************************************************/
 280:Generated_Source\PSoC5/isr_Step.c **** uint8 isr_Step_GetPriority(void)
 281:Generated_Source\PSoC5/isr_Step.c **** {
 127              		.loc 1 281 0
 128              		.cfi_startproc
 129              		@ args = 0, pretend = 0, frame = 0
 130              		@ frame_needed = 0, uses_anonymous_args = 0
 131              		@ link register save eliminated.
 282:Generated_Source\PSoC5/isr_Step.c ****     uint8 priority;
 283:Generated_Source\PSoC5/isr_Step.c **** 
 284:Generated_Source\PSoC5/isr_Step.c **** 
 285:Generated_Source\PSoC5/isr_Step.c ****     priority = *isr_Step_INTC_PRIOR >> 5;
 132              		.loc 1 285 0
 133 0000 014B     		ldr	r3, .L12
 134 0002 1878     		ldrb	r0, [r3]	@ zero_extendqisi2
 135              	.LVL5:
 286:Generated_Source\PSoC5/isr_Step.c **** 
 287:Generated_Source\PSoC5/isr_Step.c ****     return priority;
 288:Generated_Source\PSoC5/isr_Step.c **** }
 136              		.loc 1 288 0
 137 0004 4009     		lsrs	r0, r0, #5
 138              	.LVL6:
 139 0006 7047     		bx	lr
 140              	.L13:
 141              		.align	2
 142              	.L12:
 143 0008 12E400E0 		.word	-536812526
 144              		.cfi_endproc
 145              	.LFE7:
 146              		.size	isr_Step_GetPriority, .-isr_Step_GetPriority
 147              		.section	.text.isr_Step_Enable,"ax",%progbits
 148              		.align	2
 149              		.global	isr_Step_Enable
 150              		.thumb
 151              		.thumb_func
 152              		.type	isr_Step_Enable, %function
 153              	isr_Step_Enable:
 154              	.LFB8:
 289:Generated_Source\PSoC5/isr_Step.c **** 
 290:Generated_Source\PSoC5/isr_Step.c **** 
 291:Generated_Source\PSoC5/isr_Step.c **** /*******************************************************************************
 292:Generated_Source\PSoC5/isr_Step.c **** * Function Name: isr_Step_Enable
 293:Generated_Source\PSoC5/isr_Step.c **** ********************************************************************************
 294:Generated_Source\PSoC5/isr_Step.c **** *
 295:Generated_Source\PSoC5/isr_Step.c **** * Summary:
 296:Generated_Source\PSoC5/isr_Step.c **** *   Enables the interrupt to the interrupt controller. Do not call this function
 297:Generated_Source\PSoC5/isr_Step.c **** *   unless ISR_Start() has been called or the functionality of the ISR_Start() 
 298:Generated_Source\PSoC5/isr_Step.c **** *   function, which sets the vector and the priority, has been called.
 299:Generated_Source\PSoC5/isr_Step.c **** *
 300:Generated_Source\PSoC5/isr_Step.c **** * Parameters:
 301:Generated_Source\PSoC5/isr_Step.c **** *   None
 302:Generated_Source\PSoC5/isr_Step.c **** *
ARM GAS  C:\Users\Bart\AppData\Local\Temp\ccsQMRp5.s 			page 9


 303:Generated_Source\PSoC5/isr_Step.c **** * Return:
 304:Generated_Source\PSoC5/isr_Step.c **** *   None
 305:Generated_Source\PSoC5/isr_Step.c **** *
 306:Generated_Source\PSoC5/isr_Step.c **** *******************************************************************************/
 307:Generated_Source\PSoC5/isr_Step.c **** void isr_Step_Enable(void)
 308:Generated_Source\PSoC5/isr_Step.c **** {
 155              		.loc 1 308 0
 156              		.cfi_startproc
 157              		@ args = 0, pretend = 0, frame = 0
 158              		@ frame_needed = 0, uses_anonymous_args = 0
 159              		@ link register save eliminated.
 309:Generated_Source\PSoC5/isr_Step.c ****     /* Enable the general interrupt. */
 310:Generated_Source\PSoC5/isr_Step.c ****     *isr_Step_INTC_SET_EN = isr_Step__INTC_MASK;
 160              		.loc 1 310 0
 161 0000 4FF48022 		mov	r2, #262144
 162 0004 014B     		ldr	r3, .L15
 163 0006 1A60     		str	r2, [r3]
 164 0008 7047     		bx	lr
 165              	.L16:
 166 000a 00BF     		.align	2
 167              	.L15:
 168 000c 00E100E0 		.word	-536813312
 169              		.cfi_endproc
 170              	.LFE8:
 171              		.size	isr_Step_Enable, .-isr_Step_Enable
 172              		.section	.text.isr_Step_GetState,"ax",%progbits
 173              		.align	2
 174              		.global	isr_Step_GetState
 175              		.thumb
 176              		.thumb_func
 177              		.type	isr_Step_GetState, %function
 178              	isr_Step_GetState:
 179              	.LFB9:
 311:Generated_Source\PSoC5/isr_Step.c **** }
 312:Generated_Source\PSoC5/isr_Step.c **** 
 313:Generated_Source\PSoC5/isr_Step.c **** 
 314:Generated_Source\PSoC5/isr_Step.c **** /*******************************************************************************
 315:Generated_Source\PSoC5/isr_Step.c **** * Function Name: isr_Step_GetState
 316:Generated_Source\PSoC5/isr_Step.c **** ********************************************************************************
 317:Generated_Source\PSoC5/isr_Step.c **** *
 318:Generated_Source\PSoC5/isr_Step.c **** * Summary:
 319:Generated_Source\PSoC5/isr_Step.c **** *   Gets the state (enabled, disabled) of the Interrupt.
 320:Generated_Source\PSoC5/isr_Step.c **** *
 321:Generated_Source\PSoC5/isr_Step.c **** * Parameters:
 322:Generated_Source\PSoC5/isr_Step.c **** *   None
 323:Generated_Source\PSoC5/isr_Step.c **** *
 324:Generated_Source\PSoC5/isr_Step.c **** * Return:
 325:Generated_Source\PSoC5/isr_Step.c **** *   1 if enabled, 0 if disabled.
 326:Generated_Source\PSoC5/isr_Step.c **** *
 327:Generated_Source\PSoC5/isr_Step.c **** *******************************************************************************/
 328:Generated_Source\PSoC5/isr_Step.c **** uint8 isr_Step_GetState(void)
 329:Generated_Source\PSoC5/isr_Step.c **** {
 180              		.loc 1 329 0
 181              		.cfi_startproc
 182              		@ args = 0, pretend = 0, frame = 0
 183              		@ frame_needed = 0, uses_anonymous_args = 0
 184              		@ link register save eliminated.
ARM GAS  C:\Users\Bart\AppData\Local\Temp\ccsQMRp5.s 			page 10


 330:Generated_Source\PSoC5/isr_Step.c ****     /* Get the state of the general interrupt. */
 331:Generated_Source\PSoC5/isr_Step.c ****     return ((*isr_Step_INTC_SET_EN & (uint32)isr_Step__INTC_MASK) != 0u) ? 1u:0u;
 185              		.loc 1 331 0
 186 0000 044B     		ldr	r3, .L20
 187 0002 1B68     		ldr	r3, [r3]
 188 0004 13F4802F 		tst	r3, #262144
 189 0008 01D0     		beq	.L19
 190 000a 0120     		movs	r0, #1
 191 000c 7047     		bx	lr
 192              	.L19:
 193 000e 0020     		movs	r0, #0
 332:Generated_Source\PSoC5/isr_Step.c **** }
 194              		.loc 1 332 0
 195 0010 7047     		bx	lr
 196              	.L21:
 197 0012 00BF     		.align	2
 198              	.L20:
 199 0014 00E100E0 		.word	-536813312
 200              		.cfi_endproc
 201              	.LFE9:
 202              		.size	isr_Step_GetState, .-isr_Step_GetState
 203              		.section	.text.isr_Step_Disable,"ax",%progbits
 204              		.align	2
 205              		.global	isr_Step_Disable
 206              		.thumb
 207              		.thumb_func
 208              		.type	isr_Step_Disable, %function
 209              	isr_Step_Disable:
 210              	.LFB10:
 333:Generated_Source\PSoC5/isr_Step.c **** 
 334:Generated_Source\PSoC5/isr_Step.c **** 
 335:Generated_Source\PSoC5/isr_Step.c **** /*******************************************************************************
 336:Generated_Source\PSoC5/isr_Step.c **** * Function Name: isr_Step_Disable
 337:Generated_Source\PSoC5/isr_Step.c **** ********************************************************************************
 338:Generated_Source\PSoC5/isr_Step.c **** *
 339:Generated_Source\PSoC5/isr_Step.c **** * Summary:
 340:Generated_Source\PSoC5/isr_Step.c **** *   Disables the Interrupt in the interrupt controller.
 341:Generated_Source\PSoC5/isr_Step.c **** *
 342:Generated_Source\PSoC5/isr_Step.c **** * Parameters:
 343:Generated_Source\PSoC5/isr_Step.c **** *   None
 344:Generated_Source\PSoC5/isr_Step.c **** *
 345:Generated_Source\PSoC5/isr_Step.c **** * Return:
 346:Generated_Source\PSoC5/isr_Step.c **** *   None
 347:Generated_Source\PSoC5/isr_Step.c **** *
 348:Generated_Source\PSoC5/isr_Step.c **** *******************************************************************************/
 349:Generated_Source\PSoC5/isr_Step.c **** void isr_Step_Disable(void)
 350:Generated_Source\PSoC5/isr_Step.c **** {
 211              		.loc 1 350 0
 212              		.cfi_startproc
 213              		@ args = 0, pretend = 0, frame = 0
 214              		@ frame_needed = 0, uses_anonymous_args = 0
 215              		@ link register save eliminated.
 351:Generated_Source\PSoC5/isr_Step.c ****     /* Disable the general interrupt. */
 352:Generated_Source\PSoC5/isr_Step.c ****     *isr_Step_INTC_CLR_EN = isr_Step__INTC_MASK;
 216              		.loc 1 352 0
 217 0000 4FF48022 		mov	r2, #262144
 218 0004 014B     		ldr	r3, .L23
ARM GAS  C:\Users\Bart\AppData\Local\Temp\ccsQMRp5.s 			page 11


 219 0006 1A60     		str	r2, [r3]
 220 0008 7047     		bx	lr
 221              	.L24:
 222 000a 00BF     		.align	2
 223              	.L23:
 224 000c 80E100E0 		.word	-536813184
 225              		.cfi_endproc
 226              	.LFE10:
 227              		.size	isr_Step_Disable, .-isr_Step_Disable
 228              		.section	.text.isr_Step_Start,"ax",%progbits
 229              		.align	2
 230              		.global	isr_Step_Start
 231              		.thumb
 232              		.thumb_func
 233              		.type	isr_Step_Start, %function
 234              	isr_Step_Start:
 235              	.LFB0:
  62:Generated_Source\PSoC5/isr_Step.c ****     /* For all we know the interrupt is active. */
 236              		.loc 1 62 0
 237              		.cfi_startproc
 238              		@ args = 0, pretend = 0, frame = 0
 239              		@ frame_needed = 0, uses_anonymous_args = 0
 240 0000 08B5     		push	{r3, lr}
 241              		.cfi_def_cfa_offset 8
 242              		.cfi_offset 3, -8
 243              		.cfi_offset 14, -4
  64:Generated_Source\PSoC5/isr_Step.c **** 
 244              		.loc 1 64 0
 245 0002 FFF7FEFF 		bl	isr_Step_Disable
 246              	.LVL7:
  67:Generated_Source\PSoC5/isr_Step.c **** 
 247              		.loc 1 67 0
 248 0006 0448     		ldr	r0, .L27
 249 0008 FFF7FEFF 		bl	isr_Step_SetVector
 250              	.LVL8:
  70:Generated_Source\PSoC5/isr_Step.c **** 
 251              		.loc 1 70 0
 252 000c 0720     		movs	r0, #7
 253 000e FFF7FEFF 		bl	isr_Step_SetPriority
 254              	.LVL9:
  73:Generated_Source\PSoC5/isr_Step.c **** }
 255              		.loc 1 73 0
 256 0012 FFF7FEFF 		bl	isr_Step_Enable
 257              	.LVL10:
 258 0016 08BD     		pop	{r3, pc}
 259              	.L28:
 260              		.align	2
 261              	.L27:
 262 0018 00000000 		.word	isr_Step_Interrupt
 263              		.cfi_endproc
 264              	.LFE0:
 265              		.size	isr_Step_Start, .-isr_Step_Start
 266              		.section	.text.isr_Step_StartEx,"ax",%progbits
 267              		.align	2
 268              		.global	isr_Step_StartEx
 269              		.thumb
 270              		.thumb_func
ARM GAS  C:\Users\Bart\AppData\Local\Temp\ccsQMRp5.s 			page 12


 271              		.type	isr_Step_StartEx, %function
 272              	isr_Step_StartEx:
 273              	.LFB1:
 105:Generated_Source\PSoC5/isr_Step.c ****     /* For all we know the interrupt is active. */
 274              		.loc 1 105 0
 275              		.cfi_startproc
 276              		@ args = 0, pretend = 0, frame = 0
 277              		@ frame_needed = 0, uses_anonymous_args = 0
 278              	.LVL11:
 279 0000 10B5     		push	{r4, lr}
 280              		.cfi_def_cfa_offset 8
 281              		.cfi_offset 4, -8
 282              		.cfi_offset 14, -4
 283 0002 0446     		mov	r4, r0
 107:Generated_Source\PSoC5/isr_Step.c **** 
 284              		.loc 1 107 0
 285 0004 FFF7FEFF 		bl	isr_Step_Disable
 286              	.LVL12:
 110:Generated_Source\PSoC5/isr_Step.c **** 
 287              		.loc 1 110 0
 288 0008 2046     		mov	r0, r4
 289 000a FFF7FEFF 		bl	isr_Step_SetVector
 290              	.LVL13:
 113:Generated_Source\PSoC5/isr_Step.c **** 
 291              		.loc 1 113 0
 292 000e 0720     		movs	r0, #7
 293 0010 FFF7FEFF 		bl	isr_Step_SetPriority
 294              	.LVL14:
 116:Generated_Source\PSoC5/isr_Step.c **** }
 295              		.loc 1 116 0
 296 0014 FFF7FEFF 		bl	isr_Step_Enable
 297              	.LVL15:
 298 0018 10BD     		pop	{r4, pc}
 299              		.cfi_endproc
 300              	.LFE1:
 301              		.size	isr_Step_StartEx, .-isr_Step_StartEx
 302 001a 00BF     		.section	.text.isr_Step_Stop,"ax",%progbits
 303              		.align	2
 304              		.global	isr_Step_Stop
 305              		.thumb
 306              		.thumb_func
 307              		.type	isr_Step_Stop, %function
 308              	isr_Step_Stop:
 309              	.LFB2:
 135:Generated_Source\PSoC5/isr_Step.c ****     /* Disable this interrupt. */
 310              		.loc 1 135 0
 311              		.cfi_startproc
 312              		@ args = 0, pretend = 0, frame = 0
 313              		@ frame_needed = 0, uses_anonymous_args = 0
 314 0000 08B5     		push	{r3, lr}
 315              		.cfi_def_cfa_offset 8
 316              		.cfi_offset 3, -8
 317              		.cfi_offset 14, -4
 137:Generated_Source\PSoC5/isr_Step.c **** 
 318              		.loc 1 137 0
 319 0002 FFF7FEFF 		bl	isr_Step_Disable
 320              	.LVL16:
ARM GAS  C:\Users\Bart\AppData\Local\Temp\ccsQMRp5.s 			page 13


 140:Generated_Source\PSoC5/isr_Step.c **** }
 321              		.loc 1 140 0
 322 0006 0248     		ldr	r0, .L33
 323 0008 FFF7FEFF 		bl	isr_Step_SetVector
 324              	.LVL17:
 325 000c 08BD     		pop	{r3, pc}
 326              	.L34:
 327 000e 00BF     		.align	2
 328              	.L33:
 329 0010 00000000 		.word	IntDefaultHandler
 330              		.cfi_endproc
 331              	.LFE2:
 332              		.size	isr_Step_Stop, .-isr_Step_Stop
 333              		.section	.text.isr_Step_SetPending,"ax",%progbits
 334              		.align	2
 335              		.global	isr_Step_SetPending
 336              		.thumb
 337              		.thumb_func
 338              		.type	isr_Step_SetPending, %function
 339              	isr_Step_SetPending:
 340              	.LFB11:
 353:Generated_Source\PSoC5/isr_Step.c **** }
 354:Generated_Source\PSoC5/isr_Step.c **** 
 355:Generated_Source\PSoC5/isr_Step.c **** 
 356:Generated_Source\PSoC5/isr_Step.c **** /*******************************************************************************
 357:Generated_Source\PSoC5/isr_Step.c **** * Function Name: isr_Step_SetPending
 358:Generated_Source\PSoC5/isr_Step.c **** ********************************************************************************
 359:Generated_Source\PSoC5/isr_Step.c **** *
 360:Generated_Source\PSoC5/isr_Step.c **** * Summary:
 361:Generated_Source\PSoC5/isr_Step.c **** *   Causes the Interrupt to enter the pending state, a software method of
 362:Generated_Source\PSoC5/isr_Step.c **** *   generating the interrupt.
 363:Generated_Source\PSoC5/isr_Step.c **** *
 364:Generated_Source\PSoC5/isr_Step.c **** * Parameters:
 365:Generated_Source\PSoC5/isr_Step.c **** *   None
 366:Generated_Source\PSoC5/isr_Step.c **** *
 367:Generated_Source\PSoC5/isr_Step.c **** * Return:
 368:Generated_Source\PSoC5/isr_Step.c **** *   None
 369:Generated_Source\PSoC5/isr_Step.c **** *
 370:Generated_Source\PSoC5/isr_Step.c **** * Side Effects:
 371:Generated_Source\PSoC5/isr_Step.c **** *   If interrupts are enabled and the interrupt is set up properly, the ISR is
 372:Generated_Source\PSoC5/isr_Step.c **** *   entered (depending on the priority of this interrupt and other pending 
 373:Generated_Source\PSoC5/isr_Step.c **** *   interrupts).
 374:Generated_Source\PSoC5/isr_Step.c **** *
 375:Generated_Source\PSoC5/isr_Step.c **** *******************************************************************************/
 376:Generated_Source\PSoC5/isr_Step.c **** void isr_Step_SetPending(void)
 377:Generated_Source\PSoC5/isr_Step.c **** {
 341              		.loc 1 377 0
 342              		.cfi_startproc
 343              		@ args = 0, pretend = 0, frame = 0
 344              		@ frame_needed = 0, uses_anonymous_args = 0
 345              		@ link register save eliminated.
 378:Generated_Source\PSoC5/isr_Step.c ****     *isr_Step_INTC_SET_PD = isr_Step__INTC_MASK;
 346              		.loc 1 378 0
 347 0000 4FF48022 		mov	r2, #262144
 348 0004 014B     		ldr	r3, .L36
 349 0006 1A60     		str	r2, [r3]
 350 0008 7047     		bx	lr
ARM GAS  C:\Users\Bart\AppData\Local\Temp\ccsQMRp5.s 			page 14


 351              	.L37:
 352 000a 00BF     		.align	2
 353              	.L36:
 354 000c 00E200E0 		.word	-536813056
 355              		.cfi_endproc
 356              	.LFE11:
 357              		.size	isr_Step_SetPending, .-isr_Step_SetPending
 358              		.section	.text.isr_Step_ClearPending,"ax",%progbits
 359              		.align	2
 360              		.global	isr_Step_ClearPending
 361              		.thumb
 362              		.thumb_func
 363              		.type	isr_Step_ClearPending, %function
 364              	isr_Step_ClearPending:
 365              	.LFB12:
 379:Generated_Source\PSoC5/isr_Step.c **** }
 380:Generated_Source\PSoC5/isr_Step.c **** 
 381:Generated_Source\PSoC5/isr_Step.c **** 
 382:Generated_Source\PSoC5/isr_Step.c **** /*******************************************************************************
 383:Generated_Source\PSoC5/isr_Step.c **** * Function Name: isr_Step_ClearPending
 384:Generated_Source\PSoC5/isr_Step.c **** ********************************************************************************
 385:Generated_Source\PSoC5/isr_Step.c **** *
 386:Generated_Source\PSoC5/isr_Step.c **** * Summary:
 387:Generated_Source\PSoC5/isr_Step.c **** *   Clears a pending interrupt in the interrupt controller.
 388:Generated_Source\PSoC5/isr_Step.c **** *
 389:Generated_Source\PSoC5/isr_Step.c **** *   Note Some interrupt sources are clear-on-read and require the block 
 390:Generated_Source\PSoC5/isr_Step.c **** *   interrupt/status register to be read/cleared with the appropriate block API 
 391:Generated_Source\PSoC5/isr_Step.c **** *   (GPIO, UART, and so on). Otherwise the ISR will continue to remain in 
 392:Generated_Source\PSoC5/isr_Step.c **** *   pending state even though the interrupt itself is cleared using this API.
 393:Generated_Source\PSoC5/isr_Step.c **** *
 394:Generated_Source\PSoC5/isr_Step.c **** * Parameters:
 395:Generated_Source\PSoC5/isr_Step.c **** *   None
 396:Generated_Source\PSoC5/isr_Step.c **** *
 397:Generated_Source\PSoC5/isr_Step.c **** * Return:
 398:Generated_Source\PSoC5/isr_Step.c **** *   None
 399:Generated_Source\PSoC5/isr_Step.c **** *
 400:Generated_Source\PSoC5/isr_Step.c **** *******************************************************************************/
 401:Generated_Source\PSoC5/isr_Step.c **** void isr_Step_ClearPending(void)
 402:Generated_Source\PSoC5/isr_Step.c **** {
 366              		.loc 1 402 0
 367              		.cfi_startproc
 368              		@ args = 0, pretend = 0, frame = 0
 369              		@ frame_needed = 0, uses_anonymous_args = 0
 370              		@ link register save eliminated.
 403:Generated_Source\PSoC5/isr_Step.c ****     *isr_Step_INTC_CLR_PD = isr_Step__INTC_MASK;
 371              		.loc 1 403 0
 372 0000 4FF48022 		mov	r2, #262144
 373 0004 014B     		ldr	r3, .L39
 374 0006 1A60     		str	r2, [r3]
 375 0008 7047     		bx	lr
 376              	.L40:
 377 000a 00BF     		.align	2
 378              	.L39:
 379 000c 80E200E0 		.word	-536812928
 380              		.cfi_endproc
 381              	.LFE12:
 382              		.size	isr_Step_ClearPending, .-isr_Step_ClearPending
ARM GAS  C:\Users\Bart\AppData\Local\Temp\ccsQMRp5.s 			page 15


 383              		.text
 384              	.Letext0:
 385              		.file 2 "Generated_Source\\PSoC5/cytypes.h"