ARM GAS  C:\Users\Bart\AppData\Local\Temp\ccNOf91o.s 			page 1


   1              		.syntax unified
   2              		.cpu cortex-m3
   3              		.fpu softvfp
   4              		.eabi_attribute 20, 1
   5              		.eabi_attribute 21, 1
   6              		.eabi_attribute 23, 3
   7              		.eabi_attribute 24, 1
   8              		.eabi_attribute 25, 1
   9              		.eabi_attribute 26, 1
  10              		.eabi_attribute 30, 1
  11              		.eabi_attribute 34, 1
  12              		.eabi_attribute 18, 4
  13              		.thumb
  14              		.file	"jog.c"
  15              		.text
  16              	.Ltext0:
  17              		.cfi_sections	.debug_frame
  18              		.section	.text.jog_execute,"ax",%progbits
  19              		.align	2
  20              		.global	jog_execute
  21              		.thumb
  22              		.thumb_func
  23              		.type	jog_execute, %function
  24              	jog_execute:
  25              	.LFB63:
  26              		.file 1 "jog.c"
   1:jog.c         **** /*
   2:jog.c         ****   jog.h - Jogging methods
   3:jog.c         ****   Part of Grbl
   4:jog.c         **** 
   5:jog.c         ****   Copyright (c) 2016 Sungeun K. Jeon for Gnea Research LLC
   6:jog.c         **** 
   7:jog.c         ****   Grbl is free software: you can redistribute it and/or modify
   8:jog.c         ****   it under the terms of the GNU General Public License as published by
   9:jog.c         ****   the Free Software Foundation, either version 3 of the License, or
  10:jog.c         ****   (at your option) any later version.
  11:jog.c         **** 
  12:jog.c         ****   Grbl is distributed in the hope that it will be useful,
  13:jog.c         ****   but WITHOUT ANY WARRANTY; without even the implied warranty of
  14:jog.c         ****   MERCHANTABILITY or FITNESS FOR A PARTICULAR PURPOSE.  See the
  15:jog.c         ****   GNU General Public License for more details.
  16:jog.c         **** 
  17:jog.c         ****   You should have received a copy of the GNU General Public License
  18:jog.c         ****   along with Grbl.  If not, see <http://www.gnu.org/licenses/>.
  19:jog.c         **** */
  20:jog.c         **** 
  21:jog.c         **** #include "grbl.h"
  22:jog.c         **** 
  23:jog.c         **** 
  24:jog.c         **** // Sets up valid jog motion received from g-code parser, checks for soft-limits, and executes the j
  25:jog.c         **** uint8_t jog_execute(plan_line_data_t *pl_data, parser_block_t *gc_block)
  26:jog.c         **** {
  27              		.loc 1 26 0
  28              		.cfi_startproc
  29              		@ args = 0, pretend = 0, frame = 0
  30              		@ frame_needed = 0, uses_anonymous_args = 0
  31              	.LVL0:
ARM GAS  C:\Users\Bart\AppData\Local\Temp\ccNOf91o.s 			page 2


  32 0000 38B5     		push	{r3, r4, r5, lr}
  33              		.cfi_def_cfa_offset 16
  34              		.cfi_offset 3, -16
  35              		.cfi_offset 4, -12
  36              		.cfi_offset 5, -8
  37              		.cfi_offset 14, -4
  38 0002 0446     		mov	r4, r0
  39 0004 0D46     		mov	r5, r1
  27:jog.c         ****   // Initialize planner data struct for jogging motions.
  28:jog.c         ****   // NOTE: Spindle and coolant are allowed to fully function with overrides during a jog.
  29:jog.c         ****   pl_data->feed_rate = gc_block->values.f;
  40              		.loc 1 29 0
  41 0006 CB68     		ldr	r3, [r1, #12]	@ float
  42 0008 0360     		str	r3, [r0]	@ float
  30:jog.c         ****   pl_data->condition |= PL_COND_FLAG_NO_FEED_OVERRIDE;
  43              		.loc 1 30 0
  44 000a 037A     		ldrb	r3, [r0, #8]	@ zero_extendqisi2
  45 000c 43F00403 		orr	r3, r3, #4
  46 0010 0372     		strb	r3, [r0, #8]
  31:jog.c         ****   #ifdef USE_LINE_NUMBERS
  32:jog.c         ****     pl_data->line_number = gc_block->values.n;
  33:jog.c         ****   #endif
  34:jog.c         **** 
  35:jog.c         ****   if (bit_istrue(settings.flags,BITFLAG_SOFT_LIMIT_ENABLE)) {
  47              		.loc 1 35 0
  48 0012 114B     		ldr	r3, .L7
  49 0014 93F84830 		ldrb	r3, [r3, #72]	@ zero_extendqisi2
  50 0018 13F0200F 		tst	r3, #32
  51 001c 04D0     		beq	.L2
  36:jog.c         ****     if (system_check_travel_limits(gc_block->values.xyz)) { return(STATUS_TRAVEL_EXCEEDED); }
  52              		.loc 1 36 0
  53 001e 01F13400 		add	r0, r1, #52
  54              	.LVL1:
  55 0022 FFF7FEFF 		bl	system_check_travel_limits
  56              	.LVL2:
  57 0026 90B9     		cbnz	r0, .L4
  58              	.L2:
  37:jog.c         ****   }
  38:jog.c         **** 
  39:jog.c         ****   // Valid jog command. Plan, set state, and execute.
  40:jog.c         ****   mc_line(gc_block->values.xyz,pl_data);
  59              		.loc 1 40 0
  60 0028 05F13400 		add	r0, r5, #52
  61 002c 2146     		mov	r1, r4
  62 002e FFF7FEFF 		bl	mc_line
  63              	.LVL3:
  41:jog.c         ****   if (sys.state == STATE_IDLE) {
  64              		.loc 1 41 0
  65 0032 0A4B     		ldr	r3, .L7+4
  66 0034 1C78     		ldrb	r4, [r3]	@ zero_extendqisi2
  67              	.LVL4:
  68 0036 64B9     		cbnz	r4, .L5
  42:jog.c         ****     if (plan_get_current_block() != NULL) { // Check if there is a block to execute.
  69              		.loc 1 42 0
  70 0038 FFF7FEFF 		bl	plan_get_current_block
  71              	.LVL5:
  72 003c 50B1     		cbz	r0, .L3
ARM GAS  C:\Users\Bart\AppData\Local\Temp\ccNOf91o.s 			page 3


  43:jog.c         ****       sys.state = STATE_JOG;
  73              		.loc 1 43 0
  74 003e 2022     		movs	r2, #32
  75 0040 064B     		ldr	r3, .L7+4
  76 0042 1A70     		strb	r2, [r3]
  44:jog.c         ****       st_prep_buffer();
  77              		.loc 1 44 0
  78 0044 FFF7FEFF 		bl	st_prep_buffer
  79              	.LVL6:
  45:jog.c         ****       st_wake_up();  // NOTE: Manual start. No state machine required.
  80              		.loc 1 45 0
  81 0048 FFF7FEFF 		bl	st_wake_up
  82              	.LVL7:
  83 004c 02E0     		b	.L3
  84              	.LVL8:
  85              	.L4:
  36:jog.c         ****   }
  86              		.loc 1 36 0
  87 004e 0F24     		movs	r4, #15
  88              	.LVL9:
  89 0050 00E0     		b	.L3
  90              	.L5:
  46:jog.c         ****     }
  47:jog.c         ****   }
  48:jog.c         **** 
  49:jog.c         ****   return(STATUS_OK);
  91              		.loc 1 49 0
  92 0052 0024     		movs	r4, #0
  93              	.L3:
  50:jog.c         **** }
  94              		.loc 1 50 0
  95 0054 2046     		mov	r0, r4
  96 0056 38BD     		pop	{r3, r4, r5, pc}
  97              	.LVL10:
  98              	.L8:
  99              		.align	2
 100              	.L7:
 101 0058 00000000 		.word	settings
 102 005c 00000000 		.word	sys
 103              		.cfi_endproc
 104              	.LFE63:
 105              		.size	jog_execute, .-jog_execute
 106              		.comm	exec_lcd_status,1,1
 107              		.comm	sys_rt_exec_debug,1,1
 108              		.comm	sys_rt_exec_accessory_override,1,1
 109              		.comm	sys_rt_exec_motion_override,1,1
 110              		.comm	sys_rt_exec_alarm,1,1
 111              		.comm	sys_rt_exec_state,1,1
 112              		.comm	sys_probe_state,1,1
 113              		.comm	sys_probe_position,12,4
 114              		.comm	sys_position,12,4
 115              		.text
 116              	.Letext0:
 117              		.file 2 "d:\\program files (x86)\\cypress\\psoc creator\\4.0\\psoc creator\\import\\gnu\\arm\\4.9.
 118              		.file 3 "d:\\program files (x86)\\cypress\\psoc creator\\4.0\\psoc creator\\import\\gnu\\arm\\4.9.
 119              		.file 4 "settings.h"
 120              		.file 5 "system.h"
ARM GAS  C:\Users\Bart\AppData\Local\Temp\ccNOf91o.s 			page 4


 121              		.file 6 "planner.h"
 122              		.file 7 "gcode.h"
 123              		.file 8 "Generated_Source\\PSoC5/core_cm3.h"
 124              		.file 9 "lcd_report.h"
 125              		.file 10 "motion_control.h"
 126              		.file 11 "stepper.h"