ARM GAS  C:\Users\Bart\AppData\Local\Temp\ccOIOErW.s 			page 1


   1              		.syntax unified
   2              		.cpu cortex-m3
   3              		.fpu softvfp
   4              		.eabi_attribute 20, 1
   5              		.eabi_attribute 21, 1
   6              		.eabi_attribute 23, 3
   7              		.eabi_attribute 24, 1
   8              		.eabi_attribute 25, 1
   9              		.eabi_attribute 26, 1
  10              		.eabi_attribute 30, 1
  11              		.eabi_attribute 34, 1
  12              		.eabi_attribute 18, 4
  13              		.thumb
  14              		.file	"lcd_report.c"
  15              		.text
  16              	.Ltext0:
  17              		.cfi_sections	.debug_frame
  18              		.section	.text.enc_sw_isr_handler,"ax",%progbits
  19              		.align	2
  20              		.global	enc_sw_isr_handler
  21              		.thumb
  22              		.thumb_func
  23              		.type	enc_sw_isr_handler, %function
  24              	enc_sw_isr_handler:
  25              	.LFB64:
  26              		.file 1 "lcd_report.c"
   1:lcd_report.c  **** /* ========================================
   2:lcd_report.c  ****  *
   3:lcd_report.c  ****  * Copyright YOUR COMPANY, THE YEAR
   4:lcd_report.c  ****  * All Rights Reserved
   5:lcd_report.c  ****  * UNPUBLISHED, LICENSED SOFTWARE.
   6:lcd_report.c  ****  *
   7:lcd_report.c  ****  * CONFIDENTIAL AND PROPRIETARY INFORMATION
   8:lcd_report.c  ****  * WHICH IS THE PROPERTY OF your company.
   9:lcd_report.c  ****  *
  10:lcd_report.c  ****  * ========================================
  11:lcd_report.c  **** */
  12:lcd_report.c  **** #include <project.h>
  13:lcd_report.c  **** #include "grbl.h"
  14:lcd_report.c  **** 
  15:lcd_report.c  **** 
  16:lcd_report.c  **** int8 fro;
  17:lcd_report.c  **** int8 lcd_screen = MAIN_SCREEN;
  18:lcd_report.c  **** int8 menu_item_selected = false;
  19:lcd_report.c  **** int8 lcd_cursor = 4;
  20:lcd_report.c  **** int8 lcd_cursor_max = 6;
  21:lcd_report.c  **** int8 switch_clicked = false;
  22:lcd_report.c  **** int8 lcd_units = LCD_UNIT_MM;
  23:lcd_report.c  **** int16 lcd_FRO = 100; 
  24:lcd_report.c  **** int16 lcd_SRO = 100;
  25:lcd_report.c  **** // TO DO store these in EEPROM 
  26:lcd_report.c  **** float lcd_probe_thickness = 15.0;
  27:lcd_report.c  **** int16 lcd_probe_rate = 100;
  28:lcd_report.c  **** int16 lcd_probe_dist = 120;
  29:lcd_report.c  **** 
  30:lcd_report.c  **** void lcd_init()
  31:lcd_report.c  **** {
ARM GAS  C:\Users\Bart\AppData\Local\Temp\ccOIOErW.s 			page 2


  32:lcd_report.c  ****     LCD_Start();
  33:lcd_report.c  ****     LCD_LoadCustomFonts(LCD_customFonts); 
  34:lcd_report.c  ****     LCD_WriteControl(LCD_CLEAR_DISPLAY);
  35:lcd_report.c  ****     QuadDec_Start();
  36:lcd_report.c  ****     isr_Enc_Sw_StartEx(enc_sw_isr_handler);
  37:lcd_report.c  ****     exec_lcd_status = false;
  38:lcd_report.c  **** }
  39:lcd_report.c  **** 
  40:lcd_report.c  **** void enc_sw_isr_handler()
  41:lcd_report.c  **** {
  27              		.loc 1 41 0
  28              		.cfi_startproc
  29              		@ args = 0, pretend = 0, frame = 0
  30              		@ frame_needed = 0, uses_anonymous_args = 0
  31              		@ link register save eliminated.
  42:lcd_report.c  ****   switch_clicked = true;
  32              		.loc 1 42 0
  33 0000 0122     		movs	r2, #1
  34 0002 014B     		ldr	r3, .L2
  35 0004 1A70     		strb	r2, [r3]
  36 0006 7047     		bx	lr
  37              	.L3:
  38              		.align	2
  39              	.L2:
  40 0008 00000000 		.word	.LANCHOR0
  41              		.cfi_endproc
  42              	.LFE64:
  43              		.size	enc_sw_isr_handler, .-enc_sw_isr_handler
  44              		.section	.text.lcd_init,"ax",%progbits
  45              		.align	2
  46              		.global	lcd_init
  47              		.thumb
  48              		.thumb_func
  49              		.type	lcd_init, %function
  50              	lcd_init:
  51              	.LFB63:
  31:lcd_report.c  ****     LCD_Start();
  52              		.loc 1 31 0
  53              		.cfi_startproc
  54              		@ args = 0, pretend = 0, frame = 0
  55              		@ frame_needed = 0, uses_anonymous_args = 0
  56 0000 08B5     		push	{r3, lr}
  57              		.cfi_def_cfa_offset 8
  58              		.cfi_offset 3, -8
  59              		.cfi_offset 14, -4
  32:lcd_report.c  ****     LCD_LoadCustomFonts(LCD_customFonts); 
  60              		.loc 1 32 0
  61 0002 FFF7FEFF 		bl	LCD_Start
  62              	.LVL0:
  33:lcd_report.c  ****     LCD_WriteControl(LCD_CLEAR_DISPLAY);
  63              		.loc 1 33 0
  64 0006 0748     		ldr	r0, .L6
  65 0008 FFF7FEFF 		bl	LCD_LoadCustomFonts
  66              	.LVL1:
  34:lcd_report.c  ****     QuadDec_Start();
  67              		.loc 1 34 0
  68 000c 0120     		movs	r0, #1
ARM GAS  C:\Users\Bart\AppData\Local\Temp\ccOIOErW.s 			page 3


  69 000e FFF7FEFF 		bl	LCD_WriteControl
  70              	.LVL2:
  35:lcd_report.c  ****     isr_Enc_Sw_StartEx(enc_sw_isr_handler);
  71              		.loc 1 35 0
  72 0012 FFF7FEFF 		bl	QuadDec_Start
  73              	.LVL3:
  36:lcd_report.c  ****     exec_lcd_status = false;
  74              		.loc 1 36 0
  75 0016 0448     		ldr	r0, .L6+4
  76 0018 FFF7FEFF 		bl	isr_Enc_Sw_StartEx
  77              	.LVL4:
  37:lcd_report.c  **** }
  78              		.loc 1 37 0
  79 001c 0022     		movs	r2, #0
  80 001e 034B     		ldr	r3, .L6+8
  81 0020 1A70     		strb	r2, [r3]
  82 0022 08BD     		pop	{r3, pc}
  83              	.L7:
  84              		.align	2
  85              	.L6:
  86 0024 00000000 		.word	LCD_customFonts
  87 0028 00000000 		.word	enc_sw_isr_handler
  88 002c 00000000 		.word	exec_lcd_status
  89              		.cfi_endproc
  90              	.LFE63:
  91              		.size	lcd_init, .-lcd_init
  92              		.section	.text.ISR_lcd,"ax",%progbits
  93              		.align	2
  94              		.global	ISR_lcd
  95              		.thumb
  96              		.thumb_func
  97              		.type	ISR_lcd, %function
  98              	ISR_lcd:
  99              	.LFB66:
  43:lcd_report.c  **** }
  44:lcd_report.c  **** 
  45:lcd_report.c  **** void lcd_report_init_message()
  46:lcd_report.c  **** {
  47:lcd_report.c  ****     LCD_WriteControl(LCD_CLEAR_DISPLAY);
  48:lcd_report.c  ****     LCD_Position(0u, 3u);
  49:lcd_report.c  ****     
  50:lcd_report.c  ****     /* Output demo start message */
  51:lcd_report.c  ****     LCD_PrintString(GRBL_PORT " " GRBL_VERSION);
  52:lcd_report.c  ****     delay_ms(1000);
  53:lcd_report.c  ****     LCD_WriteControl(LCD_CLEAR_DISPLAY);
  54:lcd_report.c  ****     
  55:lcd_report.c  ****     lcd_report_realtime();
  56:lcd_report.c  ****     
  57:lcd_report.c  **** }
  58:lcd_report.c  **** 
  59:lcd_report.c  **** CY_ISR(ISR_lcd)
  60:lcd_report.c  **** {
 100              		.loc 1 60 0
 101              		.cfi_startproc
 102              		@ args = 0, pretend = 0, frame = 0
 103              		@ frame_needed = 0, uses_anonymous_args = 0
 104              		@ link register save eliminated.
ARM GAS  C:\Users\Bart\AppData\Local\Temp\ccOIOErW.s 			page 4


  61:lcd_report.c  ****   exec_lcd_status = true;
 105              		.loc 1 61 0
 106 0000 0122     		movs	r2, #1
 107 0002 014B     		ldr	r3, .L9
 108 0004 1A70     		strb	r2, [r3]
 109 0006 7047     		bx	lr
 110              	.L10:
 111              		.align	2
 112              	.L9:
 113 0008 00000000 		.word	exec_lcd_status
 114              		.cfi_endproc
 115              	.LFE66:
 116              		.size	ISR_lcd, .-ISR_lcd
 117              		.section	.text.lcd_unsigned_int8,"ax",%progbits
 118              		.align	2
 119              		.global	lcd_unsigned_int8
 120              		.thumb
 121              		.thumb_func
 122              		.type	lcd_unsigned_int8, %function
 123              	lcd_unsigned_int8:
 124              	.LFB68:
  62:lcd_report.c  **** }
  63:lcd_report.c  **** 
  64:lcd_report.c  **** void lcd_report_realtime()
  65:lcd_report.c  **** {
  66:lcd_report.c  ****   uint8_t switches = false;  // currently used for hardware checking.
  67:lcd_report.c  ****    uint8_t idx;
  68:lcd_report.c  ****   char stat[12];    
  69:lcd_report.c  ****   char fstr[20];
  70:lcd_report.c  ****   char line[20];
  71:lcd_report.c  ****   char num_format[] = "%+8.2f";
  72:lcd_report.c  ****   int32_t current_position[N_AXIS]; // Copy current state of the system position variable
  73:lcd_report.c  ****   memcpy(current_position,sys_position,sizeof(sys_position));
  74:lcd_report.c  ****   float print_position[N_AXIS];
  75:lcd_report.c  ****   
  76:lcd_report.c  ****   
  77:lcd_report.c  ****     
  78:lcd_report.c  ****   switch (lcd_screen)
  79:lcd_report.c  ****   {
  80:lcd_report.c  ****     case MAIN_SCREEN:   // ====================================================
  81:lcd_report.c  ****       // Current machine state
  82:lcd_report.c  ****       lcd_cursor_max = 7;
  83:lcd_report.c  ****       get_state(stat);
  84:lcd_report.c  ****       LCD_Position(0u, 0u);
  85:lcd_report.c  ****       LCD_PrintString(stat);
  86:lcd_report.c  ****       
  87:lcd_report.c  ****       if (switch_clicked) {
  88:lcd_report.c  ****         switch_clicked = false;
  89:lcd_report.c  ****         switch (lcd_cursor)
  90:lcd_report.c  ****         {
  91:lcd_report.c  ****           case MENU_ITEM_MAIN_STATUS:
  92:lcd_report.c  ****             if (sys.state == STATE_ALARM) {  // Ignore if already in alarm state. 
  93:lcd_report.c  ****               system_execute_line("$X");
  94:lcd_report.c  ****             }
  95:lcd_report.c  ****           break;
  96:lcd_report.c  ****           case MENU_ITEM_MAIN_X_DRO:
  97:lcd_report.c  ****            lcd_menu_execute("G10L20P0X0");
ARM GAS  C:\Users\Bart\AppData\Local\Temp\ccOIOErW.s 			page 5


  98:lcd_report.c  ****           break;
  99:lcd_report.c  ****           case MENU_ITEM_MAIN_Y_DRO:
 100:lcd_report.c  ****            lcd_menu_execute("G10L20P0Y0");
 101:lcd_report.c  ****           break;
 102:lcd_report.c  ****           case MENU_ITEM_MAIN_Z_DRO:
 103:lcd_report.c  ****            lcd_menu_execute("G10L20P0Z0");
 104:lcd_report.c  ****           break;
 105:lcd_report.c  ****           
 106:lcd_report.c  ****           case MENU_ITEM_MAIN_UNIT:
 107:lcd_report.c  ****             if (lcd_units == LCD_UNIT_MM)
 108:lcd_report.c  ****               lcd_units = LCD_UNIT_IN;
 109:lcd_report.c  ****             else
 110:lcd_report.c  ****               lcd_units = LCD_UNIT_MM;
 111:lcd_report.c  ****           break;
 112:lcd_report.c  ****           case MENU_ITEM_MAIN_FRO:
 113:lcd_report.c  ****               menu_item_selected = !menu_item_selected;
 114:lcd_report.c  ****               if (menu_item_selected)
 115:lcd_report.c  ****                 QuadDec_SetCounter(lcd_FRO);
 116:lcd_report.c  ****               else
 117:lcd_report.c  ****                 QuadDec_SetCounter(MENU_ITEM_MAIN_FRO);
 118:lcd_report.c  ****           break;  
 119:lcd_report.c  ****           case MENU_ITEM_MAIN_SRO:
 120:lcd_report.c  ****               menu_item_selected = !menu_item_selected;
 121:lcd_report.c  ****               if (menu_item_selected)
 122:lcd_report.c  ****                 QuadDec_SetCounter(lcd_SRO);
 123:lcd_report.c  ****               else
 124:lcd_report.c  ****                 QuadDec_SetCounter(MENU_ITEM_MAIN_SRO);
 125:lcd_report.c  ****           break;     
 126:lcd_report.c  ****           case MENU_ITEM_MAIN_MORE:
 127:lcd_report.c  ****             lcd_screen = CMD_SCREEN; 
 128:lcd_report.c  ****             lcd_cursor = 0;
 129:lcd_report.c  ****             QuadDec_SetCounter(lcd_cursor);
 130:lcd_report.c  ****             LCD_WriteControl(LCD_CLEAR_DISPLAY);
 131:lcd_report.c  ****           break;
 132:lcd_report.c  ****             
 133:lcd_report.c  ****         }
 134:lcd_report.c  ****         if (lcd_screen != MAIN_SCREEN) break;       
 135:lcd_report.c  ****       }
 136:lcd_report.c  ****       
 137:lcd_report.c  ****     if (switches)
 138:lcd_report.c  ****     {
 139:lcd_report.c  ****       LCD_Position(1u, 0u);
 140:lcd_report.c  ****       LCD_PrintString("Limit:");
 141:lcd_report.c  ****       lcd_unsigned_int8(Status_Limit_Read(), 2, 3);      
 142:lcd_report.c  ****       
 143:lcd_report.c  ****       LCD_Position(2u, 0u);
 144:lcd_report.c  ****       LCD_PrintString("Ctl:");    
 145:lcd_report.c  ****       lcd_unsigned_int8(Status_Control_Read(), 2, 4);
 146:lcd_report.c  ****       
 147:lcd_report.c  ****       LCD_Position(3u, 0u);
 148:lcd_report.c  ****       LCD_PrintString("Probe:");
 149:lcd_report.c  ****       lcd_unsigned_int8(Status_Probe_Read(), 2, 1);
 150:lcd_report.c  ****       break;
 151:lcd_report.c  ****     }
 152:lcd_report.c  ****     
 153:lcd_report.c  ****       system_convert_array_steps_to_mpos(print_position,current_position); // get the position in M
 154:lcd_report.c  ****       
ARM GAS  C:\Users\Bart\AppData\Local\Temp\ccOIOErW.s 			page 6


 155:lcd_report.c  ****       // convert it to WCS      
 156:lcd_report.c  ****       for (idx=0; idx< N_AXIS; idx++) {
 157:lcd_report.c  ****       print_position[idx] -= gc_state.coord_system[idx]+gc_state.coord_offset[idx];
 158:lcd_report.c  ****         if (idx == TOOL_LENGTH_OFFSET_AXIS) { print_position[idx] -= gc_state.tool_length_offset; }
 159:lcd_report.c  ****       }
 160:lcd_report.c  ****       
 161:lcd_report.c  ****       // determine the units, set the number of decimals and convert to inches if req'd
 162:lcd_report.c  ****       LCD_Position(0u, 11u);
 163:lcd_report.c  ****       LCD_PrintString(" Unit:");
 164:lcd_report.c  ****       if (lcd_units == LCD_UNIT_MM) {
 165:lcd_report.c  ****         LCD_PrintString(" mm");
 166:lcd_report.c  ****         strcpy(num_format, "%+8.2f");
 167:lcd_report.c  ****       }
 168:lcd_report.c  ****       else { 
 169:lcd_report.c  ****           for (idx=0; idx< N_AXIS; idx++) {   // convert to inches
 170:lcd_report.c  ****             print_position[idx] /= MM_PER_INCH;  
 171:lcd_report.c  ****           }
 172:lcd_report.c  ****           LCD_PrintString(" in"); 
 173:lcd_report.c  ****           strcpy(num_format, "%+8.3f");
 174:lcd_report.c  ****       }
 175:lcd_report.c  ****       
 176:lcd_report.c  ****       // Do the DROs
 177:lcd_report.c  ****       LCD_Position(1u, 0u);
 178:lcd_report.c  ****       LCD_PrintString(" X");
 179:lcd_report.c  ****       sprintf(fstr, num_format, print_position[X_AXIS] ); 
 180:lcd_report.c  ****       LCD_PrintString(fstr);    
 181:lcd_report.c  ****     
 182:lcd_report.c  ****       LCD_Position(2u, 0u);
 183:lcd_report.c  ****       LCD_PrintString(" Y");
 184:lcd_report.c  ****       sprintf(fstr, num_format, print_position[Y_AXIS] ); 
 185:lcd_report.c  ****       LCD_PrintString(fstr);      
 186:lcd_report.c  ****       
 187:lcd_report.c  ****       LCD_Position(3u, 0u);
 188:lcd_report.c  ****       LCD_PrintString(" Z");
 189:lcd_report.c  ****       sprintf(fstr, num_format, print_position[Z_AXIS] ); 
 190:lcd_report.c  ****       LCD_PrintString(fstr);      
 191:lcd_report.c  ****       
 192:lcd_report.c  ****       LCD_Position(1u, 11u);
 193:lcd_report.c  ****       LCD_PrintString(" FRO:");
 194:lcd_report.c  ****       sprintf(fstr, "%3d", lcd_FRO ); 
 195:lcd_report.c  ****       LCD_PrintString(fstr);
 196:lcd_report.c  ****       LCD_PrintString("%");
 197:lcd_report.c  ****       
 198:lcd_report.c  ****       LCD_Position(2u, 11u);
 199:lcd_report.c  ****       LCD_PrintString(" SRO:");
 200:lcd_report.c  ****       sprintf(fstr, "%3d", lcd_SRO ); 
 201:lcd_report.c  ****       LCD_PrintString(fstr);
 202:lcd_report.c  ****       LCD_PrintString("%");
 203:lcd_report.c  ****       
 204:lcd_report.c  ****       LCD_Position(3u, 11u);
 205:lcd_report.c  ****       LCD_PrintString(" More ");
 206:lcd_report.c  ****       LCD_PutChar(LCD_CUSTOM_2);
 207:lcd_report.c  ****       
 208:lcd_report.c  ****       
 209:lcd_report.c  ****       if (menu_item_selected) {
 210:lcd_report.c  ****         switch (lcd_cursor) {
 211:lcd_report.c  ****          case MENU_ITEM_MAIN_FRO:
ARM GAS  C:\Users\Bart\AppData\Local\Temp\ccOIOErW.s 			page 7


 212:lcd_report.c  ****           lcd_FRO = QuadDec_GetCounter();
 213:lcd_report.c  ****           if (lcd_FRO > LCD_FRO_MAX) lcd_FRO = LCD_FRO_MAX;
 214:lcd_report.c  ****           if (lcd_FRO < LCD_FRO_MIN) lcd_FRO = LCD_FRO_MIN;
 215:lcd_report.c  ****          break; 
 216:lcd_report.c  ****           case MENU_ITEM_MAIN_SRO:
 217:lcd_report.c  ****           lcd_SRO = QuadDec_GetCounter();
 218:lcd_report.c  ****           if (lcd_SRO > LCD_SRO_MAX) lcd_FRO = LCD_SRO_MAX;
 219:lcd_report.c  ****           if (lcd_SRO < LCD_SRO_MIN) lcd_FRO = LCD_SRO_MIN;
 220:lcd_report.c  ****           break;
 221:lcd_report.c  ****         }
 222:lcd_report.c  ****       }
 223:lcd_report.c  ****       else {
 224:lcd_report.c  ****         lcd_cursor = QuadDec_GetCounter();
 225:lcd_report.c  ****         if  (lcd_cursor > lcd_cursor_max) lcd_cursor = lcd_cursor_max;
 226:lcd_report.c  ****         if  (lcd_cursor < 0) lcd_cursor = 0;
 227:lcd_report.c  ****         
 228:lcd_report.c  ****         QuadDec_SetCounter(lcd_cursor);
 229:lcd_report.c  ****         
 230:lcd_report.c  ****       }
 231:lcd_report.c  ****       
 232:lcd_report.c  ****        
 233:lcd_report.c  ****       
 234:lcd_report.c  ****       LCD_WriteControl(LCD_DISPLAY_ON_CURSOR_OFF);
 235:lcd_report.c  ****       switch (lcd_cursor)
 236:lcd_report.c  ****       {
 237:lcd_report.c  ****        case MENU_ITEM_MAIN_STATUS:
 238:lcd_report.c  ****         LCD_Position(0u, 0u);
 239:lcd_report.c  ****         LCD_PutChar(LCD_CUSTOM_0);
 240:lcd_report.c  ****        break;
 241:lcd_report.c  ****        case MENU_ITEM_MAIN_X_DRO:
 242:lcd_report.c  ****         LCD_Position(1u, 0u);
 243:lcd_report.c  ****         LCD_PutChar(LCD_CUSTOM_0);
 244:lcd_report.c  ****        break;
 245:lcd_report.c  ****        case MENU_ITEM_MAIN_Y_DRO:
 246:lcd_report.c  ****         LCD_Position(2u, 0u);
 247:lcd_report.c  ****         LCD_PutChar(LCD_CUSTOM_0);
 248:lcd_report.c  ****        break; 
 249:lcd_report.c  ****        case MENU_ITEM_MAIN_Z_DRO:
 250:lcd_report.c  ****         LCD_Position(3u, 0u);
 251:lcd_report.c  ****         LCD_PutChar(LCD_CUSTOM_0);
 252:lcd_report.c  ****        break;
 253:lcd_report.c  ****        case MENU_ITEM_MAIN_UNIT:
 254:lcd_report.c  ****         LCD_Position(0u, 11u);
 255:lcd_report.c  ****         LCD_PutChar(LCD_CUSTOM_0);
 256:lcd_report.c  ****        break;
 257:lcd_report.c  ****        case MENU_ITEM_MAIN_FRO:
 258:lcd_report.c  ****         LCD_Position(1u, 11u);
 259:lcd_report.c  ****         LCD_PutChar(LCD_CUSTOM_0);
 260:lcd_report.c  ****         if (menu_item_selected) {
 261:lcd_report.c  ****           LCD_Position(1u, 11u);
 262:lcd_report.c  ****           LCD_WriteControl(LCD_CURSOR_WINK);
 263:lcd_report.c  ****         }
 264:lcd_report.c  ****         else {
 265:lcd_report.c  ****           
 266:lcd_report.c  ****         }
 267:lcd_report.c  ****        break;
 268:lcd_report.c  ****        case MENU_ITEM_MAIN_SRO:
ARM GAS  C:\Users\Bart\AppData\Local\Temp\ccOIOErW.s 			page 8


 269:lcd_report.c  ****         LCD_Position(2u, 11u);
 270:lcd_report.c  ****         LCD_PutChar(LCD_CUSTOM_0);
 271:lcd_report.c  ****         if (menu_item_selected) {
 272:lcd_report.c  ****           LCD_Position(2u, 11u);
 273:lcd_report.c  ****           LCD_WriteControl(LCD_CURSOR_WINK);
 274:lcd_report.c  ****         }
 275:lcd_report.c  ****         else {
 276:lcd_report.c  ****           
 277:lcd_report.c  ****         }
 278:lcd_report.c  ****         
 279:lcd_report.c  ****        break;
 280:lcd_report.c  ****        case MENU_ITEM_MAIN_MORE:
 281:lcd_report.c  ****         LCD_Position(3u, 11u);
 282:lcd_report.c  ****         LCD_PutChar(LCD_CUSTOM_0);
 283:lcd_report.c  ****        break;       
 284:lcd_report.c  ****       }
 285:lcd_report.c  ****       
 286:lcd_report.c  ****     
 287:lcd_report.c  ****       
 288:lcd_report.c  ****     break; // main screen
 289:lcd_report.c  ****       
 290:lcd_report.c  ****     case CMD_SCREEN:  // ============================================================
 291:lcd_report.c  ****       lcd_cursor_max = 7;
 292:lcd_report.c  ****       
 293:lcd_report.c  ****       if (switch_clicked) {
 294:lcd_report.c  ****         switch_clicked = false;
 295:lcd_report.c  ****         switch (lcd_cursor)
 296:lcd_report.c  ****         {
 297:lcd_report.c  ****           case 0: // return to main
 298:lcd_report.c  ****             lcd_screen = MAIN_SCREEN; 
 299:lcd_report.c  ****             lcd_cursor = 0;        
 300:lcd_report.c  ****             LCD_WriteControl(LCD_CLEAR_DISPLAY);
 301:lcd_report.c  ****           break;
 302:lcd_report.c  ****             
 303:lcd_report.c  ****           case 1: // home axes
 304:lcd_report.c  ****             if (bit_istrue(settings.flags,BITFLAG_HOMING_ENABLE)) { 
 305:lcd_report.c  ****             // Block if safety door is ajar.
 306:lcd_report.c  ****             if (system_check_safety_door_ajar()) { lcd_beep(); }
 307:lcd_report.c  ****             sys.state = STATE_HOMING; // Set system state variable
 308:lcd_report.c  ****             mc_homing_cycle(HOMING_CYCLE_ALL);
 309:lcd_report.c  ****             if (!sys.abort) {  // Execute startup scripts after successful homing.
 310:lcd_report.c  ****               sys.state = STATE_IDLE; // Set to IDLE when complete.
 311:lcd_report.c  ****               st_go_idle(); // Set steppers to the settings idle state before returning.
 312:lcd_report.c  ****               //system_execute_startup(line); 
 313:lcd_report.c  ****             }
 314:lcd_report.c  ****           } else { lcd_beep(); }
 315:lcd_report.c  ****           break;
 316:lcd_report.c  ****             
 317:lcd_report.c  ****           case 2: // Top of Z
 318:lcd_report.c  ****             lcd_menu_execute("G53G0Z-1");
 319:lcd_report.c  ****           break;
 320:lcd_report.c  ****             
 321:lcd_report.c  ****           case 3: // go to probe screen
 322:lcd_report.c  ****             lcd_screen = PROBE_SCREEN;
 323:lcd_report.c  ****             lcd_cursor_max = 4;
 324:lcd_report.c  ****             lcd_cursor = 0;
 325:lcd_report.c  ****             QuadDec_SetCounter(lcd_cursor);
ARM GAS  C:\Users\Bart\AppData\Local\Temp\ccOIOErW.s 			page 9


 326:lcd_report.c  ****             LCD_WriteControl(LCD_CLEAR_DISPLAY);
 327:lcd_report.c  ****           break;  
 328:lcd_report.c  ****             
 329:lcd_report.c  ****           case 4:  // goto 0,0
 330:lcd_report.c  ****             lcd_menu_execute("G0X0Y0");
 331:lcd_report.c  ****           break;
 332:lcd_report.c  ****             
 333:lcd_report.c  ****           case 5: // G28
 334:lcd_report.c  ****             lcd_menu_execute("G28");
 335:lcd_report.c  ****           break;
 336:lcd_report.c  ****             
 337:lcd_report.c  ****           case 6: // G30
 338:lcd_report.c  ****             lcd_menu_execute("G30");
 339:lcd_report.c  ****           break;
 340:lcd_report.c  ****             
 341:lcd_report.c  ****           case 7: // sd card
 342:lcd_report.c  ****             lcd_screen = SD_CARD_SCREEN; 
 343:lcd_report.c  ****             lcd_cursor = 0;        
 344:lcd_report.c  ****             LCD_WriteControl(LCD_CLEAR_DISPLAY);
 345:lcd_report.c  ****           break;  
 346:lcd_report.c  ****             
 347:lcd_report.c  ****         }
 348:lcd_report.c  ****         
 349:lcd_report.c  ****         if (lcd_screen != CMD_SCREEN) break;
 350:lcd_report.c  ****       }
 351:lcd_report.c  ****     
 352:lcd_report.c  ****       LCD_Position(0u, 0u);
 353:lcd_report.c  ****       LCD_PrintString(" Back ");
 354:lcd_report.c  ****       LCD_PutChar(LCD_CUSTOM_3);
 355:lcd_report.c  ****       LCD_Position(1u, 0u);
 356:lcd_report.c  ****       LCD_PrintString(" Home Axes");
 357:lcd_report.c  ****       LCD_Position(2u, 0u);
 358:lcd_report.c  ****       LCD_PrintString(" Top of Z");
 359:lcd_report.c  ****       LCD_Position(3u, 0u);
 360:lcd_report.c  ****       LCD_PrintString(" Z Probe ");
 361:lcd_report.c  ****       LCD_PutChar(LCD_CUSTOM_2);
 362:lcd_report.c  ****       
 363:lcd_report.c  ****       LCD_Position(0u, 11u);
 364:lcd_report.c  ****       LCD_PrintString(" Goto 0,0");
 365:lcd_report.c  ****       LCD_Position(1u, 11u);
 366:lcd_report.c  ****       LCD_PrintString(" Goto G28");
 367:lcd_report.c  ****       LCD_Position(2u, 11u);
 368:lcd_report.c  ****       LCD_PrintString(" Goto G30");
 369:lcd_report.c  ****       LCD_Position(3u, 11u);
 370:lcd_report.c  ****       LCD_PrintString(" SdCard ");
 371:lcd_report.c  ****       LCD_PutChar(LCD_CUSTOM_2);
 372:lcd_report.c  ****         
 373:lcd_report.c  ****       if (menu_item_selected) {
 374:lcd_report.c  ****       }
 375:lcd_report.c  ****       else {
 376:lcd_report.c  ****         lcd_cursor = QuadDec_GetCounter();
 377:lcd_report.c  ****         if  (lcd_cursor > lcd_cursor_max) lcd_cursor = lcd_cursor_max;
 378:lcd_report.c  ****         if  (lcd_cursor < 0) lcd_cursor = 0;
 379:lcd_report.c  ****         
 380:lcd_report.c  ****         QuadDec_SetCounter(lcd_cursor);
 381:lcd_report.c  ****         
 382:lcd_report.c  ****       }
ARM GAS  C:\Users\Bart\AppData\Local\Temp\ccOIOErW.s 			page 10


 383:lcd_report.c  ****         
 384:lcd_report.c  ****       switch (lcd_cursor)
 385:lcd_report.c  ****       {
 386:lcd_report.c  ****        case 0:
 387:lcd_report.c  ****         LCD_Position(0u, 0u);
 388:lcd_report.c  ****         LCD_PutChar(LCD_CUSTOM_0);
 389:lcd_report.c  ****        break;
 390:lcd_report.c  ****        case 1:
 391:lcd_report.c  ****         LCD_Position(1u, 0u);
 392:lcd_report.c  ****         LCD_PutChar(LCD_CUSTOM_0);
 393:lcd_report.c  ****        break; 
 394:lcd_report.c  ****        case 2:
 395:lcd_report.c  ****         LCD_Position(2u, 0u);
 396:lcd_report.c  ****         LCD_PutChar(LCD_CUSTOM_0);
 397:lcd_report.c  ****        break;
 398:lcd_report.c  ****        case 3:
 399:lcd_report.c  ****         LCD_Position(3u, 0u);
 400:lcd_report.c  ****         LCD_PutChar(LCD_CUSTOM_0);
 401:lcd_report.c  ****        break;
 402:lcd_report.c  ****        case 4:
 403:lcd_report.c  ****         LCD_Position(0u, 11u);
 404:lcd_report.c  ****         LCD_PutChar(LCD_CUSTOM_0);
 405:lcd_report.c  ****        break;
 406:lcd_report.c  ****        case 5:
 407:lcd_report.c  ****         LCD_Position(1u, 11u);
 408:lcd_report.c  ****         LCD_PutChar(LCD_CUSTOM_0);
 409:lcd_report.c  ****        break;
 410:lcd_report.c  ****        case 6:
 411:lcd_report.c  ****         LCD_Position(2u, 11u);
 412:lcd_report.c  ****         LCD_PutChar(LCD_CUSTOM_0);
 413:lcd_report.c  ****        break;
 414:lcd_report.c  ****         case 7:
 415:lcd_report.c  ****         LCD_Position(3u, 11u);
 416:lcd_report.c  ****         LCD_PutChar(LCD_CUSTOM_0);
 417:lcd_report.c  ****        break; 
 418:lcd_report.c  ****       }
 419:lcd_report.c  ****         
 420:lcd_report.c  ****     break;
 421:lcd_report.c  ****       
 422:lcd_report.c  ****     case PROBE_SCREEN: // ===============================================================
 423:lcd_report.c  ****       
 424:lcd_report.c  ****       if (switch_clicked) {
 425:lcd_report.c  ****         switch_clicked = false;
 426:lcd_report.c  ****         switch (lcd_cursor)
 427:lcd_report.c  ****         {
 428:lcd_report.c  ****           case MENU_ITEM_PRB_BACK: // return to main
 429:lcd_report.c  ****             lcd_screen = CMD_SCREEN;            
 430:lcd_report.c  ****             LCD_WriteControl(LCD_CLEAR_DISPLAY);
 431:lcd_report.c  ****           break;
 432:lcd_report.c  ****             
 433:lcd_report.c  ****           case MENU_ITEM_PRB_PROBE:
 434:lcd_report.c  ****             LCD_WriteControl(LCD_CLEAR_DISPLAY);
 435:lcd_report.c  ****             lcd_screen = MAIN_SCREEN;
 436:lcd_report.c  ****             strcpy(line, "G91G38.2Z-");
 437:lcd_report.c  ****             sprintf(fstr, "%d", lcd_probe_dist);
 438:lcd_report.c  ****             strcat(line, fstr);
 439:lcd_report.c  ****             strcat(line, "F");
ARM GAS  C:\Users\Bart\AppData\Local\Temp\ccOIOErW.s 			page 11


 440:lcd_report.c  ****             sprintf(fstr, "%d", lcd_probe_rate);
 441:lcd_report.c  ****             strcat(line, fstr);
 442:lcd_report.c  ****             gc_execute_line(line);
 443:lcd_report.c  ****             LCD_Position(3u, 0u);
 444:lcd_report.c  ****             if (sys.probe_succeeded == false) {
 445:lcd_report.c  ****               // TO DO Not sure if this works
 446:lcd_report.c  ****               LCD_PrintString("Failure");
 447:lcd_report.c  ****             }
 448:lcd_report.c  ****             else {
 449:lcd_report.c  ****               //LCD_Position(3u, 0u);
 450:lcd_report.c  ****               LCD_PrintString("Success");
 451:lcd_report.c  ****               sprintf(fstr, "%2.2f", lcd_probe_thickness);
 452:lcd_report.c  ****               strcpy(line, "G10L20P0Z");
 453:lcd_report.c  ****               strcat(line, fstr);
 454:lcd_report.c  ****               gc_execute_line(line);
 455:lcd_report.c  ****               
 456:lcd_report.c  ****             }
 457:lcd_report.c  ****           break;  
 458:lcd_report.c  ****             
 459:lcd_report.c  ****           case MENU_ITEM_PRB_THICK:
 460:lcd_report.c  ****             menu_item_selected = !menu_item_selected;
 461:lcd_report.c  ****             if (menu_item_selected)
 462:lcd_report.c  ****                 QuadDec_SetCounter(lcd_probe_thickness * LCD_PROBE_MULT);
 463:lcd_report.c  ****               else
 464:lcd_report.c  ****                 QuadDec_SetCounter(lcd_cursor);
 465:lcd_report.c  ****           break;  
 466:lcd_report.c  ****                 
 467:lcd_report.c  ****           case MENU_ITEM_PRB_RATE:
 468:lcd_report.c  ****                 menu_item_selected = !menu_item_selected;
 469:lcd_report.c  ****             if (menu_item_selected)
 470:lcd_report.c  ****                 QuadDec_SetCounter(lcd_probe_rate);
 471:lcd_report.c  ****               else
 472:lcd_report.c  ****                 QuadDec_SetCounter(lcd_cursor);
 473:lcd_report.c  ****           break;
 474:lcd_report.c  ****                 
 475:lcd_report.c  ****           case MENU_ITEM_PRB_DIST:
 476:lcd_report.c  ****                 menu_item_selected = !menu_item_selected;
 477:lcd_report.c  ****             if (menu_item_selected)
 478:lcd_report.c  ****                 QuadDec_SetCounter(lcd_probe_dist);
 479:lcd_report.c  ****               else
 480:lcd_report.c  ****                 QuadDec_SetCounter(lcd_cursor);
 481:lcd_report.c  ****           break;            
 482:lcd_report.c  ****         }        
 483:lcd_report.c  ****         if (lcd_screen != PROBE_SCREEN) break;
 484:lcd_report.c  ****       }
 485:lcd_report.c  ****       
 486:lcd_report.c  ****       LCD_Position(0u, 0u);
 487:lcd_report.c  ****       LCD_PrintString(" Back ");
 488:lcd_report.c  ****       LCD_PutChar(LCD_CUSTOM_3);
 489:lcd_report.c  ****       
 490:lcd_report.c  ****       LCD_Position(0u, 8u);
 491:lcd_report.c  ****       LCD_PrintString(" Begin Probe"); 
 492:lcd_report.c  ****       
 493:lcd_report.c  ****       LCD_Position(1u, 8u);
 494:lcd_report.c  ****       LCD_PrintString(" Thick:");
 495:lcd_report.c  ****       sprintf(fstr, "%2.2f", lcd_probe_thickness ); 
 496:lcd_report.c  ****       LCD_PrintString(fstr);
ARM GAS  C:\Users\Bart\AppData\Local\Temp\ccOIOErW.s 			page 12


 497:lcd_report.c  ****       
 498:lcd_report.c  ****       LCD_Position(2u, 8u);
 499:lcd_report.c  ****       LCD_PrintString(" Rate:");
 500:lcd_report.c  ****       sprintf(fstr, "%6d", lcd_probe_rate ); 
 501:lcd_report.c  ****       LCD_PrintString(fstr);
 502:lcd_report.c  ****       
 503:lcd_report.c  ****       LCD_Position(3u, 8u);
 504:lcd_report.c  ****       LCD_PrintString(" Dist:");
 505:lcd_report.c  ****       sprintf(fstr, "%6d", lcd_probe_dist ); 
 506:lcd_report.c  ****       LCD_PrintString(fstr);
 507:lcd_report.c  ****      
 508:lcd_report.c  ****       if (menu_item_selected) {
 509:lcd_report.c  ****       }
 510:lcd_report.c  ****       else {
 511:lcd_report.c  ****         lcd_cursor = QuadDec_GetCounter();
 512:lcd_report.c  ****         if  (lcd_cursor > lcd_cursor_max) lcd_cursor = lcd_cursor_max;
 513:lcd_report.c  ****         if  (lcd_cursor < 0) lcd_cursor = 0;
 514:lcd_report.c  ****         
 515:lcd_report.c  ****         QuadDec_SetCounter(lcd_cursor);
 516:lcd_report.c  ****         
 517:lcd_report.c  ****       }
 518:lcd_report.c  ****       
 519:lcd_report.c  ****       if (menu_item_selected) {
 520:lcd_report.c  ****         switch (lcd_cursor) {
 521:lcd_report.c  ****          case MENU_ITEM_PRB_THICK:
 522:lcd_report.c  ****           lcd_probe_thickness = (float)QuadDec_GetCounter() / LCD_PROBE_MULT;
 523:lcd_report.c  ****           if (lcd_probe_thickness > LCD_PRB_THICK_MAX) lcd_probe_thickness = LCD_PRB_THICK_MAX;
 524:lcd_report.c  ****           if (lcd_probe_thickness < LCD_PRB_THICK_MIN) lcd_probe_thickness = LCD_PRB_THICK_MIN;
 525:lcd_report.c  ****           QuadDec_SetCounter(lcd_probe_thickness * LCD_PROBE_MULT);
 526:lcd_report.c  ****          break;
 527:lcd_report.c  ****          case MENU_ITEM_PRB_RATE:
 528:lcd_report.c  ****           lcd_probe_rate = QuadDec_GetCounter();
 529:lcd_report.c  ****           if (lcd_probe_rate > LCD_PRB_RATE_MAX) lcd_probe_rate = LCD_PRB_RATE_MAX;
 530:lcd_report.c  ****           if (lcd_probe_rate < LCD_PRB_RATE_MIN) lcd_probe_rate = LCD_PRB_RATE_MIN;
 531:lcd_report.c  ****           QuadDec_SetCounter(lcd_probe_rate);
 532:lcd_report.c  ****          break;
 533:lcd_report.c  ****          case MENU_ITEM_PRB_DIST:
 534:lcd_report.c  ****           lcd_probe_dist = QuadDec_GetCounter();
 535:lcd_report.c  ****           if (lcd_probe_dist > LCD_PRB_DIST_MAX) lcd_probe_dist = LCD_PRB_DIST_MAX;
 536:lcd_report.c  ****           if (lcd_probe_dist < LCD_PRB_DIST_MIN) lcd_probe_dist = LCD_PRB_DIST_MIN;
 537:lcd_report.c  ****           QuadDec_SetCounter(lcd_probe_dist);
 538:lcd_report.c  ****          break; 
 539:lcd_report.c  ****           
 540:lcd_report.c  ****         }
 541:lcd_report.c  ****       }
 542:lcd_report.c  ****       else {
 543:lcd_report.c  ****         lcd_cursor = QuadDec_GetCounter();
 544:lcd_report.c  ****         if  (lcd_cursor > lcd_cursor_max) lcd_cursor = lcd_cursor_max;
 545:lcd_report.c  ****         if  (lcd_cursor < 0) lcd_cursor = 0;
 546:lcd_report.c  ****         
 547:lcd_report.c  ****         QuadDec_SetCounter(lcd_cursor);        
 548:lcd_report.c  ****       }
 549:lcd_report.c  ****       
 550:lcd_report.c  ****       switch (lcd_cursor)
 551:lcd_report.c  ****       {
 552:lcd_report.c  ****        case 0:
 553:lcd_report.c  ****         LCD_Position(0u, 0u);
ARM GAS  C:\Users\Bart\AppData\Local\Temp\ccOIOErW.s 			page 13


 554:lcd_report.c  ****         LCD_PutChar(LCD_CUSTOM_0);
 555:lcd_report.c  ****        break;
 556:lcd_report.c  ****        case 1:
 557:lcd_report.c  ****         LCD_Position(0u, 8u);
 558:lcd_report.c  ****         LCD_PutChar(LCD_CUSTOM_0);
 559:lcd_report.c  ****        break; 
 560:lcd_report.c  ****        case 2:
 561:lcd_report.c  ****         LCD_Position(1u, 8u);
 562:lcd_report.c  ****         LCD_PutChar(LCD_CUSTOM_0);
 563:lcd_report.c  ****        break;
 564:lcd_report.c  ****        case 3:
 565:lcd_report.c  ****         LCD_Position(2u, 8u);
 566:lcd_report.c  ****         LCD_PutChar(LCD_CUSTOM_0);
 567:lcd_report.c  ****        break;
 568:lcd_report.c  ****        case 4:
 569:lcd_report.c  ****         LCD_Position(3u, 8u);
 570:lcd_report.c  ****         LCD_PutChar(LCD_CUSTOM_0);
 571:lcd_report.c  ****        break;       
 572:lcd_report.c  ****       }
 573:lcd_report.c  ****       
 574:lcd_report.c  ****     break;  
 575:lcd_report.c  ****       
 576:lcd_report.c  ****     case SD_CARD_SCREEN:
 577:lcd_report.c  ****       LCD_Position(0u, 0u);
 578:lcd_report.c  ****       LCD_PrintString(" Back ");
 579:lcd_report.c  ****       LCD_PutChar(LCD_CUSTOM_3);
 580:lcd_report.c  ****       
 581:lcd_report.c  ****       LCD_Position(2u, 0u);
 582:lcd_report.c  ****       LCD_PrintString("Feature not ready"); 
 583:lcd_report.c  ****       
 584:lcd_report.c  ****       if (switch_clicked) {
 585:lcd_report.c  ****         
 586:lcd_report.c  ****         lcd_screen = CMD_SCREEN; 
 587:lcd_report.c  ****         lcd_cursor = 0;
 588:lcd_report.c  ****         QuadDec_SetCounter(lcd_cursor);
 589:lcd_report.c  ****         LCD_WriteControl(LCD_CLEAR_DISPLAY);
 590:lcd_report.c  ****         switch_clicked = false;
 591:lcd_report.c  ****       }
 592:lcd_report.c  ****       
 593:lcd_report.c  ****     break;  
 594:lcd_report.c  ****       
 595:lcd_report.c  ****       
 596:lcd_report.c  ****     default:
 597:lcd_report.c  ****       LCD_Position(0u, 0u);
 598:lcd_report.c  ****       sprintf(fstr, "Scn:%-5d", lcd_screen );
 599:lcd_report.c  ****       LCD_PrintString(fstr);
 600:lcd_report.c  ****     break;
 601:lcd_report.c  ****   }  // switch lcd_screen
 602:lcd_report.c  **** 
 603:lcd_report.c  ****     
 604:lcd_report.c  **** }
 605:lcd_report.c  **** 
 606:lcd_report.c  **** // Prints an uint8 variable with base and number of desired digits.
 607:lcd_report.c  **** void lcd_unsigned_int8(uint8_t n, uint8_t base, uint8_t digits)
 608:lcd_report.c  **** { 
 125              		.loc 1 608 0
 126              		.cfi_startproc
ARM GAS  C:\Users\Bart\AppData\Local\Temp\ccOIOErW.s 			page 14


 127              		@ args = 0, pretend = 0, frame = 0
 128              		@ frame_needed = 1, uses_anonymous_args = 0
 129              	.LVL5:
 130 0000 B0B5     		push	{r4, r5, r7, lr}
 131              		.cfi_def_cfa_offset 16
 132              		.cfi_offset 4, -16
 133              		.cfi_offset 5, -12
 134              		.cfi_offset 7, -8
 135              		.cfi_offset 14, -4
 136 0002 00AF     		add	r7, sp, #0
 137              		.cfi_def_cfa_register 7
 138              	.LVL6:
 609:lcd_report.c  ****   unsigned char buf[digits];
 139              		.loc 1 609 0
 140 0004 D31D     		adds	r3, r2, #7
 141 0006 23F00703 		bic	r3, r3, #7
 142 000a ADEB030D 		sub	sp, sp, r3
 143 000e 6D46     		mov	r5, sp
 144              	.LVL7:
 610:lcd_report.c  ****   uint8_t i = 0;
 145              		.loc 1 610 0
 146 0010 0023     		movs	r3, #0
 611:lcd_report.c  **** 
 612:lcd_report.c  ****   for (; i < digits; i++) {
 147              		.loc 1 612 0
 148 0012 07E0     		b	.L12
 149              	.LVL8:
 150              	.L13:
 613:lcd_report.c  ****       buf[i] = n % base ;
 151              		.loc 1 613 0 discriminator 2
 152 0014 B0FBF1F4 		udiv	r4, r0, r1
 153 0018 01FB1400 		mls	r0, r1, r4, r0
 154              	.LVL9:
 155 001c E854     		strb	r0, [r5, r3]
 614:lcd_report.c  ****       n /= base;
 156              		.loc 1 614 0 discriminator 2
 157 001e E0B2     		uxtb	r0, r4
 158              	.LVL10:
 612:lcd_report.c  ****       buf[i] = n % base ;
 159              		.loc 1 612 0 discriminator 2
 160 0020 0133     		adds	r3, r3, #1
 161              	.LVL11:
 162 0022 DBB2     		uxtb	r3, r3
 163              	.LVL12:
 164              	.L12:
 612:lcd_report.c  ****       buf[i] = n % base ;
 165              		.loc 1 612 0 is_stmt 0 discriminator 1
 166 0024 9342     		cmp	r3, r2
 167 0026 F5D3     		bcc	.L13
 168 0028 06E0     		b	.L14
 169              	.LVL13:
 170              	.L15:
 615:lcd_report.c  ****   }
 616:lcd_report.c  **** 
 617:lcd_report.c  ****   for (; i > 0; i--)
 618:lcd_report.c  ****       LCD_PutChar('0' + buf[i - 1]);
 171              		.loc 1 618 0 is_stmt 1 discriminator 2
ARM GAS  C:\Users\Bart\AppData\Local\Temp\ccOIOErW.s 			page 15


 172 002a 5C1E     		subs	r4, r3, #1
 173 002c 285D     		ldrb	r0, [r5, r4]	@ zero_extendqisi2
 174 002e 3030     		adds	r0, r0, #48
 175 0030 C0B2     		uxtb	r0, r0
 176 0032 FFF7FEFF 		bl	LCD_PutChar
 177              	.LVL14:
 617:lcd_report.c  ****       LCD_PutChar('0' + buf[i - 1]);
 178              		.loc 1 617 0 discriminator 2
 179 0036 E3B2     		uxtb	r3, r4
 180              	.LVL15:
 181              	.L14:
 617:lcd_report.c  ****       LCD_PutChar('0' + buf[i - 1]);
 182              		.loc 1 617 0 is_stmt 0 discriminator 1
 183 0038 002B     		cmp	r3, #0
 184 003a F6D1     		bne	.L15
 619:lcd_report.c  **** }
 185              		.loc 1 619 0 is_stmt 1
 186 003c BD46     		mov	sp, r7
 187              		.cfi_def_cfa_register 13
 188              		@ sp needed
 189 003e B0BD     		pop	{r4, r5, r7, pc}
 190              		.cfi_endproc
 191              	.LFE68:
 192              		.size	lcd_unsigned_int8, .-lcd_unsigned_int8
 193              		.section	.text.lcd_menu_execute,"ax",%progbits
 194              		.align	2
 195              		.global	lcd_menu_execute
 196              		.thumb
 197              		.thumb_func
 198              		.type	lcd_menu_execute, %function
 199              	lcd_menu_execute:
 200              	.LFB69:
 620:lcd_report.c  **** 
 621:lcd_report.c  **** void lcd_menu_execute(char *line)
 622:lcd_report.c  **** {
 201              		.loc 1 622 0
 202              		.cfi_startproc
 203              		@ args = 0, pretend = 0, frame = 0
 204              		@ frame_needed = 0, uses_anonymous_args = 0
 205              	.LVL16:
 206 0000 08B5     		push	{r3, lr}
 207              		.cfi_def_cfa_offset 8
 208              		.cfi_offset 3, -8
 209              		.cfi_offset 14, -4
 623:lcd_report.c  ****     if ( sys.state == STATE_IDLE)
 210              		.loc 1 623 0
 211 0002 034B     		ldr	r3, .L20
 212 0004 1B78     		ldrb	r3, [r3]	@ zero_extendqisi2
 213 0006 0BB9     		cbnz	r3, .L17
 624:lcd_report.c  ****       gc_execute_line(line);
 214              		.loc 1 624 0
 215 0008 FFF7FEFF 		bl	gc_execute_line
 216              	.LVL17:
 217              	.L17:
 218 000c 08BD     		pop	{r3, pc}
 219              	.L21:
 220 000e 00BF     		.align	2
ARM GAS  C:\Users\Bart\AppData\Local\Temp\ccOIOErW.s 			page 16


 221              	.L20:
 222 0010 00000000 		.word	sys
 223              		.cfi_endproc
 224              	.LFE69:
 225              		.size	lcd_menu_execute, .-lcd_menu_execute
 226              		.global	__aeabi_fadd
 227              		.global	__aeabi_fsub
 228              		.global	__aeabi_f2d
 229              		.global	__aeabi_ddiv
 230              		.global	__aeabi_d2f
 231              		.global	__aeabi_fmul
 232              		.global	__aeabi_f2iz
 233              		.global	__aeabi_i2f
 234              		.global	__aeabi_fdiv
 235              		.global	__aeabi_fcmpgt
 236              		.global	__aeabi_fcmplt
 237              		.section	.text.lcd_report_realtime,"ax",%progbits
 238              		.align	2
 239              		.global	lcd_report_realtime
 240              		.thumb
 241              		.thumb_func
 242              		.type	lcd_report_realtime, %function
 243              	lcd_report_realtime:
 244              	.LFB67:
  65:lcd_report.c  ****   uint8_t switches = false;  // currently used for hardware checking.
 245              		.loc 1 65 0
 246              		.cfi_startproc
 247              		@ args = 0, pretend = 0, frame = 88
 248              		@ frame_needed = 0, uses_anonymous_args = 0
 249 0000 F0B5     		push	{r4, r5, r6, r7, lr}
 250              		.cfi_def_cfa_offset 20
 251              		.cfi_offset 4, -20
 252              		.cfi_offset 5, -16
 253              		.cfi_offset 6, -12
 254              		.cfi_offset 7, -8
 255              		.cfi_offset 14, -4
 256 0002 97B0     		sub	sp, sp, #92
 257              		.cfi_def_cfa_offset 112
 258              	.LVL18:
  71:lcd_report.c  ****   int32_t current_position[N_AXIS]; // Copy current state of the system position variable
 259              		.loc 1 71 0
 260 0004 B44B     		ldr	r3, .L130+8
 261 0006 93E80300 		ldmia	r3, {r0, r1}
 262 000a 0790     		str	r0, [sp, #28]
 263 000c ADF82010 		strh	r1, [sp, #32]	@ movhi
 264 0010 090C     		lsrs	r1, r1, #16
 265 0012 8DF82210 		strb	r1, [sp, #34]
  73:lcd_report.c  ****   float print_position[N_AXIS];
 266              		.loc 1 73 0
 267 0016 B14A     		ldr	r2, .L130+12
 268 0018 04AB     		add	r3, sp, #16
 269 001a 07CA     		ldmia	r2, {r0, r1, r2}
 270 001c 83E80700 		stmia	r3, {r0, r1, r2}
  78:lcd_report.c  ****   {
 271              		.loc 1 78 0
 272 0020 AF4B     		ldr	r3, .L130+16
 273 0022 93F90130 		ldrsb	r3, [r3, #1]
ARM GAS  C:\Users\Bart\AppData\Local\Temp\ccOIOErW.s 			page 17


 274 0026 032B     		cmp	r3, #3
 275 0028 00F23985 		bhi	.L23
 276 002c DFE813F0 		tbh	[pc, r3, lsl #1]
 277              	.L25:
 278 0030 0400     		.2byte	(.L24-.L25)/2
 279 0032 1F02     		.2byte	(.L26-.L25)/2
 280 0034 3A03     		.2byte	(.L27-.L25)/2
 281 0036 1505     		.2byte	(.L28-.L25)/2
 282              		.p2align 1
 283              	.L24:
  82:lcd_report.c  ****       get_state(stat);
 284              		.loc 1 82 0
 285 0038 0722     		movs	r2, #7
 286 003a AA4B     		ldr	r3, .L130+20
 287 003c 1A70     		strb	r2, [r3]
  83:lcd_report.c  ****       LCD_Position(0u, 0u);
 288              		.loc 1 83 0
 289 003e 13A8     		add	r0, sp, #76
 290 0040 FFF7FEFF 		bl	get_state
 291              	.LVL19:
  84:lcd_report.c  ****       LCD_PrintString(stat);
 292              		.loc 1 84 0
 293 0044 0020     		movs	r0, #0
 294 0046 0146     		mov	r1, r0
 295 0048 FFF7FEFF 		bl	LCD_Position
 296              	.LVL20:
  85:lcd_report.c  ****       
 297              		.loc 1 85 0
 298 004c 13A8     		add	r0, sp, #76
 299 004e FFF7FEFF 		bl	LCD_PrintString
 300              	.LVL21:
  87:lcd_report.c  ****         switch_clicked = false;
 301              		.loc 1 87 0
 302 0052 A34B     		ldr	r3, .L130+16
 303 0054 1B78     		ldrb	r3, [r3]	@ zero_extendqisi2
 304 0056 002B     		cmp	r3, #0
 305 0058 60D0     		beq	.L29
  88:lcd_report.c  ****         switch (lcd_cursor)
 306              		.loc 1 88 0
 307 005a 0022     		movs	r2, #0
 308 005c A04B     		ldr	r3, .L130+16
 309 005e 1A70     		strb	r2, [r3]
  89:lcd_report.c  ****         {
 310              		.loc 1 89 0
 311 0060 A04B     		ldr	r3, .L130+20
 312 0062 93F90130 		ldrsb	r3, [r3, #1]
 313 0066 072B     		cmp	r3, #7
 314 0068 53D8     		bhi	.L30
 315 006a DFE803F0 		tbb	[pc, r3]
 316              	.L32:
 317 006e 04       		.byte	(.L31-.L32)/2
 318 006f 0C       		.byte	(.L33-.L32)/2
 319 0070 10       		.byte	(.L34-.L32)/2
 320 0071 14       		.byte	(.L35-.L32)/2
 321 0072 18       		.byte	(.L36-.L32)/2
 322 0073 23       		.byte	(.L37-.L32)/2
 323 0074 35       		.byte	(.L38-.L32)/2
ARM GAS  C:\Users\Bart\AppData\Local\Temp\ccOIOErW.s 			page 18


 324 0075 47       		.byte	(.L39-.L32)/2
 325              		.p2align 1
 326              	.L31:
  92:lcd_report.c  ****               system_execute_line("$X");
 327              		.loc 1 92 0
 328 0076 9C4B     		ldr	r3, .L130+24
 329 0078 1B78     		ldrb	r3, [r3]	@ zero_extendqisi2
 330 007a 012B     		cmp	r3, #1
 331 007c 49D1     		bne	.L30
  93:lcd_report.c  ****             }
 332              		.loc 1 93 0
 333 007e 9B48     		ldr	r0, .L130+28
 334 0080 FFF7FEFF 		bl	system_execute_line
 335              	.LVL22:
 336 0084 45E0     		b	.L30
 337              	.L33:
  97:lcd_report.c  ****           break;
 338              		.loc 1 97 0
 339 0086 9A48     		ldr	r0, .L130+32
 340 0088 FFF7FEFF 		bl	lcd_menu_execute
 341              	.LVL23:
  98:lcd_report.c  ****           case MENU_ITEM_MAIN_Y_DRO:
 342              		.loc 1 98 0
 343 008c 41E0     		b	.L30
 344              	.L34:
 100:lcd_report.c  ****           break;
 345              		.loc 1 100 0
 346 008e 9948     		ldr	r0, .L130+36
 347 0090 FFF7FEFF 		bl	lcd_menu_execute
 348              	.LVL24:
 101:lcd_report.c  ****           case MENU_ITEM_MAIN_Z_DRO:
 349              		.loc 1 101 0
 350 0094 3DE0     		b	.L30
 351              	.L35:
 103:lcd_report.c  ****           break;
 352              		.loc 1 103 0
 353 0096 9848     		ldr	r0, .L130+40
 354 0098 FFF7FEFF 		bl	lcd_menu_execute
 355              	.LVL25:
 104:lcd_report.c  ****           
 356              		.loc 1 104 0
 357 009c 39E0     		b	.L30
 358              	.L36:
 107:lcd_report.c  ****               lcd_units = LCD_UNIT_IN;
 359              		.loc 1 107 0
 360 009e 904B     		ldr	r3, .L130+16
 361 00a0 9B78     		ldrb	r3, [r3, #2]	@ zero_extendqisi2
 362 00a2 1BB9     		cbnz	r3, .L40
 108:lcd_report.c  ****             else
 363              		.loc 1 108 0
 364 00a4 0122     		movs	r2, #1
 365 00a6 8E4B     		ldr	r3, .L130+16
 366 00a8 9A70     		strb	r2, [r3, #2]
 367 00aa 32E0     		b	.L30
 368              	.L40:
 110:lcd_report.c  ****           break;
 369              		.loc 1 110 0
ARM GAS  C:\Users\Bart\AppData\Local\Temp\ccOIOErW.s 			page 19


 370 00ac 0022     		movs	r2, #0
 371 00ae 8C4B     		ldr	r3, .L130+16
 372 00b0 9A70     		strb	r2, [r3, #2]
 373 00b2 2EE0     		b	.L30
 374              	.L37:
 113:lcd_report.c  ****               if (menu_item_selected)
 375              		.loc 1 113 0
 376 00b4 8A4A     		ldr	r2, .L130+16
 377 00b6 92F90330 		ldrsb	r3, [r2, #3]
 378 00ba B3FA83F3 		clz	r3, r3
 379 00be 5B09     		lsrs	r3, r3, #5
 380 00c0 D370     		strb	r3, [r2, #3]
 114:lcd_report.c  ****                 QuadDec_SetCounter(lcd_FRO);
 381              		.loc 1 114 0
 382 00c2 2BB1     		cbz	r3, .L41
 115:lcd_report.c  ****               else
 383              		.loc 1 115 0
 384 00c4 874B     		ldr	r3, .L130+20
 385 00c6 B3F90200 		ldrsh	r0, [r3, #2]
 386 00ca FFF7FEFF 		bl	QuadDec_SetCounter
 387              	.LVL26:
 388 00ce 20E0     		b	.L30
 389              	.L41:
 117:lcd_report.c  ****           break;  
 390              		.loc 1 117 0
 391 00d0 0520     		movs	r0, #5
 392 00d2 FFF7FEFF 		bl	QuadDec_SetCounter
 393              	.LVL27:
 394 00d6 1CE0     		b	.L30
 395              	.L38:
 120:lcd_report.c  ****               if (menu_item_selected)
 396              		.loc 1 120 0
 397 00d8 814A     		ldr	r2, .L130+16
 398 00da 92F90330 		ldrsb	r3, [r2, #3]
 399 00de B3FA83F3 		clz	r3, r3
 400 00e2 5B09     		lsrs	r3, r3, #5
 401 00e4 D370     		strb	r3, [r2, #3]
 121:lcd_report.c  ****                 QuadDec_SetCounter(lcd_SRO);
 402              		.loc 1 121 0
 403 00e6 2BB1     		cbz	r3, .L42
 122:lcd_report.c  ****               else
 404              		.loc 1 122 0
 405 00e8 7E4B     		ldr	r3, .L130+20
 406 00ea B3F90400 		ldrsh	r0, [r3, #4]
 407 00ee FFF7FEFF 		bl	QuadDec_SetCounter
 408              	.LVL28:
 409 00f2 0EE0     		b	.L30
 410              	.L42:
 124:lcd_report.c  ****           break;     
 411              		.loc 1 124 0
 412 00f4 0620     		movs	r0, #6
 413 00f6 FFF7FEFF 		bl	QuadDec_SetCounter
 414              	.LVL29:
 415 00fa 0AE0     		b	.L30
 416              	.L39:
 127:lcd_report.c  ****             lcd_cursor = 0;
 417              		.loc 1 127 0
ARM GAS  C:\Users\Bart\AppData\Local\Temp\ccOIOErW.s 			page 20


 418 00fc 0124     		movs	r4, #1
 419 00fe 784B     		ldr	r3, .L130+16
 420 0100 5C70     		strb	r4, [r3, #1]
 128:lcd_report.c  ****             QuadDec_SetCounter(lcd_cursor);
 421              		.loc 1 128 0
 422 0102 0020     		movs	r0, #0
 423 0104 774B     		ldr	r3, .L130+20
 424 0106 5870     		strb	r0, [r3, #1]
 129:lcd_report.c  ****             LCD_WriteControl(LCD_CLEAR_DISPLAY);
 425              		.loc 1 129 0
 426 0108 FFF7FEFF 		bl	QuadDec_SetCounter
 427              	.LVL30:
 130:lcd_report.c  ****           break;
 428              		.loc 1 130 0
 429 010c 2046     		mov	r0, r4
 430 010e FFF7FEFF 		bl	LCD_WriteControl
 431              	.LVL31:
 432              	.L30:
 134:lcd_report.c  ****       }
 433              		.loc 1 134 0
 434 0112 734B     		ldr	r3, .L130+16
 435 0114 5B78     		ldrb	r3, [r3, #1]	@ zero_extendqisi2
 436 0116 002B     		cmp	r3, #0
 437 0118 40F0CF84 		bne	.L22
 438              	.L29:
 153:lcd_report.c  ****       
 439              		.loc 1 153 0
 440 011c 01A8     		add	r0, sp, #4
 441 011e 04A9     		add	r1, sp, #16
 442 0120 FFF7FEFF 		bl	system_convert_array_steps_to_mpos
 443              	.LVL32:
 156:lcd_report.c  ****       print_position[idx] -= gc_state.coord_system[idx]+gc_state.coord_offset[idx];
 444              		.loc 1 156 0
 445 0124 0024     		movs	r4, #0
 446 0126 20E0     		b	.L44
 447              	.LVL33:
 448              	.L46:
 157:lcd_report.c  ****         if (idx == TOOL_LENGTH_OFFSET_AXIS) { print_position[idx] -= gc_state.tool_length_offset; }
 449              		.loc 1 157 0
 450 0128 744A     		ldr	r2, .L130+44
 451 012a 04F10A03 		add	r3, r4, #10
 452 012e 02EB8401 		add	r1, r2, r4, lsl #2
 453 0132 52F82300 		ldr	r0, [r2, r3, lsl #2]	@ float
 454 0136 496B     		ldr	r1, [r1, #52]	@ float
 455 0138 FFF7FEFF 		bl	__aeabi_fadd
 456              	.LVL34:
 457 013c 0146     		mov	r1, r0
 458 013e 16AB     		add	r3, sp, #88
 459 0140 03EB8405 		add	r5, r3, r4, lsl #2
 460 0144 55F8540C 		ldr	r0, [r5, #-84]	@ float
 461 0148 FFF7FEFF 		bl	__aeabi_fsub
 462              	.LVL35:
 463 014c 45F8540C 		str	r0, [r5, #-84]	@ float
 158:lcd_report.c  ****       }
 464              		.loc 1 158 0
 465 0150 022C     		cmp	r4, #2
 466 0152 08D1     		bne	.L45
ARM GAS  C:\Users\Bart\AppData\Local\Temp\ccOIOErW.s 			page 21


 158:lcd_report.c  ****       }
 467              		.loc 1 158 0 is_stmt 0 discriminator 1
 468 0154 694B     		ldr	r3, .L130+44
 469 0156 196C     		ldr	r1, [r3, #64]	@ float
 470 0158 FFF7FEFF 		bl	__aeabi_fsub
 471              	.LVL36:
 472 015c 16AB     		add	r3, sp, #88
 473 015e 03EB8403 		add	r3, r3, r4, lsl #2
 474 0162 43F8540C 		str	r0, [r3, #-84]	@ float
 475              	.L45:
 156:lcd_report.c  ****       print_position[idx] -= gc_state.coord_system[idx]+gc_state.coord_offset[idx];
 476              		.loc 1 156 0 is_stmt 1 discriminator 2
 477 0166 0134     		adds	r4, r4, #1
 478              	.LVL37:
 479 0168 E4B2     		uxtb	r4, r4
 480              	.LVL38:
 481              	.L44:
 156:lcd_report.c  ****       print_position[idx] -= gc_state.coord_system[idx]+gc_state.coord_offset[idx];
 482              		.loc 1 156 0 is_stmt 0 discriminator 1
 483 016a 022C     		cmp	r4, #2
 484 016c DCD9     		bls	.L46
 162:lcd_report.c  ****       LCD_PrintString(" Unit:");
 485              		.loc 1 162 0 is_stmt 1
 486 016e 0020     		movs	r0, #0
 487 0170 0B21     		movs	r1, #11
 488 0172 FFF7FEFF 		bl	LCD_Position
 489              	.LVL39:
 163:lcd_report.c  ****       if (lcd_units == LCD_UNIT_MM) {
 490              		.loc 1 163 0
 491 0176 6248     		ldr	r0, .L130+48
 492 0178 FFF7FEFF 		bl	LCD_PrintString
 493              	.LVL40:
 164:lcd_report.c  ****         LCD_PrintString(" mm");
 494              		.loc 1 164 0
 495 017c 584B     		ldr	r3, .L130+16
 496 017e 9B78     		ldrb	r3, [r3, #2]	@ zero_extendqisi2
 497 0180 FBB9     		cbnz	r3, .L126
 165:lcd_report.c  ****         strcpy(num_format, "%+8.2f");
 498              		.loc 1 165 0
 499 0182 6048     		ldr	r0, .L130+52
 500 0184 FFF7FEFF 		bl	LCD_PrintString
 501              	.LVL41:
 166:lcd_report.c  ****       }
 502              		.loc 1 166 0
 503 0188 534B     		ldr	r3, .L130+8
 504 018a 93E80300 		ldmia	r3, {r0, r1}
 505 018e 0790     		str	r0, [sp, #28]
 506 0190 ADF82010 		strh	r1, [sp, #32]	@ movhi
 507 0194 090C     		lsrs	r1, r1, #16
 508 0196 8DF82210 		strb	r1, [sp, #34]
 509 019a 21E0     		b	.L48
 510              	.L49:
 170:lcd_report.c  ****           }
 511              		.loc 1 170 0 discriminator 3
 512 019c 16AB     		add	r3, sp, #88
 513 019e 03EB8405 		add	r5, r3, r4, lsl #2
 514 01a2 55F8540C 		ldr	r0, [r5, #-84]	@ float
ARM GAS  C:\Users\Bart\AppData\Local\Temp\ccOIOErW.s 			page 22


 515 01a6 FFF7FEFF 		bl	__aeabi_f2d
 516              	.LVL42:
 517 01aa 49A3     		adr	r3, .L130
 518 01ac D3E90023 		ldrd	r2, [r3]
 519 01b0 FFF7FEFF 		bl	__aeabi_ddiv
 520              	.LVL43:
 521 01b4 FFF7FEFF 		bl	__aeabi_d2f
 522              	.LVL44:
 523 01b8 45F8540C 		str	r0, [r5, #-84]	@ float
 169:lcd_report.c  ****             print_position[idx] /= MM_PER_INCH;  
 524              		.loc 1 169 0 discriminator 3
 525 01bc 0134     		adds	r4, r4, #1
 526              	.LVL45:
 527 01be E4B2     		uxtb	r4, r4
 528              	.LVL46:
 529 01c0 00E0     		b	.L47
 530              	.L126:
 531 01c2 0024     		movs	r4, #0
 532              	.LVL47:
 533              	.L47:
 169:lcd_report.c  ****             print_position[idx] /= MM_PER_INCH;  
 534              		.loc 1 169 0 is_stmt 0 discriminator 1
 535 01c4 022C     		cmp	r4, #2
 536 01c6 E9D9     		bls	.L49
 172:lcd_report.c  ****           strcpy(num_format, "%+8.3f");
 537              		.loc 1 172 0 is_stmt 1
 538 01c8 4F48     		ldr	r0, .L130+56
 539 01ca FFF7FEFF 		bl	LCD_PrintString
 540              	.LVL48:
 173:lcd_report.c  ****       }
 541              		.loc 1 173 0
 542 01ce 4F4B     		ldr	r3, .L130+60
 543 01d0 93E80300 		ldmia	r3, {r0, r1}
 544 01d4 0790     		str	r0, [sp, #28]
 545 01d6 ADF82010 		strh	r1, [sp, #32]	@ movhi
 546 01da 090C     		lsrs	r1, r1, #16
 547 01dc 8DF82210 		strb	r1, [sp, #34]
 548              	.L48:
 177:lcd_report.c  ****       LCD_PrintString(" X");
 549              		.loc 1 177 0
 550 01e0 0120     		movs	r0, #1
 551 01e2 0021     		movs	r1, #0
 552 01e4 FFF7FEFF 		bl	LCD_Position
 553              	.LVL49:
 178:lcd_report.c  ****       sprintf(fstr, num_format, print_position[X_AXIS] ); 
 554              		.loc 1 178 0
 555 01e8 4948     		ldr	r0, .L130+64
 556 01ea FFF7FEFF 		bl	LCD_PrintString
 557              	.LVL50:
 179:lcd_report.c  ****       LCD_PrintString(fstr);    
 558              		.loc 1 179 0
 559 01ee 0198     		ldr	r0, [sp, #4]	@ float
 560 01f0 FFF7FEFF 		bl	__aeabi_f2d
 561              	.LVL51:
 562 01f4 0246     		mov	r2, r0
 563 01f6 0B46     		mov	r3, r1
 564 01f8 0EA8     		add	r0, sp, #56
ARM GAS  C:\Users\Bart\AppData\Local\Temp\ccOIOErW.s 			page 23


 565 01fa 07A9     		add	r1, sp, #28
 566 01fc FFF7FEFF 		bl	sprintf
 567              	.LVL52:
 180:lcd_report.c  ****     
 568              		.loc 1 180 0
 569 0200 0EA8     		add	r0, sp, #56
 570 0202 FFF7FEFF 		bl	LCD_PrintString
 571              	.LVL53:
 182:lcd_report.c  ****       LCD_PrintString(" Y");
 572              		.loc 1 182 0
 573 0206 0220     		movs	r0, #2
 574 0208 0021     		movs	r1, #0
 575 020a FFF7FEFF 		bl	LCD_Position
 576              	.LVL54:
 183:lcd_report.c  ****       sprintf(fstr, num_format, print_position[Y_AXIS] ); 
 577              		.loc 1 183 0
 578 020e 4148     		ldr	r0, .L130+68
 579 0210 FFF7FEFF 		bl	LCD_PrintString
 580              	.LVL55:
 184:lcd_report.c  ****       LCD_PrintString(fstr);      
 581              		.loc 1 184 0
 582 0214 0298     		ldr	r0, [sp, #8]	@ float
 583 0216 FFF7FEFF 		bl	__aeabi_f2d
 584              	.LVL56:
 585 021a 0246     		mov	r2, r0
 586 021c 0B46     		mov	r3, r1
 587 021e 0EA8     		add	r0, sp, #56
 588 0220 07A9     		add	r1, sp, #28
 589 0222 FFF7FEFF 		bl	sprintf
 590              	.LVL57:
 185:lcd_report.c  ****       
 591              		.loc 1 185 0
 592 0226 0EA8     		add	r0, sp, #56
 593 0228 FFF7FEFF 		bl	LCD_PrintString
 594              	.LVL58:
 187:lcd_report.c  ****       LCD_PrintString(" Z");
 595              		.loc 1 187 0
 596 022c 0320     		movs	r0, #3
 597 022e 0021     		movs	r1, #0
 598 0230 FFF7FEFF 		bl	LCD_Position
 599              	.LVL59:
 188:lcd_report.c  ****       sprintf(fstr, num_format, print_position[Z_AXIS] ); 
 600              		.loc 1 188 0
 601 0234 3848     		ldr	r0, .L130+72
 602 0236 FFF7FEFF 		bl	LCD_PrintString
 603              	.LVL60:
 189:lcd_report.c  ****       LCD_PrintString(fstr);      
 604              		.loc 1 189 0
 605 023a 0398     		ldr	r0, [sp, #12]	@ float
 606 023c FFF7FEFF 		bl	__aeabi_f2d
 607              	.LVL61:
 608 0240 0246     		mov	r2, r0
 609 0242 0B46     		mov	r3, r1
 610 0244 0EA8     		add	r0, sp, #56
 611 0246 07A9     		add	r1, sp, #28
 612 0248 FFF7FEFF 		bl	sprintf
 613              	.LVL62:
ARM GAS  C:\Users\Bart\AppData\Local\Temp\ccOIOErW.s 			page 24


 190:lcd_report.c  ****       
 614              		.loc 1 190 0
 615 024c 0EA8     		add	r0, sp, #56
 616 024e FFF7FEFF 		bl	LCD_PrintString
 617              	.LVL63:
 192:lcd_report.c  ****       LCD_PrintString(" FRO:");
 618              		.loc 1 192 0
 619 0252 0120     		movs	r0, #1
 620 0254 0B21     		movs	r1, #11
 621 0256 FFF7FEFF 		bl	LCD_Position
 622              	.LVL64:
 193:lcd_report.c  ****       sprintf(fstr, "%3d", lcd_FRO ); 
 623              		.loc 1 193 0
 624 025a 3048     		ldr	r0, .L130+76
 625 025c FFF7FEFF 		bl	LCD_PrintString
 626              	.LVL65:
 194:lcd_report.c  ****       LCD_PrintString(fstr);
 627              		.loc 1 194 0
 628 0260 2F4E     		ldr	r6, .L130+80
 629 0262 204D     		ldr	r5, .L130+20
 630 0264 0EA8     		add	r0, sp, #56
 631 0266 3146     		mov	r1, r6
 632 0268 B5F90220 		ldrsh	r2, [r5, #2]
 633 026c FFF7FEFF 		bl	sprintf
 634              	.LVL66:
 195:lcd_report.c  ****       LCD_PrintString("%");
 635              		.loc 1 195 0
 636 0270 0EA8     		add	r0, sp, #56
 637 0272 FFF7FEFF 		bl	LCD_PrintString
 638              	.LVL67:
 196:lcd_report.c  ****       
 639              		.loc 1 196 0
 640 0276 2B4C     		ldr	r4, .L130+84
 641              	.LVL68:
 642 0278 2046     		mov	r0, r4
 643 027a FFF7FEFF 		bl	LCD_PrintString
 644              	.LVL69:
 198:lcd_report.c  ****       LCD_PrintString(" SRO:");
 645              		.loc 1 198 0
 646 027e 0220     		movs	r0, #2
 647 0280 0B21     		movs	r1, #11
 648 0282 FFF7FEFF 		bl	LCD_Position
 649              	.LVL70:
 199:lcd_report.c  ****       sprintf(fstr, "%3d", lcd_SRO ); 
 650              		.loc 1 199 0
 651 0286 2848     		ldr	r0, .L130+88
 652 0288 FFF7FEFF 		bl	LCD_PrintString
 653              	.LVL71:
 200:lcd_report.c  ****       LCD_PrintString(fstr);
 654              		.loc 1 200 0
 655 028c 0EA8     		add	r0, sp, #56
 656 028e 3146     		mov	r1, r6
 657 0290 B5F90420 		ldrsh	r2, [r5, #4]
 658 0294 FFF7FEFF 		bl	sprintf
 659              	.LVL72:
 201:lcd_report.c  ****       LCD_PrintString("%");
 660              		.loc 1 201 0
ARM GAS  C:\Users\Bart\AppData\Local\Temp\ccOIOErW.s 			page 25


 661 0298 0EA8     		add	r0, sp, #56
 662 029a FFF7FEFF 		bl	LCD_PrintString
 663              	.LVL73:
 202:lcd_report.c  ****       
 664              		.loc 1 202 0
 665 029e 2046     		mov	r0, r4
 666 02a0 FFF7FEFF 		bl	LCD_PrintString
 667              	.LVL74:
 204:lcd_report.c  ****       LCD_PrintString(" More ");
 668              		.loc 1 204 0
 669 02a4 0320     		movs	r0, #3
 670 02a6 0B21     		movs	r1, #11
 671 02a8 FFF7FEFF 		bl	LCD_Position
 672              	.LVL75:
 205:lcd_report.c  ****       LCD_PutChar(LCD_CUSTOM_2);
 673              		.loc 1 205 0
 674 02ac 1F48     		ldr	r0, .L130+92
 675 02ae FFF7FEFF 		bl	LCD_PrintString
 676              	.LVL76:
 206:lcd_report.c  ****       
 677              		.loc 1 206 0
 678 02b2 0220     		movs	r0, #2
 679 02b4 FFF7FEFF 		bl	LCD_PutChar
 680              	.LVL77:
 209:lcd_report.c  ****         switch (lcd_cursor) {
 681              		.loc 1 209 0
 682 02b8 094B     		ldr	r3, .L130+16
 683 02ba DB78     		ldrb	r3, [r3, #3]	@ zero_extendqisi2
 684 02bc 002B     		cmp	r3, #0
 685 02be 56D0     		beq	.L50
 210:lcd_report.c  ****          case MENU_ITEM_MAIN_FRO:
 686              		.loc 1 210 0
 687 02c0 95F90130 		ldrsb	r3, [r5, #1]
 688 02c4 052B     		cmp	r3, #5
 689 02c6 33D0     		beq	.L52
 690 02c8 062B     		cmp	r3, #6
 691 02ca 42D0     		beq	.L53
 692 02cc 68E0     		b	.L51
 693              	.L131:
 694 02ce 00BF     		.align	3
 695              	.L130:
 696 02d0 66666666 		.word	1717986918
 697 02d4 66663940 		.word	1077503590
 698 02d8 60010000 		.word	.LC0
 699 02dc 00000000 		.word	sys_position
 700 02e0 00000000 		.word	.LANCHOR0
 701 02e4 00000000 		.word	.LANCHOR1
 702 02e8 00000000 		.word	sys
 703 02ec 00000000 		.word	.LC1
 704 02f0 04000000 		.word	.LC2
 705 02f4 10000000 		.word	.LC3
 706 02f8 1C000000 		.word	.LC4
 707 02fc 00000000 		.word	gc_state
 708 0300 28000000 		.word	.LC5
 709 0304 30000000 		.word	.LC6
 710 0308 34000000 		.word	.LC7
 711 030c 68010000 		.word	.LC8
ARM GAS  C:\Users\Bart\AppData\Local\Temp\ccOIOErW.s 			page 26


 712 0310 38000000 		.word	.LC9
 713 0314 3C000000 		.word	.LC10
 714 0318 40000000 		.word	.LC11
 715 031c 44000000 		.word	.LC12
 716 0320 4C000000 		.word	.LC13
 717 0324 50000000 		.word	.LC14
 718 0328 54000000 		.word	.LC15
 719 032c 5C000000 		.word	.LC16
 720              	.L52:
 212:lcd_report.c  ****           if (lcd_FRO > LCD_FRO_MAX) lcd_FRO = LCD_FRO_MAX;
 721              		.loc 1 212 0
 722 0330 FFF7FEFF 		bl	QuadDec_GetCounter
 723              	.LVL78:
 724 0334 774B     		ldr	r3, .L132
 725 0336 5880     		strh	r0, [r3, #2]	@ movhi
 213:lcd_report.c  ****           if (lcd_FRO < LCD_FRO_MIN) lcd_FRO = LCD_FRO_MIN;
 726              		.loc 1 213 0
 727 0338 FA28     		cmp	r0, #250
 728 033a 01DD     		ble	.L54
 213:lcd_report.c  ****           if (lcd_FRO < LCD_FRO_MIN) lcd_FRO = LCD_FRO_MIN;
 729              		.loc 1 213 0 is_stmt 0 discriminator 1
 730 033c FA22     		movs	r2, #250
 731 033e 5A80     		strh	r2, [r3, #2]	@ movhi
 732              	.L54:
 214:lcd_report.c  ****          break; 
 733              		.loc 1 214 0 is_stmt 1
 734 0340 744B     		ldr	r3, .L132
 735 0342 B3F90230 		ldrsh	r3, [r3, #2]
 736 0346 092B     		cmp	r3, #9
 737 0348 2ADC     		bgt	.L51
 214:lcd_report.c  ****          break; 
 738              		.loc 1 214 0 is_stmt 0 discriminator 1
 739 034a 0A22     		movs	r2, #10
 740 034c 714B     		ldr	r3, .L132
 741 034e 5A80     		strh	r2, [r3, #2]	@ movhi
 742 0350 26E0     		b	.L51
 743              	.L53:
 217:lcd_report.c  ****           if (lcd_SRO > LCD_SRO_MAX) lcd_FRO = LCD_SRO_MAX;
 744              		.loc 1 217 0 is_stmt 1
 745 0352 FFF7FEFF 		bl	QuadDec_GetCounter
 746              	.LVL79:
 747 0356 6F4B     		ldr	r3, .L132
 748 0358 9880     		strh	r0, [r3, #4]	@ movhi
 218:lcd_report.c  ****           if (lcd_SRO < LCD_SRO_MIN) lcd_FRO = LCD_SRO_MIN;
 749              		.loc 1 218 0
 750 035a FA28     		cmp	r0, #250
 751 035c 01DD     		ble	.L55
 218:lcd_report.c  ****           if (lcd_SRO < LCD_SRO_MIN) lcd_FRO = LCD_SRO_MIN;
 752              		.loc 1 218 0 is_stmt 0 discriminator 1
 753 035e FA22     		movs	r2, #250
 754 0360 5A80     		strh	r2, [r3, #2]	@ movhi
 755              	.L55:
 219:lcd_report.c  ****           break;
 756              		.loc 1 219 0 is_stmt 1
 757 0362 3128     		cmp	r0, #49
 758 0364 1CDC     		bgt	.L51
 219:lcd_report.c  ****           break;
ARM GAS  C:\Users\Bart\AppData\Local\Temp\ccOIOErW.s 			page 27


 759              		.loc 1 219 0 is_stmt 0 discriminator 1
 760 0366 3222     		movs	r2, #50
 761 0368 6A4B     		ldr	r3, .L132
 762 036a 5A80     		strh	r2, [r3, #2]	@ movhi
 763 036c 18E0     		b	.L51
 764              	.L50:
 224:lcd_report.c  ****         if  (lcd_cursor > lcd_cursor_max) lcd_cursor = lcd_cursor_max;
 765              		.loc 1 224 0 is_stmt 1
 766 036e FFF7FEFF 		bl	QuadDec_GetCounter
 767              	.LVL80:
 768 0372 C0B2     		uxtb	r0, r0
 769 0374 674B     		ldr	r3, .L132
 770 0376 5870     		strb	r0, [r3, #1]
 225:lcd_report.c  ****         if  (lcd_cursor < 0) lcd_cursor = 0;
 771              		.loc 1 225 0
 772 0378 1B78     		ldrb	r3, [r3]	@ zero_extendqisi2
 773 037a 40B2     		sxtb	r0, r0
 774 037c 5AB2     		sxtb	r2, r3
 775 037e 9042     		cmp	r0, r2
 776 0380 01DD     		ble	.L56
 225:lcd_report.c  ****         if  (lcd_cursor < 0) lcd_cursor = 0;
 777              		.loc 1 225 0 is_stmt 0 discriminator 1
 778 0382 644A     		ldr	r2, .L132
 779 0384 5370     		strb	r3, [r2, #1]
 780              	.L56:
 226:lcd_report.c  ****         
 781              		.loc 1 226 0 is_stmt 1
 782 0386 634B     		ldr	r3, .L132
 783 0388 93F90130 		ldrsb	r3, [r3, #1]
 784 038c 002B     		cmp	r3, #0
 785 038e 02DA     		bge	.L57
 226:lcd_report.c  ****         
 786              		.loc 1 226 0 is_stmt 0 discriminator 1
 787 0390 0022     		movs	r2, #0
 788 0392 604B     		ldr	r3, .L132
 789 0394 5A70     		strb	r2, [r3, #1]
 790              	.L57:
 228:lcd_report.c  ****         
 791              		.loc 1 228 0 is_stmt 1
 792 0396 5F4B     		ldr	r3, .L132
 793 0398 93F90100 		ldrsb	r0, [r3, #1]
 794 039c FFF7FEFF 		bl	QuadDec_SetCounter
 795              	.LVL81:
 796              	.L51:
 234:lcd_report.c  ****       switch (lcd_cursor)
 797              		.loc 1 234 0
 798 03a0 0C20     		movs	r0, #12
 799 03a2 FFF7FEFF 		bl	LCD_WriteControl
 800              	.LVL82:
 235:lcd_report.c  ****       {
 801              		.loc 1 235 0
 802 03a6 5B4B     		ldr	r3, .L132
 803 03a8 93F90130 		ldrsb	r3, [r3, #1]
 804 03ac 072B     		cmp	r3, #7
 805 03ae 00F28483 		bhi	.L22
 806 03b2 DFE803F0 		tbb	[pc, r3]
 807              	.L59:
ARM GAS  C:\Users\Bart\AppData\Local\Temp\ccOIOErW.s 			page 28


 808 03b6 04       		.byte	(.L58-.L59)/2
 809 03b7 0C       		.byte	(.L60-.L59)/2
 810 03b8 14       		.byte	(.L61-.L59)/2
 811 03b9 1C       		.byte	(.L62-.L59)/2
 812 03ba 24       		.byte	(.L63-.L59)/2
 813 03bb 2C       		.byte	(.L64-.L59)/2
 814 03bc 40       		.byte	(.L65-.L59)/2
 815 03bd 54       		.byte	(.L66-.L59)/2
 816              		.p2align 1
 817              	.L58:
 238:lcd_report.c  ****         LCD_PutChar(LCD_CUSTOM_0);
 818              		.loc 1 238 0
 819 03be 0020     		movs	r0, #0
 820 03c0 0146     		mov	r1, r0
 821 03c2 FFF7FEFF 		bl	LCD_Position
 822              	.LVL83:
 239:lcd_report.c  ****        break;
 823              		.loc 1 239 0
 824 03c6 0020     		movs	r0, #0
 825 03c8 FFF7FEFF 		bl	LCD_PutChar
 826              	.LVL84:
 240:lcd_report.c  ****        case MENU_ITEM_MAIN_X_DRO:
 827              		.loc 1 240 0
 828 03cc 75E3     		b	.L22
 829              	.L60:
 242:lcd_report.c  ****         LCD_PutChar(LCD_CUSTOM_0);
 830              		.loc 1 242 0
 831 03ce 0120     		movs	r0, #1
 832 03d0 0021     		movs	r1, #0
 833 03d2 FFF7FEFF 		bl	LCD_Position
 834              	.LVL85:
 243:lcd_report.c  ****        break;
 835              		.loc 1 243 0
 836 03d6 0020     		movs	r0, #0
 837 03d8 FFF7FEFF 		bl	LCD_PutChar
 838              	.LVL86:
 244:lcd_report.c  ****        case MENU_ITEM_MAIN_Y_DRO:
 839              		.loc 1 244 0
 840 03dc 6DE3     		b	.L22
 841              	.L61:
 246:lcd_report.c  ****         LCD_PutChar(LCD_CUSTOM_0);
 842              		.loc 1 246 0
 843 03de 0220     		movs	r0, #2
 844 03e0 0021     		movs	r1, #0
 845 03e2 FFF7FEFF 		bl	LCD_Position
 846              	.LVL87:
 247:lcd_report.c  ****        break; 
 847              		.loc 1 247 0
 848 03e6 0020     		movs	r0, #0
 849 03e8 FFF7FEFF 		bl	LCD_PutChar
 850              	.LVL88:
 248:lcd_report.c  ****        case MENU_ITEM_MAIN_Z_DRO:
 851              		.loc 1 248 0
 852 03ec 65E3     		b	.L22
 853              	.L62:
 250:lcd_report.c  ****         LCD_PutChar(LCD_CUSTOM_0);
 854              		.loc 1 250 0
ARM GAS  C:\Users\Bart\AppData\Local\Temp\ccOIOErW.s 			page 29


 855 03ee 0320     		movs	r0, #3
 856 03f0 0021     		movs	r1, #0
 857 03f2 FFF7FEFF 		bl	LCD_Position
 858              	.LVL89:
 251:lcd_report.c  ****        break;
 859              		.loc 1 251 0
 860 03f6 0020     		movs	r0, #0
 861 03f8 FFF7FEFF 		bl	LCD_PutChar
 862              	.LVL90:
 252:lcd_report.c  ****        case MENU_ITEM_MAIN_UNIT:
 863              		.loc 1 252 0
 864 03fc 5DE3     		b	.L22
 865              	.L63:
 254:lcd_report.c  ****         LCD_PutChar(LCD_CUSTOM_0);
 866              		.loc 1 254 0
 867 03fe 0020     		movs	r0, #0
 868 0400 0B21     		movs	r1, #11
 869 0402 FFF7FEFF 		bl	LCD_Position
 870              	.LVL91:
 255:lcd_report.c  ****        break;
 871              		.loc 1 255 0
 872 0406 0020     		movs	r0, #0
 873 0408 FFF7FEFF 		bl	LCD_PutChar
 874              	.LVL92:
 256:lcd_report.c  ****        case MENU_ITEM_MAIN_FRO:
 875              		.loc 1 256 0
 876 040c 55E3     		b	.L22
 877              	.L64:
 258:lcd_report.c  ****         LCD_PutChar(LCD_CUSTOM_0);
 878              		.loc 1 258 0
 879 040e 0120     		movs	r0, #1
 880 0410 0B21     		movs	r1, #11
 881 0412 FFF7FEFF 		bl	LCD_Position
 882              	.LVL93:
 259:lcd_report.c  ****         if (menu_item_selected) {
 883              		.loc 1 259 0
 884 0416 0020     		movs	r0, #0
 885 0418 FFF7FEFF 		bl	LCD_PutChar
 886              	.LVL94:
 260:lcd_report.c  ****           LCD_Position(1u, 11u);
 887              		.loc 1 260 0
 888 041c 3E4B     		ldr	r3, .L132+4
 889 041e DB78     		ldrb	r3, [r3, #3]	@ zero_extendqisi2
 890 0420 002B     		cmp	r3, #0
 891 0422 00F04A83 		beq	.L22
 261:lcd_report.c  ****           LCD_WriteControl(LCD_CURSOR_WINK);
 892              		.loc 1 261 0
 893 0426 0120     		movs	r0, #1
 894 0428 0B21     		movs	r1, #11
 895 042a FFF7FEFF 		bl	LCD_Position
 896              	.LVL95:
 262:lcd_report.c  ****         }
 897              		.loc 1 262 0
 898 042e 0D20     		movs	r0, #13
 899 0430 FFF7FEFF 		bl	LCD_WriteControl
 900              	.LVL96:
 901 0434 41E3     		b	.L22
ARM GAS  C:\Users\Bart\AppData\Local\Temp\ccOIOErW.s 			page 30


 902              	.L65:
 269:lcd_report.c  ****         LCD_PutChar(LCD_CUSTOM_0);
 903              		.loc 1 269 0
 904 0436 0220     		movs	r0, #2
 905 0438 0B21     		movs	r1, #11
 906 043a FFF7FEFF 		bl	LCD_Position
 907              	.LVL97:
 270:lcd_report.c  ****         if (menu_item_selected) {
 908              		.loc 1 270 0
 909 043e 0020     		movs	r0, #0
 910 0440 FFF7FEFF 		bl	LCD_PutChar
 911              	.LVL98:
 271:lcd_report.c  ****           LCD_Position(2u, 11u);
 912              		.loc 1 271 0
 913 0444 344B     		ldr	r3, .L132+4
 914 0446 DB78     		ldrb	r3, [r3, #3]	@ zero_extendqisi2
 915 0448 002B     		cmp	r3, #0
 916 044a 00F03683 		beq	.L22
 272:lcd_report.c  ****           LCD_WriteControl(LCD_CURSOR_WINK);
 917              		.loc 1 272 0
 918 044e 0220     		movs	r0, #2
 919 0450 0B21     		movs	r1, #11
 920 0452 FFF7FEFF 		bl	LCD_Position
 921              	.LVL99:
 273:lcd_report.c  ****         }
 922              		.loc 1 273 0
 923 0456 0D20     		movs	r0, #13
 924 0458 FFF7FEFF 		bl	LCD_WriteControl
 925              	.LVL100:
 926 045c 2DE3     		b	.L22
 927              	.L66:
 281:lcd_report.c  ****         LCD_PutChar(LCD_CUSTOM_0);
 928              		.loc 1 281 0
 929 045e 0320     		movs	r0, #3
 930 0460 0B21     		movs	r1, #11
 931 0462 FFF7FEFF 		bl	LCD_Position
 932              	.LVL101:
 282:lcd_report.c  ****        break;       
 933              		.loc 1 282 0
 934 0466 0020     		movs	r0, #0
 935 0468 FFF7FEFF 		bl	LCD_PutChar
 936              	.LVL102:
 283:lcd_report.c  ****       }
 937              		.loc 1 283 0
 938 046c 25E3     		b	.L22
 939              	.L26:
 291:lcd_report.c  ****       
 940              		.loc 1 291 0
 941 046e 0722     		movs	r2, #7
 942 0470 284B     		ldr	r3, .L132
 943 0472 1A70     		strb	r2, [r3]
 293:lcd_report.c  ****         switch_clicked = false;
 944              		.loc 1 293 0
 945 0474 284B     		ldr	r3, .L132+4
 946 0476 1B78     		ldrb	r3, [r3]	@ zero_extendqisi2
 947 0478 002B     		cmp	r3, #0
 948 047a 6AD0     		beq	.L67
ARM GAS  C:\Users\Bart\AppData\Local\Temp\ccOIOErW.s 			page 31


 294:lcd_report.c  ****         switch (lcd_cursor)
 949              		.loc 1 294 0
 950 047c 0022     		movs	r2, #0
 951 047e 264B     		ldr	r3, .L132+4
 952 0480 1A70     		strb	r2, [r3]
 295:lcd_report.c  ****         {
 953              		.loc 1 295 0
 954 0482 244B     		ldr	r3, .L132
 955 0484 93F90130 		ldrsb	r3, [r3, #1]
 956 0488 072B     		cmp	r3, #7
 957 048a 5CD8     		bhi	.L68
 958 048c DFE803F0 		tbb	[pc, r3]
 959              	.L70:
 960 0490 04       		.byte	(.L69-.L70)/2
 961 0491 0D       		.byte	(.L71-.L70)/2
 962 0492 23       		.byte	(.L72-.L70)/2
 963 0493 27       		.byte	(.L73-.L70)/2
 964 0494 35       		.byte	(.L74-.L70)/2
 965 0495 39       		.byte	(.L75-.L70)/2
 966 0496 3D       		.byte	(.L76-.L70)/2
 967 0497 52       		.byte	(.L77-.L70)/2
 968              		.p2align 1
 969              	.L69:
 298:lcd_report.c  ****             lcd_cursor = 0;        
 970              		.loc 1 298 0
 971 0498 0023     		movs	r3, #0
 972 049a 1F4A     		ldr	r2, .L132+4
 973 049c 5370     		strb	r3, [r2, #1]
 299:lcd_report.c  ****             LCD_WriteControl(LCD_CLEAR_DISPLAY);
 974              		.loc 1 299 0
 975 049e 1D4A     		ldr	r2, .L132
 976 04a0 5370     		strb	r3, [r2, #1]
 300:lcd_report.c  ****           break;
 977              		.loc 1 300 0
 978 04a2 0120     		movs	r0, #1
 979 04a4 FFF7FEFF 		bl	LCD_WriteControl
 980              	.LVL103:
 301:lcd_report.c  ****             
 981              		.loc 1 301 0
 982 04a8 4DE0     		b	.L68
 983              	.L71:
 304:lcd_report.c  ****             // Block if safety door is ajar.
 984              		.loc 1 304 0
 985 04aa 1C4B     		ldr	r3, .L132+8
 986 04ac 93F84830 		ldrb	r3, [r3, #72]	@ zero_extendqisi2
 987 04b0 13F0100F 		tst	r3, #16
 988 04b4 47D0     		beq	.L68
 306:lcd_report.c  ****             sys.state = STATE_HOMING; // Set system state variable
 989              		.loc 1 306 0
 990 04b6 FFF7FEFF 		bl	system_check_safety_door_ajar
 991              	.LVL104:
 307:lcd_report.c  ****             mc_homing_cycle(HOMING_CYCLE_ALL);
 992              		.loc 1 307 0
 993 04ba 194C     		ldr	r4, .L132+12
 994 04bc 0423     		movs	r3, #4
 995 04be 2370     		strb	r3, [r4]
 308:lcd_report.c  ****             if (!sys.abort) {  // Execute startup scripts after successful homing.
ARM GAS  C:\Users\Bart\AppData\Local\Temp\ccOIOErW.s 			page 32


 996              		.loc 1 308 0
 997 04c0 0020     		movs	r0, #0
 998 04c2 FFF7FEFF 		bl	mc_homing_cycle
 999              	.LVL105:
 309:lcd_report.c  ****               sys.state = STATE_IDLE; // Set to IDLE when complete.
 1000              		.loc 1 309 0
 1001 04c6 6378     		ldrb	r3, [r4, #1]	@ zero_extendqisi2
 1002 04c8 002B     		cmp	r3, #0
 1003 04ca 3CD1     		bne	.L68
 310:lcd_report.c  ****               st_go_idle(); // Set steppers to the settings idle state before returning.
 1004              		.loc 1 310 0
 1005 04cc 0022     		movs	r2, #0
 1006 04ce 2270     		strb	r2, [r4]
 311:lcd_report.c  ****               //system_execute_startup(line); 
 1007              		.loc 1 311 0
 1008 04d0 FFF7FEFF 		bl	st_go_idle
 1009              	.LVL106:
 1010 04d4 37E0     		b	.L68
 1011              	.L72:
 318:lcd_report.c  ****           break;
 1012              		.loc 1 318 0
 1013 04d6 1348     		ldr	r0, .L132+16
 1014 04d8 FFF7FEFF 		bl	lcd_menu_execute
 1015              	.LVL107:
 319:lcd_report.c  ****             
 1016              		.loc 1 319 0
 1017 04dc 33E0     		b	.L68
 1018              	.L73:
 322:lcd_report.c  ****             lcd_cursor_max = 4;
 1019              		.loc 1 322 0
 1020 04de 0222     		movs	r2, #2
 1021 04e0 0D4B     		ldr	r3, .L132+4
 1022 04e2 5A70     		strb	r2, [r3, #1]
 323:lcd_report.c  ****             lcd_cursor = 0;
 1023              		.loc 1 323 0
 1024 04e4 0B4B     		ldr	r3, .L132
 1025 04e6 0422     		movs	r2, #4
 1026 04e8 1A70     		strb	r2, [r3]
 324:lcd_report.c  ****             QuadDec_SetCounter(lcd_cursor);
 1027              		.loc 1 324 0
 1028 04ea 0020     		movs	r0, #0
 1029 04ec 5870     		strb	r0, [r3, #1]
 325:lcd_report.c  ****             LCD_WriteControl(LCD_CLEAR_DISPLAY);
 1030              		.loc 1 325 0
 1031 04ee FFF7FEFF 		bl	QuadDec_SetCounter
 1032              	.LVL108:
 326:lcd_report.c  ****           break;  
 1033              		.loc 1 326 0
 1034 04f2 0120     		movs	r0, #1
 1035 04f4 FFF7FEFF 		bl	LCD_WriteControl
 1036              	.LVL109:
 327:lcd_report.c  ****             
 1037              		.loc 1 327 0
 1038 04f8 25E0     		b	.L68
 1039              	.L74:
 330:lcd_report.c  ****           break;
 1040              		.loc 1 330 0
ARM GAS  C:\Users\Bart\AppData\Local\Temp\ccOIOErW.s 			page 33


 1041 04fa 0B48     		ldr	r0, .L132+20
 1042 04fc FFF7FEFF 		bl	lcd_menu_execute
 1043              	.LVL110:
 331:lcd_report.c  ****             
 1044              		.loc 1 331 0
 1045 0500 21E0     		b	.L68
 1046              	.L75:
 334:lcd_report.c  ****           break;
 1047              		.loc 1 334 0
 1048 0502 0A48     		ldr	r0, .L132+24
 1049 0504 FFF7FEFF 		bl	lcd_menu_execute
 1050              	.LVL111:
 335:lcd_report.c  ****             
 1051              		.loc 1 335 0
 1052 0508 1DE0     		b	.L68
 1053              	.L76:
 338:lcd_report.c  ****           break;
 1054              		.loc 1 338 0
 1055 050a 0948     		ldr	r0, .L132+28
 1056 050c FFF7FEFF 		bl	lcd_menu_execute
 1057              	.LVL112:
 339:lcd_report.c  ****             
 1058              		.loc 1 339 0
 1059 0510 19E0     		b	.L68
 1060              	.L133:
 1061 0512 00BF     		.align	2
 1062              	.L132:
 1063 0514 00000000 		.word	.LANCHOR1
 1064 0518 00000000 		.word	.LANCHOR0
 1065 051c 00000000 		.word	settings
 1066 0520 00000000 		.word	sys
 1067 0524 64000000 		.word	.LC17
 1068 0528 70000000 		.word	.LC18
 1069 052c 78000000 		.word	.LC19
 1070 0530 7C000000 		.word	.LC20
 1071              	.L77:
 342:lcd_report.c  ****             lcd_cursor = 0;        
 1072              		.loc 1 342 0
 1073 0534 0322     		movs	r2, #3
 1074 0536 AD4B     		ldr	r3, .L134
 1075 0538 5A70     		strb	r2, [r3, #1]
 343:lcd_report.c  ****             LCD_WriteControl(LCD_CLEAR_DISPLAY);
 1076              		.loc 1 343 0
 1077 053a 0022     		movs	r2, #0
 1078 053c AC4B     		ldr	r3, .L134+4
 1079 053e 5A70     		strb	r2, [r3, #1]
 344:lcd_report.c  ****           break;  
 1080              		.loc 1 344 0
 1081 0540 0120     		movs	r0, #1
 1082 0542 FFF7FEFF 		bl	LCD_WriteControl
 1083              	.LVL113:
 1084              	.L68:
 349:lcd_report.c  ****       }
 1085              		.loc 1 349 0
 1086 0546 A94B     		ldr	r3, .L134
 1087 0548 93F90130 		ldrsb	r3, [r3, #1]
 1088 054c 012B     		cmp	r3, #1
ARM GAS  C:\Users\Bart\AppData\Local\Temp\ccOIOErW.s 			page 34


 1089 054e 40F0B482 		bne	.L22
 1090              	.L67:
 352:lcd_report.c  ****       LCD_PrintString(" Back ");
 1091              		.loc 1 352 0
 1092 0552 0020     		movs	r0, #0
 1093 0554 0146     		mov	r1, r0
 1094 0556 FFF7FEFF 		bl	LCD_Position
 1095              	.LVL114:
 353:lcd_report.c  ****       LCD_PutChar(LCD_CUSTOM_3);
 1096              		.loc 1 353 0
 1097 055a A648     		ldr	r0, .L134+8
 1098 055c FFF7FEFF 		bl	LCD_PrintString
 1099              	.LVL115:
 354:lcd_report.c  ****       LCD_Position(1u, 0u);
 1100              		.loc 1 354 0
 1101 0560 0320     		movs	r0, #3
 1102 0562 FFF7FEFF 		bl	LCD_PutChar
 1103              	.LVL116:
 355:lcd_report.c  ****       LCD_PrintString(" Home Axes");
 1104              		.loc 1 355 0
 1105 0566 0120     		movs	r0, #1
 1106 0568 0021     		movs	r1, #0
 1107 056a FFF7FEFF 		bl	LCD_Position
 1108              	.LVL117:
 356:lcd_report.c  ****       LCD_Position(2u, 0u);
 1109              		.loc 1 356 0
 1110 056e A248     		ldr	r0, .L134+12
 1111 0570 FFF7FEFF 		bl	LCD_PrintString
 1112              	.LVL118:
 357:lcd_report.c  ****       LCD_PrintString(" Top of Z");
 1113              		.loc 1 357 0
 1114 0574 0220     		movs	r0, #2
 1115 0576 0021     		movs	r1, #0
 1116 0578 FFF7FEFF 		bl	LCD_Position
 1117              	.LVL119:
 358:lcd_report.c  ****       LCD_Position(3u, 0u);
 1118              		.loc 1 358 0
 1119 057c 9F48     		ldr	r0, .L134+16
 1120 057e FFF7FEFF 		bl	LCD_PrintString
 1121              	.LVL120:
 359:lcd_report.c  ****       LCD_PrintString(" Z Probe ");
 1122              		.loc 1 359 0
 1123 0582 0320     		movs	r0, #3
 1124 0584 0021     		movs	r1, #0
 1125 0586 FFF7FEFF 		bl	LCD_Position
 1126              	.LVL121:
 360:lcd_report.c  ****       LCD_PutChar(LCD_CUSTOM_2);
 1127              		.loc 1 360 0
 1128 058a 9D48     		ldr	r0, .L134+20
 1129 058c FFF7FEFF 		bl	LCD_PrintString
 1130              	.LVL122:
 361:lcd_report.c  ****       
 1131              		.loc 1 361 0
 1132 0590 0220     		movs	r0, #2
 1133 0592 FFF7FEFF 		bl	LCD_PutChar
 1134              	.LVL123:
 363:lcd_report.c  ****       LCD_PrintString(" Goto 0,0");
ARM GAS  C:\Users\Bart\AppData\Local\Temp\ccOIOErW.s 			page 35


 1135              		.loc 1 363 0
 1136 0596 0020     		movs	r0, #0
 1137 0598 0B21     		movs	r1, #11
 1138 059a FFF7FEFF 		bl	LCD_Position
 1139              	.LVL124:
 364:lcd_report.c  ****       LCD_Position(1u, 11u);
 1140              		.loc 1 364 0
 1141 059e 9948     		ldr	r0, .L134+24
 1142 05a0 FFF7FEFF 		bl	LCD_PrintString
 1143              	.LVL125:
 365:lcd_report.c  ****       LCD_PrintString(" Goto G28");
 1144              		.loc 1 365 0
 1145 05a4 0120     		movs	r0, #1
 1146 05a6 0B21     		movs	r1, #11
 1147 05a8 FFF7FEFF 		bl	LCD_Position
 1148              	.LVL126:
 366:lcd_report.c  ****       LCD_Position(2u, 11u);
 1149              		.loc 1 366 0
 1150 05ac 9648     		ldr	r0, .L134+28
 1151 05ae FFF7FEFF 		bl	LCD_PrintString
 1152              	.LVL127:
 367:lcd_report.c  ****       LCD_PrintString(" Goto G30");
 1153              		.loc 1 367 0
 1154 05b2 0220     		movs	r0, #2
 1155 05b4 0B21     		movs	r1, #11
 1156 05b6 FFF7FEFF 		bl	LCD_Position
 1157              	.LVL128:
 368:lcd_report.c  ****       LCD_Position(3u, 11u);
 1158              		.loc 1 368 0
 1159 05ba 9448     		ldr	r0, .L134+32
 1160 05bc FFF7FEFF 		bl	LCD_PrintString
 1161              	.LVL129:
 369:lcd_report.c  ****       LCD_PrintString(" SdCard ");
 1162              		.loc 1 369 0
 1163 05c0 0320     		movs	r0, #3
 1164 05c2 0B21     		movs	r1, #11
 1165 05c4 FFF7FEFF 		bl	LCD_Position
 1166              	.LVL130:
 370:lcd_report.c  ****       LCD_PutChar(LCD_CUSTOM_2);
 1167              		.loc 1 370 0
 1168 05c8 9148     		ldr	r0, .L134+36
 1169 05ca FFF7FEFF 		bl	LCD_PrintString
 1170              	.LVL131:
 371:lcd_report.c  ****         
 1171              		.loc 1 371 0
 1172 05ce 0220     		movs	r0, #2
 1173 05d0 FFF7FEFF 		bl	LCD_PutChar
 1174              	.LVL132:
 373:lcd_report.c  ****       }
 1175              		.loc 1 373 0
 1176 05d4 854B     		ldr	r3, .L134
 1177 05d6 DB78     		ldrb	r3, [r3, #3]	@ zero_extendqisi2
 1178 05d8 C3B9     		cbnz	r3, .L78
 376:lcd_report.c  ****         if  (lcd_cursor > lcd_cursor_max) lcd_cursor = lcd_cursor_max;
 1179              		.loc 1 376 0
 1180 05da FFF7FEFF 		bl	QuadDec_GetCounter
 1181              	.LVL133:
ARM GAS  C:\Users\Bart\AppData\Local\Temp\ccOIOErW.s 			page 36


 1182 05de C0B2     		uxtb	r0, r0
 1183 05e0 834B     		ldr	r3, .L134+4
 1184 05e2 5870     		strb	r0, [r3, #1]
 377:lcd_report.c  ****         if  (lcd_cursor < 0) lcd_cursor = 0;
 1185              		.loc 1 377 0
 1186 05e4 1B78     		ldrb	r3, [r3]	@ zero_extendqisi2
 1187 05e6 40B2     		sxtb	r0, r0
 1188 05e8 5AB2     		sxtb	r2, r3
 1189 05ea 9042     		cmp	r0, r2
 1190 05ec 01DD     		ble	.L79
 377:lcd_report.c  ****         if  (lcd_cursor < 0) lcd_cursor = 0;
 1191              		.loc 1 377 0 is_stmt 0 discriminator 1
 1192 05ee 804A     		ldr	r2, .L134+4
 1193 05f0 5370     		strb	r3, [r2, #1]
 1194              	.L79:
 378:lcd_report.c  ****         
 1195              		.loc 1 378 0 is_stmt 1
 1196 05f2 7F4B     		ldr	r3, .L134+4
 1197 05f4 93F90130 		ldrsb	r3, [r3, #1]
 1198 05f8 002B     		cmp	r3, #0
 1199 05fa 02DA     		bge	.L80
 378:lcd_report.c  ****         
 1200              		.loc 1 378 0 is_stmt 0 discriminator 1
 1201 05fc 0022     		movs	r2, #0
 1202 05fe 7C4B     		ldr	r3, .L134+4
 1203 0600 5A70     		strb	r2, [r3, #1]
 1204              	.L80:
 380:lcd_report.c  ****         
 1205              		.loc 1 380 0 is_stmt 1
 1206 0602 7B4B     		ldr	r3, .L134+4
 1207 0604 93F90100 		ldrsb	r0, [r3, #1]
 1208 0608 FFF7FEFF 		bl	QuadDec_SetCounter
 1209              	.LVL134:
 1210              	.L78:
 384:lcd_report.c  ****       {
 1211              		.loc 1 384 0
 1212 060c 784B     		ldr	r3, .L134+4
 1213 060e 93F90130 		ldrsb	r3, [r3, #1]
 1214 0612 072B     		cmp	r3, #7
 1215 0614 00F25182 		bhi	.L22
 1216 0618 DFE803F0 		tbb	[pc, r3]
 1217              	.L82:
 1218 061c 04       		.byte	(.L81-.L82)/2
 1219 061d 0C       		.byte	(.L83-.L82)/2
 1220 061e 14       		.byte	(.L84-.L82)/2
 1221 061f 1C       		.byte	(.L85-.L82)/2
 1222 0620 24       		.byte	(.L86-.L82)/2
 1223 0621 2C       		.byte	(.L87-.L82)/2
 1224 0622 34       		.byte	(.L88-.L82)/2
 1225 0623 3C       		.byte	(.L89-.L82)/2
 1226              		.p2align 1
 1227              	.L81:
 387:lcd_report.c  ****         LCD_PutChar(LCD_CUSTOM_0);
 1228              		.loc 1 387 0
 1229 0624 0020     		movs	r0, #0
 1230 0626 0146     		mov	r1, r0
 1231 0628 FFF7FEFF 		bl	LCD_Position
ARM GAS  C:\Users\Bart\AppData\Local\Temp\ccOIOErW.s 			page 37


 1232              	.LVL135:
 388:lcd_report.c  ****        break;
 1233              		.loc 1 388 0
 1234 062c 0020     		movs	r0, #0
 1235 062e FFF7FEFF 		bl	LCD_PutChar
 1236              	.LVL136:
 389:lcd_report.c  ****        case 1:
 1237              		.loc 1 389 0
 1238 0632 42E2     		b	.L22
 1239              	.L83:
 391:lcd_report.c  ****         LCD_PutChar(LCD_CUSTOM_0);
 1240              		.loc 1 391 0
 1241 0634 0120     		movs	r0, #1
 1242 0636 0021     		movs	r1, #0
 1243 0638 FFF7FEFF 		bl	LCD_Position
 1244              	.LVL137:
 392:lcd_report.c  ****        break; 
 1245              		.loc 1 392 0
 1246 063c 0020     		movs	r0, #0
 1247 063e FFF7FEFF 		bl	LCD_PutChar
 1248              	.LVL138:
 393:lcd_report.c  ****        case 2:
 1249              		.loc 1 393 0
 1250 0642 3AE2     		b	.L22
 1251              	.L84:
 395:lcd_report.c  ****         LCD_PutChar(LCD_CUSTOM_0);
 1252              		.loc 1 395 0
 1253 0644 0220     		movs	r0, #2
 1254 0646 0021     		movs	r1, #0
 1255 0648 FFF7FEFF 		bl	LCD_Position
 1256              	.LVL139:
 396:lcd_report.c  ****        break;
 1257              		.loc 1 396 0
 1258 064c 0020     		movs	r0, #0
 1259 064e FFF7FEFF 		bl	LCD_PutChar
 1260              	.LVL140:
 397:lcd_report.c  ****        case 3:
 1261              		.loc 1 397 0
 1262 0652 32E2     		b	.L22
 1263              	.L85:
 399:lcd_report.c  ****         LCD_PutChar(LCD_CUSTOM_0);
 1264              		.loc 1 399 0
 1265 0654 0320     		movs	r0, #3
 1266 0656 0021     		movs	r1, #0
 1267 0658 FFF7FEFF 		bl	LCD_Position
 1268              	.LVL141:
 400:lcd_report.c  ****        break;
 1269              		.loc 1 400 0
 1270 065c 0020     		movs	r0, #0
 1271 065e FFF7FEFF 		bl	LCD_PutChar
 1272              	.LVL142:
 401:lcd_report.c  ****        case 4:
 1273              		.loc 1 401 0
 1274 0662 2AE2     		b	.L22
 1275              	.L86:
 403:lcd_report.c  ****         LCD_PutChar(LCD_CUSTOM_0);
 1276              		.loc 1 403 0
ARM GAS  C:\Users\Bart\AppData\Local\Temp\ccOIOErW.s 			page 38


 1277 0664 0020     		movs	r0, #0
 1278 0666 0B21     		movs	r1, #11
 1279 0668 FFF7FEFF 		bl	LCD_Position
 1280              	.LVL143:
 404:lcd_report.c  ****        break;
 1281              		.loc 1 404 0
 1282 066c 0020     		movs	r0, #0
 1283 066e FFF7FEFF 		bl	LCD_PutChar
 1284              	.LVL144:
 405:lcd_report.c  ****        case 5:
 1285              		.loc 1 405 0
 1286 0672 22E2     		b	.L22
 1287              	.L87:
 407:lcd_report.c  ****         LCD_PutChar(LCD_CUSTOM_0);
 1288              		.loc 1 407 0
 1289 0674 0120     		movs	r0, #1
 1290 0676 0B21     		movs	r1, #11
 1291 0678 FFF7FEFF 		bl	LCD_Position
 1292              	.LVL145:
 408:lcd_report.c  ****        break;
 1293              		.loc 1 408 0
 1294 067c 0020     		movs	r0, #0
 1295 067e FFF7FEFF 		bl	LCD_PutChar
 1296              	.LVL146:
 409:lcd_report.c  ****        case 6:
 1297              		.loc 1 409 0
 1298 0682 1AE2     		b	.L22
 1299              	.L88:
 411:lcd_report.c  ****         LCD_PutChar(LCD_CUSTOM_0);
 1300              		.loc 1 411 0
 1301 0684 0220     		movs	r0, #2
 1302 0686 0B21     		movs	r1, #11
 1303 0688 FFF7FEFF 		bl	LCD_Position
 1304              	.LVL147:
 412:lcd_report.c  ****        break;
 1305              		.loc 1 412 0
 1306 068c 0020     		movs	r0, #0
 1307 068e FFF7FEFF 		bl	LCD_PutChar
 1308              	.LVL148:
 413:lcd_report.c  ****         case 7:
 1309              		.loc 1 413 0
 1310 0692 12E2     		b	.L22
 1311              	.L89:
 415:lcd_report.c  ****         LCD_PutChar(LCD_CUSTOM_0);
 1312              		.loc 1 415 0
 1313 0694 0320     		movs	r0, #3
 1314 0696 0B21     		movs	r1, #11
 1315 0698 FFF7FEFF 		bl	LCD_Position
 1316              	.LVL149:
 416:lcd_report.c  ****        break; 
 1317              		.loc 1 416 0
 1318 069c 0020     		movs	r0, #0
 1319 069e FFF7FEFF 		bl	LCD_PutChar
 1320              	.LVL150:
 417:lcd_report.c  ****       }
 1321              		.loc 1 417 0
 1322 06a2 0AE2     		b	.L22
ARM GAS  C:\Users\Bart\AppData\Local\Temp\ccOIOErW.s 			page 39


 1323              	.L27:
 424:lcd_report.c  ****         switch_clicked = false;
 1324              		.loc 1 424 0
 1325 06a4 514B     		ldr	r3, .L134
 1326 06a6 1B78     		ldrb	r3, [r3]	@ zero_extendqisi2
 1327 06a8 002B     		cmp	r3, #0
 1328 06aa 00F0CE80 		beq	.L90
 425:lcd_report.c  ****         switch (lcd_cursor)
 1329              		.loc 1 425 0
 1330 06ae 0022     		movs	r2, #0
 1331 06b0 4E4B     		ldr	r3, .L134
 1332 06b2 1A70     		strb	r2, [r3]
 426:lcd_report.c  ****         {
 1333              		.loc 1 426 0
 1334 06b4 4E4B     		ldr	r3, .L134+4
 1335 06b6 5878     		ldrb	r0, [r3, #1]	@ zero_extendqisi2
 1336 06b8 43B2     		sxtb	r3, r0
 1337 06ba 042B     		cmp	r3, #4
 1338 06bc 00F2BF80 		bhi	.L91
 1339 06c0 DFE803F0 		tbb	[pc, r3]
 1340              	.L93:
 1341 06c4 03       		.byte	(.L92-.L93)/2
 1342 06c5 09       		.byte	(.L94-.L93)/2
 1343 06c6 5C       		.byte	(.L95-.L93)/2
 1344 06c7 73       		.byte	(.L96-.L93)/2
 1345 06c8 85       		.byte	(.L97-.L93)/2
 1346 06c9 00       		.p2align 1
 1347              	.L92:
 429:lcd_report.c  ****             LCD_WriteControl(LCD_CLEAR_DISPLAY);
 1348              		.loc 1 429 0
 1349 06ca 0120     		movs	r0, #1
 1350 06cc 474B     		ldr	r3, .L134
 1351 06ce 5870     		strb	r0, [r3, #1]
 430:lcd_report.c  ****           break;
 1352              		.loc 1 430 0
 1353 06d0 FFF7FEFF 		bl	LCD_WriteControl
 1354              	.LVL151:
 431:lcd_report.c  ****             
 1355              		.loc 1 431 0
 1356 06d4 B3E0     		b	.L91
 1357              	.L94:
 434:lcd_report.c  ****             lcd_screen = MAIN_SCREEN;
 1358              		.loc 1 434 0
 1359 06d6 0120     		movs	r0, #1
 1360 06d8 FFF7FEFF 		bl	LCD_WriteControl
 1361              	.LVL152:
 435:lcd_report.c  ****             strcpy(line, "G91G38.2Z-");
 1362              		.loc 1 435 0
 1363 06dc 0025     		movs	r5, #0
 1364 06de 434B     		ldr	r3, .L134
 1365 06e0 5D70     		strb	r5, [r3, #1]
 436:lcd_report.c  ****             sprintf(fstr, "%d", lcd_probe_dist);
 1366              		.loc 1 436 0
 1367 06e2 09AC     		add	r4, sp, #36
 1368 06e4 4B4A     		ldr	r2, .L134+40
 1369 06e6 2346     		mov	r3, r4
 1370 06e8 07CA     		ldmia	r2, {r0, r1, r2}
ARM GAS  C:\Users\Bart\AppData\Local\Temp\ccOIOErW.s 			page 40


 1371 06ea 03C3     		stmia	r3!, {r0, r1}
 1372 06ec 23F8022B 		strh	r2, [r3], #2	@ movhi
 1373 06f0 120C     		lsrs	r2, r2, #16
 1374 06f2 1A70     		strb	r2, [r3]
 437:lcd_report.c  ****             strcat(line, fstr);
 1375              		.loc 1 437 0
 1376 06f4 484F     		ldr	r7, .L134+44
 1377 06f6 3E4E     		ldr	r6, .L134+4
 1378 06f8 0EA8     		add	r0, sp, #56
 1379 06fa 3946     		mov	r1, r7
 1380 06fc B6F90620 		ldrsh	r2, [r6, #6]
 1381 0700 FFF7FEFF 		bl	sprintf
 1382              	.LVL153:
 438:lcd_report.c  ****             strcat(line, "F");
 1383              		.loc 1 438 0
 1384 0704 2046     		mov	r0, r4
 1385 0706 0EA9     		add	r1, sp, #56
 1386 0708 FFF7FEFF 		bl	strcat
 1387              	.LVL154:
 439:lcd_report.c  ****             sprintf(fstr, "%d", lcd_probe_rate);
 1388              		.loc 1 439 0
 1389 070c 2046     		mov	r0, r4
 1390 070e FFF7FEFF 		bl	strlen
 1391              	.LVL155:
 1392 0712 424B     		ldr	r3, .L134+48
 1393 0714 1B88     		ldrh	r3, [r3]	@ unaligned
 1394 0716 2352     		strh	r3, [r4, r0]	@ unaligned
 440:lcd_report.c  ****             strcat(line, fstr);
 1395              		.loc 1 440 0
 1396 0718 0EA8     		add	r0, sp, #56
 1397 071a 3946     		mov	r1, r7
 1398 071c B6F90820 		ldrsh	r2, [r6, #8]
 1399 0720 FFF7FEFF 		bl	sprintf
 1400              	.LVL156:
 441:lcd_report.c  ****             gc_execute_line(line);
 1401              		.loc 1 441 0
 1402 0724 2046     		mov	r0, r4
 1403 0726 0EA9     		add	r1, sp, #56
 1404 0728 FFF7FEFF 		bl	strcat
 1405              	.LVL157:
 442:lcd_report.c  ****             LCD_Position(3u, 0u);
 1406              		.loc 1 442 0
 1407 072c 2046     		mov	r0, r4
 1408 072e FFF7FEFF 		bl	gc_execute_line
 1409              	.LVL158:
 443:lcd_report.c  ****             if (sys.probe_succeeded == false) {
 1410              		.loc 1 443 0
 1411 0732 0320     		movs	r0, #3
 1412 0734 2946     		mov	r1, r5
 1413 0736 FFF7FEFF 		bl	LCD_Position
 1414              	.LVL159:
 444:lcd_report.c  ****               // TO DO Not sure if this works
 1415              		.loc 1 444 0
 1416 073a 394B     		ldr	r3, .L134+52
 1417 073c 5B79     		ldrb	r3, [r3, #5]	@ zero_extendqisi2
 1418 073e 1BB9     		cbnz	r3, .L98
 446:lcd_report.c  ****             }
ARM GAS  C:\Users\Bart\AppData\Local\Temp\ccOIOErW.s 			page 41


 1419              		.loc 1 446 0
 1420 0740 3848     		ldr	r0, .L134+56
 1421 0742 FFF7FEFF 		bl	LCD_PrintString
 1422              	.LVL160:
 1423 0746 7AE0     		b	.L91
 1424              	.L98:
 450:lcd_report.c  ****               sprintf(fstr, "%2.2f", lcd_probe_thickness);
 1425              		.loc 1 450 0
 1426 0748 3748     		ldr	r0, .L134+60
 1427 074a FFF7FEFF 		bl	LCD_PrintString
 1428              	.LVL161:
 451:lcd_report.c  ****               strcpy(line, "G10L20P0Z");
 1429              		.loc 1 451 0
 1430 074e 284B     		ldr	r3, .L134+4
 1431 0750 D868     		ldr	r0, [r3, #12]	@ float
 1432 0752 FFF7FEFF 		bl	__aeabi_f2d
 1433              	.LVL162:
 1434 0756 0246     		mov	r2, r0
 1435 0758 0B46     		mov	r3, r1
 1436 075a 0EA8     		add	r0, sp, #56
 1437 075c 3349     		ldr	r1, .L134+64
 1438 075e FFF7FEFF 		bl	sprintf
 1439              	.LVL163:
 452:lcd_report.c  ****               strcat(line, fstr);
 1440              		.loc 1 452 0
 1441 0762 334A     		ldr	r2, .L134+68
 1442 0764 09AB     		add	r3, sp, #36
 1443 0766 07CA     		ldmia	r2, {r0, r1, r2}
 1444 0768 03C3     		stmia	r3!, {r0, r1}
 1445 076a 1A80     		strh	r2, [r3]	@ movhi
 453:lcd_report.c  ****               gc_execute_line(line);
 1446              		.loc 1 453 0
 1447 076c 09A8     		add	r0, sp, #36
 1448 076e 0EA9     		add	r1, sp, #56
 1449 0770 FFF7FEFF 		bl	strcat
 1450              	.LVL164:
 454:lcd_report.c  ****               
 1451              		.loc 1 454 0
 1452 0774 09A8     		add	r0, sp, #36
 1453 0776 FFF7FEFF 		bl	gc_execute_line
 1454              	.LVL165:
 1455 077a 60E0     		b	.L91
 1456              	.L95:
 460:lcd_report.c  ****             if (menu_item_selected)
 1457              		.loc 1 460 0
 1458 077c 1B4A     		ldr	r2, .L134
 1459 077e 92F90330 		ldrsb	r3, [r2, #3]
 1460 0782 B3FA83F3 		clz	r3, r3
 1461 0786 5B09     		lsrs	r3, r3, #5
 1462 0788 D370     		strb	r3, [r2, #3]
 461:lcd_report.c  ****                 QuadDec_SetCounter(lcd_probe_thickness * LCD_PROBE_MULT);
 1463              		.loc 1 461 0
 1464 078a 53B1     		cbz	r3, .L99
 462:lcd_report.c  ****               else
 1465              		.loc 1 462 0
 1466 078c 184B     		ldr	r3, .L134+4
 1467 078e D868     		ldr	r0, [r3, #12]	@ float
ARM GAS  C:\Users\Bart\AppData\Local\Temp\ccOIOErW.s 			page 42


 1468 0790 2849     		ldr	r1, .L134+72
 1469 0792 FFF7FEFF 		bl	__aeabi_fmul
 1470              	.LVL166:
 1471 0796 FFF7FEFF 		bl	__aeabi_f2iz
 1472              	.LVL167:
 1473 079a 00B2     		sxth	r0, r0
 1474 079c FFF7FEFF 		bl	QuadDec_SetCounter
 1475              	.LVL168:
 1476 07a0 4DE0     		b	.L91
 1477              	.L99:
 464:lcd_report.c  ****           break;  
 1478              		.loc 1 464 0
 1479 07a2 40B2     		sxtb	r0, r0
 1480 07a4 FFF7FEFF 		bl	QuadDec_SetCounter
 1481              	.LVL169:
 1482 07a8 49E0     		b	.L91
 1483              	.L96:
 468:lcd_report.c  ****             if (menu_item_selected)
 1484              		.loc 1 468 0
 1485 07aa 104A     		ldr	r2, .L134
 1486 07ac 92F90330 		ldrsb	r3, [r2, #3]
 1487 07b0 B3FA83F3 		clz	r3, r3
 1488 07b4 5B09     		lsrs	r3, r3, #5
 1489 07b6 D370     		strb	r3, [r2, #3]
 469:lcd_report.c  ****                 QuadDec_SetCounter(lcd_probe_rate);
 1490              		.loc 1 469 0
 1491 07b8 2BB1     		cbz	r3, .L100
 470:lcd_report.c  ****               else
 1492              		.loc 1 470 0
 1493 07ba 0D4B     		ldr	r3, .L134+4
 1494 07bc B3F90800 		ldrsh	r0, [r3, #8]
 1495 07c0 FFF7FEFF 		bl	QuadDec_SetCounter
 1496              	.LVL170:
 1497 07c4 3BE0     		b	.L91
 1498              	.L100:
 472:lcd_report.c  ****           break;
 1499              		.loc 1 472 0
 1500 07c6 40B2     		sxtb	r0, r0
 1501 07c8 FFF7FEFF 		bl	QuadDec_SetCounter
 1502              	.LVL171:
 1503 07cc 37E0     		b	.L91
 1504              	.L97:
 476:lcd_report.c  ****             if (menu_item_selected)
 1505              		.loc 1 476 0
 1506 07ce 074A     		ldr	r2, .L134
 1507 07d0 92F90330 		ldrsb	r3, [r2, #3]
 1508 07d4 B3FA83F3 		clz	r3, r3
 1509 07d8 5B09     		lsrs	r3, r3, #5
 1510 07da D370     		strb	r3, [r2, #3]
 477:lcd_report.c  ****                 QuadDec_SetCounter(lcd_probe_dist);
 1511              		.loc 1 477 0
 1512 07dc 63B3     		cbz	r3, .L101
 478:lcd_report.c  ****               else
 1513              		.loc 1 478 0
 1514 07de 044B     		ldr	r3, .L134+4
 1515 07e0 B3F90600 		ldrsh	r0, [r3, #6]
 1516 07e4 FFF7FEFF 		bl	QuadDec_SetCounter
ARM GAS  C:\Users\Bart\AppData\Local\Temp\ccOIOErW.s 			page 43


 1517              	.LVL172:
 1518 07e8 29E0     		b	.L91
 1519              	.L135:
 1520 07ea 00BF     		.align	2
 1521              	.L134:
 1522 07ec 00000000 		.word	.LANCHOR0
 1523 07f0 00000000 		.word	.LANCHOR1
 1524 07f4 80000000 		.word	.LC21
 1525 07f8 88000000 		.word	.LC22
 1526 07fc 94000000 		.word	.LC23
 1527 0800 A0000000 		.word	.LC24
 1528 0804 AC000000 		.word	.LC25
 1529 0808 B8000000 		.word	.LC26
 1530 080c C4000000 		.word	.LC27
 1531 0810 D0000000 		.word	.LC28
 1532 0814 DC000000 		.word	.LC29
 1533 0818 E8000000 		.word	.LC30
 1534 081c EC000000 		.word	.LC31
 1535 0820 00000000 		.word	sys
 1536 0824 F0000000 		.word	.LC32
 1537 0828 F8000000 		.word	.LC33
 1538 082c 00010000 		.word	.LC34
 1539 0830 08010000 		.word	.LC35
 1540 0834 0000C842 		.word	1120403456
 1541              	.L101:
 480:lcd_report.c  ****           break;            
 1542              		.loc 1 480 0
 1543 0838 40B2     		sxtb	r0, r0
 1544 083a FFF7FEFF 		bl	QuadDec_SetCounter
 1545              	.LVL173:
 1546              	.L91:
 483:lcd_report.c  ****       }
 1547              		.loc 1 483 0
 1548 083e A04B     		ldr	r3, .L136
 1549 0840 93F90130 		ldrsb	r3, [r3, #1]
 1550 0844 022B     		cmp	r3, #2
 1551 0846 40F03881 		bne	.L22
 1552              	.L90:
 486:lcd_report.c  ****       LCD_PrintString(" Back ");
 1553              		.loc 1 486 0
 1554 084a 0020     		movs	r0, #0
 1555 084c 0146     		mov	r1, r0
 1556 084e FFF7FEFF 		bl	LCD_Position
 1557              	.LVL174:
 487:lcd_report.c  ****       LCD_PutChar(LCD_CUSTOM_3);
 1558              		.loc 1 487 0
 1559 0852 9C48     		ldr	r0, .L136+4
 1560 0854 FFF7FEFF 		bl	LCD_PrintString
 1561              	.LVL175:
 488:lcd_report.c  ****       
 1562              		.loc 1 488 0
 1563 0858 0320     		movs	r0, #3
 1564 085a FFF7FEFF 		bl	LCD_PutChar
 1565              	.LVL176:
 490:lcd_report.c  ****       LCD_PrintString(" Begin Probe"); 
 1566              		.loc 1 490 0
 1567 085e 0020     		movs	r0, #0
ARM GAS  C:\Users\Bart\AppData\Local\Temp\ccOIOErW.s 			page 44


 1568 0860 0821     		movs	r1, #8
 1569 0862 FFF7FEFF 		bl	LCD_Position
 1570              	.LVL177:
 491:lcd_report.c  ****       
 1571              		.loc 1 491 0
 1572 0866 9848     		ldr	r0, .L136+8
 1573 0868 FFF7FEFF 		bl	LCD_PrintString
 1574              	.LVL178:
 493:lcd_report.c  ****       LCD_PrintString(" Thick:");
 1575              		.loc 1 493 0
 1576 086c 0120     		movs	r0, #1
 1577 086e 0821     		movs	r1, #8
 1578 0870 FFF7FEFF 		bl	LCD_Position
 1579              	.LVL179:
 494:lcd_report.c  ****       sprintf(fstr, "%2.2f", lcd_probe_thickness ); 
 1580              		.loc 1 494 0
 1581 0874 9548     		ldr	r0, .L136+12
 1582 0876 FFF7FEFF 		bl	LCD_PrintString
 1583              	.LVL180:
 495:lcd_report.c  ****       LCD_PrintString(fstr);
 1584              		.loc 1 495 0
 1585 087a 954C     		ldr	r4, .L136+16
 1586 087c E068     		ldr	r0, [r4, #12]	@ float
 1587 087e FFF7FEFF 		bl	__aeabi_f2d
 1588              	.LVL181:
 1589 0882 0246     		mov	r2, r0
 1590 0884 0B46     		mov	r3, r1
 1591 0886 0EA8     		add	r0, sp, #56
 1592 0888 9249     		ldr	r1, .L136+20
 1593 088a FFF7FEFF 		bl	sprintf
 1594              	.LVL182:
 496:lcd_report.c  ****       
 1595              		.loc 1 496 0
 1596 088e 0EA8     		add	r0, sp, #56
 1597 0890 FFF7FEFF 		bl	LCD_PrintString
 1598              	.LVL183:
 498:lcd_report.c  ****       LCD_PrintString(" Rate:");
 1599              		.loc 1 498 0
 1600 0894 0220     		movs	r0, #2
 1601 0896 0821     		movs	r1, #8
 1602 0898 FFF7FEFF 		bl	LCD_Position
 1603              	.LVL184:
 499:lcd_report.c  ****       sprintf(fstr, "%6d", lcd_probe_rate ); 
 1604              		.loc 1 499 0
 1605 089c 8E48     		ldr	r0, .L136+24
 1606 089e FFF7FEFF 		bl	LCD_PrintString
 1607              	.LVL185:
 500:lcd_report.c  ****       LCD_PrintString(fstr);
 1608              		.loc 1 500 0
 1609 08a2 8E4D     		ldr	r5, .L136+28
 1610 08a4 0EA8     		add	r0, sp, #56
 1611 08a6 2946     		mov	r1, r5
 1612 08a8 B4F90820 		ldrsh	r2, [r4, #8]
 1613 08ac FFF7FEFF 		bl	sprintf
 1614              	.LVL186:
 501:lcd_report.c  ****       
 1615              		.loc 1 501 0
ARM GAS  C:\Users\Bart\AppData\Local\Temp\ccOIOErW.s 			page 45


 1616 08b0 0EA8     		add	r0, sp, #56
 1617 08b2 FFF7FEFF 		bl	LCD_PrintString
 1618              	.LVL187:
 503:lcd_report.c  ****       LCD_PrintString(" Dist:");
 1619              		.loc 1 503 0
 1620 08b6 0320     		movs	r0, #3
 1621 08b8 0821     		movs	r1, #8
 1622 08ba FFF7FEFF 		bl	LCD_Position
 1623              	.LVL188:
 504:lcd_report.c  ****       sprintf(fstr, "%6d", lcd_probe_dist ); 
 1624              		.loc 1 504 0
 1625 08be 8848     		ldr	r0, .L136+32
 1626 08c0 FFF7FEFF 		bl	LCD_PrintString
 1627              	.LVL189:
 505:lcd_report.c  ****       LCD_PrintString(fstr);
 1628              		.loc 1 505 0
 1629 08c4 0EA8     		add	r0, sp, #56
 1630 08c6 2946     		mov	r1, r5
 1631 08c8 B4F90620 		ldrsh	r2, [r4, #6]
 1632 08cc FFF7FEFF 		bl	sprintf
 1633              	.LVL190:
 506:lcd_report.c  ****      
 1634              		.loc 1 506 0
 1635 08d0 0EA8     		add	r0, sp, #56
 1636 08d2 FFF7FEFF 		bl	LCD_PrintString
 1637              	.LVL191:
 508:lcd_report.c  ****       }
 1638              		.loc 1 508 0
 1639 08d6 7A4B     		ldr	r3, .L136
 1640 08d8 DB78     		ldrb	r3, [r3, #3]	@ zero_extendqisi2
 1641 08da B3B9     		cbnz	r3, .L102
 511:lcd_report.c  ****         if  (lcd_cursor > lcd_cursor_max) lcd_cursor = lcd_cursor_max;
 1642              		.loc 1 511 0
 1643 08dc FFF7FEFF 		bl	QuadDec_GetCounter
 1644              	.LVL192:
 1645 08e0 C0B2     		uxtb	r0, r0
 1646 08e2 6070     		strb	r0, [r4, #1]
 512:lcd_report.c  ****         if  (lcd_cursor < 0) lcd_cursor = 0;
 1647              		.loc 1 512 0
 1648 08e4 2378     		ldrb	r3, [r4]	@ zero_extendqisi2
 1649 08e6 40B2     		sxtb	r0, r0
 1650 08e8 5AB2     		sxtb	r2, r3
 1651 08ea 9042     		cmp	r0, r2
 1652 08ec 00DD     		ble	.L103
 512:lcd_report.c  ****         if  (lcd_cursor < 0) lcd_cursor = 0;
 1653              		.loc 1 512 0 is_stmt 0 discriminator 1
 1654 08ee 6370     		strb	r3, [r4, #1]
 1655              	.L103:
 513:lcd_report.c  ****         
 1656              		.loc 1 513 0 is_stmt 1
 1657 08f0 774B     		ldr	r3, .L136+16
 1658 08f2 93F90130 		ldrsb	r3, [r3, #1]
 1659 08f6 002B     		cmp	r3, #0
 1660 08f8 02DA     		bge	.L104
 513:lcd_report.c  ****         
 1661              		.loc 1 513 0 is_stmt 0 discriminator 1
 1662 08fa 0022     		movs	r2, #0
ARM GAS  C:\Users\Bart\AppData\Local\Temp\ccOIOErW.s 			page 46


 1663 08fc 744B     		ldr	r3, .L136+16
 1664 08fe 5A70     		strb	r2, [r3, #1]
 1665              	.L104:
 515:lcd_report.c  ****         
 1666              		.loc 1 515 0 is_stmt 1
 1667 0900 734B     		ldr	r3, .L136+16
 1668 0902 93F90100 		ldrsb	r0, [r3, #1]
 1669 0906 FFF7FEFF 		bl	QuadDec_SetCounter
 1670              	.LVL193:
 1671              	.L102:
 519:lcd_report.c  ****         switch (lcd_cursor) {
 1672              		.loc 1 519 0
 1673 090a 6D4B     		ldr	r3, .L136
 1674 090c DB78     		ldrb	r3, [r3, #3]	@ zero_extendqisi2
 1675 090e 002B     		cmp	r3, #0
 1676 0910 58D0     		beq	.L105
 520:lcd_report.c  ****          case MENU_ITEM_PRB_THICK:
 1677              		.loc 1 520 0
 1678 0912 6F4B     		ldr	r3, .L136+16
 1679 0914 93F90130 		ldrsb	r3, [r3, #1]
 1680 0918 032B     		cmp	r3, #3
 1681 091a 27D0     		beq	.L107
 1682 091c 042B     		cmp	r3, #4
 1683 091e 3BD0     		beq	.L108
 1684 0920 022B     		cmp	r3, #2
 1685 0922 68D1     		bne	.L106
 522:lcd_report.c  ****           if (lcd_probe_thickness > LCD_PRB_THICK_MAX) lcd_probe_thickness = LCD_PRB_THICK_MAX;
 1686              		.loc 1 522 0
 1687 0924 FFF7FEFF 		bl	QuadDec_GetCounter
 1688              	.LVL194:
 1689 0928 FFF7FEFF 		bl	__aeabi_i2f
 1690              	.LVL195:
 1691 092c 6D49     		ldr	r1, .L136+36
 1692 092e FFF7FEFF 		bl	__aeabi_fdiv
 1693              	.LVL196:
 1694 0932 674B     		ldr	r3, .L136+16
 1695 0934 D860     		str	r0, [r3, #12]	@ float
 523:lcd_report.c  ****           if (lcd_probe_thickness < LCD_PRB_THICK_MIN) lcd_probe_thickness = LCD_PRB_THICK_MIN;
 1696              		.loc 1 523 0
 1697 0936 6C49     		ldr	r1, .L136+40
 1698 0938 FFF7FEFF 		bl	__aeabi_fcmpgt
 1699              	.LVL197:
 1700 093c 10B1     		cbz	r0, .L110
 523:lcd_report.c  ****           if (lcd_probe_thickness < LCD_PRB_THICK_MIN) lcd_probe_thickness = LCD_PRB_THICK_MIN;
 1701              		.loc 1 523 0 is_stmt 0 discriminator 1
 1702 093e 6A4A     		ldr	r2, .L136+40
 1703 0940 634B     		ldr	r3, .L136+16
 1704 0942 DA60     		str	r2, [r3, #12]	@ float
 1705              	.L110:
 524:lcd_report.c  ****           QuadDec_SetCounter(lcd_probe_thickness * LCD_PROBE_MULT);
 1706              		.loc 1 524 0 is_stmt 1
 1707 0944 624B     		ldr	r3, .L136+16
 1708 0946 D868     		ldr	r0, [r3, #12]	@ float
 1709 0948 6849     		ldr	r1, .L136+44
 1710 094a FFF7FEFF 		bl	__aeabi_fcmplt
 1711              	.LVL198:
 1712 094e 10B1     		cbz	r0, .L112
ARM GAS  C:\Users\Bart\AppData\Local\Temp\ccOIOErW.s 			page 47


 524:lcd_report.c  ****           QuadDec_SetCounter(lcd_probe_thickness * LCD_PROBE_MULT);
 1713              		.loc 1 524 0 is_stmt 0 discriminator 1
 1714 0950 664A     		ldr	r2, .L136+44
 1715 0952 5F4B     		ldr	r3, .L136+16
 1716 0954 DA60     		str	r2, [r3, #12]	@ float
 1717              	.L112:
 525:lcd_report.c  ****          break;
 1718              		.loc 1 525 0 is_stmt 1
 1719 0956 5E4B     		ldr	r3, .L136+16
 1720 0958 D868     		ldr	r0, [r3, #12]	@ float
 1721 095a 6249     		ldr	r1, .L136+36
 1722 095c FFF7FEFF 		bl	__aeabi_fmul
 1723              	.LVL199:
 1724 0960 FFF7FEFF 		bl	__aeabi_f2iz
 1725              	.LVL200:
 1726 0964 00B2     		sxth	r0, r0
 1727 0966 FFF7FEFF 		bl	QuadDec_SetCounter
 1728              	.LVL201:
 526:lcd_report.c  ****          case MENU_ITEM_PRB_RATE:
 1729              		.loc 1 526 0
 1730 096a 44E0     		b	.L106
 1731              	.L107:
 528:lcd_report.c  ****           if (lcd_probe_rate > LCD_PRB_RATE_MAX) lcd_probe_rate = LCD_PRB_RATE_MAX;
 1732              		.loc 1 528 0
 1733 096c FFF7FEFF 		bl	QuadDec_GetCounter
 1734              	.LVL202:
 1735 0970 574B     		ldr	r3, .L136+16
 1736 0972 1881     		strh	r0, [r3, #8]	@ movhi
 529:lcd_report.c  ****           if (lcd_probe_rate < LCD_PRB_RATE_MIN) lcd_probe_rate = LCD_PRB_RATE_MIN;
 1737              		.loc 1 529 0
 1738 0974 C828     		cmp	r0, #200
 1739 0976 01DD     		ble	.L114
 529:lcd_report.c  ****           if (lcd_probe_rate < LCD_PRB_RATE_MIN) lcd_probe_rate = LCD_PRB_RATE_MIN;
 1740              		.loc 1 529 0 is_stmt 0 discriminator 1
 1741 0978 C822     		movs	r2, #200
 1742 097a 1A81     		strh	r2, [r3, #8]	@ movhi
 1743              	.L114:
 530:lcd_report.c  ****           QuadDec_SetCounter(lcd_probe_rate);
 1744              		.loc 1 530 0 is_stmt 1
 1745 097c 544B     		ldr	r3, .L136+16
 1746 097e B3F90830 		ldrsh	r3, [r3, #8]
 1747 0982 132B     		cmp	r3, #19
 1748 0984 02DC     		bgt	.L115
 530:lcd_report.c  ****           QuadDec_SetCounter(lcd_probe_rate);
 1749              		.loc 1 530 0 is_stmt 0 discriminator 1
 1750 0986 1422     		movs	r2, #20
 1751 0988 514B     		ldr	r3, .L136+16
 1752 098a 1A81     		strh	r2, [r3, #8]	@ movhi
 1753              	.L115:
 531:lcd_report.c  ****          break;
 1754              		.loc 1 531 0 is_stmt 1
 1755 098c 504B     		ldr	r3, .L136+16
 1756 098e B3F90800 		ldrsh	r0, [r3, #8]
 1757 0992 FFF7FEFF 		bl	QuadDec_SetCounter
 1758              	.LVL203:
 532:lcd_report.c  ****          case MENU_ITEM_PRB_DIST:
 1759              		.loc 1 532 0
ARM GAS  C:\Users\Bart\AppData\Local\Temp\ccOIOErW.s 			page 48


 1760 0996 2EE0     		b	.L106
 1761              	.L108:
 534:lcd_report.c  ****           if (lcd_probe_dist > LCD_PRB_DIST_MAX) lcd_probe_dist = LCD_PRB_DIST_MAX;
 1762              		.loc 1 534 0
 1763 0998 FFF7FEFF 		bl	QuadDec_GetCounter
 1764              	.LVL204:
 1765 099c 4C4B     		ldr	r3, .L136+16
 1766 099e D880     		strh	r0, [r3, #6]	@ movhi
 535:lcd_report.c  ****           if (lcd_probe_dist < LCD_PRB_DIST_MIN) lcd_probe_dist = LCD_PRB_DIST_MIN;
 1767              		.loc 1 535 0
 1768 09a0 C828     		cmp	r0, #200
 1769 09a2 01DD     		ble	.L116
 535:lcd_report.c  ****           if (lcd_probe_dist < LCD_PRB_DIST_MIN) lcd_probe_dist = LCD_PRB_DIST_MIN;
 1770              		.loc 1 535 0 is_stmt 0 discriminator 1
 1771 09a4 C822     		movs	r2, #200
 1772 09a6 DA80     		strh	r2, [r3, #6]	@ movhi
 1773              	.L116:
 536:lcd_report.c  ****           QuadDec_SetCounter(lcd_probe_dist);
 1774              		.loc 1 536 0 is_stmt 1
 1775 09a8 494B     		ldr	r3, .L136+16
 1776 09aa B3F90630 		ldrsh	r3, [r3, #6]
 1777 09ae 132B     		cmp	r3, #19
 1778 09b0 02DC     		bgt	.L117
 536:lcd_report.c  ****           QuadDec_SetCounter(lcd_probe_dist);
 1779              		.loc 1 536 0 is_stmt 0 discriminator 1
 1780 09b2 1422     		movs	r2, #20
 1781 09b4 464B     		ldr	r3, .L136+16
 1782 09b6 DA80     		strh	r2, [r3, #6]	@ movhi
 1783              	.L117:
 537:lcd_report.c  ****          break; 
 1784              		.loc 1 537 0 is_stmt 1
 1785 09b8 454B     		ldr	r3, .L136+16
 1786 09ba B3F90600 		ldrsh	r0, [r3, #6]
 1787 09be FFF7FEFF 		bl	QuadDec_SetCounter
 1788              	.LVL205:
 538:lcd_report.c  ****           
 1789              		.loc 1 538 0
 1790 09c2 18E0     		b	.L106
 1791              	.L105:
 543:lcd_report.c  ****         if  (lcd_cursor > lcd_cursor_max) lcd_cursor = lcd_cursor_max;
 1792              		.loc 1 543 0
 1793 09c4 FFF7FEFF 		bl	QuadDec_GetCounter
 1794              	.LVL206:
 1795 09c8 C0B2     		uxtb	r0, r0
 1796 09ca 414B     		ldr	r3, .L136+16
 1797 09cc 5870     		strb	r0, [r3, #1]
 544:lcd_report.c  ****         if  (lcd_cursor < 0) lcd_cursor = 0;
 1798              		.loc 1 544 0
 1799 09ce 1B78     		ldrb	r3, [r3]	@ zero_extendqisi2
 1800 09d0 40B2     		sxtb	r0, r0
 1801 09d2 5AB2     		sxtb	r2, r3
 1802 09d4 9042     		cmp	r0, r2
 1803 09d6 01DD     		ble	.L118
 544:lcd_report.c  ****         if  (lcd_cursor < 0) lcd_cursor = 0;
 1804              		.loc 1 544 0 is_stmt 0 discriminator 1
 1805 09d8 3D4A     		ldr	r2, .L136+16
 1806 09da 5370     		strb	r3, [r2, #1]
ARM GAS  C:\Users\Bart\AppData\Local\Temp\ccOIOErW.s 			page 49


 1807              	.L118:
 545:lcd_report.c  ****         
 1808              		.loc 1 545 0 is_stmt 1
 1809 09dc 3C4B     		ldr	r3, .L136+16
 1810 09de 93F90130 		ldrsb	r3, [r3, #1]
 1811 09e2 002B     		cmp	r3, #0
 1812 09e4 02DA     		bge	.L119
 545:lcd_report.c  ****         
 1813              		.loc 1 545 0 is_stmt 0 discriminator 1
 1814 09e6 0022     		movs	r2, #0
 1815 09e8 394B     		ldr	r3, .L136+16
 1816 09ea 5A70     		strb	r2, [r3, #1]
 1817              	.L119:
 547:lcd_report.c  ****       }
 1818              		.loc 1 547 0 is_stmt 1
 1819 09ec 384B     		ldr	r3, .L136+16
 1820 09ee 93F90100 		ldrsb	r0, [r3, #1]
 1821 09f2 FFF7FEFF 		bl	QuadDec_SetCounter
 1822              	.LVL207:
 1823              	.L106:
 550:lcd_report.c  ****       {
 1824              		.loc 1 550 0
 1825 09f6 364B     		ldr	r3, .L136+16
 1826 09f8 93F90130 		ldrsb	r3, [r3, #1]
 1827 09fc 042B     		cmp	r3, #4
 1828 09fe 5CD8     		bhi	.L22
 1829 0a00 DFE803F0 		tbb	[pc, r3]
 1830              	.L121:
 1831 0a04 03       		.byte	(.L120-.L121)/2
 1832 0a05 0B       		.byte	(.L122-.L121)/2
 1833 0a06 13       		.byte	(.L123-.L121)/2
 1834 0a07 1B       		.byte	(.L124-.L121)/2
 1835 0a08 23       		.byte	(.L125-.L121)/2
 1836 0a09 00       		.p2align 1
 1837              	.L120:
 553:lcd_report.c  ****         LCD_PutChar(LCD_CUSTOM_0);
 1838              		.loc 1 553 0
 1839 0a0a 0020     		movs	r0, #0
 1840 0a0c 0146     		mov	r1, r0
 1841 0a0e FFF7FEFF 		bl	LCD_Position
 1842              	.LVL208:
 554:lcd_report.c  ****        break;
 1843              		.loc 1 554 0
 1844 0a12 0020     		movs	r0, #0
 1845 0a14 FFF7FEFF 		bl	LCD_PutChar
 1846              	.LVL209:
 555:lcd_report.c  ****        case 1:
 1847              		.loc 1 555 0
 1848 0a18 4FE0     		b	.L22
 1849              	.L122:
 557:lcd_report.c  ****         LCD_PutChar(LCD_CUSTOM_0);
 1850              		.loc 1 557 0
 1851 0a1a 0020     		movs	r0, #0
 1852 0a1c 0821     		movs	r1, #8
 1853 0a1e FFF7FEFF 		bl	LCD_Position
 1854              	.LVL210:
 558:lcd_report.c  ****        break; 
ARM GAS  C:\Users\Bart\AppData\Local\Temp\ccOIOErW.s 			page 50


 1855              		.loc 1 558 0
 1856 0a22 0020     		movs	r0, #0
 1857 0a24 FFF7FEFF 		bl	LCD_PutChar
 1858              	.LVL211:
 559:lcd_report.c  ****        case 2:
 1859              		.loc 1 559 0
 1860 0a28 47E0     		b	.L22
 1861              	.L123:
 561:lcd_report.c  ****         LCD_PutChar(LCD_CUSTOM_0);
 1862              		.loc 1 561 0
 1863 0a2a 0120     		movs	r0, #1
 1864 0a2c 0821     		movs	r1, #8
 1865 0a2e FFF7FEFF 		bl	LCD_Position
 1866              	.LVL212:
 562:lcd_report.c  ****        break;
 1867              		.loc 1 562 0
 1868 0a32 0020     		movs	r0, #0
 1869 0a34 FFF7FEFF 		bl	LCD_PutChar
 1870              	.LVL213:
 563:lcd_report.c  ****        case 3:
 1871              		.loc 1 563 0
 1872 0a38 3FE0     		b	.L22
 1873              	.L124:
 565:lcd_report.c  ****         LCD_PutChar(LCD_CUSTOM_0);
 1874              		.loc 1 565 0
 1875 0a3a 0220     		movs	r0, #2
 1876 0a3c 0821     		movs	r1, #8
 1877 0a3e FFF7FEFF 		bl	LCD_Position
 1878              	.LVL214:
 566:lcd_report.c  ****        break;
 1879              		.loc 1 566 0
 1880 0a42 0020     		movs	r0, #0
 1881 0a44 FFF7FEFF 		bl	LCD_PutChar
 1882              	.LVL215:
 567:lcd_report.c  ****        case 4:
 1883              		.loc 1 567 0
 1884 0a48 37E0     		b	.L22
 1885              	.L125:
 569:lcd_report.c  ****         LCD_PutChar(LCD_CUSTOM_0);
 1886              		.loc 1 569 0
 1887 0a4a 0320     		movs	r0, #3
 1888 0a4c 0821     		movs	r1, #8
 1889 0a4e FFF7FEFF 		bl	LCD_Position
 1890              	.LVL216:
 570:lcd_report.c  ****        break;       
 1891              		.loc 1 570 0
 1892 0a52 0020     		movs	r0, #0
 1893 0a54 FFF7FEFF 		bl	LCD_PutChar
 1894              	.LVL217:
 571:lcd_report.c  ****       }
 1895              		.loc 1 571 0
 1896 0a58 2FE0     		b	.L22
 1897              	.L28:
 577:lcd_report.c  ****       LCD_PrintString(" Back ");
 1898              		.loc 1 577 0
 1899 0a5a 0020     		movs	r0, #0
 1900 0a5c 0146     		mov	r1, r0
ARM GAS  C:\Users\Bart\AppData\Local\Temp\ccOIOErW.s 			page 51


 1901 0a5e FFF7FEFF 		bl	LCD_Position
 1902              	.LVL218:
 578:lcd_report.c  ****       LCD_PutChar(LCD_CUSTOM_3);
 1903              		.loc 1 578 0
 1904 0a62 1848     		ldr	r0, .L136+4
 1905 0a64 FFF7FEFF 		bl	LCD_PrintString
 1906              	.LVL219:
 579:lcd_report.c  ****       
 1907              		.loc 1 579 0
 1908 0a68 0320     		movs	r0, #3
 1909 0a6a FFF7FEFF 		bl	LCD_PutChar
 1910              	.LVL220:
 581:lcd_report.c  ****       LCD_PrintString("Feature not ready"); 
 1911              		.loc 1 581 0
 1912 0a6e 0220     		movs	r0, #2
 1913 0a70 0021     		movs	r1, #0
 1914 0a72 FFF7FEFF 		bl	LCD_Position
 1915              	.LVL221:
 582:lcd_report.c  ****       
 1916              		.loc 1 582 0
 1917 0a76 1E48     		ldr	r0, .L136+48
 1918 0a78 FFF7FEFF 		bl	LCD_PrintString
 1919              	.LVL222:
 584:lcd_report.c  ****         
 1920              		.loc 1 584 0
 1921 0a7c 104B     		ldr	r3, .L136
 1922 0a7e 1B78     		ldrb	r3, [r3]	@ zero_extendqisi2
 1923 0a80 DBB1     		cbz	r3, .L22
 586:lcd_report.c  ****         lcd_cursor = 0;
 1924              		.loc 1 586 0
 1925 0a82 0F4D     		ldr	r5, .L136
 1926 0a84 0126     		movs	r6, #1
 1927 0a86 6E70     		strb	r6, [r5, #1]
 587:lcd_report.c  ****         QuadDec_SetCounter(lcd_cursor);
 1928              		.loc 1 587 0
 1929 0a88 0024     		movs	r4, #0
 1930 0a8a 114B     		ldr	r3, .L136+16
 1931 0a8c 5C70     		strb	r4, [r3, #1]
 588:lcd_report.c  ****         LCD_WriteControl(LCD_CLEAR_DISPLAY);
 1932              		.loc 1 588 0
 1933 0a8e 2046     		mov	r0, r4
 1934 0a90 FFF7FEFF 		bl	QuadDec_SetCounter
 1935              	.LVL223:
 589:lcd_report.c  ****         switch_clicked = false;
 1936              		.loc 1 589 0
 1937 0a94 3046     		mov	r0, r6
 1938 0a96 FFF7FEFF 		bl	LCD_WriteControl
 1939              	.LVL224:
 590:lcd_report.c  ****       }
 1940              		.loc 1 590 0
 1941 0a9a 2C70     		strb	r4, [r5]
 1942 0a9c 0DE0     		b	.L22
 1943              	.L23:
 597:lcd_report.c  ****       sprintf(fstr, "Scn:%-5d", lcd_screen );
 1944              		.loc 1 597 0
 1945 0a9e 0020     		movs	r0, #0
 1946 0aa0 0146     		mov	r1, r0
ARM GAS  C:\Users\Bart\AppData\Local\Temp\ccOIOErW.s 			page 52


 1947 0aa2 FFF7FEFF 		bl	LCD_Position
 1948              	.LVL225:
 598:lcd_report.c  ****       LCD_PrintString(fstr);
 1949              		.loc 1 598 0
 1950 0aa6 0EA8     		add	r0, sp, #56
 1951 0aa8 1249     		ldr	r1, .L136+52
 1952 0aaa 054B     		ldr	r3, .L136
 1953 0aac 93F90120 		ldrsb	r2, [r3, #1]
 1954 0ab0 FFF7FEFF 		bl	sprintf
 1955              	.LVL226:
 599:lcd_report.c  ****     break;
 1956              		.loc 1 599 0
 1957 0ab4 0EA8     		add	r0, sp, #56
 1958 0ab6 FFF7FEFF 		bl	LCD_PrintString
 1959              	.LVL227:
 1960              	.L22:
 604:lcd_report.c  **** 
 1961              		.loc 1 604 0
 1962 0aba 17B0     		add	sp, sp, #92
 1963              		.cfi_def_cfa_offset 20
 1964              		@ sp needed
 1965 0abc F0BD     		pop	{r4, r5, r6, r7, pc}
 1966              	.L137:
 1967 0abe 00BF     		.align	2
 1968              	.L136:
 1969 0ac0 00000000 		.word	.LANCHOR0
 1970 0ac4 80000000 		.word	.LC21
 1971 0ac8 14010000 		.word	.LC36
 1972 0acc 24010000 		.word	.LC37
 1973 0ad0 00000000 		.word	.LANCHOR1
 1974 0ad4 00010000 		.word	.LC34
 1975 0ad8 2C010000 		.word	.LC38
 1976 0adc 34010000 		.word	.LC39
 1977 0ae0 38010000 		.word	.LC40
 1978 0ae4 0000C842 		.word	1120403456
 1979 0ae8 0000F041 		.word	1106247680
 1980 0aec 00004040 		.word	1077936128
 1981 0af0 40010000 		.word	.LC41
 1982 0af4 54010000 		.word	.LC42
 1983              		.cfi_endproc
 1984              	.LFE67:
 1985              		.size	lcd_report_realtime, .-lcd_report_realtime
 1986              		.section	.text.lcd_report_init_message,"ax",%progbits
 1987              		.align	2
 1988              		.global	lcd_report_init_message
 1989              		.thumb
 1990              		.thumb_func
 1991              		.type	lcd_report_init_message, %function
 1992              	lcd_report_init_message:
 1993              	.LFB65:
  46:lcd_report.c  ****     LCD_WriteControl(LCD_CLEAR_DISPLAY);
 1994              		.loc 1 46 0
 1995              		.cfi_startproc
 1996              		@ args = 0, pretend = 0, frame = 0
 1997              		@ frame_needed = 0, uses_anonymous_args = 0
 1998 0000 08B5     		push	{r3, lr}
 1999              		.cfi_def_cfa_offset 8
ARM GAS  C:\Users\Bart\AppData\Local\Temp\ccOIOErW.s 			page 53


 2000              		.cfi_offset 3, -8
 2001              		.cfi_offset 14, -4
  47:lcd_report.c  ****     LCD_Position(0u, 3u);
 2002              		.loc 1 47 0
 2003 0002 0120     		movs	r0, #1
 2004 0004 FFF7FEFF 		bl	LCD_WriteControl
 2005              	.LVL228:
  48:lcd_report.c  ****     
 2006              		.loc 1 48 0
 2007 0008 0020     		movs	r0, #0
 2008 000a 0321     		movs	r1, #3
 2009 000c FFF7FEFF 		bl	LCD_Position
 2010              	.LVL229:
  51:lcd_report.c  ****     delay_ms(1000);
 2011              		.loc 1 51 0
 2012 0010 0648     		ldr	r0, .L140
 2013 0012 FFF7FEFF 		bl	LCD_PrintString
 2014              	.LVL230:
  52:lcd_report.c  ****     LCD_WriteControl(LCD_CLEAR_DISPLAY);
 2015              		.loc 1 52 0
 2016 0016 4FF47A70 		mov	r0, #1000
 2017 001a FFF7FEFF 		bl	CyDelay
 2018              	.LVL231:
  53:lcd_report.c  ****     
 2019              		.loc 1 53 0
 2020 001e 0120     		movs	r0, #1
 2021 0020 FFF7FEFF 		bl	LCD_WriteControl
 2022              	.LVL232:
  55:lcd_report.c  ****     
 2023              		.loc 1 55 0
 2024 0024 FFF7FEFF 		bl	lcd_report_realtime
 2025              	.LVL233:
 2026 0028 08BD     		pop	{r3, pc}
 2027              	.L141:
 2028 002a 00BF     		.align	2
 2029              	.L140:
 2030 002c 70010000 		.word	.LC43
 2031              		.cfi_endproc
 2032              	.LFE65:
 2033              		.size	lcd_report_init_message, .-lcd_report_init_message
 2034              		.section	.text.lcd_beep,"ax",%progbits
 2035              		.align	2
 2036              		.global	lcd_beep
 2037              		.thumb
 2038              		.thumb_func
 2039              		.type	lcd_beep, %function
 2040              	lcd_beep:
 2041              	.LFB70:
 625:lcd_report.c  ****     else
 626:lcd_report.c  ****       lcd_beep();
 627:lcd_report.c  ****       
 628:lcd_report.c  **** }
 629:lcd_report.c  **** 
 630:lcd_report.c  **** void lcd_beep()
 631:lcd_report.c  **** {
 2042              		.loc 1 631 0
 2043              		.cfi_startproc
ARM GAS  C:\Users\Bart\AppData\Local\Temp\ccOIOErW.s 			page 54


 2044              		@ args = 0, pretend = 0, frame = 0
 2045              		@ frame_needed = 0, uses_anonymous_args = 0
 2046              		@ link register save eliminated.
 2047 0000 7047     		bx	lr
 2048              		.cfi_endproc
 2049              	.LFE70:
 2050              		.size	lcd_beep, .-lcd_beep
 2051              		.global	lcd_probe_dist
 2052              		.global	lcd_probe_rate
 2053              		.global	lcd_probe_thickness
 2054              		.global	lcd_SRO
 2055              		.global	lcd_FRO
 2056              		.global	lcd_units
 2057              		.global	switch_clicked
 2058              		.global	lcd_cursor_max
 2059              		.global	lcd_cursor
 2060              		.global	menu_item_selected
 2061              		.global	lcd_screen
 2062              		.comm	fro,1,1
 2063              		.comm	exec_lcd_status,1,1
 2064              		.comm	sys_rt_exec_debug,1,1
 2065              		.comm	sys_rt_exec_accessory_override,1,1
 2066              		.comm	sys_rt_exec_motion_override,1,1
 2067              		.comm	sys_rt_exec_alarm,1,1
 2068              		.comm	sys_rt_exec_state,1,1
 2069              		.comm	sys_probe_state,1,1
 2070              		.comm	sys_probe_position,12,4
 2071              		.comm	sys_position,12,4
 2072 0002 00BF     		.data
 2073              		.align	2
 2074              		.set	.LANCHOR1,. + 0
 2075              		.type	lcd_cursor_max, %object
 2076              		.size	lcd_cursor_max, 1
 2077              	lcd_cursor_max:
 2078 0000 06       		.byte	6
 2079              		.type	lcd_cursor, %object
 2080              		.size	lcd_cursor, 1
 2081              	lcd_cursor:
 2082 0001 04       		.byte	4
 2083              		.type	lcd_FRO, %object
 2084              		.size	lcd_FRO, 2
 2085              	lcd_FRO:
 2086 0002 6400     		.short	100
 2087              		.type	lcd_SRO, %object
 2088              		.size	lcd_SRO, 2
 2089              	lcd_SRO:
 2090 0004 6400     		.short	100
 2091              		.type	lcd_probe_dist, %object
 2092              		.size	lcd_probe_dist, 2
 2093              	lcd_probe_dist:
 2094 0006 7800     		.short	120
 2095              		.type	lcd_probe_rate, %object
 2096              		.size	lcd_probe_rate, 2
 2097              	lcd_probe_rate:
 2098 0008 6400     		.short	100
 2099 000a 0000     		.space	2
 2100              		.type	lcd_probe_thickness, %object
ARM GAS  C:\Users\Bart\AppData\Local\Temp\ccOIOErW.s 			page 55


 2101              		.size	lcd_probe_thickness, 4
 2102              	lcd_probe_thickness:
 2103 000c 00007041 		.word	1097859072
 2104              		.section	.rodata.str1.4,"aMS",%progbits,1
 2105              		.align	2
 2106              	.LC1:
 2107 0000 245800   		.ascii	"$X\000"
 2108 0003 00       		.space	1
 2109              	.LC2:
 2110 0004 4731304C 		.ascii	"G10L20P0X0\000"
 2110      32305030 
 2110      583000
 2111 000f 00       		.space	1
 2112              	.LC3:
 2113 0010 4731304C 		.ascii	"G10L20P0Y0\000"
 2113      32305030 
 2113      593000
 2114 001b 00       		.space	1
 2115              	.LC4:
 2116 001c 4731304C 		.ascii	"G10L20P0Z0\000"
 2116      32305030 
 2116      5A3000
 2117 0027 00       		.space	1
 2118              	.LC5:
 2119 0028 20556E69 		.ascii	" Unit:\000"
 2119      743A00
 2120 002f 00       		.space	1
 2121              	.LC6:
 2122 0030 206D6D00 		.ascii	" mm\000"
 2123              	.LC7:
 2124 0034 20696E00 		.ascii	" in\000"
 2125              	.LC9:
 2126 0038 205800   		.ascii	" X\000"
 2127 003b 00       		.space	1
 2128              	.LC10:
 2129 003c 205900   		.ascii	" Y\000"
 2130 003f 00       		.space	1
 2131              	.LC11:
 2132 0040 205A00   		.ascii	" Z\000"
 2133 0043 00       		.space	1
 2134              	.LC12:
 2135 0044 2046524F 		.ascii	" FRO:\000"
 2135      3A00
 2136 004a 0000     		.space	2
 2137              	.LC13:
 2138 004c 25336400 		.ascii	"%3d\000"
 2139              	.LC14:
 2140 0050 2500     		.ascii	"%\000"
 2141 0052 0000     		.space	2
 2142              	.LC15:
 2143 0054 2053524F 		.ascii	" SRO:\000"
 2143      3A00
 2144 005a 0000     		.space	2
 2145              	.LC16:
 2146 005c 204D6F72 		.ascii	" More \000"
 2146      652000
 2147 0063 00       		.space	1
ARM GAS  C:\Users\Bart\AppData\Local\Temp\ccOIOErW.s 			page 56


 2148              	.LC17:
 2149 0064 47353347 		.ascii	"G53G0Z-1\000"
 2149      305A2D31 
 2149      00
 2150 006d 000000   		.space	3
 2151              	.LC18:
 2152 0070 47305830 		.ascii	"G0X0Y0\000"
 2152      593000
 2153 0077 00       		.space	1
 2154              	.LC19:
 2155 0078 47323800 		.ascii	"G28\000"
 2156              	.LC20:
 2157 007c 47333000 		.ascii	"G30\000"
 2158              	.LC21:
 2159 0080 20426163 		.ascii	" Back \000"
 2159      6B2000
 2160 0087 00       		.space	1
 2161              	.LC22:
 2162 0088 20486F6D 		.ascii	" Home Axes\000"
 2162      65204178 
 2162      657300
 2163 0093 00       		.space	1
 2164              	.LC23:
 2165 0094 20546F70 		.ascii	" Top of Z\000"
 2165      206F6620 
 2165      5A00
 2166 009e 0000     		.space	2
 2167              	.LC24:
 2168 00a0 205A2050 		.ascii	" Z Probe \000"
 2168      726F6265 
 2168      2000
 2169 00aa 0000     		.space	2
 2170              	.LC25:
 2171 00ac 20476F74 		.ascii	" Goto 0,0\000"
 2171      6F20302C 
 2171      3000
 2172 00b6 0000     		.space	2
 2173              	.LC26:
 2174 00b8 20476F74 		.ascii	" Goto G28\000"
 2174      6F204732 
 2174      3800
 2175 00c2 0000     		.space	2
 2176              	.LC27:
 2177 00c4 20476F74 		.ascii	" Goto G30\000"
 2177      6F204733 
 2177      3000
 2178 00ce 0000     		.space	2
 2179              	.LC28:
 2180 00d0 20536443 		.ascii	" SdCard \000"
 2180      61726420 
 2180      00
 2181 00d9 000000   		.space	3
 2182              	.LC29:
 2183 00dc 47393147 		.ascii	"G91G38.2Z-\000"
 2183      33382E32 
 2183      5A2D00
 2184 00e7 00       		.space	1
ARM GAS  C:\Users\Bart\AppData\Local\Temp\ccOIOErW.s 			page 57


 2185              	.LC30:
 2186 00e8 256400   		.ascii	"%d\000"
 2187 00eb 00       		.space	1
 2188              	.LC31:
 2189 00ec 4600     		.ascii	"F\000"
 2190 00ee 0000     		.space	2
 2191              	.LC32:
 2192 00f0 4661696C 		.ascii	"Failure\000"
 2192      75726500 
 2193              	.LC33:
 2194 00f8 53756363 		.ascii	"Success\000"
 2194      65737300 
 2195              	.LC34:
 2196 0100 25322E32 		.ascii	"%2.2f\000"
 2196      6600
 2197 0106 0000     		.space	2
 2198              	.LC35:
 2199 0108 4731304C 		.ascii	"G10L20P0Z\000"
 2199      32305030 
 2199      5A00
 2200 0112 0000     		.space	2
 2201              	.LC36:
 2202 0114 20426567 		.ascii	" Begin Probe\000"
 2202      696E2050 
 2202      726F6265 
 2202      00
 2203 0121 000000   		.space	3
 2204              	.LC37:
 2205 0124 20546869 		.ascii	" Thick:\000"
 2205      636B3A00 
 2206              	.LC38:
 2207 012c 20526174 		.ascii	" Rate:\000"
 2207      653A00
 2208 0133 00       		.space	1
 2209              	.LC39:
 2210 0134 25366400 		.ascii	"%6d\000"
 2211              	.LC40:
 2212 0138 20446973 		.ascii	" Dist:\000"
 2212      743A00
 2213 013f 00       		.space	1
 2214              	.LC41:
 2215 0140 46656174 		.ascii	"Feature not ready\000"
 2215      75726520 
 2215      6E6F7420 
 2215      72656164 
 2215      7900
 2216 0152 0000     		.space	2
 2217              	.LC42:
 2218 0154 53636E3A 		.ascii	"Scn:%-5d\000"
 2218      252D3564 
 2218      00
 2219 015d 000000   		.space	3
 2220              	.LC0:
 2221 0160 252B382E 		.ascii	"%+8.2f\000"
 2221      326600
 2222 0167 00       		.space	1
 2223              	.LC8:
ARM GAS  C:\Users\Bart\AppData\Local\Temp\ccOIOErW.s 			page 58


 2224 0168 252B382E 		.ascii	"%+8.3f\000"
 2224      336600
 2225 016f 00       		.space	1
 2226              	.LC43:
 2227 0170 50536F43 		.ascii	"PSoC_Grbl 1.1e\000"
 2227      5F477262 
 2227      6C20312E 
 2227      316500
 2228 017f 00       		.bss
 2229              		.set	.LANCHOR0,. + 0
 2230              		.type	switch_clicked, %object
 2231              		.size	switch_clicked, 1
 2232              	switch_clicked:
 2233 0000 00       		.space	1
 2234              		.type	lcd_screen, %object
 2235              		.size	lcd_screen, 1
 2236              	lcd_screen:
 2237 0001 00       		.space	1
 2238              		.type	lcd_units, %object
 2239              		.size	lcd_units, 1
 2240              	lcd_units:
 2241 0002 00       		.space	1
 2242              		.type	menu_item_selected, %object
 2243              		.size	menu_item_selected, 1
 2244              	menu_item_selected:
 2245 0003 00       		.space	1
 2246              		.text
 2247              	.Letext0:
 2248              		.file 2 "d:\\program files (x86)\\cypress\\psoc creator\\4.0\\psoc creator\\import\\gnu\\arm\\4.9.
 2249              		.file 3 "d:\\program files (x86)\\cypress\\psoc creator\\4.0\\psoc creator\\import\\gnu\\arm\\4.9.
 2250              		.file 4 "Generated_Source\\PSoC5/cytypes.h"
 2251              		.file 5 "settings.h"
 2252              		.file 6 "system.h"
 2253              		.file 7 "gcode.h"
 2254              		.file 8 "Generated_Source\\PSoC5/LCD.h"
 2255              		.file 9 "Generated_Source\\PSoC5/core_cm3.h"
 2256              		.file 10 "lcd_report.h"
 2257              		.file 11 "Generated_Source\\PSoC5/QuadDec.h"
 2258              		.file 12 "Generated_Source\\PSoC5/isr_Enc_Sw.h"
 2259              		.file 13 "report.h"
 2260              		.file 14 "d:\\program files (x86)\\cypress\\psoc creator\\4.0\\psoc creator\\import\\gnu\\arm\\4.9
 2261              		.file 15 "motion_control.h"
 2262              		.file 16 "d:\\program files (x86)\\cypress\\psoc creator\\4.0\\psoc creator\\import\\gnu\\arm\\4.9
 2263              		.file 17 "<built-in>"
 2264              		.file 18 "stepper.h"
 2265              		.file 19 "Generated_Source\\PSoC5/CyLib.h"
 2266              		.section	.debug_info,"",%progbits
 2267              	.Ldebug_info0:
 2268 0000 83180000 		.4byte	0x1883
 2269 0004 0400     		.2byte	0x4
 2270 0006 00000000 		.4byte	.Ldebug_abbrev0
 2271 000a 04       		.byte	0x4
 2272 000b 01       		.uleb128 0x1
 2273 000c 43060000 		.4byte	.LASF140
 2274 0010 01       		.byte	0x1
 2275 0011 E4040000 		.4byte	.LASF141
 2276 0015 B6020000 		.4byte	.LASF142
ARM GAS  C:\Users\Bart\AppData\Local\Temp\ccOIOErW.s 			page 59


 2277 0019 00000000 		.4byte	.Ldebug_ranges0+0
 2278 001d 00000000 		.4byte	0
 2279 0021 00000000 		.4byte	.Ldebug_line0
 2280 0025 02       		.uleb128 0x2
 2281 0026 01       		.byte	0x1
 2282 0027 06       		.byte	0x6
 2283 0028 45070000 		.4byte	.LASF0
 2284 002c 03       		.uleb128 0x3
 2285 002d 7D050000 		.4byte	.LASF3
 2286 0031 02       		.byte	0x2
 2287 0032 1D       		.byte	0x1d
 2288 0033 37000000 		.4byte	0x37
 2289 0037 02       		.uleb128 0x2
 2290 0038 01       		.byte	0x1
 2291 0039 08       		.byte	0x8
 2292 003a 35060000 		.4byte	.LASF1
 2293 003e 02       		.uleb128 0x2
 2294 003f 02       		.byte	0x2
 2295 0040 05       		.byte	0x5
 2296 0041 12050000 		.4byte	.LASF2
 2297 0045 03       		.uleb128 0x3
 2298 0046 D9010000 		.4byte	.LASF4
 2299 004a 02       		.byte	0x2
 2300 004b 2B       		.byte	0x2b
 2301 004c 50000000 		.4byte	0x50
 2302 0050 02       		.uleb128 0x2
 2303 0051 02       		.byte	0x2
 2304 0052 07       		.byte	0x7
 2305 0053 67070000 		.4byte	.LASF5
 2306 0057 03       		.uleb128 0x3
 2307 0058 7A000000 		.4byte	.LASF6
 2308 005c 02       		.byte	0x2
 2309 005d 3F       		.byte	0x3f
 2310 005e 62000000 		.4byte	0x62
 2311 0062 02       		.uleb128 0x2
 2312 0063 04       		.byte	0x4
 2313 0064 05       		.byte	0x5
 2314 0065 1C050000 		.4byte	.LASF7
 2315 0069 02       		.uleb128 0x2
 2316 006a 04       		.byte	0x4
 2317 006b 07       		.byte	0x7
 2318 006c F6050000 		.4byte	.LASF8
 2319 0070 02       		.uleb128 0x2
 2320 0071 08       		.byte	0x8
 2321 0072 05       		.byte	0x5
 2322 0073 97030000 		.4byte	.LASF9
 2323 0077 02       		.uleb128 0x2
 2324 0078 08       		.byte	0x8
 2325 0079 07       		.byte	0x7
 2326 007a A6010000 		.4byte	.LASF10
 2327 007e 04       		.uleb128 0x4
 2328 007f 04       		.byte	0x4
 2329 0080 05       		.byte	0x5
 2330 0081 696E7400 		.ascii	"int\000"
 2331 0085 02       		.uleb128 0x2
 2332 0086 04       		.byte	0x4
 2333 0087 07       		.byte	0x7
ARM GAS  C:\Users\Bart\AppData\Local\Temp\ccOIOErW.s 			page 60


 2334 0088 62000000 		.4byte	.LASF11
 2335 008c 03       		.uleb128 0x3
 2336 008d 6F030000 		.4byte	.LASF12
 2337 0091 03       		.byte	0x3
 2338 0092 15       		.byte	0x15
 2339 0093 2C000000 		.4byte	0x2c
 2340 0097 03       		.uleb128 0x3
 2341 0098 93040000 		.4byte	.LASF13
 2342 009c 03       		.byte	0x3
 2343 009d 21       		.byte	0x21
 2344 009e 45000000 		.4byte	0x45
 2345 00a2 03       		.uleb128 0x3
 2346 00a3 10060000 		.4byte	.LASF14
 2347 00a7 03       		.byte	0x3
 2348 00a8 2C       		.byte	0x2c
 2349 00a9 57000000 		.4byte	0x57
 2350 00ad 05       		.uleb128 0x5
 2351 00ae 8D070000 		.4byte	.LASF15
 2352 00b2 04       		.byte	0x4
 2353 00b3 9201     		.2byte	0x192
 2354 00b5 37000000 		.4byte	0x37
 2355 00b9 05       		.uleb128 0x5
 2356 00ba 32040000 		.4byte	.LASF16
 2357 00be 04       		.byte	0x4
 2358 00bf 9401     		.2byte	0x194
 2359 00c1 69000000 		.4byte	0x69
 2360 00c5 05       		.uleb128 0x5
 2361 00c6 4A030000 		.4byte	.LASF17
 2362 00ca 04       		.byte	0x4
 2363 00cb 9501     		.2byte	0x195
 2364 00cd 25000000 		.4byte	0x25
 2365 00d1 05       		.uleb128 0x5
 2366 00d2 84000000 		.4byte	.LASF18
 2367 00d6 04       		.byte	0x4
 2368 00d7 9601     		.2byte	0x196
 2369 00d9 3E000000 		.4byte	0x3e
 2370 00dd 02       		.uleb128 0x2
 2371 00de 04       		.byte	0x4
 2372 00df 04       		.byte	0x4
 2373 00e0 6F010000 		.4byte	.LASF19
 2374 00e4 02       		.uleb128 0x2
 2375 00e5 08       		.byte	0x8
 2376 00e6 04       		.byte	0x4
 2377 00e7 93070000 		.4byte	.LASF20
 2378 00eb 05       		.uleb128 0x5
 2379 00ec 77030000 		.4byte	.LASF21
 2380 00f0 04       		.byte	0x4
 2381 00f1 A301     		.2byte	0x1a3
 2382 00f3 F7000000 		.4byte	0xf7
 2383 00f7 02       		.uleb128 0x2
 2384 00f8 01       		.byte	0x1
 2385 00f9 08       		.byte	0x8
 2386 00fa FF020000 		.4byte	.LASF22
 2387 00fe 05       		.uleb128 0x5
 2388 00ff 25040000 		.4byte	.LASF23
 2389 0103 04       		.byte	0x4
 2390 0104 4E02     		.2byte	0x24e
ARM GAS  C:\Users\Bart\AppData\Local\Temp\ccOIOErW.s 			page 61


 2391 0106 0A010000 		.4byte	0x10a
 2392 010a 06       		.uleb128 0x6
 2393 010b 04       		.byte	0x4
 2394 010c 10010000 		.4byte	0x110
 2395 0110 07       		.uleb128 0x7
 2396 0111 02       		.uleb128 0x2
 2397 0112 04       		.byte	0x4
 2398 0113 07       		.byte	0x7
 2399 0114 ED050000 		.4byte	.LASF24
 2400 0118 06       		.uleb128 0x6
 2401 0119 04       		.byte	0x4
 2402 011a F7000000 		.4byte	0xf7
 2403 011e 06       		.uleb128 0x6
 2404 011f 04       		.byte	0x4
 2405 0120 24010000 		.4byte	0x124
 2406 0124 08       		.uleb128 0x8
 2407 0125 F7000000 		.4byte	0xf7
 2408 0129 09       		.uleb128 0x9
 2409 012a 8C000000 		.4byte	0x8c
 2410 012e 02       		.uleb128 0x2
 2411 012f 08       		.byte	0x8
 2412 0130 04       		.byte	0x4
 2413 0131 7F040000 		.4byte	.LASF25
 2414 0135 0A       		.uleb128 0xa
 2415 0136 5C       		.byte	0x5c
 2416 0137 05       		.byte	0x5
 2417 0138 4F       		.byte	0x4f
 2418 0139 22020000 		.4byte	0x222
 2419 013d 0B       		.uleb128 0xb
 2420 013e F9030000 		.4byte	.LASF26
 2421 0142 05       		.byte	0x5
 2422 0143 51       		.byte	0x51
 2423 0144 22020000 		.4byte	0x222
 2424 0148 00       		.byte	0
 2425 0149 0B       		.uleb128 0xb
 2426 014a A5040000 		.4byte	.LASF27
 2427 014e 05       		.byte	0x5
 2428 014f 52       		.byte	0x52
 2429 0150 22020000 		.4byte	0x222
 2430 0154 0C       		.byte	0xc
 2431 0155 0B       		.uleb128 0xb
 2432 0156 1B010000 		.4byte	.LASF28
 2433 015a 05       		.byte	0x5
 2434 015b 53       		.byte	0x53
 2435 015c 22020000 		.4byte	0x222
 2436 0160 18       		.byte	0x18
 2437 0161 0B       		.uleb128 0xb
 2438 0162 F4020000 		.4byte	.LASF29
 2439 0166 05       		.byte	0x5
 2440 0167 54       		.byte	0x54
 2441 0168 22020000 		.4byte	0x222
 2442 016c 24       		.byte	0x24
 2443 016d 0B       		.uleb128 0xb
 2444 016e 00000000 		.4byte	.LASF30
 2445 0172 05       		.byte	0x5
 2446 0173 57       		.byte	0x57
 2447 0174 8C000000 		.4byte	0x8c
ARM GAS  C:\Users\Bart\AppData\Local\Temp\ccOIOErW.s 			page 62


 2448 0178 30       		.byte	0x30
 2449 0179 0B       		.uleb128 0xb
 2450 017a 6E040000 		.4byte	.LASF31
 2451 017e 05       		.byte	0x5
 2452 017f 58       		.byte	0x58
 2453 0180 8C000000 		.4byte	0x8c
 2454 0184 31       		.byte	0x31
 2455 0185 0B       		.uleb128 0xb
 2456 0186 F9070000 		.4byte	.LASF32
 2457 018a 05       		.byte	0x5
 2458 018b 59       		.byte	0x59
 2459 018c 8C000000 		.4byte	0x8c
 2460 0190 32       		.byte	0x32
 2461 0191 0B       		.uleb128 0xb
 2462 0192 BD000000 		.4byte	.LASF33
 2463 0196 05       		.byte	0x5
 2464 0197 5A       		.byte	0x5a
 2465 0198 8C000000 		.4byte	0x8c
 2466 019c 33       		.byte	0x33
 2467 019d 0B       		.uleb128 0xb
 2468 019e 4F000000 		.4byte	.LASF34
 2469 01a2 05       		.byte	0x5
 2470 01a3 5B       		.byte	0x5b
 2471 01a4 8C000000 		.4byte	0x8c
 2472 01a8 34       		.byte	0x34
 2473 01a9 0B       		.uleb128 0xb
 2474 01aa B2070000 		.4byte	.LASF35
 2475 01ae 05       		.byte	0x5
 2476 01af 5C       		.byte	0x5c
 2477 01b0 DD000000 		.4byte	0xdd
 2478 01b4 38       		.byte	0x38
 2479 01b5 0B       		.uleb128 0xb
 2480 01b6 DA000000 		.4byte	.LASF36
 2481 01ba 05       		.byte	0x5
 2482 01bb 5D       		.byte	0x5d
 2483 01bc DD000000 		.4byte	0xdd
 2484 01c0 3C       		.byte	0x3c
 2485 01c1 0B       		.uleb128 0xb
 2486 01c2 17030000 		.4byte	.LASF37
 2487 01c6 05       		.byte	0x5
 2488 01c7 5F       		.byte	0x5f
 2489 01c8 DD000000 		.4byte	0xdd
 2490 01cc 40       		.byte	0x40
 2491 01cd 0B       		.uleb128 0xb
 2492 01ce 7A070000 		.4byte	.LASF38
 2493 01d2 05       		.byte	0x5
 2494 01d3 60       		.byte	0x60
 2495 01d4 DD000000 		.4byte	0xdd
 2496 01d8 44       		.byte	0x44
 2497 01d9 0B       		.uleb128 0xb
 2498 01da 49000000 		.4byte	.LASF39
 2499 01de 05       		.byte	0x5
 2500 01df 62       		.byte	0x62
 2501 01e0 8C000000 		.4byte	0x8c
 2502 01e4 48       		.byte	0x48
 2503 01e5 0B       		.uleb128 0xb
 2504 01e6 9A070000 		.4byte	.LASF40
ARM GAS  C:\Users\Bart\AppData\Local\Temp\ccOIOErW.s 			page 63


 2505 01ea 05       		.byte	0x5
 2506 01eb 64       		.byte	0x64
 2507 01ec 8C000000 		.4byte	0x8c
 2508 01f0 49       		.byte	0x49
 2509 01f1 0B       		.uleb128 0xb
 2510 01f2 39010000 		.4byte	.LASF41
 2511 01f6 05       		.byte	0x5
 2512 01f7 65       		.byte	0x65
 2513 01f8 DD000000 		.4byte	0xdd
 2514 01fc 4C       		.byte	0x4c
 2515 01fd 0B       		.uleb128 0xb
 2516 01fe 28010000 		.4byte	.LASF42
 2517 0202 05       		.byte	0x5
 2518 0203 66       		.byte	0x66
 2519 0204 DD000000 		.4byte	0xdd
 2520 0208 50       		.byte	0x50
 2521 0209 0B       		.uleb128 0xb
 2522 020a 51070000 		.4byte	.LASF43
 2523 020e 05       		.byte	0x5
 2524 020f 67       		.byte	0x67
 2525 0210 97000000 		.4byte	0x97
 2526 0214 54       		.byte	0x54
 2527 0215 0B       		.uleb128 0xb
 2528 0216 2F020000 		.4byte	.LASF44
 2529 021a 05       		.byte	0x5
 2530 021b 68       		.byte	0x68
 2531 021c DD000000 		.4byte	0xdd
 2532 0220 58       		.byte	0x58
 2533 0221 00       		.byte	0
 2534 0222 0C       		.uleb128 0xc
 2535 0223 DD000000 		.4byte	0xdd
 2536 0227 32020000 		.4byte	0x232
 2537 022b 0D       		.uleb128 0xd
 2538 022c 11010000 		.4byte	0x111
 2539 0230 02       		.byte	0x2
 2540 0231 00       		.byte	0
 2541 0232 03       		.uleb128 0x3
 2542 0233 82070000 		.4byte	.LASF45
 2543 0237 05       		.byte	0x5
 2544 0238 69       		.byte	0x69
 2545 0239 35010000 		.4byte	0x135
 2546 023d 0A       		.uleb128 0xa
 2547 023e 14       		.byte	0x14
 2548 023f 06       		.byte	0x6
 2549 0240 80       		.byte	0x80
 2550 0241 EE020000 		.4byte	0x2ee
 2551 0245 0B       		.uleb128 0xb
 2552 0246 F4060000 		.4byte	.LASF46
 2553 024a 06       		.byte	0x6
 2554 024b 81       		.byte	0x81
 2555 024c 8C000000 		.4byte	0x8c
 2556 0250 00       		.byte	0
 2557 0251 0B       		.uleb128 0xb
 2558 0252 01020000 		.4byte	.LASF47
 2559 0256 06       		.byte	0x6
 2560 0257 82       		.byte	0x82
 2561 0258 8C000000 		.4byte	0x8c
ARM GAS  C:\Users\Bart\AppData\Local\Temp\ccOIOErW.s 			page 64


 2562 025c 01       		.byte	0x1
 2563 025d 0B       		.uleb128 0xb
 2564 025e 53020000 		.4byte	.LASF48
 2565 0262 06       		.byte	0x6
 2566 0263 83       		.byte	0x83
 2567 0264 8C000000 		.4byte	0x8c
 2568 0268 02       		.byte	0x2
 2569 0269 0B       		.uleb128 0xb
 2570 026a 68050000 		.4byte	.LASF49
 2571 026e 06       		.byte	0x6
 2572 026f 84       		.byte	0x84
 2573 0270 8C000000 		.4byte	0x8c
 2574 0274 03       		.byte	0x3
 2575 0275 0B       		.uleb128 0xb
 2576 0276 D7040000 		.4byte	.LASF50
 2577 027a 06       		.byte	0x6
 2578 027b 85       		.byte	0x85
 2579 027c 8C000000 		.4byte	0x8c
 2580 0280 04       		.byte	0x4
 2581 0281 0B       		.uleb128 0xb
 2582 0282 AE050000 		.4byte	.LASF51
 2583 0286 06       		.byte	0x6
 2584 0287 86       		.byte	0x86
 2585 0288 8C000000 		.4byte	0x8c
 2586 028c 05       		.byte	0x5
 2587 028d 0B       		.uleb128 0xb
 2588 028e D0070000 		.4byte	.LASF52
 2589 0292 06       		.byte	0x6
 2590 0293 87       		.byte	0x87
 2591 0294 8C000000 		.4byte	0x8c
 2592 0298 06       		.byte	0x6
 2593 0299 0B       		.uleb128 0xb
 2594 029a BD010000 		.4byte	.LASF53
 2595 029e 06       		.byte	0x6
 2596 029f 88       		.byte	0x88
 2597 02a0 8C000000 		.4byte	0x8c
 2598 02a4 07       		.byte	0x7
 2599 02a5 0B       		.uleb128 0xb
 2600 02a6 6F000000 		.4byte	.LASF54
 2601 02aa 06       		.byte	0x6
 2602 02ab 89       		.byte	0x89
 2603 02ac 8C000000 		.4byte	0x8c
 2604 02b0 08       		.byte	0x8
 2605 02b1 0B       		.uleb128 0xb
 2606 02b2 5D030000 		.4byte	.LASF55
 2607 02b6 06       		.byte	0x6
 2608 02b7 8A       		.byte	0x8a
 2609 02b8 8C000000 		.4byte	0x8c
 2610 02bc 09       		.byte	0x9
 2611 02bd 0B       		.uleb128 0xb
 2612 02be EB010000 		.4byte	.LASF56
 2613 02c2 06       		.byte	0x6
 2614 02c3 8B       		.byte	0x8b
 2615 02c4 8C000000 		.4byte	0x8c
 2616 02c8 0A       		.byte	0xa
 2617 02c9 0B       		.uleb128 0xb
 2618 02ca 2D030000 		.4byte	.LASF57
ARM GAS  C:\Users\Bart\AppData\Local\Temp\ccOIOErW.s 			page 65


 2619 02ce 06       		.byte	0x6
 2620 02cf 8C       		.byte	0x8c
 2621 02d0 8C000000 		.4byte	0x8c
 2622 02d4 0B       		.byte	0xb
 2623 02d5 0B       		.uleb128 0xb
 2624 02d6 55050000 		.4byte	.LASF58
 2625 02da 06       		.byte	0x6
 2626 02db 8D       		.byte	0x8d
 2627 02dc 8C000000 		.4byte	0x8c
 2628 02e0 0C       		.byte	0xc
 2629 02e1 0B       		.uleb128 0xb
 2630 02e2 1F030000 		.4byte	.LASF59
 2631 02e6 06       		.byte	0x6
 2632 02e7 8F       		.byte	0x8f
 2633 02e8 DD000000 		.4byte	0xdd
 2634 02ec 10       		.byte	0x10
 2635 02ed 00       		.byte	0
 2636 02ee 03       		.uleb128 0x3
 2637 02ef 42050000 		.4byte	.LASF60
 2638 02f3 06       		.byte	0x6
 2639 02f4 91       		.byte	0x91
 2640 02f5 3D020000 		.4byte	0x23d
 2641 02f9 0A       		.uleb128 0xa
 2642 02fa 0A       		.byte	0xa
 2643 02fb 07       		.byte	0x7
 2644 02fc B1       		.byte	0xb1
 2645 02fd 7A030000 		.4byte	0x37a
 2646 0301 0B       		.uleb128 0xb
 2647 0302 E6050000 		.4byte	.LASF61
 2648 0306 07       		.byte	0x7
 2649 0307 B2       		.byte	0xb2
 2650 0308 8C000000 		.4byte	0x8c
 2651 030c 00       		.byte	0
 2652 030d 0B       		.uleb128 0xb
 2653 030e 4B050000 		.4byte	.LASF62
 2654 0312 07       		.byte	0x7
 2655 0313 B3       		.byte	0xb3
 2656 0314 8C000000 		.4byte	0x8c
 2657 0318 01       		.byte	0x1
 2658 0319 0B       		.uleb128 0xb
 2659 031a 17070000 		.4byte	.LASF63
 2660 031e 07       		.byte	0x7
 2661 031f B4       		.byte	0xb4
 2662 0320 8C000000 		.4byte	0x8c
 2663 0324 02       		.byte	0x2
 2664 0325 0B       		.uleb128 0xb
 2665 0326 1B000000 		.4byte	.LASF64
 2666 032a 07       		.byte	0x7
 2667 032b B5       		.byte	0xb5
 2668 032c 8C000000 		.4byte	0x8c
 2669 0330 03       		.byte	0x3
 2670 0331 0B       		.uleb128 0xb
 2671 0332 5B020000 		.4byte	.LASF65
 2672 0336 07       		.byte	0x7
 2673 0337 B7       		.byte	0xb7
 2674 0338 8C000000 		.4byte	0x8c
 2675 033c 04       		.byte	0x4
ARM GAS  C:\Users\Bart\AppData\Local\Temp\ccOIOErW.s 			page 66


 2676 033d 0B       		.uleb128 0xb
 2677 033e 23020000 		.4byte	.LASF66
 2678 0342 07       		.byte	0x7
 2679 0343 B9       		.byte	0xb9
 2680 0344 8C000000 		.4byte	0x8c
 2681 0348 05       		.byte	0x5
 2682 0349 0B       		.uleb128 0xb
 2683 034a 97020000 		.4byte	.LASF67
 2684 034e 07       		.byte	0x7
 2685 034f BA       		.byte	0xba
 2686 0350 8C000000 		.4byte	0x8c
 2687 0354 06       		.byte	0x6
 2688 0355 0B       		.uleb128 0xb
 2689 0356 35000000 		.4byte	.LASF68
 2690 035a 07       		.byte	0x7
 2691 035b BC       		.byte	0xbc
 2692 035c 8C000000 		.4byte	0x8c
 2693 0360 07       		.byte	0x7
 2694 0361 0B       		.uleb128 0xb
 2695 0362 07020000 		.4byte	.LASF69
 2696 0366 07       		.byte	0x7
 2697 0367 BD       		.byte	0xbd
 2698 0368 8C000000 		.4byte	0x8c
 2699 036c 08       		.byte	0x8
 2700 036d 0B       		.uleb128 0xb
 2701 036e E8000000 		.4byte	.LASF70
 2702 0372 07       		.byte	0x7
 2703 0373 BE       		.byte	0xbe
 2704 0374 8C000000 		.4byte	0x8c
 2705 0378 09       		.byte	0x9
 2706 0379 00       		.byte	0
 2707 037a 03       		.uleb128 0x3
 2708 037b 0C070000 		.4byte	.LASF71
 2709 037f 07       		.byte	0x7
 2710 0380 BF       		.byte	0xbf
 2711 0381 F9020000 		.4byte	0x2f9
 2712 0385 0A       		.uleb128 0xa
 2713 0386 44       		.byte	0x44
 2714 0387 07       		.byte	0x7
 2715 0388 CF       		.byte	0xcf
 2716 0389 FA030000 		.4byte	0x3fa
 2717 038d 0B       		.uleb128 0xb
 2718 038e D4000000 		.4byte	.LASF72
 2719 0392 07       		.byte	0x7
 2720 0393 D0       		.byte	0xd0
 2721 0394 7A030000 		.4byte	0x37a
 2722 0398 00       		.byte	0
 2723 0399 0B       		.uleb128 0xb
 2724 039a 1F030000 		.4byte	.LASF59
 2725 039e 07       		.byte	0x7
 2726 039f D2       		.byte	0xd2
 2727 03a0 DD000000 		.4byte	0xdd
 2728 03a4 0C       		.byte	0xc
 2729 03a5 0B       		.uleb128 0xb
 2730 03a6 4B050000 		.4byte	.LASF62
 2731 03aa 07       		.byte	0x7
 2732 03ab D3       		.byte	0xd3
ARM GAS  C:\Users\Bart\AppData\Local\Temp\ccOIOErW.s 			page 67


 2733 03ac DD000000 		.4byte	0xdd
 2734 03b0 10       		.byte	0x10
 2735 03b1 0B       		.uleb128 0xb
 2736 03b2 3E020000 		.4byte	.LASF73
 2737 03b6 07       		.byte	0x7
 2738 03b7 D4       		.byte	0xd4
 2739 03b8 8C000000 		.4byte	0x8c
 2740 03bc 14       		.byte	0x14
 2741 03bd 0B       		.uleb128 0xb
 2742 03be 19040000 		.4byte	.LASF74
 2743 03c2 07       		.byte	0x7
 2744 03c3 D5       		.byte	0xd5
 2745 03c4 A2000000 		.4byte	0xa2
 2746 03c8 18       		.byte	0x18
 2747 03c9 0B       		.uleb128 0xb
 2748 03ca F0070000 		.4byte	.LASF75
 2749 03ce 07       		.byte	0x7
 2750 03cf D7       		.byte	0xd7
 2751 03d0 22020000 		.4byte	0x222
 2752 03d4 1C       		.byte	0x1c
 2753 03d5 0B       		.uleb128 0xb
 2754 03d6 D4030000 		.4byte	.LASF76
 2755 03da 07       		.byte	0x7
 2756 03db D9       		.byte	0xd9
 2757 03dc 22020000 		.4byte	0x222
 2758 03e0 28       		.byte	0x28
 2759 03e1 0B       		.uleb128 0xb
 2760 03e2 18060000 		.4byte	.LASF77
 2761 03e6 07       		.byte	0x7
 2762 03e7 DB       		.byte	0xdb
 2763 03e8 22020000 		.4byte	0x222
 2764 03ec 34       		.byte	0x34
 2765 03ed 0B       		.uleb128 0xb
 2766 03ee 04030000 		.4byte	.LASF78
 2767 03f2 07       		.byte	0x7
 2768 03f3 DD       		.byte	0xdd
 2769 03f4 DD000000 		.4byte	0xdd
 2770 03f8 40       		.byte	0x40
 2771 03f9 00       		.byte	0
 2772 03fa 03       		.uleb128 0x3
 2773 03fb 88030000 		.4byte	.LASF79
 2774 03ff 07       		.byte	0x7
 2775 0400 DE       		.byte	0xde
 2776 0401 85030000 		.4byte	0x385
 2777 0405 0E       		.uleb128 0xe
 2778 0406 06040000 		.4byte	.LASF94
 2779 040a 01       		.byte	0x1
 2780 040b 28       		.byte	0x28
 2781 040c 00000000 		.4byte	.LFB64
 2782 0410 0C000000 		.4byte	.LFE64-.LFB64
 2783 0414 01       		.uleb128 0x1
 2784 0415 9C       		.byte	0x9c
 2785 0416 0F       		.uleb128 0xf
 2786 0417 CB030000 		.4byte	.LASF85
 2787 041b 01       		.byte	0x1
 2788 041c 1E       		.byte	0x1e
 2789 041d 00000000 		.4byte	.LFB63
ARM GAS  C:\Users\Bart\AppData\Local\Temp\ccOIOErW.s 			page 68


 2790 0421 30000000 		.4byte	.LFE63-.LFB63
 2791 0425 01       		.uleb128 0x1
 2792 0426 9C       		.byte	0x9c
 2793 0427 6D040000 		.4byte	0x46d
 2794 042b 10       		.uleb128 0x10
 2795 042c 06000000 		.4byte	.LVL0
 2796 0430 F4160000 		.4byte	0x16f4
 2797 0434 10       		.uleb128 0x10
 2798 0435 0C000000 		.4byte	.LVL1
 2799 0439 FB160000 		.4byte	0x16fb
 2800 043d 11       		.uleb128 0x11
 2801 043e 12000000 		.4byte	.LVL2
 2802 0442 17170000 		.4byte	0x1717
 2803 0446 50040000 		.4byte	0x450
 2804 044a 12       		.uleb128 0x12
 2805 044b 01       		.uleb128 0x1
 2806 044c 50       		.byte	0x50
 2807 044d 01       		.uleb128 0x1
 2808 044e 31       		.byte	0x31
 2809 044f 00       		.byte	0
 2810 0450 10       		.uleb128 0x10
 2811 0451 16000000 		.4byte	.LVL3
 2812 0455 28170000 		.4byte	0x1728
 2813 0459 13       		.uleb128 0x13
 2814 045a 1C000000 		.4byte	.LVL4
 2815 045e 2F170000 		.4byte	0x172f
 2816 0462 12       		.uleb128 0x12
 2817 0463 01       		.uleb128 0x1
 2818 0464 50       		.byte	0x50
 2819 0465 05       		.uleb128 0x5
 2820 0466 03       		.byte	0x3
 2821 0467 00000000 		.4byte	enc_sw_isr_handler
 2822 046b 00       		.byte	0
 2823 046c 00       		.byte	0
 2824 046d 14       		.uleb128 0x14
 2825 046e F0000000 		.4byte	.LASF143
 2826 0472 01       		.byte	0x1
 2827 0473 3B       		.byte	0x3b
 2828 0474 00000000 		.4byte	.LFB66
 2829 0478 0C000000 		.4byte	.LFE66-.LFB66
 2830 047c 01       		.uleb128 0x1
 2831 047d 9C       		.byte	0x9c
 2832 047e 15       		.uleb128 0x15
 2833 047f 94010000 		.4byte	.LASF82
 2834 0483 01       		.byte	0x1
 2835 0484 5F02     		.2byte	0x25f
 2836 0486 00000000 		.4byte	.LFB68
 2837 048a 40000000 		.4byte	.LFE68-.LFB68
 2838 048e 01       		.uleb128 0x1
 2839 048f 9C       		.byte	0x9c
 2840 0490 F2040000 		.4byte	0x4f2
 2841 0494 16       		.uleb128 0x16
 2842 0495 6E00     		.ascii	"n\000"
 2843 0497 01       		.byte	0x1
 2844 0498 5F02     		.2byte	0x25f
 2845 049a 8C000000 		.4byte	0x8c
 2846 049e 00000000 		.4byte	.LLST0
ARM GAS  C:\Users\Bart\AppData\Local\Temp\ccOIOErW.s 			page 69


 2847 04a2 17       		.uleb128 0x17
 2848 04a3 84010000 		.4byte	.LASF80
 2849 04a7 01       		.byte	0x1
 2850 04a8 5F02     		.2byte	0x25f
 2851 04aa 8C000000 		.4byte	0x8c
 2852 04ae 1E000000 		.4byte	.LLST1
 2853 04b2 17       		.uleb128 0x17
 2854 04b3 E4010000 		.4byte	.LASF81
 2855 04b7 01       		.byte	0x1
 2856 04b8 5F02     		.2byte	0x25f
 2857 04ba 8C000000 		.4byte	0x8c
 2858 04be 3F000000 		.4byte	.LLST2
 2859 04c2 18       		.uleb128 0x18
 2860 04c3 05050000 		.4byte	0x505
 2861 04c7 60000000 		.4byte	.LLST3
 2862 04cb 19       		.uleb128 0x19
 2863 04cc 62756600 		.ascii	"buf\000"
 2864 04d0 01       		.byte	0x1
 2865 04d1 6102     		.2byte	0x261
 2866 04d3 F2040000 		.4byte	0x4f2
 2867 04d7 02       		.uleb128 0x2
 2868 04d8 75       		.byte	0x75
 2869 04d9 00       		.sleb128 0
 2870 04da 1A       		.uleb128 0x1a
 2871 04db 6900     		.ascii	"i\000"
 2872 04dd 01       		.byte	0x1
 2873 04de 6202     		.2byte	0x262
 2874 04e0 8C000000 		.4byte	0x8c
 2875 04e4 8D000000 		.4byte	.LLST4
 2876 04e8 10       		.uleb128 0x10
 2877 04e9 36000000 		.4byte	.LVL14
 2878 04ed 40170000 		.4byte	0x1740
 2879 04f1 00       		.byte	0
 2880 04f2 0C       		.uleb128 0xc
 2881 04f3 37000000 		.4byte	0x37
 2882 04f7 05050000 		.4byte	0x505
 2883 04fb 1B       		.uleb128 0x1b
 2884 04fc 11010000 		.4byte	0x111
 2885 0500 C2040000 		.4byte	0x4c2
 2886 0504 00       		.byte	0
 2887 0505 08       		.uleb128 0x8
 2888 0506 11010000 		.4byte	0x111
 2889 050a 15       		.uleb128 0x15
 2890 050b 24000000 		.4byte	.LASF83
 2891 050f 01       		.byte	0x1
 2892 0510 6D02     		.2byte	0x26d
 2893 0512 00000000 		.4byte	.LFB69
 2894 0516 14000000 		.4byte	.LFE69-.LFB69
 2895 051a 01       		.uleb128 0x1
 2896 051b 9C       		.byte	0x9c
 2897 051c 42050000 		.4byte	0x542
 2898 0520 17       		.uleb128 0x17
 2899 0521 D1060000 		.4byte	.LASF84
 2900 0525 01       		.byte	0x1
 2901 0526 6D02     		.2byte	0x26d
 2902 0528 18010000 		.4byte	0x118
 2903 052c C2000000 		.4byte	.LLST5
ARM GAS  C:\Users\Bart\AppData\Local\Temp\ccOIOErW.s 			page 70


 2904 0530 13       		.uleb128 0x13
 2905 0531 0C000000 		.4byte	.LVL17
 2906 0535 51170000 		.4byte	0x1751
 2907 0539 12       		.uleb128 0x12
 2908 053a 01       		.uleb128 0x1
 2909 053b 50       		.byte	0x50
 2910 053c 03       		.uleb128 0x3
 2911 053d F3       		.byte	0xf3
 2912 053e 01       		.uleb128 0x1
 2913 053f 50       		.byte	0x50
 2914 0540 00       		.byte	0
 2915 0541 00       		.byte	0
 2916 0542 1C       		.uleb128 0x1c
 2917 0543 F8000000 		.4byte	.LASF86
 2918 0547 01       		.byte	0x1
 2919 0548 40       		.byte	0x40
 2920 0549 00000000 		.4byte	.LFB67
 2921 054d F80A0000 		.4byte	.LFE67-.LFB67
 2922 0551 01       		.uleb128 0x1
 2923 0552 9C       		.byte	0x9c
 2924 0553 62140000 		.4byte	0x1462
 2925 0557 1D       		.uleb128 0x1d
 2926 0558 DD050000 		.4byte	.LASF87
 2927 055c 01       		.byte	0x1
 2928 055d 42       		.byte	0x42
 2929 055e 8C000000 		.4byte	0x8c
 2930 0562 00       		.byte	0
 2931 0563 1E       		.uleb128 0x1e
 2932 0564 69647800 		.ascii	"idx\000"
 2933 0568 01       		.byte	0x1
 2934 0569 43       		.byte	0x43
 2935 056a 8C000000 		.4byte	0x8c
 2936 056e E3000000 		.4byte	.LLST6
 2937 0572 1F       		.uleb128 0x1f
 2938 0573 FC010000 		.4byte	.LASF88
 2939 0577 01       		.byte	0x1
 2940 0578 44       		.byte	0x44
 2941 0579 62140000 		.4byte	0x1462
 2942 057d 02       		.uleb128 0x2
 2943 057e 91       		.byte	0x91
 2944 057f 5C       		.sleb128 -36
 2945 0580 1F       		.uleb128 0x1f
 2946 0581 87050000 		.4byte	.LASF89
 2947 0585 01       		.byte	0x1
 2948 0586 45       		.byte	0x45
 2949 0587 72140000 		.4byte	0x1472
 2950 058b 02       		.uleb128 0x2
 2951 058c 91       		.byte	0x91
 2952 058d 48       		.sleb128 -56
 2953 058e 1F       		.uleb128 0x1f
 2954 058f D1060000 		.4byte	.LASF84
 2955 0593 01       		.byte	0x1
 2956 0594 46       		.byte	0x46
 2957 0595 72140000 		.4byte	0x1472
 2958 0599 03       		.uleb128 0x3
 2959 059a 91       		.byte	0x91
 2960 059b B47F     		.sleb128 -76
ARM GAS  C:\Users\Bart\AppData\Local\Temp\ccOIOErW.s 			page 71


 2961 059d 1F       		.uleb128 0x1f
 2962 059e C5070000 		.4byte	.LASF90
 2963 05a2 01       		.byte	0x1
 2964 05a3 47       		.byte	0x47
 2965 05a4 82140000 		.4byte	0x1482
 2966 05a8 03       		.uleb128 0x3
 2967 05a9 91       		.byte	0x91
 2968 05aa AC7F     		.sleb128 -84
 2969 05ac 1F       		.uleb128 0x1f
 2970 05ad 01050000 		.4byte	.LASF91
 2971 05b1 01       		.byte	0x1
 2972 05b2 48       		.byte	0x48
 2973 05b3 92140000 		.4byte	0x1492
 2974 05b7 03       		.uleb128 0x3
 2975 05b8 91       		.byte	0x91
 2976 05b9 A07F     		.sleb128 -96
 2977 05bb 1F       		.uleb128 0x1f
 2978 05bc 9F050000 		.4byte	.LASF92
 2979 05c0 01       		.byte	0x1
 2980 05c1 4A       		.byte	0x4a
 2981 05c2 22020000 		.4byte	0x222
 2982 05c6 03       		.uleb128 0x3
 2983 05c7 91       		.byte	0x91
 2984 05c8 947F     		.sleb128 -108
 2985 05ca 11       		.uleb128 0x11
 2986 05cb 44000000 		.4byte	.LVL19
 2987 05cf 66170000 		.4byte	0x1766
 2988 05d3 DE050000 		.4byte	0x5de
 2989 05d7 12       		.uleb128 0x12
 2990 05d8 01       		.uleb128 0x1
 2991 05d9 50       		.byte	0x50
 2992 05da 02       		.uleb128 0x2
 2993 05db 91       		.byte	0x91
 2994 05dc 5C       		.sleb128 -36
 2995 05dd 00       		.byte	0
 2996 05de 11       		.uleb128 0x11
 2997 05df 4C000000 		.4byte	.LVL20
 2998 05e3 77170000 		.4byte	0x1777
 2999 05e7 F6050000 		.4byte	0x5f6
 3000 05eb 12       		.uleb128 0x12
 3001 05ec 01       		.uleb128 0x1
 3002 05ed 51       		.byte	0x51
 3003 05ee 01       		.uleb128 0x1
 3004 05ef 30       		.byte	0x30
 3005 05f0 12       		.uleb128 0x12
 3006 05f1 01       		.uleb128 0x1
 3007 05f2 50       		.byte	0x50
 3008 05f3 01       		.uleb128 0x1
 3009 05f4 30       		.byte	0x30
 3010 05f5 00       		.byte	0
 3011 05f6 11       		.uleb128 0x11
 3012 05f7 52000000 		.4byte	.LVL21
 3013 05fb 8D170000 		.4byte	0x178d
 3014 05ff 0A060000 		.4byte	0x60a
 3015 0603 12       		.uleb128 0x12
 3016 0604 01       		.uleb128 0x1
 3017 0605 50       		.byte	0x50
ARM GAS  C:\Users\Bart\AppData\Local\Temp\ccOIOErW.s 			page 72


 3018 0606 02       		.uleb128 0x2
 3019 0607 91       		.byte	0x91
 3020 0608 5C       		.sleb128 -36
 3021 0609 00       		.byte	0
 3022 060a 11       		.uleb128 0x11
 3023 060b 84000000 		.4byte	.LVL22
 3024 060f A9170000 		.4byte	0x17a9
 3025 0613 21060000 		.4byte	0x621
 3026 0617 12       		.uleb128 0x12
 3027 0618 01       		.uleb128 0x1
 3028 0619 50       		.byte	0x50
 3029 061a 05       		.uleb128 0x5
 3030 061b 03       		.byte	0x3
 3031 061c 00000000 		.4byte	.LC1
 3032 0620 00       		.byte	0
 3033 0621 11       		.uleb128 0x11
 3034 0622 8C000000 		.4byte	.LVL23
 3035 0626 0A050000 		.4byte	0x50a
 3036 062a 38060000 		.4byte	0x638
 3037 062e 12       		.uleb128 0x12
 3038 062f 01       		.uleb128 0x1
 3039 0630 50       		.byte	0x50
 3040 0631 05       		.uleb128 0x5
 3041 0632 03       		.byte	0x3
 3042 0633 04000000 		.4byte	.LC2
 3043 0637 00       		.byte	0
 3044 0638 11       		.uleb128 0x11
 3045 0639 94000000 		.4byte	.LVL24
 3046 063d 0A050000 		.4byte	0x50a
 3047 0641 4F060000 		.4byte	0x64f
 3048 0645 12       		.uleb128 0x12
 3049 0646 01       		.uleb128 0x1
 3050 0647 50       		.byte	0x50
 3051 0648 05       		.uleb128 0x5
 3052 0649 03       		.byte	0x3
 3053 064a 10000000 		.4byte	.LC3
 3054 064e 00       		.byte	0
 3055 064f 11       		.uleb128 0x11
 3056 0650 9C000000 		.4byte	.LVL25
 3057 0654 0A050000 		.4byte	0x50a
 3058 0658 66060000 		.4byte	0x666
 3059 065c 12       		.uleb128 0x12
 3060 065d 01       		.uleb128 0x1
 3061 065e 50       		.byte	0x50
 3062 065f 05       		.uleb128 0x5
 3063 0660 03       		.byte	0x3
 3064 0661 1C000000 		.4byte	.LC4
 3065 0665 00       		.byte	0
 3066 0666 10       		.uleb128 0x10
 3067 0667 CE000000 		.4byte	.LVL26
 3068 066b BE170000 		.4byte	0x17be
 3069 066f 11       		.uleb128 0x11
 3070 0670 D6000000 		.4byte	.LVL27
 3071 0674 BE170000 		.4byte	0x17be
 3072 0678 82060000 		.4byte	0x682
 3073 067c 12       		.uleb128 0x12
 3074 067d 01       		.uleb128 0x1
ARM GAS  C:\Users\Bart\AppData\Local\Temp\ccOIOErW.s 			page 73


 3075 067e 50       		.byte	0x50
 3076 067f 01       		.uleb128 0x1
 3077 0680 35       		.byte	0x35
 3078 0681 00       		.byte	0
 3079 0682 10       		.uleb128 0x10
 3080 0683 F2000000 		.4byte	.LVL28
 3081 0687 BE170000 		.4byte	0x17be
 3082 068b 11       		.uleb128 0x11
 3083 068c FA000000 		.4byte	.LVL29
 3084 0690 BE170000 		.4byte	0x17be
 3085 0694 9E060000 		.4byte	0x69e
 3086 0698 12       		.uleb128 0x12
 3087 0699 01       		.uleb128 0x1
 3088 069a 50       		.byte	0x50
 3089 069b 01       		.uleb128 0x1
 3090 069c 36       		.byte	0x36
 3091 069d 00       		.byte	0
 3092 069e 11       		.uleb128 0x11
 3093 069f 0C010000 		.4byte	.LVL30
 3094 06a3 BE170000 		.4byte	0x17be
 3095 06a7 B1060000 		.4byte	0x6b1
 3096 06ab 12       		.uleb128 0x12
 3097 06ac 01       		.uleb128 0x1
 3098 06ad 50       		.byte	0x50
 3099 06ae 01       		.uleb128 0x1
 3100 06af 30       		.byte	0x30
 3101 06b0 00       		.byte	0
 3102 06b1 11       		.uleb128 0x11
 3103 06b2 12010000 		.4byte	.LVL31
 3104 06b6 17170000 		.4byte	0x1717
 3105 06ba C5060000 		.4byte	0x6c5
 3106 06be 12       		.uleb128 0x12
 3107 06bf 01       		.uleb128 0x1
 3108 06c0 50       		.byte	0x50
 3109 06c1 02       		.uleb128 0x2
 3110 06c2 74       		.byte	0x74
 3111 06c3 00       		.sleb128 0
 3112 06c4 00       		.byte	0
 3113 06c5 11       		.uleb128 0x11
 3114 06c6 24010000 		.4byte	.LVL32
 3115 06ca CF170000 		.4byte	0x17cf
 3116 06ce E1060000 		.4byte	0x6e1
 3117 06d2 12       		.uleb128 0x12
 3118 06d3 01       		.uleb128 0x1
 3119 06d4 51       		.byte	0x51
 3120 06d5 03       		.uleb128 0x3
 3121 06d6 91       		.byte	0x91
 3122 06d7 A07F     		.sleb128 -96
 3123 06d9 12       		.uleb128 0x12
 3124 06da 01       		.uleb128 0x1
 3125 06db 50       		.byte	0x50
 3126 06dc 03       		.uleb128 0x3
 3127 06dd 91       		.byte	0x91
 3128 06de 947F     		.sleb128 -108
 3129 06e0 00       		.byte	0
 3130 06e1 11       		.uleb128 0x11
 3131 06e2 76010000 		.4byte	.LVL39
ARM GAS  C:\Users\Bart\AppData\Local\Temp\ccOIOErW.s 			page 74


 3132 06e6 77170000 		.4byte	0x1777
 3133 06ea F9060000 		.4byte	0x6f9
 3134 06ee 12       		.uleb128 0x12
 3135 06ef 01       		.uleb128 0x1
 3136 06f0 51       		.byte	0x51
 3137 06f1 01       		.uleb128 0x1
 3138 06f2 3B       		.byte	0x3b
 3139 06f3 12       		.uleb128 0x12
 3140 06f4 01       		.uleb128 0x1
 3141 06f5 50       		.byte	0x50
 3142 06f6 01       		.uleb128 0x1
 3143 06f7 30       		.byte	0x30
 3144 06f8 00       		.byte	0
 3145 06f9 11       		.uleb128 0x11
 3146 06fa 7C010000 		.4byte	.LVL40
 3147 06fe 8D170000 		.4byte	0x178d
 3148 0702 10070000 		.4byte	0x710
 3149 0706 12       		.uleb128 0x12
 3150 0707 01       		.uleb128 0x1
 3151 0708 50       		.byte	0x50
 3152 0709 05       		.uleb128 0x5
 3153 070a 03       		.byte	0x3
 3154 070b 28000000 		.4byte	.LC5
 3155 070f 00       		.byte	0
 3156 0710 11       		.uleb128 0x11
 3157 0711 88010000 		.4byte	.LVL41
 3158 0715 8D170000 		.4byte	0x178d
 3159 0719 27070000 		.4byte	0x727
 3160 071d 12       		.uleb128 0x12
 3161 071e 01       		.uleb128 0x1
 3162 071f 50       		.byte	0x50
 3163 0720 05       		.uleb128 0x5
 3164 0721 03       		.byte	0x3
 3165 0722 30000000 		.4byte	.LC6
 3166 0726 00       		.byte	0
 3167 0727 11       		.uleb128 0x11
 3168 0728 CE010000 		.4byte	.LVL48
 3169 072c 8D170000 		.4byte	0x178d
 3170 0730 3E070000 		.4byte	0x73e
 3171 0734 12       		.uleb128 0x12
 3172 0735 01       		.uleb128 0x1
 3173 0736 50       		.byte	0x50
 3174 0737 05       		.uleb128 0x5
 3175 0738 03       		.byte	0x3
 3176 0739 34000000 		.4byte	.LC7
 3177 073d 00       		.byte	0
 3178 073e 11       		.uleb128 0x11
 3179 073f E8010000 		.4byte	.LVL49
 3180 0743 77170000 		.4byte	0x1777
 3181 0747 56070000 		.4byte	0x756
 3182 074b 12       		.uleb128 0x12
 3183 074c 01       		.uleb128 0x1
 3184 074d 51       		.byte	0x51
 3185 074e 01       		.uleb128 0x1
 3186 074f 30       		.byte	0x30
 3187 0750 12       		.uleb128 0x12
 3188 0751 01       		.uleb128 0x1
ARM GAS  C:\Users\Bart\AppData\Local\Temp\ccOIOErW.s 			page 75


 3189 0752 50       		.byte	0x50
 3190 0753 01       		.uleb128 0x1
 3191 0754 31       		.byte	0x31
 3192 0755 00       		.byte	0
 3193 0756 11       		.uleb128 0x11
 3194 0757 EE010000 		.4byte	.LVL50
 3195 075b 8D170000 		.4byte	0x178d
 3196 075f 6D070000 		.4byte	0x76d
 3197 0763 12       		.uleb128 0x12
 3198 0764 01       		.uleb128 0x1
 3199 0765 50       		.byte	0x50
 3200 0766 05       		.uleb128 0x5
 3201 0767 03       		.byte	0x3
 3202 0768 38000000 		.4byte	.LC9
 3203 076c 00       		.byte	0
 3204 076d 11       		.uleb128 0x11
 3205 076e 00020000 		.4byte	.LVL52
 3206 0772 F1170000 		.4byte	0x17f1
 3207 0776 88070000 		.4byte	0x788
 3208 077a 12       		.uleb128 0x12
 3209 077b 01       		.uleb128 0x1
 3210 077c 51       		.byte	0x51
 3211 077d 03       		.uleb128 0x3
 3212 077e 91       		.byte	0x91
 3213 077f AC7F     		.sleb128 -84
 3214 0781 12       		.uleb128 0x12
 3215 0782 01       		.uleb128 0x1
 3216 0783 50       		.byte	0x50
 3217 0784 02       		.uleb128 0x2
 3218 0785 91       		.byte	0x91
 3219 0786 48       		.sleb128 -56
 3220 0787 00       		.byte	0
 3221 0788 11       		.uleb128 0x11
 3222 0789 06020000 		.4byte	.LVL53
 3223 078d 8D170000 		.4byte	0x178d
 3224 0791 9C070000 		.4byte	0x79c
 3225 0795 12       		.uleb128 0x12
 3226 0796 01       		.uleb128 0x1
 3227 0797 50       		.byte	0x50
 3228 0798 02       		.uleb128 0x2
 3229 0799 91       		.byte	0x91
 3230 079a 48       		.sleb128 -56
 3231 079b 00       		.byte	0
 3232 079c 11       		.uleb128 0x11
 3233 079d 0E020000 		.4byte	.LVL54
 3234 07a1 77170000 		.4byte	0x1777
 3235 07a5 B4070000 		.4byte	0x7b4
 3236 07a9 12       		.uleb128 0x12
 3237 07aa 01       		.uleb128 0x1
 3238 07ab 51       		.byte	0x51
 3239 07ac 01       		.uleb128 0x1
 3240 07ad 30       		.byte	0x30
 3241 07ae 12       		.uleb128 0x12
 3242 07af 01       		.uleb128 0x1
 3243 07b0 50       		.byte	0x50
 3244 07b1 01       		.uleb128 0x1
 3245 07b2 32       		.byte	0x32
ARM GAS  C:\Users\Bart\AppData\Local\Temp\ccOIOErW.s 			page 76


 3246 07b3 00       		.byte	0
 3247 07b4 11       		.uleb128 0x11
 3248 07b5 14020000 		.4byte	.LVL55
 3249 07b9 8D170000 		.4byte	0x178d
 3250 07bd CB070000 		.4byte	0x7cb
 3251 07c1 12       		.uleb128 0x12
 3252 07c2 01       		.uleb128 0x1
 3253 07c3 50       		.byte	0x50
 3254 07c4 05       		.uleb128 0x5
 3255 07c5 03       		.byte	0x3
 3256 07c6 3C000000 		.4byte	.LC10
 3257 07ca 00       		.byte	0
 3258 07cb 11       		.uleb128 0x11
 3259 07cc 26020000 		.4byte	.LVL57
 3260 07d0 F1170000 		.4byte	0x17f1
 3261 07d4 E6070000 		.4byte	0x7e6
 3262 07d8 12       		.uleb128 0x12
 3263 07d9 01       		.uleb128 0x1
 3264 07da 51       		.byte	0x51
 3265 07db 03       		.uleb128 0x3
 3266 07dc 91       		.byte	0x91
 3267 07dd AC7F     		.sleb128 -84
 3268 07df 12       		.uleb128 0x12
 3269 07e0 01       		.uleb128 0x1
 3270 07e1 50       		.byte	0x50
 3271 07e2 02       		.uleb128 0x2
 3272 07e3 91       		.byte	0x91
 3273 07e4 48       		.sleb128 -56
 3274 07e5 00       		.byte	0
 3275 07e6 11       		.uleb128 0x11
 3276 07e7 2C020000 		.4byte	.LVL58
 3277 07eb 8D170000 		.4byte	0x178d
 3278 07ef FA070000 		.4byte	0x7fa
 3279 07f3 12       		.uleb128 0x12
 3280 07f4 01       		.uleb128 0x1
 3281 07f5 50       		.byte	0x50
 3282 07f6 02       		.uleb128 0x2
 3283 07f7 91       		.byte	0x91
 3284 07f8 48       		.sleb128 -56
 3285 07f9 00       		.byte	0
 3286 07fa 11       		.uleb128 0x11
 3287 07fb 34020000 		.4byte	.LVL59
 3288 07ff 77170000 		.4byte	0x1777
 3289 0803 12080000 		.4byte	0x812
 3290 0807 12       		.uleb128 0x12
 3291 0808 01       		.uleb128 0x1
 3292 0809 51       		.byte	0x51
 3293 080a 01       		.uleb128 0x1
 3294 080b 30       		.byte	0x30
 3295 080c 12       		.uleb128 0x12
 3296 080d 01       		.uleb128 0x1
 3297 080e 50       		.byte	0x50
 3298 080f 01       		.uleb128 0x1
 3299 0810 33       		.byte	0x33
 3300 0811 00       		.byte	0
 3301 0812 11       		.uleb128 0x11
 3302 0813 3A020000 		.4byte	.LVL60
ARM GAS  C:\Users\Bart\AppData\Local\Temp\ccOIOErW.s 			page 77


 3303 0817 8D170000 		.4byte	0x178d
 3304 081b 29080000 		.4byte	0x829
 3305 081f 12       		.uleb128 0x12
 3306 0820 01       		.uleb128 0x1
 3307 0821 50       		.byte	0x50
 3308 0822 05       		.uleb128 0x5
 3309 0823 03       		.byte	0x3
 3310 0824 40000000 		.4byte	.LC11
 3311 0828 00       		.byte	0
 3312 0829 11       		.uleb128 0x11
 3313 082a 4C020000 		.4byte	.LVL62
 3314 082e F1170000 		.4byte	0x17f1
 3315 0832 44080000 		.4byte	0x844
 3316 0836 12       		.uleb128 0x12
 3317 0837 01       		.uleb128 0x1
 3318 0838 51       		.byte	0x51
 3319 0839 03       		.uleb128 0x3
 3320 083a 91       		.byte	0x91
 3321 083b AC7F     		.sleb128 -84
 3322 083d 12       		.uleb128 0x12
 3323 083e 01       		.uleb128 0x1
 3324 083f 50       		.byte	0x50
 3325 0840 02       		.uleb128 0x2
 3326 0841 91       		.byte	0x91
 3327 0842 48       		.sleb128 -56
 3328 0843 00       		.byte	0
 3329 0844 11       		.uleb128 0x11
 3330 0845 52020000 		.4byte	.LVL63
 3331 0849 8D170000 		.4byte	0x178d
 3332 084d 58080000 		.4byte	0x858
 3333 0851 12       		.uleb128 0x12
 3334 0852 01       		.uleb128 0x1
 3335 0853 50       		.byte	0x50
 3336 0854 02       		.uleb128 0x2
 3337 0855 91       		.byte	0x91
 3338 0856 48       		.sleb128 -56
 3339 0857 00       		.byte	0
 3340 0858 11       		.uleb128 0x11
 3341 0859 5A020000 		.4byte	.LVL64
 3342 085d 77170000 		.4byte	0x1777
 3343 0861 70080000 		.4byte	0x870
 3344 0865 12       		.uleb128 0x12
 3345 0866 01       		.uleb128 0x1
 3346 0867 51       		.byte	0x51
 3347 0868 01       		.uleb128 0x1
 3348 0869 3B       		.byte	0x3b
 3349 086a 12       		.uleb128 0x12
 3350 086b 01       		.uleb128 0x1
 3351 086c 50       		.byte	0x50
 3352 086d 01       		.uleb128 0x1
 3353 086e 31       		.byte	0x31
 3354 086f 00       		.byte	0
 3355 0870 11       		.uleb128 0x11
 3356 0871 60020000 		.4byte	.LVL65
 3357 0875 8D170000 		.4byte	0x178d
 3358 0879 87080000 		.4byte	0x887
 3359 087d 12       		.uleb128 0x12
ARM GAS  C:\Users\Bart\AppData\Local\Temp\ccOIOErW.s 			page 78


 3360 087e 01       		.uleb128 0x1
 3361 087f 50       		.byte	0x50
 3362 0880 05       		.uleb128 0x5
 3363 0881 03       		.byte	0x3
 3364 0882 44000000 		.4byte	.LC12
 3365 0886 00       		.byte	0
 3366 0887 11       		.uleb128 0x11
 3367 0888 70020000 		.4byte	.LVL66
 3368 088c F1170000 		.4byte	0x17f1
 3369 0890 A1080000 		.4byte	0x8a1
 3370 0894 12       		.uleb128 0x12
 3371 0895 01       		.uleb128 0x1
 3372 0896 51       		.byte	0x51
 3373 0897 02       		.uleb128 0x2
 3374 0898 76       		.byte	0x76
 3375 0899 00       		.sleb128 0
 3376 089a 12       		.uleb128 0x12
 3377 089b 01       		.uleb128 0x1
 3378 089c 50       		.byte	0x50
 3379 089d 02       		.uleb128 0x2
 3380 089e 91       		.byte	0x91
 3381 089f 48       		.sleb128 -56
 3382 08a0 00       		.byte	0
 3383 08a1 11       		.uleb128 0x11
 3384 08a2 76020000 		.4byte	.LVL67
 3385 08a6 8D170000 		.4byte	0x178d
 3386 08aa B5080000 		.4byte	0x8b5
 3387 08ae 12       		.uleb128 0x12
 3388 08af 01       		.uleb128 0x1
 3389 08b0 50       		.byte	0x50
 3390 08b1 02       		.uleb128 0x2
 3391 08b2 91       		.byte	0x91
 3392 08b3 48       		.sleb128 -56
 3393 08b4 00       		.byte	0
 3394 08b5 11       		.uleb128 0x11
 3395 08b6 7E020000 		.4byte	.LVL69
 3396 08ba 8D170000 		.4byte	0x178d
 3397 08be C9080000 		.4byte	0x8c9
 3398 08c2 12       		.uleb128 0x12
 3399 08c3 01       		.uleb128 0x1
 3400 08c4 50       		.byte	0x50
 3401 08c5 02       		.uleb128 0x2
 3402 08c6 74       		.byte	0x74
 3403 08c7 00       		.sleb128 0
 3404 08c8 00       		.byte	0
 3405 08c9 11       		.uleb128 0x11
 3406 08ca 86020000 		.4byte	.LVL70
 3407 08ce 77170000 		.4byte	0x1777
 3408 08d2 E1080000 		.4byte	0x8e1
 3409 08d6 12       		.uleb128 0x12
 3410 08d7 01       		.uleb128 0x1
 3411 08d8 51       		.byte	0x51
 3412 08d9 01       		.uleb128 0x1
 3413 08da 3B       		.byte	0x3b
 3414 08db 12       		.uleb128 0x12
 3415 08dc 01       		.uleb128 0x1
 3416 08dd 50       		.byte	0x50
ARM GAS  C:\Users\Bart\AppData\Local\Temp\ccOIOErW.s 			page 79


 3417 08de 01       		.uleb128 0x1
 3418 08df 32       		.byte	0x32
 3419 08e0 00       		.byte	0
 3420 08e1 11       		.uleb128 0x11
 3421 08e2 8C020000 		.4byte	.LVL71
 3422 08e6 8D170000 		.4byte	0x178d
 3423 08ea F8080000 		.4byte	0x8f8
 3424 08ee 12       		.uleb128 0x12
 3425 08ef 01       		.uleb128 0x1
 3426 08f0 50       		.byte	0x50
 3427 08f1 05       		.uleb128 0x5
 3428 08f2 03       		.byte	0x3
 3429 08f3 54000000 		.4byte	.LC15
 3430 08f7 00       		.byte	0
 3431 08f8 11       		.uleb128 0x11
 3432 08f9 98020000 		.4byte	.LVL72
 3433 08fd F1170000 		.4byte	0x17f1
 3434 0901 12090000 		.4byte	0x912
 3435 0905 12       		.uleb128 0x12
 3436 0906 01       		.uleb128 0x1
 3437 0907 51       		.byte	0x51
 3438 0908 02       		.uleb128 0x2
 3439 0909 76       		.byte	0x76
 3440 090a 00       		.sleb128 0
 3441 090b 12       		.uleb128 0x12
 3442 090c 01       		.uleb128 0x1
 3443 090d 50       		.byte	0x50
 3444 090e 02       		.uleb128 0x2
 3445 090f 91       		.byte	0x91
 3446 0910 48       		.sleb128 -56
 3447 0911 00       		.byte	0
 3448 0912 11       		.uleb128 0x11
 3449 0913 9E020000 		.4byte	.LVL73
 3450 0917 8D170000 		.4byte	0x178d
 3451 091b 26090000 		.4byte	0x926
 3452 091f 12       		.uleb128 0x12
 3453 0920 01       		.uleb128 0x1
 3454 0921 50       		.byte	0x50
 3455 0922 02       		.uleb128 0x2
 3456 0923 91       		.byte	0x91
 3457 0924 48       		.sleb128 -56
 3458 0925 00       		.byte	0
 3459 0926 11       		.uleb128 0x11
 3460 0927 A4020000 		.4byte	.LVL74
 3461 092b 8D170000 		.4byte	0x178d
 3462 092f 3A090000 		.4byte	0x93a
 3463 0933 12       		.uleb128 0x12
 3464 0934 01       		.uleb128 0x1
 3465 0935 50       		.byte	0x50
 3466 0936 02       		.uleb128 0x2
 3467 0937 74       		.byte	0x74
 3468 0938 00       		.sleb128 0
 3469 0939 00       		.byte	0
 3470 093a 11       		.uleb128 0x11
 3471 093b AC020000 		.4byte	.LVL75
 3472 093f 77170000 		.4byte	0x1777
 3473 0943 52090000 		.4byte	0x952
ARM GAS  C:\Users\Bart\AppData\Local\Temp\ccOIOErW.s 			page 80


 3474 0947 12       		.uleb128 0x12
 3475 0948 01       		.uleb128 0x1
 3476 0949 51       		.byte	0x51
 3477 094a 01       		.uleb128 0x1
 3478 094b 3B       		.byte	0x3b
 3479 094c 12       		.uleb128 0x12
 3480 094d 01       		.uleb128 0x1
 3481 094e 50       		.byte	0x50
 3482 094f 01       		.uleb128 0x1
 3483 0950 33       		.byte	0x33
 3484 0951 00       		.byte	0
 3485 0952 11       		.uleb128 0x11
 3486 0953 B2020000 		.4byte	.LVL76
 3487 0957 8D170000 		.4byte	0x178d
 3488 095b 69090000 		.4byte	0x969
 3489 095f 12       		.uleb128 0x12
 3490 0960 01       		.uleb128 0x1
 3491 0961 50       		.byte	0x50
 3492 0962 05       		.uleb128 0x5
 3493 0963 03       		.byte	0x3
 3494 0964 5C000000 		.4byte	.LC16
 3495 0968 00       		.byte	0
 3496 0969 11       		.uleb128 0x11
 3497 096a B8020000 		.4byte	.LVL77
 3498 096e 40170000 		.4byte	0x1740
 3499 0972 7C090000 		.4byte	0x97c
 3500 0976 12       		.uleb128 0x12
 3501 0977 01       		.uleb128 0x1
 3502 0978 50       		.byte	0x50
 3503 0979 01       		.uleb128 0x1
 3504 097a 32       		.byte	0x32
 3505 097b 00       		.byte	0
 3506 097c 10       		.uleb128 0x10
 3507 097d 34030000 		.4byte	.LVL78
 3508 0981 0C180000 		.4byte	0x180c
 3509 0985 10       		.uleb128 0x10
 3510 0986 56030000 		.4byte	.LVL79
 3511 098a 0C180000 		.4byte	0x180c
 3512 098e 10       		.uleb128 0x10
 3513 098f 72030000 		.4byte	.LVL80
 3514 0993 0C180000 		.4byte	0x180c
 3515 0997 10       		.uleb128 0x10
 3516 0998 A0030000 		.4byte	.LVL81
 3517 099c BE170000 		.4byte	0x17be
 3518 09a0 11       		.uleb128 0x11
 3519 09a1 A6030000 		.4byte	.LVL82
 3520 09a5 17170000 		.4byte	0x1717
 3521 09a9 B3090000 		.4byte	0x9b3
 3522 09ad 12       		.uleb128 0x12
 3523 09ae 01       		.uleb128 0x1
 3524 09af 50       		.byte	0x50
 3525 09b0 01       		.uleb128 0x1
 3526 09b1 3C       		.byte	0x3c
 3527 09b2 00       		.byte	0
 3528 09b3 11       		.uleb128 0x11
 3529 09b4 C6030000 		.4byte	.LVL83
 3530 09b8 77170000 		.4byte	0x1777
ARM GAS  C:\Users\Bart\AppData\Local\Temp\ccOIOErW.s 			page 81


 3531 09bc CB090000 		.4byte	0x9cb
 3532 09c0 12       		.uleb128 0x12
 3533 09c1 01       		.uleb128 0x1
 3534 09c2 51       		.byte	0x51
 3535 09c3 01       		.uleb128 0x1
 3536 09c4 30       		.byte	0x30
 3537 09c5 12       		.uleb128 0x12
 3538 09c6 01       		.uleb128 0x1
 3539 09c7 50       		.byte	0x50
 3540 09c8 01       		.uleb128 0x1
 3541 09c9 30       		.byte	0x30
 3542 09ca 00       		.byte	0
 3543 09cb 11       		.uleb128 0x11
 3544 09cc CC030000 		.4byte	.LVL84
 3545 09d0 40170000 		.4byte	0x1740
 3546 09d4 DE090000 		.4byte	0x9de
 3547 09d8 12       		.uleb128 0x12
 3548 09d9 01       		.uleb128 0x1
 3549 09da 50       		.byte	0x50
 3550 09db 01       		.uleb128 0x1
 3551 09dc 30       		.byte	0x30
 3552 09dd 00       		.byte	0
 3553 09de 11       		.uleb128 0x11
 3554 09df D6030000 		.4byte	.LVL85
 3555 09e3 77170000 		.4byte	0x1777
 3556 09e7 F6090000 		.4byte	0x9f6
 3557 09eb 12       		.uleb128 0x12
 3558 09ec 01       		.uleb128 0x1
 3559 09ed 51       		.byte	0x51
 3560 09ee 01       		.uleb128 0x1
 3561 09ef 30       		.byte	0x30
 3562 09f0 12       		.uleb128 0x12
 3563 09f1 01       		.uleb128 0x1
 3564 09f2 50       		.byte	0x50
 3565 09f3 01       		.uleb128 0x1
 3566 09f4 31       		.byte	0x31
 3567 09f5 00       		.byte	0
 3568 09f6 11       		.uleb128 0x11
 3569 09f7 DC030000 		.4byte	.LVL86
 3570 09fb 40170000 		.4byte	0x1740
 3571 09ff 090A0000 		.4byte	0xa09
 3572 0a03 12       		.uleb128 0x12
 3573 0a04 01       		.uleb128 0x1
 3574 0a05 50       		.byte	0x50
 3575 0a06 01       		.uleb128 0x1
 3576 0a07 30       		.byte	0x30
 3577 0a08 00       		.byte	0
 3578 0a09 11       		.uleb128 0x11
 3579 0a0a E6030000 		.4byte	.LVL87
 3580 0a0e 77170000 		.4byte	0x1777
 3581 0a12 210A0000 		.4byte	0xa21
 3582 0a16 12       		.uleb128 0x12
 3583 0a17 01       		.uleb128 0x1
 3584 0a18 51       		.byte	0x51
 3585 0a19 01       		.uleb128 0x1
 3586 0a1a 30       		.byte	0x30
 3587 0a1b 12       		.uleb128 0x12
ARM GAS  C:\Users\Bart\AppData\Local\Temp\ccOIOErW.s 			page 82


 3588 0a1c 01       		.uleb128 0x1
 3589 0a1d 50       		.byte	0x50
 3590 0a1e 01       		.uleb128 0x1
 3591 0a1f 32       		.byte	0x32
 3592 0a20 00       		.byte	0
 3593 0a21 11       		.uleb128 0x11
 3594 0a22 EC030000 		.4byte	.LVL88
 3595 0a26 40170000 		.4byte	0x1740
 3596 0a2a 340A0000 		.4byte	0xa34
 3597 0a2e 12       		.uleb128 0x12
 3598 0a2f 01       		.uleb128 0x1
 3599 0a30 50       		.byte	0x50
 3600 0a31 01       		.uleb128 0x1
 3601 0a32 30       		.byte	0x30
 3602 0a33 00       		.byte	0
 3603 0a34 11       		.uleb128 0x11
 3604 0a35 F6030000 		.4byte	.LVL89
 3605 0a39 77170000 		.4byte	0x1777
 3606 0a3d 4C0A0000 		.4byte	0xa4c
 3607 0a41 12       		.uleb128 0x12
 3608 0a42 01       		.uleb128 0x1
 3609 0a43 51       		.byte	0x51
 3610 0a44 01       		.uleb128 0x1
 3611 0a45 30       		.byte	0x30
 3612 0a46 12       		.uleb128 0x12
 3613 0a47 01       		.uleb128 0x1
 3614 0a48 50       		.byte	0x50
 3615 0a49 01       		.uleb128 0x1
 3616 0a4a 33       		.byte	0x33
 3617 0a4b 00       		.byte	0
 3618 0a4c 11       		.uleb128 0x11
 3619 0a4d FC030000 		.4byte	.LVL90
 3620 0a51 40170000 		.4byte	0x1740
 3621 0a55 5F0A0000 		.4byte	0xa5f
 3622 0a59 12       		.uleb128 0x12
 3623 0a5a 01       		.uleb128 0x1
 3624 0a5b 50       		.byte	0x50
 3625 0a5c 01       		.uleb128 0x1
 3626 0a5d 30       		.byte	0x30
 3627 0a5e 00       		.byte	0
 3628 0a5f 11       		.uleb128 0x11
 3629 0a60 06040000 		.4byte	.LVL91
 3630 0a64 77170000 		.4byte	0x1777
 3631 0a68 770A0000 		.4byte	0xa77
 3632 0a6c 12       		.uleb128 0x12
 3633 0a6d 01       		.uleb128 0x1
 3634 0a6e 51       		.byte	0x51
 3635 0a6f 01       		.uleb128 0x1
 3636 0a70 3B       		.byte	0x3b
 3637 0a71 12       		.uleb128 0x12
 3638 0a72 01       		.uleb128 0x1
 3639 0a73 50       		.byte	0x50
 3640 0a74 01       		.uleb128 0x1
 3641 0a75 30       		.byte	0x30
 3642 0a76 00       		.byte	0
 3643 0a77 11       		.uleb128 0x11
 3644 0a78 0C040000 		.4byte	.LVL92
ARM GAS  C:\Users\Bart\AppData\Local\Temp\ccOIOErW.s 			page 83


 3645 0a7c 40170000 		.4byte	0x1740
 3646 0a80 8A0A0000 		.4byte	0xa8a
 3647 0a84 12       		.uleb128 0x12
 3648 0a85 01       		.uleb128 0x1
 3649 0a86 50       		.byte	0x50
 3650 0a87 01       		.uleb128 0x1
 3651 0a88 30       		.byte	0x30
 3652 0a89 00       		.byte	0
 3653 0a8a 11       		.uleb128 0x11
 3654 0a8b 16040000 		.4byte	.LVL93
 3655 0a8f 77170000 		.4byte	0x1777
 3656 0a93 A20A0000 		.4byte	0xaa2
 3657 0a97 12       		.uleb128 0x12
 3658 0a98 01       		.uleb128 0x1
 3659 0a99 51       		.byte	0x51
 3660 0a9a 01       		.uleb128 0x1
 3661 0a9b 3B       		.byte	0x3b
 3662 0a9c 12       		.uleb128 0x12
 3663 0a9d 01       		.uleb128 0x1
 3664 0a9e 50       		.byte	0x50
 3665 0a9f 01       		.uleb128 0x1
 3666 0aa0 31       		.byte	0x31
 3667 0aa1 00       		.byte	0
 3668 0aa2 11       		.uleb128 0x11
 3669 0aa3 1C040000 		.4byte	.LVL94
 3670 0aa7 40170000 		.4byte	0x1740
 3671 0aab B50A0000 		.4byte	0xab5
 3672 0aaf 12       		.uleb128 0x12
 3673 0ab0 01       		.uleb128 0x1
 3674 0ab1 50       		.byte	0x50
 3675 0ab2 01       		.uleb128 0x1
 3676 0ab3 30       		.byte	0x30
 3677 0ab4 00       		.byte	0
 3678 0ab5 11       		.uleb128 0x11
 3679 0ab6 2E040000 		.4byte	.LVL95
 3680 0aba 77170000 		.4byte	0x1777
 3681 0abe CD0A0000 		.4byte	0xacd
 3682 0ac2 12       		.uleb128 0x12
 3683 0ac3 01       		.uleb128 0x1
 3684 0ac4 51       		.byte	0x51
 3685 0ac5 01       		.uleb128 0x1
 3686 0ac6 3B       		.byte	0x3b
 3687 0ac7 12       		.uleb128 0x12
 3688 0ac8 01       		.uleb128 0x1
 3689 0ac9 50       		.byte	0x50
 3690 0aca 01       		.uleb128 0x1
 3691 0acb 31       		.byte	0x31
 3692 0acc 00       		.byte	0
 3693 0acd 11       		.uleb128 0x11
 3694 0ace 34040000 		.4byte	.LVL96
 3695 0ad2 17170000 		.4byte	0x1717
 3696 0ad6 E00A0000 		.4byte	0xae0
 3697 0ada 12       		.uleb128 0x12
 3698 0adb 01       		.uleb128 0x1
 3699 0adc 50       		.byte	0x50
 3700 0add 01       		.uleb128 0x1
 3701 0ade 3D       		.byte	0x3d
ARM GAS  C:\Users\Bart\AppData\Local\Temp\ccOIOErW.s 			page 84


 3702 0adf 00       		.byte	0
 3703 0ae0 11       		.uleb128 0x11
 3704 0ae1 3E040000 		.4byte	.LVL97
 3705 0ae5 77170000 		.4byte	0x1777
 3706 0ae9 F80A0000 		.4byte	0xaf8
 3707 0aed 12       		.uleb128 0x12
 3708 0aee 01       		.uleb128 0x1
 3709 0aef 51       		.byte	0x51
 3710 0af0 01       		.uleb128 0x1
 3711 0af1 3B       		.byte	0x3b
 3712 0af2 12       		.uleb128 0x12
 3713 0af3 01       		.uleb128 0x1
 3714 0af4 50       		.byte	0x50
 3715 0af5 01       		.uleb128 0x1
 3716 0af6 32       		.byte	0x32
 3717 0af7 00       		.byte	0
 3718 0af8 11       		.uleb128 0x11
 3719 0af9 44040000 		.4byte	.LVL98
 3720 0afd 40170000 		.4byte	0x1740
 3721 0b01 0B0B0000 		.4byte	0xb0b
 3722 0b05 12       		.uleb128 0x12
 3723 0b06 01       		.uleb128 0x1
 3724 0b07 50       		.byte	0x50
 3725 0b08 01       		.uleb128 0x1
 3726 0b09 30       		.byte	0x30
 3727 0b0a 00       		.byte	0
 3728 0b0b 11       		.uleb128 0x11
 3729 0b0c 56040000 		.4byte	.LVL99
 3730 0b10 77170000 		.4byte	0x1777
 3731 0b14 230B0000 		.4byte	0xb23
 3732 0b18 12       		.uleb128 0x12
 3733 0b19 01       		.uleb128 0x1
 3734 0b1a 51       		.byte	0x51
 3735 0b1b 01       		.uleb128 0x1
 3736 0b1c 3B       		.byte	0x3b
 3737 0b1d 12       		.uleb128 0x12
 3738 0b1e 01       		.uleb128 0x1
 3739 0b1f 50       		.byte	0x50
 3740 0b20 01       		.uleb128 0x1
 3741 0b21 32       		.byte	0x32
 3742 0b22 00       		.byte	0
 3743 0b23 11       		.uleb128 0x11
 3744 0b24 5C040000 		.4byte	.LVL100
 3745 0b28 17170000 		.4byte	0x1717
 3746 0b2c 360B0000 		.4byte	0xb36
 3747 0b30 12       		.uleb128 0x12
 3748 0b31 01       		.uleb128 0x1
 3749 0b32 50       		.byte	0x50
 3750 0b33 01       		.uleb128 0x1
 3751 0b34 3D       		.byte	0x3d
 3752 0b35 00       		.byte	0
 3753 0b36 11       		.uleb128 0x11
 3754 0b37 66040000 		.4byte	.LVL101
 3755 0b3b 77170000 		.4byte	0x1777
 3756 0b3f 4E0B0000 		.4byte	0xb4e
 3757 0b43 12       		.uleb128 0x12
 3758 0b44 01       		.uleb128 0x1
ARM GAS  C:\Users\Bart\AppData\Local\Temp\ccOIOErW.s 			page 85


 3759 0b45 51       		.byte	0x51
 3760 0b46 01       		.uleb128 0x1
 3761 0b47 3B       		.byte	0x3b
 3762 0b48 12       		.uleb128 0x12
 3763 0b49 01       		.uleb128 0x1
 3764 0b4a 50       		.byte	0x50
 3765 0b4b 01       		.uleb128 0x1
 3766 0b4c 33       		.byte	0x33
 3767 0b4d 00       		.byte	0
 3768 0b4e 11       		.uleb128 0x11
 3769 0b4f 6C040000 		.4byte	.LVL102
 3770 0b53 40170000 		.4byte	0x1740
 3771 0b57 610B0000 		.4byte	0xb61
 3772 0b5b 12       		.uleb128 0x12
 3773 0b5c 01       		.uleb128 0x1
 3774 0b5d 50       		.byte	0x50
 3775 0b5e 01       		.uleb128 0x1
 3776 0b5f 30       		.byte	0x30
 3777 0b60 00       		.byte	0
 3778 0b61 11       		.uleb128 0x11
 3779 0b62 A8040000 		.4byte	.LVL103
 3780 0b66 17170000 		.4byte	0x1717
 3781 0b6a 740B0000 		.4byte	0xb74
 3782 0b6e 12       		.uleb128 0x12
 3783 0b6f 01       		.uleb128 0x1
 3784 0b70 50       		.byte	0x50
 3785 0b71 01       		.uleb128 0x1
 3786 0b72 31       		.byte	0x31
 3787 0b73 00       		.byte	0
 3788 0b74 10       		.uleb128 0x10
 3789 0b75 BA040000 		.4byte	.LVL104
 3790 0b79 17180000 		.4byte	0x1817
 3791 0b7d 11       		.uleb128 0x11
 3792 0b7e C6040000 		.4byte	.LVL105
 3793 0b82 28180000 		.4byte	0x1828
 3794 0b86 900B0000 		.4byte	0xb90
 3795 0b8a 12       		.uleb128 0x12
 3796 0b8b 01       		.uleb128 0x1
 3797 0b8c 50       		.byte	0x50
 3798 0b8d 01       		.uleb128 0x1
 3799 0b8e 30       		.byte	0x30
 3800 0b8f 00       		.byte	0
 3801 0b90 10       		.uleb128 0x10
 3802 0b91 D4040000 		.4byte	.LVL106
 3803 0b95 39180000 		.4byte	0x1839
 3804 0b99 11       		.uleb128 0x11
 3805 0b9a DC040000 		.4byte	.LVL107
 3806 0b9e 0A050000 		.4byte	0x50a
 3807 0ba2 B00B0000 		.4byte	0xbb0
 3808 0ba6 12       		.uleb128 0x12
 3809 0ba7 01       		.uleb128 0x1
 3810 0ba8 50       		.byte	0x50
 3811 0ba9 05       		.uleb128 0x5
 3812 0baa 03       		.byte	0x3
 3813 0bab 64000000 		.4byte	.LC17
 3814 0baf 00       		.byte	0
 3815 0bb0 11       		.uleb128 0x11
ARM GAS  C:\Users\Bart\AppData\Local\Temp\ccOIOErW.s 			page 86


 3816 0bb1 F2040000 		.4byte	.LVL108
 3817 0bb5 BE170000 		.4byte	0x17be
 3818 0bb9 C30B0000 		.4byte	0xbc3
 3819 0bbd 12       		.uleb128 0x12
 3820 0bbe 01       		.uleb128 0x1
 3821 0bbf 50       		.byte	0x50
 3822 0bc0 01       		.uleb128 0x1
 3823 0bc1 30       		.byte	0x30
 3824 0bc2 00       		.byte	0
 3825 0bc3 11       		.uleb128 0x11
 3826 0bc4 F8040000 		.4byte	.LVL109
 3827 0bc8 17170000 		.4byte	0x1717
 3828 0bcc D60B0000 		.4byte	0xbd6
 3829 0bd0 12       		.uleb128 0x12
 3830 0bd1 01       		.uleb128 0x1
 3831 0bd2 50       		.byte	0x50
 3832 0bd3 01       		.uleb128 0x1
 3833 0bd4 31       		.byte	0x31
 3834 0bd5 00       		.byte	0
 3835 0bd6 11       		.uleb128 0x11
 3836 0bd7 00050000 		.4byte	.LVL110
 3837 0bdb 0A050000 		.4byte	0x50a
 3838 0bdf ED0B0000 		.4byte	0xbed
 3839 0be3 12       		.uleb128 0x12
 3840 0be4 01       		.uleb128 0x1
 3841 0be5 50       		.byte	0x50
 3842 0be6 05       		.uleb128 0x5
 3843 0be7 03       		.byte	0x3
 3844 0be8 70000000 		.4byte	.LC18
 3845 0bec 00       		.byte	0
 3846 0bed 11       		.uleb128 0x11
 3847 0bee 08050000 		.4byte	.LVL111
 3848 0bf2 0A050000 		.4byte	0x50a
 3849 0bf6 040C0000 		.4byte	0xc04
 3850 0bfa 12       		.uleb128 0x12
 3851 0bfb 01       		.uleb128 0x1
 3852 0bfc 50       		.byte	0x50
 3853 0bfd 05       		.uleb128 0x5
 3854 0bfe 03       		.byte	0x3
 3855 0bff 78000000 		.4byte	.LC19
 3856 0c03 00       		.byte	0
 3857 0c04 11       		.uleb128 0x11
 3858 0c05 10050000 		.4byte	.LVL112
 3859 0c09 0A050000 		.4byte	0x50a
 3860 0c0d 1B0C0000 		.4byte	0xc1b
 3861 0c11 12       		.uleb128 0x12
 3862 0c12 01       		.uleb128 0x1
 3863 0c13 50       		.byte	0x50
 3864 0c14 05       		.uleb128 0x5
 3865 0c15 03       		.byte	0x3
 3866 0c16 7C000000 		.4byte	.LC20
 3867 0c1a 00       		.byte	0
 3868 0c1b 11       		.uleb128 0x11
 3869 0c1c 46050000 		.4byte	.LVL113
 3870 0c20 17170000 		.4byte	0x1717
 3871 0c24 2E0C0000 		.4byte	0xc2e
 3872 0c28 12       		.uleb128 0x12
ARM GAS  C:\Users\Bart\AppData\Local\Temp\ccOIOErW.s 			page 87


 3873 0c29 01       		.uleb128 0x1
 3874 0c2a 50       		.byte	0x50
 3875 0c2b 01       		.uleb128 0x1
 3876 0c2c 31       		.byte	0x31
 3877 0c2d 00       		.byte	0
 3878 0c2e 11       		.uleb128 0x11
 3879 0c2f 5A050000 		.4byte	.LVL114
 3880 0c33 77170000 		.4byte	0x1777
 3881 0c37 460C0000 		.4byte	0xc46
 3882 0c3b 12       		.uleb128 0x12
 3883 0c3c 01       		.uleb128 0x1
 3884 0c3d 51       		.byte	0x51
 3885 0c3e 01       		.uleb128 0x1
 3886 0c3f 30       		.byte	0x30
 3887 0c40 12       		.uleb128 0x12
 3888 0c41 01       		.uleb128 0x1
 3889 0c42 50       		.byte	0x50
 3890 0c43 01       		.uleb128 0x1
 3891 0c44 30       		.byte	0x30
 3892 0c45 00       		.byte	0
 3893 0c46 11       		.uleb128 0x11
 3894 0c47 60050000 		.4byte	.LVL115
 3895 0c4b 8D170000 		.4byte	0x178d
 3896 0c4f 5D0C0000 		.4byte	0xc5d
 3897 0c53 12       		.uleb128 0x12
 3898 0c54 01       		.uleb128 0x1
 3899 0c55 50       		.byte	0x50
 3900 0c56 05       		.uleb128 0x5
 3901 0c57 03       		.byte	0x3
 3902 0c58 80000000 		.4byte	.LC21
 3903 0c5c 00       		.byte	0
 3904 0c5d 11       		.uleb128 0x11
 3905 0c5e 66050000 		.4byte	.LVL116
 3906 0c62 40170000 		.4byte	0x1740
 3907 0c66 700C0000 		.4byte	0xc70
 3908 0c6a 12       		.uleb128 0x12
 3909 0c6b 01       		.uleb128 0x1
 3910 0c6c 50       		.byte	0x50
 3911 0c6d 01       		.uleb128 0x1
 3912 0c6e 33       		.byte	0x33
 3913 0c6f 00       		.byte	0
 3914 0c70 11       		.uleb128 0x11
 3915 0c71 6E050000 		.4byte	.LVL117
 3916 0c75 77170000 		.4byte	0x1777
 3917 0c79 880C0000 		.4byte	0xc88
 3918 0c7d 12       		.uleb128 0x12
 3919 0c7e 01       		.uleb128 0x1
 3920 0c7f 51       		.byte	0x51
 3921 0c80 01       		.uleb128 0x1
 3922 0c81 30       		.byte	0x30
 3923 0c82 12       		.uleb128 0x12
 3924 0c83 01       		.uleb128 0x1
 3925 0c84 50       		.byte	0x50
 3926 0c85 01       		.uleb128 0x1
 3927 0c86 31       		.byte	0x31
 3928 0c87 00       		.byte	0
 3929 0c88 11       		.uleb128 0x11
ARM GAS  C:\Users\Bart\AppData\Local\Temp\ccOIOErW.s 			page 88


 3930 0c89 74050000 		.4byte	.LVL118
 3931 0c8d 8D170000 		.4byte	0x178d
 3932 0c91 9F0C0000 		.4byte	0xc9f
 3933 0c95 12       		.uleb128 0x12
 3934 0c96 01       		.uleb128 0x1
 3935 0c97 50       		.byte	0x50
 3936 0c98 05       		.uleb128 0x5
 3937 0c99 03       		.byte	0x3
 3938 0c9a 88000000 		.4byte	.LC22
 3939 0c9e 00       		.byte	0
 3940 0c9f 11       		.uleb128 0x11
 3941 0ca0 7C050000 		.4byte	.LVL119
 3942 0ca4 77170000 		.4byte	0x1777
 3943 0ca8 B70C0000 		.4byte	0xcb7
 3944 0cac 12       		.uleb128 0x12
 3945 0cad 01       		.uleb128 0x1
 3946 0cae 51       		.byte	0x51
 3947 0caf 01       		.uleb128 0x1
 3948 0cb0 30       		.byte	0x30
 3949 0cb1 12       		.uleb128 0x12
 3950 0cb2 01       		.uleb128 0x1
 3951 0cb3 50       		.byte	0x50
 3952 0cb4 01       		.uleb128 0x1
 3953 0cb5 32       		.byte	0x32
 3954 0cb6 00       		.byte	0
 3955 0cb7 11       		.uleb128 0x11
 3956 0cb8 82050000 		.4byte	.LVL120
 3957 0cbc 8D170000 		.4byte	0x178d
 3958 0cc0 CE0C0000 		.4byte	0xcce
 3959 0cc4 12       		.uleb128 0x12
 3960 0cc5 01       		.uleb128 0x1
 3961 0cc6 50       		.byte	0x50
 3962 0cc7 05       		.uleb128 0x5
 3963 0cc8 03       		.byte	0x3
 3964 0cc9 94000000 		.4byte	.LC23
 3965 0ccd 00       		.byte	0
 3966 0cce 11       		.uleb128 0x11
 3967 0ccf 8A050000 		.4byte	.LVL121
 3968 0cd3 77170000 		.4byte	0x1777
 3969 0cd7 E60C0000 		.4byte	0xce6
 3970 0cdb 12       		.uleb128 0x12
 3971 0cdc 01       		.uleb128 0x1
 3972 0cdd 51       		.byte	0x51
 3973 0cde 01       		.uleb128 0x1
 3974 0cdf 30       		.byte	0x30
 3975 0ce0 12       		.uleb128 0x12
 3976 0ce1 01       		.uleb128 0x1
 3977 0ce2 50       		.byte	0x50
 3978 0ce3 01       		.uleb128 0x1
 3979 0ce4 33       		.byte	0x33
 3980 0ce5 00       		.byte	0
 3981 0ce6 11       		.uleb128 0x11
 3982 0ce7 90050000 		.4byte	.LVL122
 3983 0ceb 8D170000 		.4byte	0x178d
 3984 0cef FD0C0000 		.4byte	0xcfd
 3985 0cf3 12       		.uleb128 0x12
 3986 0cf4 01       		.uleb128 0x1
ARM GAS  C:\Users\Bart\AppData\Local\Temp\ccOIOErW.s 			page 89


 3987 0cf5 50       		.byte	0x50
 3988 0cf6 05       		.uleb128 0x5
 3989 0cf7 03       		.byte	0x3
 3990 0cf8 A0000000 		.4byte	.LC24
 3991 0cfc 00       		.byte	0
 3992 0cfd 11       		.uleb128 0x11
 3993 0cfe 96050000 		.4byte	.LVL123
 3994 0d02 40170000 		.4byte	0x1740
 3995 0d06 100D0000 		.4byte	0xd10
 3996 0d0a 12       		.uleb128 0x12
 3997 0d0b 01       		.uleb128 0x1
 3998 0d0c 50       		.byte	0x50
 3999 0d0d 01       		.uleb128 0x1
 4000 0d0e 32       		.byte	0x32
 4001 0d0f 00       		.byte	0
 4002 0d10 11       		.uleb128 0x11
 4003 0d11 9E050000 		.4byte	.LVL124
 4004 0d15 77170000 		.4byte	0x1777
 4005 0d19 280D0000 		.4byte	0xd28
 4006 0d1d 12       		.uleb128 0x12
 4007 0d1e 01       		.uleb128 0x1
 4008 0d1f 51       		.byte	0x51
 4009 0d20 01       		.uleb128 0x1
 4010 0d21 3B       		.byte	0x3b
 4011 0d22 12       		.uleb128 0x12
 4012 0d23 01       		.uleb128 0x1
 4013 0d24 50       		.byte	0x50
 4014 0d25 01       		.uleb128 0x1
 4015 0d26 30       		.byte	0x30
 4016 0d27 00       		.byte	0
 4017 0d28 11       		.uleb128 0x11
 4018 0d29 A4050000 		.4byte	.LVL125
 4019 0d2d 8D170000 		.4byte	0x178d
 4020 0d31 3F0D0000 		.4byte	0xd3f
 4021 0d35 12       		.uleb128 0x12
 4022 0d36 01       		.uleb128 0x1
 4023 0d37 50       		.byte	0x50
 4024 0d38 05       		.uleb128 0x5
 4025 0d39 03       		.byte	0x3
 4026 0d3a AC000000 		.4byte	.LC25
 4027 0d3e 00       		.byte	0
 4028 0d3f 11       		.uleb128 0x11
 4029 0d40 AC050000 		.4byte	.LVL126
 4030 0d44 77170000 		.4byte	0x1777
 4031 0d48 570D0000 		.4byte	0xd57
 4032 0d4c 12       		.uleb128 0x12
 4033 0d4d 01       		.uleb128 0x1
 4034 0d4e 51       		.byte	0x51
 4035 0d4f 01       		.uleb128 0x1
 4036 0d50 3B       		.byte	0x3b
 4037 0d51 12       		.uleb128 0x12
 4038 0d52 01       		.uleb128 0x1
 4039 0d53 50       		.byte	0x50
 4040 0d54 01       		.uleb128 0x1
 4041 0d55 31       		.byte	0x31
 4042 0d56 00       		.byte	0
 4043 0d57 11       		.uleb128 0x11
ARM GAS  C:\Users\Bart\AppData\Local\Temp\ccOIOErW.s 			page 90


 4044 0d58 B2050000 		.4byte	.LVL127
 4045 0d5c 8D170000 		.4byte	0x178d
 4046 0d60 6E0D0000 		.4byte	0xd6e
 4047 0d64 12       		.uleb128 0x12
 4048 0d65 01       		.uleb128 0x1
 4049 0d66 50       		.byte	0x50
 4050 0d67 05       		.uleb128 0x5
 4051 0d68 03       		.byte	0x3
 4052 0d69 B8000000 		.4byte	.LC26
 4053 0d6d 00       		.byte	0
 4054 0d6e 11       		.uleb128 0x11
 4055 0d6f BA050000 		.4byte	.LVL128
 4056 0d73 77170000 		.4byte	0x1777
 4057 0d77 860D0000 		.4byte	0xd86
 4058 0d7b 12       		.uleb128 0x12
 4059 0d7c 01       		.uleb128 0x1
 4060 0d7d 51       		.byte	0x51
 4061 0d7e 01       		.uleb128 0x1
 4062 0d7f 3B       		.byte	0x3b
 4063 0d80 12       		.uleb128 0x12
 4064 0d81 01       		.uleb128 0x1
 4065 0d82 50       		.byte	0x50
 4066 0d83 01       		.uleb128 0x1
 4067 0d84 32       		.byte	0x32
 4068 0d85 00       		.byte	0
 4069 0d86 11       		.uleb128 0x11
 4070 0d87 C0050000 		.4byte	.LVL129
 4071 0d8b 8D170000 		.4byte	0x178d
 4072 0d8f 9D0D0000 		.4byte	0xd9d
 4073 0d93 12       		.uleb128 0x12
 4074 0d94 01       		.uleb128 0x1
 4075 0d95 50       		.byte	0x50
 4076 0d96 05       		.uleb128 0x5
 4077 0d97 03       		.byte	0x3
 4078 0d98 C4000000 		.4byte	.LC27
 4079 0d9c 00       		.byte	0
 4080 0d9d 11       		.uleb128 0x11
 4081 0d9e C8050000 		.4byte	.LVL130
 4082 0da2 77170000 		.4byte	0x1777
 4083 0da6 B50D0000 		.4byte	0xdb5
 4084 0daa 12       		.uleb128 0x12
 4085 0dab 01       		.uleb128 0x1
 4086 0dac 51       		.byte	0x51
 4087 0dad 01       		.uleb128 0x1
 4088 0dae 3B       		.byte	0x3b
 4089 0daf 12       		.uleb128 0x12
 4090 0db0 01       		.uleb128 0x1
 4091 0db1 50       		.byte	0x50
 4092 0db2 01       		.uleb128 0x1
 4093 0db3 33       		.byte	0x33
 4094 0db4 00       		.byte	0
 4095 0db5 11       		.uleb128 0x11
 4096 0db6 CE050000 		.4byte	.LVL131
 4097 0dba 8D170000 		.4byte	0x178d
 4098 0dbe CC0D0000 		.4byte	0xdcc
 4099 0dc2 12       		.uleb128 0x12
 4100 0dc3 01       		.uleb128 0x1
ARM GAS  C:\Users\Bart\AppData\Local\Temp\ccOIOErW.s 			page 91


 4101 0dc4 50       		.byte	0x50
 4102 0dc5 05       		.uleb128 0x5
 4103 0dc6 03       		.byte	0x3
 4104 0dc7 D0000000 		.4byte	.LC28
 4105 0dcb 00       		.byte	0
 4106 0dcc 11       		.uleb128 0x11
 4107 0dcd D4050000 		.4byte	.LVL132
 4108 0dd1 40170000 		.4byte	0x1740
 4109 0dd5 DF0D0000 		.4byte	0xddf
 4110 0dd9 12       		.uleb128 0x12
 4111 0dda 01       		.uleb128 0x1
 4112 0ddb 50       		.byte	0x50
 4113 0ddc 01       		.uleb128 0x1
 4114 0ddd 32       		.byte	0x32
 4115 0dde 00       		.byte	0
 4116 0ddf 10       		.uleb128 0x10
 4117 0de0 DE050000 		.4byte	.LVL133
 4118 0de4 0C180000 		.4byte	0x180c
 4119 0de8 10       		.uleb128 0x10
 4120 0de9 0C060000 		.4byte	.LVL134
 4121 0ded BE170000 		.4byte	0x17be
 4122 0df1 11       		.uleb128 0x11
 4123 0df2 2C060000 		.4byte	.LVL135
 4124 0df6 77170000 		.4byte	0x1777
 4125 0dfa 090E0000 		.4byte	0xe09
 4126 0dfe 12       		.uleb128 0x12
 4127 0dff 01       		.uleb128 0x1
 4128 0e00 51       		.byte	0x51
 4129 0e01 01       		.uleb128 0x1
 4130 0e02 30       		.byte	0x30
 4131 0e03 12       		.uleb128 0x12
 4132 0e04 01       		.uleb128 0x1
 4133 0e05 50       		.byte	0x50
 4134 0e06 01       		.uleb128 0x1
 4135 0e07 30       		.byte	0x30
 4136 0e08 00       		.byte	0
 4137 0e09 11       		.uleb128 0x11
 4138 0e0a 32060000 		.4byte	.LVL136
 4139 0e0e 40170000 		.4byte	0x1740
 4140 0e12 1C0E0000 		.4byte	0xe1c
 4141 0e16 12       		.uleb128 0x12
 4142 0e17 01       		.uleb128 0x1
 4143 0e18 50       		.byte	0x50
 4144 0e19 01       		.uleb128 0x1
 4145 0e1a 30       		.byte	0x30
 4146 0e1b 00       		.byte	0
 4147 0e1c 11       		.uleb128 0x11
 4148 0e1d 3C060000 		.4byte	.LVL137
 4149 0e21 77170000 		.4byte	0x1777
 4150 0e25 340E0000 		.4byte	0xe34
 4151 0e29 12       		.uleb128 0x12
 4152 0e2a 01       		.uleb128 0x1
 4153 0e2b 51       		.byte	0x51
 4154 0e2c 01       		.uleb128 0x1
 4155 0e2d 30       		.byte	0x30
 4156 0e2e 12       		.uleb128 0x12
 4157 0e2f 01       		.uleb128 0x1
ARM GAS  C:\Users\Bart\AppData\Local\Temp\ccOIOErW.s 			page 92


 4158 0e30 50       		.byte	0x50
 4159 0e31 01       		.uleb128 0x1
 4160 0e32 31       		.byte	0x31
 4161 0e33 00       		.byte	0
 4162 0e34 11       		.uleb128 0x11
 4163 0e35 42060000 		.4byte	.LVL138
 4164 0e39 40170000 		.4byte	0x1740
 4165 0e3d 470E0000 		.4byte	0xe47
 4166 0e41 12       		.uleb128 0x12
 4167 0e42 01       		.uleb128 0x1
 4168 0e43 50       		.byte	0x50
 4169 0e44 01       		.uleb128 0x1
 4170 0e45 30       		.byte	0x30
 4171 0e46 00       		.byte	0
 4172 0e47 11       		.uleb128 0x11
 4173 0e48 4C060000 		.4byte	.LVL139
 4174 0e4c 77170000 		.4byte	0x1777
 4175 0e50 5F0E0000 		.4byte	0xe5f
 4176 0e54 12       		.uleb128 0x12
 4177 0e55 01       		.uleb128 0x1
 4178 0e56 51       		.byte	0x51
 4179 0e57 01       		.uleb128 0x1
 4180 0e58 30       		.byte	0x30
 4181 0e59 12       		.uleb128 0x12
 4182 0e5a 01       		.uleb128 0x1
 4183 0e5b 50       		.byte	0x50
 4184 0e5c 01       		.uleb128 0x1
 4185 0e5d 32       		.byte	0x32
 4186 0e5e 00       		.byte	0
 4187 0e5f 11       		.uleb128 0x11
 4188 0e60 52060000 		.4byte	.LVL140
 4189 0e64 40170000 		.4byte	0x1740
 4190 0e68 720E0000 		.4byte	0xe72
 4191 0e6c 12       		.uleb128 0x12
 4192 0e6d 01       		.uleb128 0x1
 4193 0e6e 50       		.byte	0x50
 4194 0e6f 01       		.uleb128 0x1
 4195 0e70 30       		.byte	0x30
 4196 0e71 00       		.byte	0
 4197 0e72 11       		.uleb128 0x11
 4198 0e73 5C060000 		.4byte	.LVL141
 4199 0e77 77170000 		.4byte	0x1777
 4200 0e7b 8A0E0000 		.4byte	0xe8a
 4201 0e7f 12       		.uleb128 0x12
 4202 0e80 01       		.uleb128 0x1
 4203 0e81 51       		.byte	0x51
 4204 0e82 01       		.uleb128 0x1
 4205 0e83 30       		.byte	0x30
 4206 0e84 12       		.uleb128 0x12
 4207 0e85 01       		.uleb128 0x1
 4208 0e86 50       		.byte	0x50
 4209 0e87 01       		.uleb128 0x1
 4210 0e88 33       		.byte	0x33
 4211 0e89 00       		.byte	0
 4212 0e8a 11       		.uleb128 0x11
 4213 0e8b 62060000 		.4byte	.LVL142
 4214 0e8f 40170000 		.4byte	0x1740
ARM GAS  C:\Users\Bart\AppData\Local\Temp\ccOIOErW.s 			page 93


 4215 0e93 9D0E0000 		.4byte	0xe9d
 4216 0e97 12       		.uleb128 0x12
 4217 0e98 01       		.uleb128 0x1
 4218 0e99 50       		.byte	0x50
 4219 0e9a 01       		.uleb128 0x1
 4220 0e9b 30       		.byte	0x30
 4221 0e9c 00       		.byte	0
 4222 0e9d 11       		.uleb128 0x11
 4223 0e9e 6C060000 		.4byte	.LVL143
 4224 0ea2 77170000 		.4byte	0x1777
 4225 0ea6 B50E0000 		.4byte	0xeb5
 4226 0eaa 12       		.uleb128 0x12
 4227 0eab 01       		.uleb128 0x1
 4228 0eac 51       		.byte	0x51
 4229 0ead 01       		.uleb128 0x1
 4230 0eae 3B       		.byte	0x3b
 4231 0eaf 12       		.uleb128 0x12
 4232 0eb0 01       		.uleb128 0x1
 4233 0eb1 50       		.byte	0x50
 4234 0eb2 01       		.uleb128 0x1
 4235 0eb3 30       		.byte	0x30
 4236 0eb4 00       		.byte	0
 4237 0eb5 11       		.uleb128 0x11
 4238 0eb6 72060000 		.4byte	.LVL144
 4239 0eba 40170000 		.4byte	0x1740
 4240 0ebe C80E0000 		.4byte	0xec8
 4241 0ec2 12       		.uleb128 0x12
 4242 0ec3 01       		.uleb128 0x1
 4243 0ec4 50       		.byte	0x50
 4244 0ec5 01       		.uleb128 0x1
 4245 0ec6 30       		.byte	0x30
 4246 0ec7 00       		.byte	0
 4247 0ec8 11       		.uleb128 0x11
 4248 0ec9 7C060000 		.4byte	.LVL145
 4249 0ecd 77170000 		.4byte	0x1777
 4250 0ed1 E00E0000 		.4byte	0xee0
 4251 0ed5 12       		.uleb128 0x12
 4252 0ed6 01       		.uleb128 0x1
 4253 0ed7 51       		.byte	0x51
 4254 0ed8 01       		.uleb128 0x1
 4255 0ed9 3B       		.byte	0x3b
 4256 0eda 12       		.uleb128 0x12
 4257 0edb 01       		.uleb128 0x1
 4258 0edc 50       		.byte	0x50
 4259 0edd 01       		.uleb128 0x1
 4260 0ede 31       		.byte	0x31
 4261 0edf 00       		.byte	0
 4262 0ee0 11       		.uleb128 0x11
 4263 0ee1 82060000 		.4byte	.LVL146
 4264 0ee5 40170000 		.4byte	0x1740
 4265 0ee9 F30E0000 		.4byte	0xef3
 4266 0eed 12       		.uleb128 0x12
 4267 0eee 01       		.uleb128 0x1
 4268 0eef 50       		.byte	0x50
 4269 0ef0 01       		.uleb128 0x1
 4270 0ef1 30       		.byte	0x30
 4271 0ef2 00       		.byte	0
ARM GAS  C:\Users\Bart\AppData\Local\Temp\ccOIOErW.s 			page 94


 4272 0ef3 11       		.uleb128 0x11
 4273 0ef4 8C060000 		.4byte	.LVL147
 4274 0ef8 77170000 		.4byte	0x1777
 4275 0efc 0B0F0000 		.4byte	0xf0b
 4276 0f00 12       		.uleb128 0x12
 4277 0f01 01       		.uleb128 0x1
 4278 0f02 51       		.byte	0x51
 4279 0f03 01       		.uleb128 0x1
 4280 0f04 3B       		.byte	0x3b
 4281 0f05 12       		.uleb128 0x12
 4282 0f06 01       		.uleb128 0x1
 4283 0f07 50       		.byte	0x50
 4284 0f08 01       		.uleb128 0x1
 4285 0f09 32       		.byte	0x32
 4286 0f0a 00       		.byte	0
 4287 0f0b 11       		.uleb128 0x11
 4288 0f0c 92060000 		.4byte	.LVL148
 4289 0f10 40170000 		.4byte	0x1740
 4290 0f14 1E0F0000 		.4byte	0xf1e
 4291 0f18 12       		.uleb128 0x12
 4292 0f19 01       		.uleb128 0x1
 4293 0f1a 50       		.byte	0x50
 4294 0f1b 01       		.uleb128 0x1
 4295 0f1c 30       		.byte	0x30
 4296 0f1d 00       		.byte	0
 4297 0f1e 11       		.uleb128 0x11
 4298 0f1f 9C060000 		.4byte	.LVL149
 4299 0f23 77170000 		.4byte	0x1777
 4300 0f27 360F0000 		.4byte	0xf36
 4301 0f2b 12       		.uleb128 0x12
 4302 0f2c 01       		.uleb128 0x1
 4303 0f2d 51       		.byte	0x51
 4304 0f2e 01       		.uleb128 0x1
 4305 0f2f 3B       		.byte	0x3b
 4306 0f30 12       		.uleb128 0x12
 4307 0f31 01       		.uleb128 0x1
 4308 0f32 50       		.byte	0x50
 4309 0f33 01       		.uleb128 0x1
 4310 0f34 33       		.byte	0x33
 4311 0f35 00       		.byte	0
 4312 0f36 11       		.uleb128 0x11
 4313 0f37 A2060000 		.4byte	.LVL150
 4314 0f3b 40170000 		.4byte	0x1740
 4315 0f3f 490F0000 		.4byte	0xf49
 4316 0f43 12       		.uleb128 0x12
 4317 0f44 01       		.uleb128 0x1
 4318 0f45 50       		.byte	0x50
 4319 0f46 01       		.uleb128 0x1
 4320 0f47 30       		.byte	0x30
 4321 0f48 00       		.byte	0
 4322 0f49 11       		.uleb128 0x11
 4323 0f4a D4060000 		.4byte	.LVL151
 4324 0f4e 17170000 		.4byte	0x1717
 4325 0f52 5C0F0000 		.4byte	0xf5c
 4326 0f56 12       		.uleb128 0x12
 4327 0f57 01       		.uleb128 0x1
 4328 0f58 50       		.byte	0x50
ARM GAS  C:\Users\Bart\AppData\Local\Temp\ccOIOErW.s 			page 95


 4329 0f59 01       		.uleb128 0x1
 4330 0f5a 31       		.byte	0x31
 4331 0f5b 00       		.byte	0
 4332 0f5c 11       		.uleb128 0x11
 4333 0f5d DC060000 		.4byte	.LVL152
 4334 0f61 17170000 		.4byte	0x1717
 4335 0f65 6F0F0000 		.4byte	0xf6f
 4336 0f69 12       		.uleb128 0x12
 4337 0f6a 01       		.uleb128 0x1
 4338 0f6b 50       		.byte	0x50
 4339 0f6c 01       		.uleb128 0x1
 4340 0f6d 31       		.byte	0x31
 4341 0f6e 00       		.byte	0
 4342 0f6f 11       		.uleb128 0x11
 4343 0f70 04070000 		.4byte	.LVL153
 4344 0f74 F1170000 		.4byte	0x17f1
 4345 0f78 890F0000 		.4byte	0xf89
 4346 0f7c 12       		.uleb128 0x12
 4347 0f7d 01       		.uleb128 0x1
 4348 0f7e 51       		.byte	0x51
 4349 0f7f 02       		.uleb128 0x2
 4350 0f80 77       		.byte	0x77
 4351 0f81 00       		.sleb128 0
 4352 0f82 12       		.uleb128 0x12
 4353 0f83 01       		.uleb128 0x1
 4354 0f84 50       		.byte	0x50
 4355 0f85 02       		.uleb128 0x2
 4356 0f86 91       		.byte	0x91
 4357 0f87 48       		.sleb128 -56
 4358 0f88 00       		.byte	0
 4359 0f89 11       		.uleb128 0x11
 4360 0f8a 0C070000 		.4byte	.LVL154
 4361 0f8e 46180000 		.4byte	0x1846
 4362 0f92 A30F0000 		.4byte	0xfa3
 4363 0f96 12       		.uleb128 0x12
 4364 0f97 01       		.uleb128 0x1
 4365 0f98 51       		.byte	0x51
 4366 0f99 02       		.uleb128 0x2
 4367 0f9a 91       		.byte	0x91
 4368 0f9b 48       		.sleb128 -56
 4369 0f9c 12       		.uleb128 0x12
 4370 0f9d 01       		.uleb128 0x1
 4371 0f9e 50       		.byte	0x50
 4372 0f9f 02       		.uleb128 0x2
 4373 0fa0 74       		.byte	0x74
 4374 0fa1 00       		.sleb128 0
 4375 0fa2 00       		.byte	0
 4376 0fa3 11       		.uleb128 0x11
 4377 0fa4 12070000 		.4byte	.LVL155
 4378 0fa8 60180000 		.4byte	0x1860
 4379 0fac B70F0000 		.4byte	0xfb7
 4380 0fb0 12       		.uleb128 0x12
 4381 0fb1 01       		.uleb128 0x1
 4382 0fb2 50       		.byte	0x50
 4383 0fb3 02       		.uleb128 0x2
 4384 0fb4 74       		.byte	0x74
 4385 0fb5 00       		.sleb128 0
ARM GAS  C:\Users\Bart\AppData\Local\Temp\ccOIOErW.s 			page 96


 4386 0fb6 00       		.byte	0
 4387 0fb7 11       		.uleb128 0x11
 4388 0fb8 24070000 		.4byte	.LVL156
 4389 0fbc F1170000 		.4byte	0x17f1
 4390 0fc0 D10F0000 		.4byte	0xfd1
 4391 0fc4 12       		.uleb128 0x12
 4392 0fc5 01       		.uleb128 0x1
 4393 0fc6 51       		.byte	0x51
 4394 0fc7 02       		.uleb128 0x2
 4395 0fc8 77       		.byte	0x77
 4396 0fc9 00       		.sleb128 0
 4397 0fca 12       		.uleb128 0x12
 4398 0fcb 01       		.uleb128 0x1
 4399 0fcc 50       		.byte	0x50
 4400 0fcd 02       		.uleb128 0x2
 4401 0fce 91       		.byte	0x91
 4402 0fcf 48       		.sleb128 -56
 4403 0fd0 00       		.byte	0
 4404 0fd1 11       		.uleb128 0x11
 4405 0fd2 2C070000 		.4byte	.LVL157
 4406 0fd6 46180000 		.4byte	0x1846
 4407 0fda EB0F0000 		.4byte	0xfeb
 4408 0fde 12       		.uleb128 0x12
 4409 0fdf 01       		.uleb128 0x1
 4410 0fe0 51       		.byte	0x51
 4411 0fe1 02       		.uleb128 0x2
 4412 0fe2 91       		.byte	0x91
 4413 0fe3 48       		.sleb128 -56
 4414 0fe4 12       		.uleb128 0x12
 4415 0fe5 01       		.uleb128 0x1
 4416 0fe6 50       		.byte	0x50
 4417 0fe7 02       		.uleb128 0x2
 4418 0fe8 74       		.byte	0x74
 4419 0fe9 00       		.sleb128 0
 4420 0fea 00       		.byte	0
 4421 0feb 11       		.uleb128 0x11
 4422 0fec 32070000 		.4byte	.LVL158
 4423 0ff0 51170000 		.4byte	0x1751
 4424 0ff4 FF0F0000 		.4byte	0xfff
 4425 0ff8 12       		.uleb128 0x12
 4426 0ff9 01       		.uleb128 0x1
 4427 0ffa 50       		.byte	0x50
 4428 0ffb 02       		.uleb128 0x2
 4429 0ffc 74       		.byte	0x74
 4430 0ffd 00       		.sleb128 0
 4431 0ffe 00       		.byte	0
 4432 0fff 11       		.uleb128 0x11
 4433 1000 3A070000 		.4byte	.LVL159
 4434 1004 77170000 		.4byte	0x1777
 4435 1008 18100000 		.4byte	0x1018
 4436 100c 12       		.uleb128 0x12
 4437 100d 01       		.uleb128 0x1
 4438 100e 51       		.byte	0x51
 4439 100f 02       		.uleb128 0x2
 4440 1010 75       		.byte	0x75
 4441 1011 00       		.sleb128 0
 4442 1012 12       		.uleb128 0x12
ARM GAS  C:\Users\Bart\AppData\Local\Temp\ccOIOErW.s 			page 97


 4443 1013 01       		.uleb128 0x1
 4444 1014 50       		.byte	0x50
 4445 1015 01       		.uleb128 0x1
 4446 1016 33       		.byte	0x33
 4447 1017 00       		.byte	0
 4448 1018 11       		.uleb128 0x11
 4449 1019 46070000 		.4byte	.LVL160
 4450 101d 8D170000 		.4byte	0x178d
 4451 1021 2F100000 		.4byte	0x102f
 4452 1025 12       		.uleb128 0x12
 4453 1026 01       		.uleb128 0x1
 4454 1027 50       		.byte	0x50
 4455 1028 05       		.uleb128 0x5
 4456 1029 03       		.byte	0x3
 4457 102a F0000000 		.4byte	.LC32
 4458 102e 00       		.byte	0
 4459 102f 11       		.uleb128 0x11
 4460 1030 4E070000 		.4byte	.LVL161
 4461 1034 8D170000 		.4byte	0x178d
 4462 1038 46100000 		.4byte	0x1046
 4463 103c 12       		.uleb128 0x12
 4464 103d 01       		.uleb128 0x1
 4465 103e 50       		.byte	0x50
 4466 103f 05       		.uleb128 0x5
 4467 1040 03       		.byte	0x3
 4468 1041 F8000000 		.4byte	.LC33
 4469 1045 00       		.byte	0
 4470 1046 11       		.uleb128 0x11
 4471 1047 62070000 		.4byte	.LVL163
 4472 104b F1170000 		.4byte	0x17f1
 4473 104f 63100000 		.4byte	0x1063
 4474 1053 12       		.uleb128 0x12
 4475 1054 01       		.uleb128 0x1
 4476 1055 51       		.byte	0x51
 4477 1056 05       		.uleb128 0x5
 4478 1057 03       		.byte	0x3
 4479 1058 00010000 		.4byte	.LC34
 4480 105c 12       		.uleb128 0x12
 4481 105d 01       		.uleb128 0x1
 4482 105e 50       		.byte	0x50
 4483 105f 02       		.uleb128 0x2
 4484 1060 91       		.byte	0x91
 4485 1061 48       		.sleb128 -56
 4486 1062 00       		.byte	0
 4487 1063 11       		.uleb128 0x11
 4488 1064 74070000 		.4byte	.LVL164
 4489 1068 46180000 		.4byte	0x1846
 4490 106c 7D100000 		.4byte	0x107d
 4491 1070 12       		.uleb128 0x12
 4492 1071 01       		.uleb128 0x1
 4493 1072 51       		.byte	0x51
 4494 1073 02       		.uleb128 0x2
 4495 1074 91       		.byte	0x91
 4496 1075 48       		.sleb128 -56
 4497 1076 12       		.uleb128 0x12
 4498 1077 01       		.uleb128 0x1
 4499 1078 50       		.byte	0x50
ARM GAS  C:\Users\Bart\AppData\Local\Temp\ccOIOErW.s 			page 98


 4500 1079 02       		.uleb128 0x2
 4501 107a 74       		.byte	0x74
 4502 107b 00       		.sleb128 0
 4503 107c 00       		.byte	0
 4504 107d 11       		.uleb128 0x11
 4505 107e 7A070000 		.4byte	.LVL165
 4506 1082 51170000 		.4byte	0x1751
 4507 1086 91100000 		.4byte	0x1091
 4508 108a 12       		.uleb128 0x12
 4509 108b 01       		.uleb128 0x1
 4510 108c 50       		.byte	0x50
 4511 108d 02       		.uleb128 0x2
 4512 108e 74       		.byte	0x74
 4513 108f 00       		.sleb128 0
 4514 1090 00       		.byte	0
 4515 1091 10       		.uleb128 0x10
 4516 1092 A0070000 		.4byte	.LVL168
 4517 1096 BE170000 		.4byte	0x17be
 4518 109a 10       		.uleb128 0x10
 4519 109b A8070000 		.4byte	.LVL169
 4520 109f BE170000 		.4byte	0x17be
 4521 10a3 10       		.uleb128 0x10
 4522 10a4 C4070000 		.4byte	.LVL170
 4523 10a8 BE170000 		.4byte	0x17be
 4524 10ac 10       		.uleb128 0x10
 4525 10ad CC070000 		.4byte	.LVL171
 4526 10b1 BE170000 		.4byte	0x17be
 4527 10b5 10       		.uleb128 0x10
 4528 10b6 E8070000 		.4byte	.LVL172
 4529 10ba BE170000 		.4byte	0x17be
 4530 10be 10       		.uleb128 0x10
 4531 10bf 3E080000 		.4byte	.LVL173
 4532 10c3 BE170000 		.4byte	0x17be
 4533 10c7 11       		.uleb128 0x11
 4534 10c8 52080000 		.4byte	.LVL174
 4535 10cc 77170000 		.4byte	0x1777
 4536 10d0 DF100000 		.4byte	0x10df
 4537 10d4 12       		.uleb128 0x12
 4538 10d5 01       		.uleb128 0x1
 4539 10d6 51       		.byte	0x51
 4540 10d7 01       		.uleb128 0x1
 4541 10d8 30       		.byte	0x30
 4542 10d9 12       		.uleb128 0x12
 4543 10da 01       		.uleb128 0x1
 4544 10db 50       		.byte	0x50
 4545 10dc 01       		.uleb128 0x1
 4546 10dd 30       		.byte	0x30
 4547 10de 00       		.byte	0
 4548 10df 11       		.uleb128 0x11
 4549 10e0 58080000 		.4byte	.LVL175
 4550 10e4 8D170000 		.4byte	0x178d
 4551 10e8 F6100000 		.4byte	0x10f6
 4552 10ec 12       		.uleb128 0x12
 4553 10ed 01       		.uleb128 0x1
 4554 10ee 50       		.byte	0x50
 4555 10ef 05       		.uleb128 0x5
 4556 10f0 03       		.byte	0x3
ARM GAS  C:\Users\Bart\AppData\Local\Temp\ccOIOErW.s 			page 99


 4557 10f1 80000000 		.4byte	.LC21
 4558 10f5 00       		.byte	0
 4559 10f6 11       		.uleb128 0x11
 4560 10f7 5E080000 		.4byte	.LVL176
 4561 10fb 40170000 		.4byte	0x1740
 4562 10ff 09110000 		.4byte	0x1109
 4563 1103 12       		.uleb128 0x12
 4564 1104 01       		.uleb128 0x1
 4565 1105 50       		.byte	0x50
 4566 1106 01       		.uleb128 0x1
 4567 1107 33       		.byte	0x33
 4568 1108 00       		.byte	0
 4569 1109 11       		.uleb128 0x11
 4570 110a 66080000 		.4byte	.LVL177
 4571 110e 77170000 		.4byte	0x1777
 4572 1112 21110000 		.4byte	0x1121
 4573 1116 12       		.uleb128 0x12
 4574 1117 01       		.uleb128 0x1
 4575 1118 51       		.byte	0x51
 4576 1119 01       		.uleb128 0x1
 4577 111a 38       		.byte	0x38
 4578 111b 12       		.uleb128 0x12
 4579 111c 01       		.uleb128 0x1
 4580 111d 50       		.byte	0x50
 4581 111e 01       		.uleb128 0x1
 4582 111f 30       		.byte	0x30
 4583 1120 00       		.byte	0
 4584 1121 11       		.uleb128 0x11
 4585 1122 6C080000 		.4byte	.LVL178
 4586 1126 8D170000 		.4byte	0x178d
 4587 112a 38110000 		.4byte	0x1138
 4588 112e 12       		.uleb128 0x12
 4589 112f 01       		.uleb128 0x1
 4590 1130 50       		.byte	0x50
 4591 1131 05       		.uleb128 0x5
 4592 1132 03       		.byte	0x3
 4593 1133 14010000 		.4byte	.LC36
 4594 1137 00       		.byte	0
 4595 1138 11       		.uleb128 0x11
 4596 1139 74080000 		.4byte	.LVL179
 4597 113d 77170000 		.4byte	0x1777
 4598 1141 50110000 		.4byte	0x1150
 4599 1145 12       		.uleb128 0x12
 4600 1146 01       		.uleb128 0x1
 4601 1147 51       		.byte	0x51
 4602 1148 01       		.uleb128 0x1
 4603 1149 38       		.byte	0x38
 4604 114a 12       		.uleb128 0x12
 4605 114b 01       		.uleb128 0x1
 4606 114c 50       		.byte	0x50
 4607 114d 01       		.uleb128 0x1
 4608 114e 31       		.byte	0x31
 4609 114f 00       		.byte	0
 4610 1150 11       		.uleb128 0x11
 4611 1151 7A080000 		.4byte	.LVL180
 4612 1155 8D170000 		.4byte	0x178d
 4613 1159 67110000 		.4byte	0x1167
ARM GAS  C:\Users\Bart\AppData\Local\Temp\ccOIOErW.s 			page 100


 4614 115d 12       		.uleb128 0x12
 4615 115e 01       		.uleb128 0x1
 4616 115f 50       		.byte	0x50
 4617 1160 05       		.uleb128 0x5
 4618 1161 03       		.byte	0x3
 4619 1162 24010000 		.4byte	.LC37
 4620 1166 00       		.byte	0
 4621 1167 11       		.uleb128 0x11
 4622 1168 8E080000 		.4byte	.LVL182
 4623 116c F1170000 		.4byte	0x17f1
 4624 1170 84110000 		.4byte	0x1184
 4625 1174 12       		.uleb128 0x12
 4626 1175 01       		.uleb128 0x1
 4627 1176 51       		.byte	0x51
 4628 1177 05       		.uleb128 0x5
 4629 1178 03       		.byte	0x3
 4630 1179 00010000 		.4byte	.LC34
 4631 117d 12       		.uleb128 0x12
 4632 117e 01       		.uleb128 0x1
 4633 117f 50       		.byte	0x50
 4634 1180 02       		.uleb128 0x2
 4635 1181 91       		.byte	0x91
 4636 1182 48       		.sleb128 -56
 4637 1183 00       		.byte	0
 4638 1184 11       		.uleb128 0x11
 4639 1185 94080000 		.4byte	.LVL183
 4640 1189 8D170000 		.4byte	0x178d
 4641 118d 98110000 		.4byte	0x1198
 4642 1191 12       		.uleb128 0x12
 4643 1192 01       		.uleb128 0x1
 4644 1193 50       		.byte	0x50
 4645 1194 02       		.uleb128 0x2
 4646 1195 91       		.byte	0x91
 4647 1196 48       		.sleb128 -56
 4648 1197 00       		.byte	0
 4649 1198 11       		.uleb128 0x11
 4650 1199 9C080000 		.4byte	.LVL184
 4651 119d 77170000 		.4byte	0x1777
 4652 11a1 B0110000 		.4byte	0x11b0
 4653 11a5 12       		.uleb128 0x12
 4654 11a6 01       		.uleb128 0x1
 4655 11a7 51       		.byte	0x51
 4656 11a8 01       		.uleb128 0x1
 4657 11a9 38       		.byte	0x38
 4658 11aa 12       		.uleb128 0x12
 4659 11ab 01       		.uleb128 0x1
 4660 11ac 50       		.byte	0x50
 4661 11ad 01       		.uleb128 0x1
 4662 11ae 32       		.byte	0x32
 4663 11af 00       		.byte	0
 4664 11b0 11       		.uleb128 0x11
 4665 11b1 A2080000 		.4byte	.LVL185
 4666 11b5 8D170000 		.4byte	0x178d
 4667 11b9 C7110000 		.4byte	0x11c7
 4668 11bd 12       		.uleb128 0x12
 4669 11be 01       		.uleb128 0x1
 4670 11bf 50       		.byte	0x50
ARM GAS  C:\Users\Bart\AppData\Local\Temp\ccOIOErW.s 			page 101


 4671 11c0 05       		.uleb128 0x5
 4672 11c1 03       		.byte	0x3
 4673 11c2 2C010000 		.4byte	.LC38
 4674 11c6 00       		.byte	0
 4675 11c7 11       		.uleb128 0x11
 4676 11c8 B0080000 		.4byte	.LVL186
 4677 11cc F1170000 		.4byte	0x17f1
 4678 11d0 E1110000 		.4byte	0x11e1
 4679 11d4 12       		.uleb128 0x12
 4680 11d5 01       		.uleb128 0x1
 4681 11d6 51       		.byte	0x51
 4682 11d7 02       		.uleb128 0x2
 4683 11d8 75       		.byte	0x75
 4684 11d9 00       		.sleb128 0
 4685 11da 12       		.uleb128 0x12
 4686 11db 01       		.uleb128 0x1
 4687 11dc 50       		.byte	0x50
 4688 11dd 02       		.uleb128 0x2
 4689 11de 91       		.byte	0x91
 4690 11df 48       		.sleb128 -56
 4691 11e0 00       		.byte	0
 4692 11e1 11       		.uleb128 0x11
 4693 11e2 B6080000 		.4byte	.LVL187
 4694 11e6 8D170000 		.4byte	0x178d
 4695 11ea F5110000 		.4byte	0x11f5
 4696 11ee 12       		.uleb128 0x12
 4697 11ef 01       		.uleb128 0x1
 4698 11f0 50       		.byte	0x50
 4699 11f1 02       		.uleb128 0x2
 4700 11f2 91       		.byte	0x91
 4701 11f3 48       		.sleb128 -56
 4702 11f4 00       		.byte	0
 4703 11f5 11       		.uleb128 0x11
 4704 11f6 BE080000 		.4byte	.LVL188
 4705 11fa 77170000 		.4byte	0x1777
 4706 11fe 0D120000 		.4byte	0x120d
 4707 1202 12       		.uleb128 0x12
 4708 1203 01       		.uleb128 0x1
 4709 1204 51       		.byte	0x51
 4710 1205 01       		.uleb128 0x1
 4711 1206 38       		.byte	0x38
 4712 1207 12       		.uleb128 0x12
 4713 1208 01       		.uleb128 0x1
 4714 1209 50       		.byte	0x50
 4715 120a 01       		.uleb128 0x1
 4716 120b 33       		.byte	0x33
 4717 120c 00       		.byte	0
 4718 120d 11       		.uleb128 0x11
 4719 120e C4080000 		.4byte	.LVL189
 4720 1212 8D170000 		.4byte	0x178d
 4721 1216 24120000 		.4byte	0x1224
 4722 121a 12       		.uleb128 0x12
 4723 121b 01       		.uleb128 0x1
 4724 121c 50       		.byte	0x50
 4725 121d 05       		.uleb128 0x5
 4726 121e 03       		.byte	0x3
 4727 121f 38010000 		.4byte	.LC40
ARM GAS  C:\Users\Bart\AppData\Local\Temp\ccOIOErW.s 			page 102


 4728 1223 00       		.byte	0
 4729 1224 11       		.uleb128 0x11
 4730 1225 D0080000 		.4byte	.LVL190
 4731 1229 F1170000 		.4byte	0x17f1
 4732 122d 3E120000 		.4byte	0x123e
 4733 1231 12       		.uleb128 0x12
 4734 1232 01       		.uleb128 0x1
 4735 1233 51       		.byte	0x51
 4736 1234 02       		.uleb128 0x2
 4737 1235 75       		.byte	0x75
 4738 1236 00       		.sleb128 0
 4739 1237 12       		.uleb128 0x12
 4740 1238 01       		.uleb128 0x1
 4741 1239 50       		.byte	0x50
 4742 123a 02       		.uleb128 0x2
 4743 123b 91       		.byte	0x91
 4744 123c 48       		.sleb128 -56
 4745 123d 00       		.byte	0
 4746 123e 11       		.uleb128 0x11
 4747 123f D6080000 		.4byte	.LVL191
 4748 1243 8D170000 		.4byte	0x178d
 4749 1247 52120000 		.4byte	0x1252
 4750 124b 12       		.uleb128 0x12
 4751 124c 01       		.uleb128 0x1
 4752 124d 50       		.byte	0x50
 4753 124e 02       		.uleb128 0x2
 4754 124f 91       		.byte	0x91
 4755 1250 48       		.sleb128 -56
 4756 1251 00       		.byte	0
 4757 1252 10       		.uleb128 0x10
 4758 1253 E0080000 		.4byte	.LVL192
 4759 1257 0C180000 		.4byte	0x180c
 4760 125b 10       		.uleb128 0x10
 4761 125c 0A090000 		.4byte	.LVL193
 4762 1260 BE170000 		.4byte	0x17be
 4763 1264 10       		.uleb128 0x10
 4764 1265 28090000 		.4byte	.LVL194
 4765 1269 0C180000 		.4byte	0x180c
 4766 126d 10       		.uleb128 0x10
 4767 126e 6A090000 		.4byte	.LVL201
 4768 1272 BE170000 		.4byte	0x17be
 4769 1276 10       		.uleb128 0x10
 4770 1277 70090000 		.4byte	.LVL202
 4771 127b 0C180000 		.4byte	0x180c
 4772 127f 10       		.uleb128 0x10
 4773 1280 96090000 		.4byte	.LVL203
 4774 1284 BE170000 		.4byte	0x17be
 4775 1288 10       		.uleb128 0x10
 4776 1289 9C090000 		.4byte	.LVL204
 4777 128d 0C180000 		.4byte	0x180c
 4778 1291 10       		.uleb128 0x10
 4779 1292 C2090000 		.4byte	.LVL205
 4780 1296 BE170000 		.4byte	0x17be
 4781 129a 10       		.uleb128 0x10
 4782 129b C8090000 		.4byte	.LVL206
 4783 129f 0C180000 		.4byte	0x180c
 4784 12a3 10       		.uleb128 0x10
ARM GAS  C:\Users\Bart\AppData\Local\Temp\ccOIOErW.s 			page 103


 4785 12a4 F6090000 		.4byte	.LVL207
 4786 12a8 BE170000 		.4byte	0x17be
 4787 12ac 11       		.uleb128 0x11
 4788 12ad 120A0000 		.4byte	.LVL208
 4789 12b1 77170000 		.4byte	0x1777
 4790 12b5 C4120000 		.4byte	0x12c4
 4791 12b9 12       		.uleb128 0x12
 4792 12ba 01       		.uleb128 0x1
 4793 12bb 51       		.byte	0x51
 4794 12bc 01       		.uleb128 0x1
 4795 12bd 30       		.byte	0x30
 4796 12be 12       		.uleb128 0x12
 4797 12bf 01       		.uleb128 0x1
 4798 12c0 50       		.byte	0x50
 4799 12c1 01       		.uleb128 0x1
 4800 12c2 30       		.byte	0x30
 4801 12c3 00       		.byte	0
 4802 12c4 11       		.uleb128 0x11
 4803 12c5 180A0000 		.4byte	.LVL209
 4804 12c9 40170000 		.4byte	0x1740
 4805 12cd D7120000 		.4byte	0x12d7
 4806 12d1 12       		.uleb128 0x12
 4807 12d2 01       		.uleb128 0x1
 4808 12d3 50       		.byte	0x50
 4809 12d4 01       		.uleb128 0x1
 4810 12d5 30       		.byte	0x30
 4811 12d6 00       		.byte	0
 4812 12d7 11       		.uleb128 0x11
 4813 12d8 220A0000 		.4byte	.LVL210
 4814 12dc 77170000 		.4byte	0x1777
 4815 12e0 EF120000 		.4byte	0x12ef
 4816 12e4 12       		.uleb128 0x12
 4817 12e5 01       		.uleb128 0x1
 4818 12e6 51       		.byte	0x51
 4819 12e7 01       		.uleb128 0x1
 4820 12e8 38       		.byte	0x38
 4821 12e9 12       		.uleb128 0x12
 4822 12ea 01       		.uleb128 0x1
 4823 12eb 50       		.byte	0x50
 4824 12ec 01       		.uleb128 0x1
 4825 12ed 30       		.byte	0x30
 4826 12ee 00       		.byte	0
 4827 12ef 11       		.uleb128 0x11
 4828 12f0 280A0000 		.4byte	.LVL211
 4829 12f4 40170000 		.4byte	0x1740
 4830 12f8 02130000 		.4byte	0x1302
 4831 12fc 12       		.uleb128 0x12
 4832 12fd 01       		.uleb128 0x1
 4833 12fe 50       		.byte	0x50
 4834 12ff 01       		.uleb128 0x1
 4835 1300 30       		.byte	0x30
 4836 1301 00       		.byte	0
 4837 1302 11       		.uleb128 0x11
 4838 1303 320A0000 		.4byte	.LVL212
 4839 1307 77170000 		.4byte	0x1777
 4840 130b 1A130000 		.4byte	0x131a
 4841 130f 12       		.uleb128 0x12
ARM GAS  C:\Users\Bart\AppData\Local\Temp\ccOIOErW.s 			page 104


 4842 1310 01       		.uleb128 0x1
 4843 1311 51       		.byte	0x51
 4844 1312 01       		.uleb128 0x1
 4845 1313 38       		.byte	0x38
 4846 1314 12       		.uleb128 0x12
 4847 1315 01       		.uleb128 0x1
 4848 1316 50       		.byte	0x50
 4849 1317 01       		.uleb128 0x1
 4850 1318 31       		.byte	0x31
 4851 1319 00       		.byte	0
 4852 131a 11       		.uleb128 0x11
 4853 131b 380A0000 		.4byte	.LVL213
 4854 131f 40170000 		.4byte	0x1740
 4855 1323 2D130000 		.4byte	0x132d
 4856 1327 12       		.uleb128 0x12
 4857 1328 01       		.uleb128 0x1
 4858 1329 50       		.byte	0x50
 4859 132a 01       		.uleb128 0x1
 4860 132b 30       		.byte	0x30
 4861 132c 00       		.byte	0
 4862 132d 11       		.uleb128 0x11
 4863 132e 420A0000 		.4byte	.LVL214
 4864 1332 77170000 		.4byte	0x1777
 4865 1336 45130000 		.4byte	0x1345
 4866 133a 12       		.uleb128 0x12
 4867 133b 01       		.uleb128 0x1
 4868 133c 51       		.byte	0x51
 4869 133d 01       		.uleb128 0x1
 4870 133e 38       		.byte	0x38
 4871 133f 12       		.uleb128 0x12
 4872 1340 01       		.uleb128 0x1
 4873 1341 50       		.byte	0x50
 4874 1342 01       		.uleb128 0x1
 4875 1343 32       		.byte	0x32
 4876 1344 00       		.byte	0
 4877 1345 11       		.uleb128 0x11
 4878 1346 480A0000 		.4byte	.LVL215
 4879 134a 40170000 		.4byte	0x1740
 4880 134e 58130000 		.4byte	0x1358
 4881 1352 12       		.uleb128 0x12
 4882 1353 01       		.uleb128 0x1
 4883 1354 50       		.byte	0x50
 4884 1355 01       		.uleb128 0x1
 4885 1356 30       		.byte	0x30
 4886 1357 00       		.byte	0
 4887 1358 11       		.uleb128 0x11
 4888 1359 520A0000 		.4byte	.LVL216
 4889 135d 77170000 		.4byte	0x1777
 4890 1361 70130000 		.4byte	0x1370
 4891 1365 12       		.uleb128 0x12
 4892 1366 01       		.uleb128 0x1
 4893 1367 51       		.byte	0x51
 4894 1368 01       		.uleb128 0x1
 4895 1369 38       		.byte	0x38
 4896 136a 12       		.uleb128 0x12
 4897 136b 01       		.uleb128 0x1
 4898 136c 50       		.byte	0x50
ARM GAS  C:\Users\Bart\AppData\Local\Temp\ccOIOErW.s 			page 105


 4899 136d 01       		.uleb128 0x1
 4900 136e 33       		.byte	0x33
 4901 136f 00       		.byte	0
 4902 1370 11       		.uleb128 0x11
 4903 1371 580A0000 		.4byte	.LVL217
 4904 1375 40170000 		.4byte	0x1740
 4905 1379 83130000 		.4byte	0x1383
 4906 137d 12       		.uleb128 0x12
 4907 137e 01       		.uleb128 0x1
 4908 137f 50       		.byte	0x50
 4909 1380 01       		.uleb128 0x1
 4910 1381 30       		.byte	0x30
 4911 1382 00       		.byte	0
 4912 1383 11       		.uleb128 0x11
 4913 1384 620A0000 		.4byte	.LVL218
 4914 1388 77170000 		.4byte	0x1777
 4915 138c 9B130000 		.4byte	0x139b
 4916 1390 12       		.uleb128 0x12
 4917 1391 01       		.uleb128 0x1
 4918 1392 51       		.byte	0x51
 4919 1393 01       		.uleb128 0x1
 4920 1394 30       		.byte	0x30
 4921 1395 12       		.uleb128 0x12
 4922 1396 01       		.uleb128 0x1
 4923 1397 50       		.byte	0x50
 4924 1398 01       		.uleb128 0x1
 4925 1399 30       		.byte	0x30
 4926 139a 00       		.byte	0
 4927 139b 11       		.uleb128 0x11
 4928 139c 680A0000 		.4byte	.LVL219
 4929 13a0 8D170000 		.4byte	0x178d
 4930 13a4 B2130000 		.4byte	0x13b2
 4931 13a8 12       		.uleb128 0x12
 4932 13a9 01       		.uleb128 0x1
 4933 13aa 50       		.byte	0x50
 4934 13ab 05       		.uleb128 0x5
 4935 13ac 03       		.byte	0x3
 4936 13ad 80000000 		.4byte	.LC21
 4937 13b1 00       		.byte	0
 4938 13b2 11       		.uleb128 0x11
 4939 13b3 6E0A0000 		.4byte	.LVL220
 4940 13b7 40170000 		.4byte	0x1740
 4941 13bb C5130000 		.4byte	0x13c5
 4942 13bf 12       		.uleb128 0x12
 4943 13c0 01       		.uleb128 0x1
 4944 13c1 50       		.byte	0x50
 4945 13c2 01       		.uleb128 0x1
 4946 13c3 33       		.byte	0x33
 4947 13c4 00       		.byte	0
 4948 13c5 11       		.uleb128 0x11
 4949 13c6 760A0000 		.4byte	.LVL221
 4950 13ca 77170000 		.4byte	0x1777
 4951 13ce DD130000 		.4byte	0x13dd
 4952 13d2 12       		.uleb128 0x12
 4953 13d3 01       		.uleb128 0x1
 4954 13d4 51       		.byte	0x51
 4955 13d5 01       		.uleb128 0x1
ARM GAS  C:\Users\Bart\AppData\Local\Temp\ccOIOErW.s 			page 106


 4956 13d6 30       		.byte	0x30
 4957 13d7 12       		.uleb128 0x12
 4958 13d8 01       		.uleb128 0x1
 4959 13d9 50       		.byte	0x50
 4960 13da 01       		.uleb128 0x1
 4961 13db 32       		.byte	0x32
 4962 13dc 00       		.byte	0
 4963 13dd 11       		.uleb128 0x11
 4964 13de 7C0A0000 		.4byte	.LVL222
 4965 13e2 8D170000 		.4byte	0x178d
 4966 13e6 F4130000 		.4byte	0x13f4
 4967 13ea 12       		.uleb128 0x12
 4968 13eb 01       		.uleb128 0x1
 4969 13ec 50       		.byte	0x50
 4970 13ed 05       		.uleb128 0x5
 4971 13ee 03       		.byte	0x3
 4972 13ef 40010000 		.4byte	.LC41
 4973 13f3 00       		.byte	0
 4974 13f4 11       		.uleb128 0x11
 4975 13f5 940A0000 		.4byte	.LVL223
 4976 13f9 BE170000 		.4byte	0x17be
 4977 13fd 08140000 		.4byte	0x1408
 4978 1401 12       		.uleb128 0x12
 4979 1402 01       		.uleb128 0x1
 4980 1403 50       		.byte	0x50
 4981 1404 02       		.uleb128 0x2
 4982 1405 74       		.byte	0x74
 4983 1406 00       		.sleb128 0
 4984 1407 00       		.byte	0
 4985 1408 11       		.uleb128 0x11
 4986 1409 9A0A0000 		.4byte	.LVL224
 4987 140d 17170000 		.4byte	0x1717
 4988 1411 1C140000 		.4byte	0x141c
 4989 1415 12       		.uleb128 0x12
 4990 1416 01       		.uleb128 0x1
 4991 1417 50       		.byte	0x50
 4992 1418 02       		.uleb128 0x2
 4993 1419 76       		.byte	0x76
 4994 141a 00       		.sleb128 0
 4995 141b 00       		.byte	0
 4996 141c 11       		.uleb128 0x11
 4997 141d A60A0000 		.4byte	.LVL225
 4998 1421 77170000 		.4byte	0x1777
 4999 1425 34140000 		.4byte	0x1434
 5000 1429 12       		.uleb128 0x12
 5001 142a 01       		.uleb128 0x1
 5002 142b 51       		.byte	0x51
 5003 142c 01       		.uleb128 0x1
 5004 142d 30       		.byte	0x30
 5005 142e 12       		.uleb128 0x12
 5006 142f 01       		.uleb128 0x1
 5007 1430 50       		.byte	0x50
 5008 1431 01       		.uleb128 0x1
 5009 1432 30       		.byte	0x30
 5010 1433 00       		.byte	0
 5011 1434 11       		.uleb128 0x11
 5012 1435 B40A0000 		.4byte	.LVL226
ARM GAS  C:\Users\Bart\AppData\Local\Temp\ccOIOErW.s 			page 107


 5013 1439 F1170000 		.4byte	0x17f1
 5014 143d 51140000 		.4byte	0x1451
 5015 1441 12       		.uleb128 0x12
 5016 1442 01       		.uleb128 0x1
 5017 1443 51       		.byte	0x51
 5018 1444 05       		.uleb128 0x5
 5019 1445 03       		.byte	0x3
 5020 1446 54010000 		.4byte	.LC42
 5021 144a 12       		.uleb128 0x12
 5022 144b 01       		.uleb128 0x1
 5023 144c 50       		.byte	0x50
 5024 144d 02       		.uleb128 0x2
 5025 144e 91       		.byte	0x91
 5026 144f 48       		.sleb128 -56
 5027 1450 00       		.byte	0
 5028 1451 13       		.uleb128 0x13
 5029 1452 BA0A0000 		.4byte	.LVL227
 5030 1456 8D170000 		.4byte	0x178d
 5031 145a 12       		.uleb128 0x12
 5032 145b 01       		.uleb128 0x1
 5033 145c 50       		.byte	0x50
 5034 145d 02       		.uleb128 0x2
 5035 145e 91       		.byte	0x91
 5036 145f 48       		.sleb128 -56
 5037 1460 00       		.byte	0
 5038 1461 00       		.byte	0
 5039 1462 0C       		.uleb128 0xc
 5040 1463 F7000000 		.4byte	0xf7
 5041 1467 72140000 		.4byte	0x1472
 5042 146b 0D       		.uleb128 0xd
 5043 146c 11010000 		.4byte	0x111
 5044 1470 0B       		.byte	0xb
 5045 1471 00       		.byte	0
 5046 1472 0C       		.uleb128 0xc
 5047 1473 F7000000 		.4byte	0xf7
 5048 1477 82140000 		.4byte	0x1482
 5049 147b 0D       		.uleb128 0xd
 5050 147c 11010000 		.4byte	0x111
 5051 1480 13       		.byte	0x13
 5052 1481 00       		.byte	0
 5053 1482 0C       		.uleb128 0xc
 5054 1483 F7000000 		.4byte	0xf7
 5055 1487 92140000 		.4byte	0x1492
 5056 148b 0D       		.uleb128 0xd
 5057 148c 11010000 		.4byte	0x111
 5058 1490 06       		.byte	0x6
 5059 1491 00       		.byte	0
 5060 1492 0C       		.uleb128 0xc
 5061 1493 A2000000 		.4byte	0xa2
 5062 1497 A2140000 		.4byte	0x14a2
 5063 149b 0D       		.uleb128 0xd
 5064 149c 11010000 		.4byte	0x111
 5065 14a0 02       		.byte	0x2
 5066 14a1 00       		.byte	0
 5067 14a2 0F       		.uleb128 0xf
 5068 14a3 E1030000 		.4byte	.LASF93
 5069 14a7 01       		.byte	0x1
ARM GAS  C:\Users\Bart\AppData\Local\Temp\ccOIOErW.s 			page 108


 5070 14a8 2D       		.byte	0x2d
 5071 14a9 00000000 		.4byte	.LFB65
 5072 14ad 30000000 		.4byte	.LFE65-.LFB65
 5073 14b1 01       		.uleb128 0x1
 5074 14b2 9C       		.byte	0x9c
 5075 14b3 2B150000 		.4byte	0x152b
 5076 14b7 11       		.uleb128 0x11
 5077 14b8 08000000 		.4byte	.LVL228
 5078 14bc 17170000 		.4byte	0x1717
 5079 14c0 CA140000 		.4byte	0x14ca
 5080 14c4 12       		.uleb128 0x12
 5081 14c5 01       		.uleb128 0x1
 5082 14c6 50       		.byte	0x50
 5083 14c7 01       		.uleb128 0x1
 5084 14c8 31       		.byte	0x31
 5085 14c9 00       		.byte	0
 5086 14ca 11       		.uleb128 0x11
 5087 14cb 10000000 		.4byte	.LVL229
 5088 14cf 77170000 		.4byte	0x1777
 5089 14d3 E2140000 		.4byte	0x14e2
 5090 14d7 12       		.uleb128 0x12
 5091 14d8 01       		.uleb128 0x1
 5092 14d9 51       		.byte	0x51
 5093 14da 01       		.uleb128 0x1
 5094 14db 33       		.byte	0x33
 5095 14dc 12       		.uleb128 0x12
 5096 14dd 01       		.uleb128 0x1
 5097 14de 50       		.byte	0x50
 5098 14df 01       		.uleb128 0x1
 5099 14e0 30       		.byte	0x30
 5100 14e1 00       		.byte	0
 5101 14e2 11       		.uleb128 0x11
 5102 14e3 16000000 		.4byte	.LVL230
 5103 14e7 8D170000 		.4byte	0x178d
 5104 14eb F9140000 		.4byte	0x14f9
 5105 14ef 12       		.uleb128 0x12
 5106 14f0 01       		.uleb128 0x1
 5107 14f1 50       		.byte	0x50
 5108 14f2 05       		.uleb128 0x5
 5109 14f3 03       		.byte	0x3
 5110 14f4 70010000 		.4byte	.LC43
 5111 14f8 00       		.byte	0
 5112 14f9 11       		.uleb128 0x11
 5113 14fa 1E000000 		.4byte	.LVL231
 5114 14fe 79180000 		.4byte	0x1879
 5115 1502 0E150000 		.4byte	0x150e
 5116 1506 12       		.uleb128 0x12
 5117 1507 01       		.uleb128 0x1
 5118 1508 50       		.byte	0x50
 5119 1509 03       		.uleb128 0x3
 5120 150a 0A       		.byte	0xa
 5121 150b E803     		.2byte	0x3e8
 5122 150d 00       		.byte	0
 5123 150e 11       		.uleb128 0x11
 5124 150f 24000000 		.4byte	.LVL232
 5125 1513 17170000 		.4byte	0x1717
 5126 1517 21150000 		.4byte	0x1521
ARM GAS  C:\Users\Bart\AppData\Local\Temp\ccOIOErW.s 			page 109


 5127 151b 12       		.uleb128 0x12
 5128 151c 01       		.uleb128 0x1
 5129 151d 50       		.byte	0x50
 5130 151e 01       		.uleb128 0x1
 5131 151f 31       		.byte	0x31
 5132 1520 00       		.byte	0
 5133 1521 10       		.uleb128 0x10
 5134 1522 28000000 		.4byte	.LVL233
 5135 1526 42050000 		.4byte	0x542
 5136 152a 00       		.byte	0
 5137 152b 20       		.uleb128 0x20
 5138 152c 9C040000 		.4byte	.LASF95
 5139 1530 01       		.byte	0x1
 5140 1531 7602     		.2byte	0x276
 5141 1533 00000000 		.4byte	.LFB70
 5142 1537 02000000 		.4byte	.LFE70-.LFB70
 5143 153b 01       		.uleb128 0x1
 5144 153c 9C       		.byte	0x9c
 5145 153d 0C       		.uleb128 0xc
 5146 153e AD000000 		.4byte	0xad
 5147 1542 4D150000 		.4byte	0x154d
 5148 1546 0D       		.uleb128 0xd
 5149 1547 11010000 		.4byte	0x111
 5150 154b 3F       		.byte	0x3f
 5151 154c 00       		.byte	0
 5152 154d 21       		.uleb128 0x21
 5153 154e 25060000 		.4byte	.LASF96
 5154 1552 08       		.byte	0x8
 5155 1553 77       		.byte	0x77
 5156 1554 58150000 		.4byte	0x1558
 5157 1558 08       		.uleb128 0x8
 5158 1559 3D150000 		.4byte	0x153d
 5159 155d 22       		.uleb128 0x22
 5160 155e 35050000 		.4byte	.LASF97
 5161 1562 09       		.byte	0x9
 5162 1563 9606     		.2byte	0x696
 5163 1565 69150000 		.4byte	0x1569
 5164 1569 09       		.uleb128 0x9
 5165 156a A2000000 		.4byte	0xa2
 5166 156e 21       		.uleb128 0x21
 5167 156f EB020000 		.4byte	.LASF98
 5168 1573 05       		.byte	0x5
 5169 1574 6A       		.byte	0x6a
 5170 1575 32020000 		.4byte	0x232
 5171 1579 23       		.uleb128 0x23
 5172 157a 73797300 		.ascii	"sys\000"
 5173 157e 06       		.byte	0x6
 5174 157f 92       		.byte	0x92
 5175 1580 EE020000 		.4byte	0x2ee
 5176 1584 24       		.uleb128 0x24
 5177 1585 42040000 		.4byte	.LASF99
 5178 1589 06       		.byte	0x6
 5179 158a 95       		.byte	0x95
 5180 158b 92140000 		.4byte	0x1492
 5181 158f 05       		.uleb128 0x5
 5182 1590 03       		.byte	0x3
 5183 1591 00000000 		.4byte	sys_position
ARM GAS  C:\Users\Bart\AppData\Local\Temp\ccOIOErW.s 			page 110


 5184 1595 24       		.uleb128 0x24
 5185 1596 A5030000 		.4byte	.LASF100
 5186 159a 06       		.byte	0x6
 5187 159b 96       		.byte	0x96
 5188 159c 92140000 		.4byte	0x1492
 5189 15a0 05       		.uleb128 0x5
 5190 15a1 03       		.byte	0x3
 5191 15a2 00000000 		.4byte	sys_probe_position
 5192 15a6 24       		.uleb128 0x24
 5193 15a7 AD000000 		.4byte	.LASF101
 5194 15ab 06       		.byte	0x6
 5195 15ac 98       		.byte	0x98
 5196 15ad 29010000 		.4byte	0x129
 5197 15b1 05       		.uleb128 0x5
 5198 15b2 03       		.byte	0x3
 5199 15b3 00000000 		.4byte	sys_probe_state
 5200 15b7 24       		.uleb128 0x24
 5201 15b8 72020000 		.4byte	.LASF102
 5202 15bc 06       		.byte	0x6
 5203 15bd 99       		.byte	0x99
 5204 15be 29010000 		.4byte	0x129
 5205 15c2 05       		.uleb128 0x5
 5206 15c3 03       		.byte	0x3
 5207 15c4 00000000 		.4byte	sys_rt_exec_state
 5208 15c8 24       		.uleb128 0x24
 5209 15c9 FA060000 		.4byte	.LASF103
 5210 15cd 06       		.byte	0x6
 5211 15ce 9A       		.byte	0x9a
 5212 15cf 29010000 		.4byte	0x129
 5213 15d3 05       		.uleb128 0x5
 5214 15d4 03       		.byte	0x3
 5215 15d5 00000000 		.4byte	sys_rt_exec_alarm
 5216 15d9 24       		.uleb128 0x24
 5217 15da BB040000 		.4byte	.LASF104
 5218 15de 06       		.byte	0x6
 5219 15df 9B       		.byte	0x9b
 5220 15e0 29010000 		.4byte	0x129
 5221 15e4 05       		.uleb128 0x5
 5222 15e5 03       		.byte	0x3
 5223 15e6 00000000 		.4byte	sys_rt_exec_motion_override
 5224 15ea 24       		.uleb128 0x24
 5225 15eb BE050000 		.4byte	.LASF105
 5226 15ef 06       		.byte	0x6
 5227 15f0 9C       		.byte	0x9c
 5228 15f1 29010000 		.4byte	0x129
 5229 15f5 05       		.uleb128 0x5
 5230 15f6 03       		.byte	0x3
 5231 15f7 00000000 		.4byte	sys_rt_exec_accessory_override
 5232 15fb 24       		.uleb128 0x24
 5233 15fc A4020000 		.4byte	.LASF106
 5234 1600 06       		.byte	0x6
 5235 1601 A0       		.byte	0xa0
 5236 1602 29010000 		.4byte	0x129
 5237 1606 05       		.uleb128 0x5
 5238 1607 03       		.byte	0x3
 5239 1608 00000000 		.4byte	sys_rt_exec_debug
 5240 160c 21       		.uleb128 0x21
ARM GAS  C:\Users\Bart\AppData\Local\Temp\ccOIOErW.s 			page 111


 5241 160d 39040000 		.4byte	.LASF107
 5242 1611 07       		.byte	0x7
 5243 1612 DF       		.byte	0xdf
 5244 1613 FA030000 		.4byte	0x3fa
 5245 1617 24       		.uleb128 0x24
 5246 1618 43020000 		.4byte	.LASF108
 5247 161c 0A       		.byte	0xa
 5248 161d 11       		.byte	0x11
 5249 161e 8C000000 		.4byte	0x8c
 5250 1622 05       		.uleb128 0x5
 5251 1623 03       		.byte	0x3
 5252 1624 00000000 		.4byte	exec_lcd_status
 5253 1628 25       		.uleb128 0x25
 5254 1629 66726F00 		.ascii	"fro\000"
 5255 162d 01       		.byte	0x1
 5256 162e 10       		.byte	0x10
 5257 162f C5000000 		.4byte	0xc5
 5258 1633 05       		.uleb128 0x5
 5259 1634 03       		.byte	0x3
 5260 1635 00000000 		.4byte	fro
 5261 1639 24       		.uleb128 0x24
 5262 163a 64010000 		.4byte	.LASF109
 5263 163e 01       		.byte	0x1
 5264 163f 11       		.byte	0x11
 5265 1640 C5000000 		.4byte	0xc5
 5266 1644 05       		.uleb128 0x5
 5267 1645 03       		.byte	0x3
 5268 1646 00000000 		.4byte	lcd_screen
 5269 164a 24       		.uleb128 0x24
 5270 164b 8C050000 		.4byte	.LASF110
 5271 164f 01       		.byte	0x1
 5272 1650 12       		.byte	0x12
 5273 1651 C5000000 		.4byte	0xc5
 5274 1655 05       		.uleb128 0x5
 5275 1656 03       		.byte	0x3
 5276 1657 00000000 		.4byte	menu_item_selected
 5277 165b 24       		.uleb128 0x24
 5278 165c 7D030000 		.4byte	.LASF111
 5279 1660 01       		.byte	0x1
 5280 1661 13       		.byte	0x13
 5281 1662 C5000000 		.4byte	0xc5
 5282 1666 05       		.uleb128 0x5
 5283 1667 03       		.byte	0x3
 5284 1668 00000000 		.4byte	lcd_cursor
 5285 166c 24       		.uleb128 0x24
 5286 166d 4F040000 		.4byte	.LASF112
 5287 1671 01       		.byte	0x1
 5288 1672 14       		.byte	0x14
 5289 1673 C5000000 		.4byte	0xc5
 5290 1677 05       		.uleb128 0x5
 5291 1678 03       		.byte	0x3
 5292 1679 00000000 		.4byte	lcd_cursor_max
 5293 167d 24       		.uleb128 0x24
 5294 167e E1070000 		.4byte	.LASF113
 5295 1682 01       		.byte	0x1
 5296 1683 15       		.byte	0x15
 5297 1684 C5000000 		.4byte	0xc5
ARM GAS  C:\Users\Bart\AppData\Local\Temp\ccOIOErW.s 			page 112


 5298 1688 05       		.uleb128 0x5
 5299 1689 03       		.byte	0x3
 5300 168a 00000000 		.4byte	switch_clicked
 5301 168e 24       		.uleb128 0x24
 5302 168f 68020000 		.4byte	.LASF114
 5303 1693 01       		.byte	0x1
 5304 1694 16       		.byte	0x16
 5305 1695 C5000000 		.4byte	0xc5
 5306 1699 05       		.uleb128 0x5
 5307 169a 03       		.byte	0x3
 5308 169b 00000000 		.4byte	lcd_units
 5309 169f 24       		.uleb128 0x24
 5310 16a0 08060000 		.4byte	.LASF115
 5311 16a4 01       		.byte	0x1
 5312 16a5 17       		.byte	0x17
 5313 16a6 D1000000 		.4byte	0xd1
 5314 16aa 05       		.uleb128 0x5
 5315 16ab 03       		.byte	0x3
 5316 16ac 00000000 		.4byte	lcd_FRO
 5317 16b0 24       		.uleb128 0x24
 5318 16b1 AA070000 		.4byte	.LASF116
 5319 16b5 01       		.byte	0x1
 5320 16b6 18       		.byte	0x18
 5321 16b7 D1000000 		.4byte	0xd1
 5322 16bb 05       		.uleb128 0x5
 5323 16bc 03       		.byte	0x3
 5324 16bd 00000000 		.4byte	lcd_SRO
 5325 16c1 24       		.uleb128 0x24
 5326 16c2 1D070000 		.4byte	.LASF117
 5327 16c6 01       		.byte	0x1
 5328 16c7 1A       		.byte	0x1a
 5329 16c8 DD000000 		.4byte	0xdd
 5330 16cc 05       		.uleb128 0x5
 5331 16cd 03       		.byte	0x3
 5332 16ce 00000000 		.4byte	lcd_probe_thickness
 5333 16d2 24       		.uleb128 0x24
 5334 16d3 0C010000 		.4byte	.LASF118
 5335 16d7 01       		.byte	0x1
 5336 16d8 1B       		.byte	0x1b
 5337 16d9 D1000000 		.4byte	0xd1
 5338 16dd 05       		.uleb128 0x5
 5339 16de 03       		.byte	0x3
 5340 16df 00000000 		.4byte	lcd_probe_rate
 5341 16e3 24       		.uleb128 0x24
 5342 16e4 75010000 		.4byte	.LASF119
 5343 16e8 01       		.byte	0x1
 5344 16e9 1C       		.byte	0x1c
 5345 16ea D1000000 		.4byte	0xd1
 5346 16ee 05       		.uleb128 0x5
 5347 16ef 03       		.byte	0x3
 5348 16f0 00000000 		.4byte	lcd_probe_dist
 5349 16f4 26       		.uleb128 0x26
 5350 16f5 73050000 		.4byte	.LASF122
 5351 16f9 08       		.byte	0x8
 5352 16fa 38       		.byte	0x38
 5353 16fb 27       		.uleb128 0x27
 5354 16fc 0F020000 		.4byte	.LASF120
ARM GAS  C:\Users\Bart\AppData\Local\Temp\ccOIOErW.s 			page 113


 5355 1700 08       		.byte	0x8
 5356 1701 55       		.byte	0x55
 5357 1702 0C170000 		.4byte	0x170c
 5358 1706 28       		.uleb128 0x28
 5359 1707 0C170000 		.4byte	0x170c
 5360 170b 00       		.byte	0
 5361 170c 06       		.uleb128 0x6
 5362 170d 04       		.byte	0x4
 5363 170e 12170000 		.4byte	0x1712
 5364 1712 08       		.uleb128 0x8
 5365 1713 AD000000 		.4byte	0xad
 5366 1717 27       		.uleb128 0x27
 5367 1718 09080000 		.4byte	.LASF121
 5368 171c 08       		.byte	0x8
 5369 171d 3A       		.byte	0x3a
 5370 171e 28170000 		.4byte	0x1728
 5371 1722 28       		.uleb128 0x28
 5372 1723 AD000000 		.4byte	0xad
 5373 1727 00       		.byte	0
 5374 1728 26       		.uleb128 0x26
 5375 1729 4F030000 		.4byte	.LASF123
 5376 172d 0B       		.byte	0xb
 5377 172e 48       		.byte	0x48
 5378 172f 27       		.uleb128 0x27
 5379 1730 B8030000 		.4byte	.LASF124
 5380 1734 0C       		.byte	0xc
 5381 1735 18       		.byte	0x18
 5382 1736 40170000 		.4byte	0x1740
 5383 173a 28       		.uleb128 0x28
 5384 173b FE000000 		.4byte	0xfe
 5385 173f 00       		.byte	0
 5386 1740 27       		.uleb128 0x27
 5387 1741 1A080000 		.4byte	.LASF125
 5388 1745 08       		.byte	0x8
 5389 1746 3E       		.byte	0x3e
 5390 1747 51170000 		.4byte	0x1751
 5391 174b 28       		.uleb128 0x28
 5392 174c EB000000 		.4byte	0xeb
 5393 1750 00       		.byte	0
 5394 1751 29       		.uleb128 0x29
 5395 1752 5E040000 		.4byte	.LASF129
 5396 1756 07       		.byte	0x7
 5397 1757 ED       		.byte	0xed
 5398 1758 8C000000 		.4byte	0x8c
 5399 175c 66170000 		.4byte	0x1766
 5400 1760 28       		.uleb128 0x28
 5401 1761 18010000 		.4byte	0x118
 5402 1765 00       		.byte	0
 5403 1766 27       		.uleb128 0x27
 5404 1767 40030000 		.4byte	.LASF126
 5405 176b 0D       		.byte	0xd
 5406 176c 5C       		.byte	0x5c
 5407 176d 77170000 		.4byte	0x1777
 5408 1771 28       		.uleb128 0x28
 5409 1772 18010000 		.4byte	0x118
 5410 1776 00       		.byte	0
 5411 1777 27       		.uleb128 0x27
ARM GAS  C:\Users\Bart\AppData\Local\Temp\ccOIOErW.s 			page 114


 5412 1778 AE040000 		.4byte	.LASF127
 5413 177c 08       		.byte	0x8
 5414 177d 3D       		.byte	0x3d
 5415 177e 8D170000 		.4byte	0x178d
 5416 1782 28       		.uleb128 0x28
 5417 1783 AD000000 		.4byte	0xad
 5418 1787 28       		.uleb128 0x28
 5419 1788 AD000000 		.4byte	0xad
 5420 178c 00       		.byte	0
 5421 178d 27       		.uleb128 0x27
 5422 178e 25050000 		.4byte	.LASF128
 5423 1792 08       		.byte	0x8
 5424 1793 3C       		.byte	0x3c
 5425 1794 9E170000 		.4byte	0x179e
 5426 1798 28       		.uleb128 0x28
 5427 1799 9E170000 		.4byte	0x179e
 5428 179d 00       		.byte	0
 5429 179e 06       		.uleb128 0x6
 5430 179f 04       		.byte	0x4
 5431 17a0 A4170000 		.4byte	0x17a4
 5432 17a4 08       		.uleb128 0x8
 5433 17a5 EB000000 		.4byte	0xeb
 5434 17a9 29       		.uleb128 0x29
 5435 17aa 31070000 		.4byte	.LASF130
 5436 17ae 06       		.byte	0x6
 5437 17af AD       		.byte	0xad
 5438 17b0 8C000000 		.4byte	0x8c
 5439 17b4 BE170000 		.4byte	0x17be
 5440 17b8 28       		.uleb128 0x28
 5441 17b9 18010000 		.4byte	0x118
 5442 17bd 00       		.byte	0
 5443 17be 27       		.uleb128 0x27
 5444 17bf 4A010000 		.4byte	.LASF131
 5445 17c3 0B       		.byte	0xb
 5446 17c4 4F       		.byte	0x4f
 5447 17c5 CF170000 		.4byte	0x17cf
 5448 17c9 28       		.uleb128 0x28
 5449 17ca D1000000 		.4byte	0xd1
 5450 17ce 00       		.byte	0
 5451 17cf 27       		.uleb128 0x27
 5452 17d0 8A000000 		.4byte	.LASF132
 5453 17d4 06       		.byte	0x6
 5454 17d5 B9       		.byte	0xb9
 5455 17d6 E5170000 		.4byte	0x17e5
 5456 17da 28       		.uleb128 0x28
 5457 17db E5170000 		.4byte	0x17e5
 5458 17df 28       		.uleb128 0x28
 5459 17e0 EB170000 		.4byte	0x17eb
 5460 17e4 00       		.byte	0
 5461 17e5 06       		.uleb128 0x6
 5462 17e6 04       		.byte	0x4
 5463 17e7 DD000000 		.4byte	0xdd
 5464 17eb 06       		.uleb128 0x6
 5465 17ec 04       		.byte	0x4
 5466 17ed A2000000 		.4byte	0xa2
 5467 17f1 29       		.uleb128 0x29
 5468 17f2 8B040000 		.4byte	.LASF133
ARM GAS  C:\Users\Bart\AppData\Local\Temp\ccOIOErW.s 			page 115


 5469 17f6 0E       		.byte	0xe
 5470 17f7 DE       		.byte	0xde
 5471 17f8 7E000000 		.4byte	0x7e
 5472 17fc 0C180000 		.4byte	0x180c
 5473 1800 28       		.uleb128 0x28
 5474 1801 18010000 		.4byte	0x118
 5475 1805 28       		.uleb128 0x28
 5476 1806 1E010000 		.4byte	0x11e
 5477 180a 2A       		.uleb128 0x2a
 5478 180b 00       		.byte	0
 5479 180c 2B       		.uleb128 0x2b
 5480 180d 84020000 		.4byte	.LASF144
 5481 1811 0B       		.byte	0xb
 5482 1812 4E       		.byte	0x4e
 5483 1813 D1000000 		.4byte	0xd1
 5484 1817 2C       		.uleb128 0x2c
 5485 1818 D6060000 		.4byte	.LASF134
 5486 181c 06       		.byte	0x6
 5487 181d AA       		.byte	0xaa
 5488 181e 8C000000 		.4byte	0x8c
 5489 1822 28180000 		.4byte	0x1828
 5490 1826 2A       		.uleb128 0x2a
 5491 1827 00       		.byte	0
 5492 1828 27       		.uleb128 0x27
 5493 1829 F1040000 		.4byte	.LASF135
 5494 182d 0F       		.byte	0xf
 5495 182e 39       		.byte	0x39
 5496 182f 39180000 		.4byte	0x1839
 5497 1833 28       		.uleb128 0x28
 5498 1834 8C000000 		.4byte	0x8c
 5499 1838 00       		.byte	0
 5500 1839 2D       		.uleb128 0x2d
 5501 183a 89010000 		.4byte	.LASF138
 5502 183e 12       		.byte	0x12
 5503 183f 26       		.byte	0x26
 5504 1840 46180000 		.4byte	0x1846
 5505 1844 2A       		.uleb128 0x2a
 5506 1845 00       		.byte	0
 5507 1846 29       		.uleb128 0x29
 5508 1847 5D010000 		.4byte	.LASF136
 5509 184b 10       		.byte	0x10
 5510 184c 1A       		.byte	0x1a
 5511 184d 18010000 		.4byte	0x118
 5512 1851 60180000 		.4byte	0x1860
 5513 1855 28       		.uleb128 0x28
 5514 1856 18010000 		.4byte	0x118
 5515 185a 28       		.uleb128 0x28
 5516 185b 1E010000 		.4byte	0x11e
 5517 185f 00       		.byte	0
 5518 1860 2E       		.uleb128 0x2e
 5519 1861 C8010000 		.4byte	.LASF137
 5520 1865 11       		.byte	0x11
 5521 1866 00       		.byte	0
 5522 1867 42000000 		.4byte	.LASF145
 5523 186b 85000000 		.4byte	0x85
 5524 186f 79180000 		.4byte	0x1879
 5525 1873 28       		.uleb128 0x28
ARM GAS  C:\Users\Bart\AppData\Local\Temp\ccOIOErW.s 			page 116


 5526 1874 1E010000 		.4byte	0x11e
 5527 1878 00       		.byte	0
 5528 1879 2F       		.uleb128 0x2f
 5529 187a 13000000 		.4byte	.LASF139
 5530 187e 13       		.byte	0x13
 5531 187f 76       		.byte	0x76
 5532 1880 28       		.uleb128 0x28
 5533 1881 B9000000 		.4byte	0xb9
 5534 1885 00       		.byte	0
 5535 1886 00       		.byte	0
 5536              		.section	.debug_abbrev,"",%progbits
 5537              	.Ldebug_abbrev0:
 5538 0000 01       		.uleb128 0x1
 5539 0001 11       		.uleb128 0x11
 5540 0002 01       		.byte	0x1
 5541 0003 25       		.uleb128 0x25
 5542 0004 0E       		.uleb128 0xe
 5543 0005 13       		.uleb128 0x13
 5544 0006 0B       		.uleb128 0xb
 5545 0007 03       		.uleb128 0x3
 5546 0008 0E       		.uleb128 0xe
 5547 0009 1B       		.uleb128 0x1b
 5548 000a 0E       		.uleb128 0xe
 5549 000b 55       		.uleb128 0x55
 5550 000c 17       		.uleb128 0x17
 5551 000d 11       		.uleb128 0x11
 5552 000e 01       		.uleb128 0x1
 5553 000f 10       		.uleb128 0x10
 5554 0010 17       		.uleb128 0x17
 5555 0011 00       		.byte	0
 5556 0012 00       		.byte	0
 5557 0013 02       		.uleb128 0x2
 5558 0014 24       		.uleb128 0x24
 5559 0015 00       		.byte	0
 5560 0016 0B       		.uleb128 0xb
 5561 0017 0B       		.uleb128 0xb
 5562 0018 3E       		.uleb128 0x3e
 5563 0019 0B       		.uleb128 0xb
 5564 001a 03       		.uleb128 0x3
 5565 001b 0E       		.uleb128 0xe
 5566 001c 00       		.byte	0
 5567 001d 00       		.byte	0
 5568 001e 03       		.uleb128 0x3
 5569 001f 16       		.uleb128 0x16
 5570 0020 00       		.byte	0
 5571 0021 03       		.uleb128 0x3
 5572 0022 0E       		.uleb128 0xe
 5573 0023 3A       		.uleb128 0x3a
 5574 0024 0B       		.uleb128 0xb
 5575 0025 3B       		.uleb128 0x3b
 5576 0026 0B       		.uleb128 0xb
 5577 0027 49       		.uleb128 0x49
 5578 0028 13       		.uleb128 0x13
 5579 0029 00       		.byte	0
 5580 002a 00       		.byte	0
 5581 002b 04       		.uleb128 0x4
 5582 002c 24       		.uleb128 0x24
ARM GAS  C:\Users\Bart\AppData\Local\Temp\ccOIOErW.s 			page 117


 5583 002d 00       		.byte	0
 5584 002e 0B       		.uleb128 0xb
 5585 002f 0B       		.uleb128 0xb
 5586 0030 3E       		.uleb128 0x3e
 5587 0031 0B       		.uleb128 0xb
 5588 0032 03       		.uleb128 0x3
 5589 0033 08       		.uleb128 0x8
 5590 0034 00       		.byte	0
 5591 0035 00       		.byte	0
 5592 0036 05       		.uleb128 0x5
 5593 0037 16       		.uleb128 0x16
 5594 0038 00       		.byte	0
 5595 0039 03       		.uleb128 0x3
 5596 003a 0E       		.uleb128 0xe
 5597 003b 3A       		.uleb128 0x3a
 5598 003c 0B       		.uleb128 0xb
 5599 003d 3B       		.uleb128 0x3b
 5600 003e 05       		.uleb128 0x5
 5601 003f 49       		.uleb128 0x49
 5602 0040 13       		.uleb128 0x13
 5603 0041 00       		.byte	0
 5604 0042 00       		.byte	0
 5605 0043 06       		.uleb128 0x6
 5606 0044 0F       		.uleb128 0xf
 5607 0045 00       		.byte	0
 5608 0046 0B       		.uleb128 0xb
 5609 0047 0B       		.uleb128 0xb
 5610 0048 49       		.uleb128 0x49
 5611 0049 13       		.uleb128 0x13
 5612 004a 00       		.byte	0
 5613 004b 00       		.byte	0
 5614 004c 07       		.uleb128 0x7
 5615 004d 15       		.uleb128 0x15
 5616 004e 00       		.byte	0
 5617 004f 27       		.uleb128 0x27
 5618 0050 19       		.uleb128 0x19
 5619 0051 00       		.byte	0
 5620 0052 00       		.byte	0
 5621 0053 08       		.uleb128 0x8
 5622 0054 26       		.uleb128 0x26
 5623 0055 00       		.byte	0
 5624 0056 49       		.uleb128 0x49
 5625 0057 13       		.uleb128 0x13
 5626 0058 00       		.byte	0
 5627 0059 00       		.byte	0
 5628 005a 09       		.uleb128 0x9
 5629 005b 35       		.uleb128 0x35
 5630 005c 00       		.byte	0
 5631 005d 49       		.uleb128 0x49
 5632 005e 13       		.uleb128 0x13
 5633 005f 00       		.byte	0
 5634 0060 00       		.byte	0
 5635 0061 0A       		.uleb128 0xa
 5636 0062 13       		.uleb128 0x13
 5637 0063 01       		.byte	0x1
 5638 0064 0B       		.uleb128 0xb
 5639 0065 0B       		.uleb128 0xb
ARM GAS  C:\Users\Bart\AppData\Local\Temp\ccOIOErW.s 			page 118


 5640 0066 3A       		.uleb128 0x3a
 5641 0067 0B       		.uleb128 0xb
 5642 0068 3B       		.uleb128 0x3b
 5643 0069 0B       		.uleb128 0xb
 5644 006a 01       		.uleb128 0x1
 5645 006b 13       		.uleb128 0x13
 5646 006c 00       		.byte	0
 5647 006d 00       		.byte	0
 5648 006e 0B       		.uleb128 0xb
 5649 006f 0D       		.uleb128 0xd
 5650 0070 00       		.byte	0
 5651 0071 03       		.uleb128 0x3
 5652 0072 0E       		.uleb128 0xe
 5653 0073 3A       		.uleb128 0x3a
 5654 0074 0B       		.uleb128 0xb
 5655 0075 3B       		.uleb128 0x3b
 5656 0076 0B       		.uleb128 0xb
 5657 0077 49       		.uleb128 0x49
 5658 0078 13       		.uleb128 0x13
 5659 0079 38       		.uleb128 0x38
 5660 007a 0B       		.uleb128 0xb
 5661 007b 00       		.byte	0
 5662 007c 00       		.byte	0
 5663 007d 0C       		.uleb128 0xc
 5664 007e 01       		.uleb128 0x1
 5665 007f 01       		.byte	0x1
 5666 0080 49       		.uleb128 0x49
 5667 0081 13       		.uleb128 0x13
 5668 0082 01       		.uleb128 0x1
 5669 0083 13       		.uleb128 0x13
 5670 0084 00       		.byte	0
 5671 0085 00       		.byte	0
 5672 0086 0D       		.uleb128 0xd
 5673 0087 21       		.uleb128 0x21
 5674 0088 00       		.byte	0
 5675 0089 49       		.uleb128 0x49
 5676 008a 13       		.uleb128 0x13
 5677 008b 2F       		.uleb128 0x2f
 5678 008c 0B       		.uleb128 0xb
 5679 008d 00       		.byte	0
 5680 008e 00       		.byte	0
 5681 008f 0E       		.uleb128 0xe
 5682 0090 2E       		.uleb128 0x2e
 5683 0091 00       		.byte	0
 5684 0092 3F       		.uleb128 0x3f
 5685 0093 19       		.uleb128 0x19
 5686 0094 03       		.uleb128 0x3
 5687 0095 0E       		.uleb128 0xe
 5688 0096 3A       		.uleb128 0x3a
 5689 0097 0B       		.uleb128 0xb
 5690 0098 3B       		.uleb128 0x3b
 5691 0099 0B       		.uleb128 0xb
 5692 009a 11       		.uleb128 0x11
 5693 009b 01       		.uleb128 0x1
 5694 009c 12       		.uleb128 0x12
 5695 009d 06       		.uleb128 0x6
 5696 009e 40       		.uleb128 0x40
ARM GAS  C:\Users\Bart\AppData\Local\Temp\ccOIOErW.s 			page 119


 5697 009f 18       		.uleb128 0x18
 5698 00a0 9742     		.uleb128 0x2117
 5699 00a2 19       		.uleb128 0x19
 5700 00a3 00       		.byte	0
 5701 00a4 00       		.byte	0
 5702 00a5 0F       		.uleb128 0xf
 5703 00a6 2E       		.uleb128 0x2e
 5704 00a7 01       		.byte	0x1
 5705 00a8 3F       		.uleb128 0x3f
 5706 00a9 19       		.uleb128 0x19
 5707 00aa 03       		.uleb128 0x3
 5708 00ab 0E       		.uleb128 0xe
 5709 00ac 3A       		.uleb128 0x3a
 5710 00ad 0B       		.uleb128 0xb
 5711 00ae 3B       		.uleb128 0x3b
 5712 00af 0B       		.uleb128 0xb
 5713 00b0 11       		.uleb128 0x11
 5714 00b1 01       		.uleb128 0x1
 5715 00b2 12       		.uleb128 0x12
 5716 00b3 06       		.uleb128 0x6
 5717 00b4 40       		.uleb128 0x40
 5718 00b5 18       		.uleb128 0x18
 5719 00b6 9742     		.uleb128 0x2117
 5720 00b8 19       		.uleb128 0x19
 5721 00b9 01       		.uleb128 0x1
 5722 00ba 13       		.uleb128 0x13
 5723 00bb 00       		.byte	0
 5724 00bc 00       		.byte	0
 5725 00bd 10       		.uleb128 0x10
 5726 00be 898201   		.uleb128 0x4109
 5727 00c1 00       		.byte	0
 5728 00c2 11       		.uleb128 0x11
 5729 00c3 01       		.uleb128 0x1
 5730 00c4 31       		.uleb128 0x31
 5731 00c5 13       		.uleb128 0x13
 5732 00c6 00       		.byte	0
 5733 00c7 00       		.byte	0
 5734 00c8 11       		.uleb128 0x11
 5735 00c9 898201   		.uleb128 0x4109
 5736 00cc 01       		.byte	0x1
 5737 00cd 11       		.uleb128 0x11
 5738 00ce 01       		.uleb128 0x1
 5739 00cf 31       		.uleb128 0x31
 5740 00d0 13       		.uleb128 0x13
 5741 00d1 01       		.uleb128 0x1
 5742 00d2 13       		.uleb128 0x13
 5743 00d3 00       		.byte	0
 5744 00d4 00       		.byte	0
 5745 00d5 12       		.uleb128 0x12
 5746 00d6 8A8201   		.uleb128 0x410a
 5747 00d9 00       		.byte	0
 5748 00da 02       		.uleb128 0x2
 5749 00db 18       		.uleb128 0x18
 5750 00dc 9142     		.uleb128 0x2111
 5751 00de 18       		.uleb128 0x18
 5752 00df 00       		.byte	0
 5753 00e0 00       		.byte	0
ARM GAS  C:\Users\Bart\AppData\Local\Temp\ccOIOErW.s 			page 120


 5754 00e1 13       		.uleb128 0x13
 5755 00e2 898201   		.uleb128 0x4109
 5756 00e5 01       		.byte	0x1
 5757 00e6 11       		.uleb128 0x11
 5758 00e7 01       		.uleb128 0x1
 5759 00e8 31       		.uleb128 0x31
 5760 00e9 13       		.uleb128 0x13
 5761 00ea 00       		.byte	0
 5762 00eb 00       		.byte	0
 5763 00ec 14       		.uleb128 0x14
 5764 00ed 2E       		.uleb128 0x2e
 5765 00ee 00       		.byte	0
 5766 00ef 3F       		.uleb128 0x3f
 5767 00f0 19       		.uleb128 0x19
 5768 00f1 03       		.uleb128 0x3
 5769 00f2 0E       		.uleb128 0xe
 5770 00f3 3A       		.uleb128 0x3a
 5771 00f4 0B       		.uleb128 0xb
 5772 00f5 3B       		.uleb128 0x3b
 5773 00f6 0B       		.uleb128 0xb
 5774 00f7 27       		.uleb128 0x27
 5775 00f8 19       		.uleb128 0x19
 5776 00f9 11       		.uleb128 0x11
 5777 00fa 01       		.uleb128 0x1
 5778 00fb 12       		.uleb128 0x12
 5779 00fc 06       		.uleb128 0x6
 5780 00fd 40       		.uleb128 0x40
 5781 00fe 18       		.uleb128 0x18
 5782 00ff 9742     		.uleb128 0x2117
 5783 0101 19       		.uleb128 0x19
 5784 0102 00       		.byte	0
 5785 0103 00       		.byte	0
 5786 0104 15       		.uleb128 0x15
 5787 0105 2E       		.uleb128 0x2e
 5788 0106 01       		.byte	0x1
 5789 0107 3F       		.uleb128 0x3f
 5790 0108 19       		.uleb128 0x19
 5791 0109 03       		.uleb128 0x3
 5792 010a 0E       		.uleb128 0xe
 5793 010b 3A       		.uleb128 0x3a
 5794 010c 0B       		.uleb128 0xb
 5795 010d 3B       		.uleb128 0x3b
 5796 010e 05       		.uleb128 0x5
 5797 010f 27       		.uleb128 0x27
 5798 0110 19       		.uleb128 0x19
 5799 0111 11       		.uleb128 0x11
 5800 0112 01       		.uleb128 0x1
 5801 0113 12       		.uleb128 0x12
 5802 0114 06       		.uleb128 0x6
 5803 0115 40       		.uleb128 0x40
 5804 0116 18       		.uleb128 0x18
 5805 0117 9742     		.uleb128 0x2117
 5806 0119 19       		.uleb128 0x19
 5807 011a 01       		.uleb128 0x1
 5808 011b 13       		.uleb128 0x13
 5809 011c 00       		.byte	0
 5810 011d 00       		.byte	0
ARM GAS  C:\Users\Bart\AppData\Local\Temp\ccOIOErW.s 			page 121


 5811 011e 16       		.uleb128 0x16
 5812 011f 05       		.uleb128 0x5
 5813 0120 00       		.byte	0
 5814 0121 03       		.uleb128 0x3
 5815 0122 08       		.uleb128 0x8
 5816 0123 3A       		.uleb128 0x3a
 5817 0124 0B       		.uleb128 0xb
 5818 0125 3B       		.uleb128 0x3b
 5819 0126 05       		.uleb128 0x5
 5820 0127 49       		.uleb128 0x49
 5821 0128 13       		.uleb128 0x13
 5822 0129 02       		.uleb128 0x2
 5823 012a 17       		.uleb128 0x17
 5824 012b 00       		.byte	0
 5825 012c 00       		.byte	0
 5826 012d 17       		.uleb128 0x17
 5827 012e 05       		.uleb128 0x5
 5828 012f 00       		.byte	0
 5829 0130 03       		.uleb128 0x3
 5830 0131 0E       		.uleb128 0xe
 5831 0132 3A       		.uleb128 0x3a
 5832 0133 0B       		.uleb128 0xb
 5833 0134 3B       		.uleb128 0x3b
 5834 0135 05       		.uleb128 0x5
 5835 0136 49       		.uleb128 0x49
 5836 0137 13       		.uleb128 0x13
 5837 0138 02       		.uleb128 0x2
 5838 0139 17       		.uleb128 0x17
 5839 013a 00       		.byte	0
 5840 013b 00       		.byte	0
 5841 013c 18       		.uleb128 0x18
 5842 013d 34       		.uleb128 0x34
 5843 013e 00       		.byte	0
 5844 013f 34       		.uleb128 0x34
 5845 0140 19       		.uleb128 0x19
 5846 0141 49       		.uleb128 0x49
 5847 0142 13       		.uleb128 0x13
 5848 0143 02       		.uleb128 0x2
 5849 0144 17       		.uleb128 0x17
 5850 0145 00       		.byte	0
 5851 0146 00       		.byte	0
 5852 0147 19       		.uleb128 0x19
 5853 0148 34       		.uleb128 0x34
 5854 0149 00       		.byte	0
 5855 014a 03       		.uleb128 0x3
 5856 014b 08       		.uleb128 0x8
 5857 014c 3A       		.uleb128 0x3a
 5858 014d 0B       		.uleb128 0xb
 5859 014e 3B       		.uleb128 0x3b
 5860 014f 05       		.uleb128 0x5
 5861 0150 49       		.uleb128 0x49
 5862 0151 13       		.uleb128 0x13
 5863 0152 02       		.uleb128 0x2
 5864 0153 18       		.uleb128 0x18
 5865 0154 00       		.byte	0
 5866 0155 00       		.byte	0
 5867 0156 1A       		.uleb128 0x1a
ARM GAS  C:\Users\Bart\AppData\Local\Temp\ccOIOErW.s 			page 122


 5868 0157 34       		.uleb128 0x34
 5869 0158 00       		.byte	0
 5870 0159 03       		.uleb128 0x3
 5871 015a 08       		.uleb128 0x8
 5872 015b 3A       		.uleb128 0x3a
 5873 015c 0B       		.uleb128 0xb
 5874 015d 3B       		.uleb128 0x3b
 5875 015e 05       		.uleb128 0x5
 5876 015f 49       		.uleb128 0x49
 5877 0160 13       		.uleb128 0x13
 5878 0161 02       		.uleb128 0x2
 5879 0162 17       		.uleb128 0x17
 5880 0163 00       		.byte	0
 5881 0164 00       		.byte	0
 5882 0165 1B       		.uleb128 0x1b
 5883 0166 21       		.uleb128 0x21
 5884 0167 00       		.byte	0
 5885 0168 49       		.uleb128 0x49
 5886 0169 13       		.uleb128 0x13
 5887 016a 2F       		.uleb128 0x2f
 5888 016b 13       		.uleb128 0x13
 5889 016c 00       		.byte	0
 5890 016d 00       		.byte	0
 5891 016e 1C       		.uleb128 0x1c
 5892 016f 2E       		.uleb128 0x2e
 5893 0170 01       		.byte	0x1
 5894 0171 3F       		.uleb128 0x3f
 5895 0172 19       		.uleb128 0x19
 5896 0173 03       		.uleb128 0x3
 5897 0174 0E       		.uleb128 0xe
 5898 0175 3A       		.uleb128 0x3a
 5899 0176 0B       		.uleb128 0xb
 5900 0177 3B       		.uleb128 0x3b
 5901 0178 0B       		.uleb128 0xb
 5902 0179 11       		.uleb128 0x11
 5903 017a 01       		.uleb128 0x1
 5904 017b 12       		.uleb128 0x12
 5905 017c 06       		.uleb128 0x6
 5906 017d 40       		.uleb128 0x40
 5907 017e 18       		.uleb128 0x18
 5908 017f 9642     		.uleb128 0x2116
 5909 0181 19       		.uleb128 0x19
 5910 0182 01       		.uleb128 0x1
 5911 0183 13       		.uleb128 0x13
 5912 0184 00       		.byte	0
 5913 0185 00       		.byte	0
 5914 0186 1D       		.uleb128 0x1d
 5915 0187 34       		.uleb128 0x34
 5916 0188 00       		.byte	0
 5917 0189 03       		.uleb128 0x3
 5918 018a 0E       		.uleb128 0xe
 5919 018b 3A       		.uleb128 0x3a
 5920 018c 0B       		.uleb128 0xb
 5921 018d 3B       		.uleb128 0x3b
 5922 018e 0B       		.uleb128 0xb
 5923 018f 49       		.uleb128 0x49
 5924 0190 13       		.uleb128 0x13
ARM GAS  C:\Users\Bart\AppData\Local\Temp\ccOIOErW.s 			page 123


 5925 0191 1C       		.uleb128 0x1c
 5926 0192 0B       		.uleb128 0xb
 5927 0193 00       		.byte	0
 5928 0194 00       		.byte	0
 5929 0195 1E       		.uleb128 0x1e
 5930 0196 34       		.uleb128 0x34
 5931 0197 00       		.byte	0
 5932 0198 03       		.uleb128 0x3
 5933 0199 08       		.uleb128 0x8
 5934 019a 3A       		.uleb128 0x3a
 5935 019b 0B       		.uleb128 0xb
 5936 019c 3B       		.uleb128 0x3b
 5937 019d 0B       		.uleb128 0xb
 5938 019e 49       		.uleb128 0x49
 5939 019f 13       		.uleb128 0x13
 5940 01a0 02       		.uleb128 0x2
 5941 01a1 17       		.uleb128 0x17
 5942 01a2 00       		.byte	0
 5943 01a3 00       		.byte	0
 5944 01a4 1F       		.uleb128 0x1f
 5945 01a5 34       		.uleb128 0x34
 5946 01a6 00       		.byte	0
 5947 01a7 03       		.uleb128 0x3
 5948 01a8 0E       		.uleb128 0xe
 5949 01a9 3A       		.uleb128 0x3a
 5950 01aa 0B       		.uleb128 0xb
 5951 01ab 3B       		.uleb128 0x3b
 5952 01ac 0B       		.uleb128 0xb
 5953 01ad 49       		.uleb128 0x49
 5954 01ae 13       		.uleb128 0x13
 5955 01af 02       		.uleb128 0x2
 5956 01b0 18       		.uleb128 0x18
 5957 01b1 00       		.byte	0
 5958 01b2 00       		.byte	0
 5959 01b3 20       		.uleb128 0x20
 5960 01b4 2E       		.uleb128 0x2e
 5961 01b5 00       		.byte	0
 5962 01b6 3F       		.uleb128 0x3f
 5963 01b7 19       		.uleb128 0x19
 5964 01b8 03       		.uleb128 0x3
 5965 01b9 0E       		.uleb128 0xe
 5966 01ba 3A       		.uleb128 0x3a
 5967 01bb 0B       		.uleb128 0xb
 5968 01bc 3B       		.uleb128 0x3b
 5969 01bd 05       		.uleb128 0x5
 5970 01be 11       		.uleb128 0x11
 5971 01bf 01       		.uleb128 0x1
 5972 01c0 12       		.uleb128 0x12
 5973 01c1 06       		.uleb128 0x6
 5974 01c2 40       		.uleb128 0x40
 5975 01c3 18       		.uleb128 0x18
 5976 01c4 9742     		.uleb128 0x2117
 5977 01c6 19       		.uleb128 0x19
 5978 01c7 00       		.byte	0
 5979 01c8 00       		.byte	0
 5980 01c9 21       		.uleb128 0x21
 5981 01ca 34       		.uleb128 0x34
ARM GAS  C:\Users\Bart\AppData\Local\Temp\ccOIOErW.s 			page 124


 5982 01cb 00       		.byte	0
 5983 01cc 03       		.uleb128 0x3
 5984 01cd 0E       		.uleb128 0xe
 5985 01ce 3A       		.uleb128 0x3a
 5986 01cf 0B       		.uleb128 0xb
 5987 01d0 3B       		.uleb128 0x3b
 5988 01d1 0B       		.uleb128 0xb
 5989 01d2 49       		.uleb128 0x49
 5990 01d3 13       		.uleb128 0x13
 5991 01d4 3F       		.uleb128 0x3f
 5992 01d5 19       		.uleb128 0x19
 5993 01d6 3C       		.uleb128 0x3c
 5994 01d7 19       		.uleb128 0x19
 5995 01d8 00       		.byte	0
 5996 01d9 00       		.byte	0
 5997 01da 22       		.uleb128 0x22
 5998 01db 34       		.uleb128 0x34
 5999 01dc 00       		.byte	0
 6000 01dd 03       		.uleb128 0x3
 6001 01de 0E       		.uleb128 0xe
 6002 01df 3A       		.uleb128 0x3a
 6003 01e0 0B       		.uleb128 0xb
 6004 01e1 3B       		.uleb128 0x3b
 6005 01e2 05       		.uleb128 0x5
 6006 01e3 49       		.uleb128 0x49
 6007 01e4 13       		.uleb128 0x13
 6008 01e5 3F       		.uleb128 0x3f
 6009 01e6 19       		.uleb128 0x19
 6010 01e7 3C       		.uleb128 0x3c
 6011 01e8 19       		.uleb128 0x19
 6012 01e9 00       		.byte	0
 6013 01ea 00       		.byte	0
 6014 01eb 23       		.uleb128 0x23
 6015 01ec 34       		.uleb128 0x34
 6016 01ed 00       		.byte	0
 6017 01ee 03       		.uleb128 0x3
 6018 01ef 08       		.uleb128 0x8
 6019 01f0 3A       		.uleb128 0x3a
 6020 01f1 0B       		.uleb128 0xb
 6021 01f2 3B       		.uleb128 0x3b
 6022 01f3 0B       		.uleb128 0xb
 6023 01f4 49       		.uleb128 0x49
 6024 01f5 13       		.uleb128 0x13
 6025 01f6 3F       		.uleb128 0x3f
 6026 01f7 19       		.uleb128 0x19
 6027 01f8 3C       		.uleb128 0x3c
 6028 01f9 19       		.uleb128 0x19
 6029 01fa 00       		.byte	0
 6030 01fb 00       		.byte	0
 6031 01fc 24       		.uleb128 0x24
 6032 01fd 34       		.uleb128 0x34
 6033 01fe 00       		.byte	0
 6034 01ff 03       		.uleb128 0x3
 6035 0200 0E       		.uleb128 0xe
 6036 0201 3A       		.uleb128 0x3a
 6037 0202 0B       		.uleb128 0xb
 6038 0203 3B       		.uleb128 0x3b
ARM GAS  C:\Users\Bart\AppData\Local\Temp\ccOIOErW.s 			page 125


 6039 0204 0B       		.uleb128 0xb
 6040 0205 49       		.uleb128 0x49
 6041 0206 13       		.uleb128 0x13
 6042 0207 3F       		.uleb128 0x3f
 6043 0208 19       		.uleb128 0x19
 6044 0209 02       		.uleb128 0x2
 6045 020a 18       		.uleb128 0x18
 6046 020b 00       		.byte	0
 6047 020c 00       		.byte	0
 6048 020d 25       		.uleb128 0x25
 6049 020e 34       		.uleb128 0x34
 6050 020f 00       		.byte	0
 6051 0210 03       		.uleb128 0x3
 6052 0211 08       		.uleb128 0x8
 6053 0212 3A       		.uleb128 0x3a
 6054 0213 0B       		.uleb128 0xb
 6055 0214 3B       		.uleb128 0x3b
 6056 0215 0B       		.uleb128 0xb
 6057 0216 49       		.uleb128 0x49
 6058 0217 13       		.uleb128 0x13
 6059 0218 3F       		.uleb128 0x3f
 6060 0219 19       		.uleb128 0x19
 6061 021a 02       		.uleb128 0x2
 6062 021b 18       		.uleb128 0x18
 6063 021c 00       		.byte	0
 6064 021d 00       		.byte	0
 6065 021e 26       		.uleb128 0x26
 6066 021f 2E       		.uleb128 0x2e
 6067 0220 00       		.byte	0
 6068 0221 3F       		.uleb128 0x3f
 6069 0222 19       		.uleb128 0x19
 6070 0223 03       		.uleb128 0x3
 6071 0224 0E       		.uleb128 0xe
 6072 0225 3A       		.uleb128 0x3a
 6073 0226 0B       		.uleb128 0xb
 6074 0227 3B       		.uleb128 0x3b
 6075 0228 0B       		.uleb128 0xb
 6076 0229 27       		.uleb128 0x27
 6077 022a 19       		.uleb128 0x19
 6078 022b 3C       		.uleb128 0x3c
 6079 022c 19       		.uleb128 0x19
 6080 022d 00       		.byte	0
 6081 022e 00       		.byte	0
 6082 022f 27       		.uleb128 0x27
 6083 0230 2E       		.uleb128 0x2e
 6084 0231 01       		.byte	0x1
 6085 0232 3F       		.uleb128 0x3f
 6086 0233 19       		.uleb128 0x19
 6087 0234 03       		.uleb128 0x3
 6088 0235 0E       		.uleb128 0xe
 6089 0236 3A       		.uleb128 0x3a
 6090 0237 0B       		.uleb128 0xb
 6091 0238 3B       		.uleb128 0x3b
 6092 0239 0B       		.uleb128 0xb
 6093 023a 27       		.uleb128 0x27
 6094 023b 19       		.uleb128 0x19
 6095 023c 3C       		.uleb128 0x3c
ARM GAS  C:\Users\Bart\AppData\Local\Temp\ccOIOErW.s 			page 126


 6096 023d 19       		.uleb128 0x19
 6097 023e 01       		.uleb128 0x1
 6098 023f 13       		.uleb128 0x13
 6099 0240 00       		.byte	0
 6100 0241 00       		.byte	0
 6101 0242 28       		.uleb128 0x28
 6102 0243 05       		.uleb128 0x5
 6103 0244 00       		.byte	0
 6104 0245 49       		.uleb128 0x49
 6105 0246 13       		.uleb128 0x13
 6106 0247 00       		.byte	0
 6107 0248 00       		.byte	0
 6108 0249 29       		.uleb128 0x29
 6109 024a 2E       		.uleb128 0x2e
 6110 024b 01       		.byte	0x1
 6111 024c 3F       		.uleb128 0x3f
 6112 024d 19       		.uleb128 0x19
 6113 024e 03       		.uleb128 0x3
 6114 024f 0E       		.uleb128 0xe
 6115 0250 3A       		.uleb128 0x3a
 6116 0251 0B       		.uleb128 0xb
 6117 0252 3B       		.uleb128 0x3b
 6118 0253 0B       		.uleb128 0xb
 6119 0254 27       		.uleb128 0x27
 6120 0255 19       		.uleb128 0x19
 6121 0256 49       		.uleb128 0x49
 6122 0257 13       		.uleb128 0x13
 6123 0258 3C       		.uleb128 0x3c
 6124 0259 19       		.uleb128 0x19
 6125 025a 01       		.uleb128 0x1
 6126 025b 13       		.uleb128 0x13
 6127 025c 00       		.byte	0
 6128 025d 00       		.byte	0
 6129 025e 2A       		.uleb128 0x2a
 6130 025f 18       		.uleb128 0x18
 6131 0260 00       		.byte	0
 6132 0261 00       		.byte	0
 6133 0262 00       		.byte	0
 6134 0263 2B       		.uleb128 0x2b
 6135 0264 2E       		.uleb128 0x2e
 6136 0265 00       		.byte	0
 6137 0266 3F       		.uleb128 0x3f
 6138 0267 19       		.uleb128 0x19
 6139 0268 03       		.uleb128 0x3
 6140 0269 0E       		.uleb128 0xe
 6141 026a 3A       		.uleb128 0x3a
 6142 026b 0B       		.uleb128 0xb
 6143 026c 3B       		.uleb128 0x3b
 6144 026d 0B       		.uleb128 0xb
 6145 026e 27       		.uleb128 0x27
 6146 026f 19       		.uleb128 0x19
 6147 0270 49       		.uleb128 0x49
 6148 0271 13       		.uleb128 0x13
 6149 0272 3C       		.uleb128 0x3c
 6150 0273 19       		.uleb128 0x19
 6151 0274 00       		.byte	0
 6152 0275 00       		.byte	0
ARM GAS  C:\Users\Bart\AppData\Local\Temp\ccOIOErW.s 			page 127


 6153 0276 2C       		.uleb128 0x2c
 6154 0277 2E       		.uleb128 0x2e
 6155 0278 01       		.byte	0x1
 6156 0279 3F       		.uleb128 0x3f
 6157 027a 19       		.uleb128 0x19
 6158 027b 03       		.uleb128 0x3
 6159 027c 0E       		.uleb128 0xe
 6160 027d 3A       		.uleb128 0x3a
 6161 027e 0B       		.uleb128 0xb
 6162 027f 3B       		.uleb128 0x3b
 6163 0280 0B       		.uleb128 0xb
 6164 0281 49       		.uleb128 0x49
 6165 0282 13       		.uleb128 0x13
 6166 0283 3C       		.uleb128 0x3c
 6167 0284 19       		.uleb128 0x19
 6168 0285 01       		.uleb128 0x1
 6169 0286 13       		.uleb128 0x13
 6170 0287 00       		.byte	0
 6171 0288 00       		.byte	0
 6172 0289 2D       		.uleb128 0x2d
 6173 028a 2E       		.uleb128 0x2e
 6174 028b 01       		.byte	0x1
 6175 028c 3F       		.uleb128 0x3f
 6176 028d 19       		.uleb128 0x19
 6177 028e 03       		.uleb128 0x3
 6178 028f 0E       		.uleb128 0xe
 6179 0290 3A       		.uleb128 0x3a
 6180 0291 0B       		.uleb128 0xb
 6181 0292 3B       		.uleb128 0x3b
 6182 0293 0B       		.uleb128 0xb
 6183 0294 3C       		.uleb128 0x3c
 6184 0295 19       		.uleb128 0x19
 6185 0296 01       		.uleb128 0x1
 6186 0297 13       		.uleb128 0x13
 6187 0298 00       		.byte	0
 6188 0299 00       		.byte	0
 6189 029a 2E       		.uleb128 0x2e
 6190 029b 2E       		.uleb128 0x2e
 6191 029c 01       		.byte	0x1
 6192 029d 3F       		.uleb128 0x3f
 6193 029e 19       		.uleb128 0x19
 6194 029f 03       		.uleb128 0x3
 6195 02a0 0E       		.uleb128 0xe
 6196 02a1 3A       		.uleb128 0x3a
 6197 02a2 0B       		.uleb128 0xb
 6198 02a3 3B       		.uleb128 0x3b
 6199 02a4 0B       		.uleb128 0xb
 6200 02a5 6E       		.uleb128 0x6e
 6201 02a6 0E       		.uleb128 0xe
 6202 02a7 27       		.uleb128 0x27
 6203 02a8 19       		.uleb128 0x19
 6204 02a9 49       		.uleb128 0x49
 6205 02aa 13       		.uleb128 0x13
 6206 02ab 3C       		.uleb128 0x3c
 6207 02ac 19       		.uleb128 0x19
 6208 02ad 01       		.uleb128 0x1
 6209 02ae 13       		.uleb128 0x13
ARM GAS  C:\Users\Bart\AppData\Local\Temp\ccOIOErW.s 			page 128


 6210 02af 00       		.byte	0
 6211 02b0 00       		.byte	0
 6212 02b1 2F       		.uleb128 0x2f
 6213 02b2 2E       		.uleb128 0x2e
 6214 02b3 01       		.byte	0x1
 6215 02b4 3F       		.uleb128 0x3f
 6216 02b5 19       		.uleb128 0x19
 6217 02b6 03       		.uleb128 0x3
 6218 02b7 0E       		.uleb128 0xe
 6219 02b8 3A       		.uleb128 0x3a
 6220 02b9 0B       		.uleb128 0xb
 6221 02ba 3B       		.uleb128 0x3b
 6222 02bb 0B       		.uleb128 0xb
 6223 02bc 27       		.uleb128 0x27
 6224 02bd 19       		.uleb128 0x19
 6225 02be 3C       		.uleb128 0x3c
 6226 02bf 19       		.uleb128 0x19
 6227 02c0 00       		.byte	0
 6228 02c1 00       		.byte	0
 6229 02c2 00       		.byte	0
 6230              		.section	.debug_loc,"",%progbits
 6231              	.Ldebug_loc0:
 6232              	.LLST0:
 6233 0000 00000000 		.4byte	.LVL5
 6234 0004 1C000000 		.4byte	.LVL9
 6235 0008 0100     		.2byte	0x1
 6236 000a 50       		.byte	0x50
 6237 000b 20000000 		.4byte	.LVL10
 6238 000f 2A000000 		.4byte	.LVL13
 6239 0013 0100     		.2byte	0x1
 6240 0015 50       		.byte	0x50
 6241 0016 00000000 		.4byte	0
 6242 001a 00000000 		.4byte	0
 6243              	.LLST1:
 6244 001e 00000000 		.4byte	.LVL5
 6245 0022 2A000000 		.4byte	.LVL13
 6246 0026 0100     		.2byte	0x1
 6247 0028 51       		.byte	0x51
 6248 0029 2A000000 		.4byte	.LVL13
 6249 002d 40000000 		.4byte	.LFE68
 6250 0031 0400     		.2byte	0x4
 6251 0033 F3       		.byte	0xf3
 6252 0034 01       		.uleb128 0x1
 6253 0035 51       		.byte	0x51
 6254 0036 9F       		.byte	0x9f
 6255 0037 00000000 		.4byte	0
 6256 003b 00000000 		.4byte	0
 6257              	.LLST2:
 6258 003f 00000000 		.4byte	.LVL5
 6259 0043 2A000000 		.4byte	.LVL13
 6260 0047 0100     		.2byte	0x1
 6261 0049 52       		.byte	0x52
 6262 004a 2A000000 		.4byte	.LVL13
 6263 004e 40000000 		.4byte	.LFE68
 6264 0052 0400     		.2byte	0x4
 6265 0054 F3       		.byte	0xf3
 6266 0055 01       		.uleb128 0x1
ARM GAS  C:\Users\Bart\AppData\Local\Temp\ccOIOErW.s 			page 129


 6267 0056 52       		.byte	0x52
 6268 0057 9F       		.byte	0x9f
 6269 0058 00000000 		.4byte	0
 6270 005c 00000000 		.4byte	0
 6271              	.LLST3:
 6272 0060 04000000 		.4byte	.LVL6
 6273 0064 2A000000 		.4byte	.LVL13
 6274 0068 0800     		.2byte	0x8
 6275 006a 72       		.byte	0x72
 6276 006b 00       		.sleb128 0
 6277 006c 08       		.byte	0x8
 6278 006d FF       		.byte	0xff
 6279 006e 1A       		.byte	0x1a
 6280 006f 31       		.byte	0x31
 6281 0070 1C       		.byte	0x1c
 6282 0071 9F       		.byte	0x9f
 6283 0072 2A000000 		.4byte	.LVL13
 6284 0076 40000000 		.4byte	.LFE68
 6285 007a 0900     		.2byte	0x9
 6286 007c F3       		.byte	0xf3
 6287 007d 01       		.uleb128 0x1
 6288 007e 52       		.byte	0x52
 6289 007f 08       		.byte	0x8
 6290 0080 FF       		.byte	0xff
 6291 0081 1A       		.byte	0x1a
 6292 0082 31       		.byte	0x31
 6293 0083 1C       		.byte	0x1c
 6294 0084 9F       		.byte	0x9f
 6295 0085 00000000 		.4byte	0
 6296 0089 00000000 		.4byte	0
 6297              	.LLST4:
 6298 008d 10000000 		.4byte	.LVL7
 6299 0091 14000000 		.4byte	.LVL8
 6300 0095 0200     		.2byte	0x2
 6301 0097 30       		.byte	0x30
 6302 0098 9F       		.byte	0x9f
 6303 0099 14000000 		.4byte	.LVL8
 6304 009d 22000000 		.4byte	.LVL11
 6305 00a1 0100     		.2byte	0x1
 6306 00a3 53       		.byte	0x53
 6307 00a4 24000000 		.4byte	.LVL12
 6308 00a8 35000000 		.4byte	.LVL14-1
 6309 00ac 0100     		.2byte	0x1
 6310 00ae 53       		.byte	0x53
 6311 00af 38000000 		.4byte	.LVL15
 6312 00b3 40000000 		.4byte	.LFE68
 6313 00b7 0100     		.2byte	0x1
 6314 00b9 53       		.byte	0x53
 6315 00ba 00000000 		.4byte	0
 6316 00be 00000000 		.4byte	0
 6317              	.LLST5:
 6318 00c2 00000000 		.4byte	.LVL16
 6319 00c6 0B000000 		.4byte	.LVL17-1
 6320 00ca 0100     		.2byte	0x1
 6321 00cc 50       		.byte	0x50
 6322 00cd 0B000000 		.4byte	.LVL17-1
 6323 00d1 14000000 		.4byte	.LFE69
ARM GAS  C:\Users\Bart\AppData\Local\Temp\ccOIOErW.s 			page 130


 6324 00d5 0400     		.2byte	0x4
 6325 00d7 F3       		.byte	0xf3
 6326 00d8 01       		.uleb128 0x1
 6327 00d9 50       		.byte	0x50
 6328 00da 9F       		.byte	0x9f
 6329 00db 00000000 		.4byte	0
 6330 00df 00000000 		.4byte	0
 6331              	.LLST6:
 6332 00e3 24010000 		.4byte	.LVL32
 6333 00e7 28010000 		.4byte	.LVL33
 6334 00eb 0200     		.2byte	0x2
 6335 00ed 30       		.byte	0x30
 6336 00ee 9F       		.byte	0x9f
 6337 00ef 28010000 		.4byte	.LVL33
 6338 00f3 68010000 		.4byte	.LVL37
 6339 00f7 0100     		.2byte	0x1
 6340 00f9 54       		.byte	0x54
 6341 00fa 6A010000 		.4byte	.LVL38
 6342 00fe BE010000 		.4byte	.LVL45
 6343 0102 0100     		.2byte	0x1
 6344 0104 54       		.byte	0x54
 6345 0105 C0010000 		.4byte	.LVL46
 6346 0109 78020000 		.4byte	.LVL68
 6347 010d 0100     		.2byte	0x1
 6348 010f 54       		.byte	0x54
 6349 0110 00000000 		.4byte	0
 6350 0114 00000000 		.4byte	0
 6351              		.section	.debug_aranges,"",%progbits
 6352 0000 54000000 		.4byte	0x54
 6353 0004 0200     		.2byte	0x2
 6354 0006 00000000 		.4byte	.Ldebug_info0
 6355 000a 04       		.byte	0x4
 6356 000b 00       		.byte	0
 6357 000c 0000     		.2byte	0
 6358 000e 0000     		.2byte	0
 6359 0010 00000000 		.4byte	.LFB64
 6360 0014 0C000000 		.4byte	.LFE64-.LFB64
 6361 0018 00000000 		.4byte	.LFB63
 6362 001c 30000000 		.4byte	.LFE63-.LFB63
 6363 0020 00000000 		.4byte	.LFB66
 6364 0024 0C000000 		.4byte	.LFE66-.LFB66
 6365 0028 00000000 		.4byte	.LFB68
 6366 002c 40000000 		.4byte	.LFE68-.LFB68
 6367 0030 00000000 		.4byte	.LFB69
 6368 0034 14000000 		.4byte	.LFE69-.LFB69
 6369 0038 00000000 		.4byte	.LFB67
 6370 003c F80A0000 		.4byte	.LFE67-.LFB67
 6371 0040 00000000 		.4byte	.LFB65
 6372 0044 30000000 		.4byte	.LFE65-.LFB65
 6373 0048 00000000 		.4byte	.LFB70
 6374 004c 02000000 		.4byte	.LFE70-.LFB70
 6375 0050 00000000 		.4byte	0
 6376 0054 00000000 		.4byte	0
 6377              		.section	.debug_ranges,"",%progbits
 6378              	.Ldebug_ranges0:
 6379 0000 00000000 		.4byte	.LFB64
 6380 0004 0C000000 		.4byte	.LFE64
ARM GAS  C:\Users\Bart\AppData\Local\Temp\ccOIOErW.s 			page 131


 6381 0008 00000000 		.4byte	.LFB63
 6382 000c 30000000 		.4byte	.LFE63
 6383 0010 00000000 		.4byte	.LFB66
 6384 0014 0C000000 		.4byte	.LFE66
 6385 0018 00000000 		.4byte	.LFB68
 6386 001c 40000000 		.4byte	.LFE68
 6387 0020 00000000 		.4byte	.LFB69
 6388 0024 14000000 		.4byte	.LFE69
 6389 0028 00000000 		.4byte	.LFB67
 6390 002c F80A0000 		.4byte	.LFE67
 6391 0030 00000000 		.4byte	.LFB65
 6392 0034 30000000 		.4byte	.LFE65
 6393 0038 00000000 		.4byte	.LFB70
 6394 003c 02000000 		.4byte	.LFE70
 6395 0040 00000000 		.4byte	0
 6396 0044 00000000 		.4byte	0
 6397              		.section	.debug_line,"",%progbits
 6398              	.Ldebug_line0:
 6399 0000 9C040000 		.section	.debug_str,"MS",%progbits,1
 6399      02000502 
 6399      00000201 
 6399      FB0E0D00 
 6399      01010101 
 6400              	.LASF30:
 6401 0000 70756C73 		.ascii	"pulse_microseconds\000"
 6401      655F6D69 
 6401      63726F73 
 6401      65636F6E 
 6401      647300
 6402              	.LASF139:
 6403 0013 43794465 		.ascii	"CyDelay\000"
 6403      6C617900 
 6404              	.LASF64:
 6405 001b 64697374 		.ascii	"distance\000"
 6405      616E6365 
 6405      00
 6406              	.LASF83:
 6407 0024 6C63645F 		.ascii	"lcd_menu_execute\000"
 6407      6D656E75 
 6407      5F657865 
 6407      63757465 
 6407      00
 6408              	.LASF68:
 6409 0035 70726F67 		.ascii	"program_flow\000"
 6409      72616D5F 
 6409      666C6F77 
 6409      00
 6410              	.LASF145:
 6411 0042 7374726C 		.ascii	"strlen\000"
 6411      656E00
 6412              	.LASF39:
 6413 0049 666C6167 		.ascii	"flags\000"
 6413      7300
 6414              	.LASF34:
 6415 004f 73746174 		.ascii	"status_report_mask\000"
 6415      75735F72 
 6415      65706F72 
ARM GAS  C:\Users\Bart\AppData\Local\Temp\ccOIOErW.s 			page 132


 6415      745F6D61 
 6415      736B00
 6416              	.LASF11:
 6417 0062 756E7369 		.ascii	"unsigned int\000"
 6417      676E6564 
 6417      20696E74 
 6417      00
 6418              	.LASF54:
 6419 006f 725F6F76 		.ascii	"r_override\000"
 6419      65727269 
 6419      646500
 6420              	.LASF6:
 6421 007a 5F5F696E 		.ascii	"__int32_t\000"
 6421      7433325F 
 6421      7400
 6422              	.LASF18:
 6423 0084 696E7431 		.ascii	"int16\000"
 6423      3600
 6424              	.LASF132:
 6425 008a 73797374 		.ascii	"system_convert_array_steps_to_mpos\000"
 6425      656D5F63 
 6425      6F6E7665 
 6425      72745F61 
 6425      72726179 
 6426              	.LASF101:
 6427 00ad 7379735F 		.ascii	"sys_probe_state\000"
 6427      70726F62 
 6427      655F7374 
 6427      61746500 
 6428              	.LASF33:
 6429 00bd 73746570 		.ascii	"stepper_idle_lock_time\000"
 6429      7065725F 
 6429      69646C65 
 6429      5F6C6F63 
 6429      6B5F7469 
 6430              	.LASF72:
 6431 00d4 6D6F6461 		.ascii	"modal\000"
 6431      6C00
 6432              	.LASF36:
 6433 00da 6172635F 		.ascii	"arc_tolerance\000"
 6433      746F6C65 
 6433      72616E63 
 6433      6500
 6434              	.LASF70:
 6435 00e8 7370696E 		.ascii	"spindle\000"
 6435      646C6500 
 6436              	.LASF143:
 6437 00f0 4953525F 		.ascii	"ISR_lcd\000"
 6437      6C636400 
 6438              	.LASF86:
 6439 00f8 6C63645F 		.ascii	"lcd_report_realtime\000"
 6439      7265706F 
 6439      72745F72 
 6439      65616C74 
 6439      696D6500 
 6440              	.LASF118:
 6441 010c 6C63645F 		.ascii	"lcd_probe_rate\000"
ARM GAS  C:\Users\Bart\AppData\Local\Temp\ccOIOErW.s 			page 133


 6441      70726F62 
 6441      655F7261 
 6441      746500
 6442              	.LASF28:
 6443 011b 61636365 		.ascii	"acceleration\000"
 6443      6C657261 
 6443      74696F6E 
 6443      00
 6444              	.LASF42:
 6445 0128 686F6D69 		.ascii	"homing_seek_rate\000"
 6445      6E675F73 
 6445      65656B5F 
 6445      72617465 
 6445      00
 6446              	.LASF41:
 6447 0139 686F6D69 		.ascii	"homing_feed_rate\000"
 6447      6E675F66 
 6447      6565645F 
 6447      72617465 
 6447      00
 6448              	.LASF131:
 6449 014a 51756164 		.ascii	"QuadDec_SetCounter\000"
 6449      4465635F 
 6449      53657443 
 6449      6F756E74 
 6449      657200
 6450              	.LASF136:
 6451 015d 73747263 		.ascii	"strcat\000"
 6451      617400
 6452              	.LASF109:
 6453 0164 6C63645F 		.ascii	"lcd_screen\000"
 6453      73637265 
 6453      656E00
 6454              	.LASF19:
 6455 016f 666C6F61 		.ascii	"float\000"
 6455      7400
 6456              	.LASF119:
 6457 0175 6C63645F 		.ascii	"lcd_probe_dist\000"
 6457      70726F62 
 6457      655F6469 
 6457      737400
 6458              	.LASF80:
 6459 0184 62617365 		.ascii	"base\000"
 6459      00
 6460              	.LASF138:
 6461 0189 73745F67 		.ascii	"st_go_idle\000"
 6461      6F5F6964 
 6461      6C6500
 6462              	.LASF82:
 6463 0194 6C63645F 		.ascii	"lcd_unsigned_int8\000"
 6463      756E7369 
 6463      676E6564 
 6463      5F696E74 
 6463      3800
 6464              	.LASF10:
 6465 01a6 6C6F6E67 		.ascii	"long long unsigned int\000"
 6465      206C6F6E 
ARM GAS  C:\Users\Bart\AppData\Local\Temp\ccOIOErW.s 			page 134


 6465      6720756E 
 6465      7369676E 
 6465      65642069 
 6466              	.LASF53:
 6467 01bd 665F6F76 		.ascii	"f_override\000"
 6467      65727269 
 6467      646500
 6468              	.LASF137:
 6469 01c8 5F5F6275 		.ascii	"__builtin_strlen\000"
 6469      696C7469 
 6469      6E5F7374 
 6469      726C656E 
 6469      00
 6470              	.LASF4:
 6471 01d9 5F5F7569 		.ascii	"__uint16_t\000"
 6471      6E743136 
 6471      5F7400
 6472              	.LASF81:
 6473 01e4 64696769 		.ascii	"digits\000"
 6473      747300
 6474              	.LASF56:
 6475 01eb 7370696E 		.ascii	"spindle_stop_ovr\000"
 6475      646C655F 
 6475      73746F70 
 6475      5F6F7672 
 6475      00
 6476              	.LASF88:
 6477 01fc 73746174 		.ascii	"stat\000"
 6477      00
 6478              	.LASF47:
 6479 0201 61626F72 		.ascii	"abort\000"
 6479      7400
 6480              	.LASF69:
 6481 0207 636F6F6C 		.ascii	"coolant\000"
 6481      616E7400 
 6482              	.LASF120:
 6483 020f 4C43445F 		.ascii	"LCD_LoadCustomFonts\000"
 6483      4C6F6164 
 6483      43757374 
 6483      6F6D466F 
 6483      6E747300 
 6484              	.LASF66:
 6485 0223 746F6F6C 		.ascii	"tool_length\000"
 6485      5F6C656E 
 6485      67746800 
 6486              	.LASF44:
 6487 022f 686F6D69 		.ascii	"homing_pulloff\000"
 6487      6E675F70 
 6487      756C6C6F 
 6487      666600
 6488              	.LASF73:
 6489 023e 746F6F6C 		.ascii	"tool\000"
 6489      00
 6490              	.LASF108:
 6491 0243 65786563 		.ascii	"exec_lcd_status\000"
 6491      5F6C6364 
 6491      5F737461 
ARM GAS  C:\Users\Bart\AppData\Local\Temp\ccOIOErW.s 			page 135


 6491      74757300 
 6492              	.LASF48:
 6493 0253 73757370 		.ascii	"suspend\000"
 6493      656E6400 
 6494              	.LASF65:
 6495 025b 706C616E 		.ascii	"plane_select\000"
 6495      655F7365 
 6495      6C656374 
 6495      00
 6496              	.LASF114:
 6497 0268 6C63645F 		.ascii	"lcd_units\000"
 6497      756E6974 
 6497      7300
 6498              	.LASF102:
 6499 0272 7379735F 		.ascii	"sys_rt_exec_state\000"
 6499      72745F65 
 6499      7865635F 
 6499      73746174 
 6499      6500
 6500              	.LASF144:
 6501 0284 51756164 		.ascii	"QuadDec_GetCounter\000"
 6501      4465635F 
 6501      47657443 
 6501      6F756E74 
 6501      657200
 6502              	.LASF67:
 6503 0297 636F6F72 		.ascii	"coord_select\000"
 6503      645F7365 
 6503      6C656374 
 6503      00
 6504              	.LASF106:
 6505 02a4 7379735F 		.ascii	"sys_rt_exec_debug\000"
 6505      72745F65 
 6505      7865635F 
 6505      64656275 
 6505      6700
 6506              	.LASF142:
 6507 02b6 433A5C55 		.ascii	"C:\\Users\\Bart\\Dropbox\\PSoC\\PSoC_Grbl\\PSoC_Grb"
 6507      73657273 
 6507      5C426172 
 6507      745C4472 
 6507      6F70626F 
 6508 02e3 6C2E6379 		.ascii	"l.cydsn\000"
 6508      64736E00 
 6509              	.LASF98:
 6510 02eb 73657474 		.ascii	"settings\000"
 6510      696E6773 
 6510      00
 6511              	.LASF29:
 6512 02f4 6D61785F 		.ascii	"max_travel\000"
 6512      74726176 
 6512      656C00
 6513              	.LASF22:
 6514 02ff 63686172 		.ascii	"char\000"
 6514      00
 6515              	.LASF78:
 6516 0304 746F6F6C 		.ascii	"tool_length_offset\000"
ARM GAS  C:\Users\Bart\AppData\Local\Temp\ccOIOErW.s 			page 136


 6516      5F6C656E 
 6516      6774685F 
 6516      6F666673 
 6516      657400
 6517              	.LASF37:
 6518 0317 72706D5F 		.ascii	"rpm_max\000"
 6518      6D617800 
 6519              	.LASF59:
 6520 031f 7370696E 		.ascii	"spindle_speed\000"
 6520      646C655F 
 6520      73706565 
 6520      6400
 6521              	.LASF57:
 6522 032d 7265706F 		.ascii	"report_ovr_counter\000"
 6522      72745F6F 
 6522      76725F63 
 6522      6F756E74 
 6522      657200
 6523              	.LASF126:
 6524 0340 6765745F 		.ascii	"get_state\000"
 6524      73746174 
 6524      6500
 6525              	.LASF17:
 6526 034a 696E7438 		.ascii	"int8\000"
 6526      00
 6527              	.LASF123:
 6528 034f 51756164 		.ascii	"QuadDec_Start\000"
 6528      4465635F 
 6528      53746172 
 6528      7400
 6529              	.LASF55:
 6530 035d 7370696E 		.ascii	"spindle_speed_ovr\000"
 6530      646C655F 
 6530      73706565 
 6530      645F6F76 
 6530      7200
 6531              	.LASF12:
 6532 036f 75696E74 		.ascii	"uint8_t\000"
 6532      385F7400 
 6533              	.LASF21:
 6534 0377 63686172 		.ascii	"char8\000"
 6534      3800
 6535              	.LASF111:
 6536 037d 6C63645F 		.ascii	"lcd_cursor\000"
 6536      63757273 
 6536      6F7200
 6537              	.LASF79:
 6538 0388 70617273 		.ascii	"parser_state_t\000"
 6538      65725F73 
 6538      74617465 
 6538      5F7400
 6539              	.LASF9:
 6540 0397 6C6F6E67 		.ascii	"long long int\000"
 6540      206C6F6E 
 6540      6720696E 
 6540      7400
 6541              	.LASF100:
ARM GAS  C:\Users\Bart\AppData\Local\Temp\ccOIOErW.s 			page 137


 6542 03a5 7379735F 		.ascii	"sys_probe_position\000"
 6542      70726F62 
 6542      655F706F 
 6542      73697469 
 6542      6F6E00
 6543              	.LASF124:
 6544 03b8 6973725F 		.ascii	"isr_Enc_Sw_StartEx\000"
 6544      456E635F 
 6544      53775F53 
 6544      74617274 
 6544      457800
 6545              	.LASF85:
 6546 03cb 6C63645F 		.ascii	"lcd_init\000"
 6546      696E6974 
 6546      00
 6547              	.LASF76:
 6548 03d4 636F6F72 		.ascii	"coord_system\000"
 6548      645F7379 
 6548      7374656D 
 6548      00
 6549              	.LASF93:
 6550 03e1 6C63645F 		.ascii	"lcd_report_init_message\000"
 6550      7265706F 
 6550      72745F69 
 6550      6E69745F 
 6550      6D657373 
 6551              	.LASF26:
 6552 03f9 73746570 		.ascii	"steps_per_mm\000"
 6552      735F7065 
 6552      725F6D6D 
 6552      00
 6553              	.LASF94:
 6554 0406 656E635F 		.ascii	"enc_sw_isr_handler\000"
 6554      73775F69 
 6554      73725F68 
 6554      616E646C 
 6554      657200
 6555              	.LASF74:
 6556 0419 6C696E65 		.ascii	"line_number\000"
 6556      5F6E756D 
 6556      62657200 
 6557              	.LASF23:
 6558 0425 63796973 		.ascii	"cyisraddress\000"
 6558      72616464 
 6558      72657373 
 6558      00
 6559              	.LASF16:
 6560 0432 75696E74 		.ascii	"uint32\000"
 6560      333200
 6561              	.LASF107:
 6562 0439 67635F73 		.ascii	"gc_state\000"
 6562      74617465 
 6562      00
 6563              	.LASF99:
 6564 0442 7379735F 		.ascii	"sys_position\000"
 6564      706F7369 
 6564      74696F6E 
ARM GAS  C:\Users\Bart\AppData\Local\Temp\ccOIOErW.s 			page 138


 6564      00
 6565              	.LASF112:
 6566 044f 6C63645F 		.ascii	"lcd_cursor_max\000"
 6566      63757273 
 6566      6F725F6D 
 6566      617800
 6567              	.LASF129:
 6568 045e 67635F65 		.ascii	"gc_execute_line\000"
 6568      78656375 
 6568      74655F6C 
 6568      696E6500 
 6569              	.LASF31:
 6570 046e 73746570 		.ascii	"step_invert_mask\000"
 6570      5F696E76 
 6570      6572745F 
 6570      6D61736B 
 6570      00
 6571              	.LASF25:
 6572 047f 6C6F6E67 		.ascii	"long double\000"
 6572      20646F75 
 6572      626C6500 
 6573              	.LASF133:
 6574 048b 73707269 		.ascii	"sprintf\000"
 6574      6E746600 
 6575              	.LASF13:
 6576 0493 75696E74 		.ascii	"uint16_t\000"
 6576      31365F74 
 6576      00
 6577              	.LASF95:
 6578 049c 6C63645F 		.ascii	"lcd_beep\000"
 6578      62656570 
 6578      00
 6579              	.LASF27:
 6580 04a5 6D61785F 		.ascii	"max_rate\000"
 6580      72617465 
 6580      00
 6581              	.LASF127:
 6582 04ae 4C43445F 		.ascii	"LCD_Position\000"
 6582      506F7369 
 6582      74696F6E 
 6582      00
 6583              	.LASF104:
 6584 04bb 7379735F 		.ascii	"sys_rt_exec_motion_override\000"
 6584      72745F65 
 6584      7865635F 
 6584      6D6F7469 
 6584      6F6E5F6F 
 6585              	.LASF50:
 6586 04d7 73746570 		.ascii	"step_control\000"
 6586      5F636F6E 
 6586      74726F6C 
 6586      00
 6587              	.LASF141:
 6588 04e4 6C63645F 		.ascii	"lcd_report.c\000"
 6588      7265706F 
 6588      72742E63 
 6588      00
ARM GAS  C:\Users\Bart\AppData\Local\Temp\ccOIOErW.s 			page 139


 6589              	.LASF135:
 6590 04f1 6D635F68 		.ascii	"mc_homing_cycle\000"
 6590      6F6D696E 
 6590      675F6379 
 6590      636C6500 
 6591              	.LASF91:
 6592 0501 63757272 		.ascii	"current_position\000"
 6592      656E745F 
 6592      706F7369 
 6592      74696F6E 
 6592      00
 6593              	.LASF2:
 6594 0512 73686F72 		.ascii	"short int\000"
 6594      7420696E 
 6594      7400
 6595              	.LASF7:
 6596 051c 6C6F6E67 		.ascii	"long int\000"
 6596      20696E74 
 6596      00
 6597              	.LASF128:
 6598 0525 4C43445F 		.ascii	"LCD_PrintString\000"
 6598      5072696E 
 6598      74537472 
 6598      696E6700 
 6599              	.LASF97:
 6600 0535 49544D5F 		.ascii	"ITM_RxBuffer\000"
 6600      52784275 
 6600      66666572 
 6600      00
 6601              	.LASF60:
 6602 0542 73797374 		.ascii	"system_t\000"
 6602      656D5F74 
 6602      00
 6603              	.LASF62:
 6604 054b 66656564 		.ascii	"feed_rate\000"
 6604      5F726174 
 6604      6500
 6605              	.LASF58:
 6606 0555 7265706F 		.ascii	"report_wco_counter\000"
 6606      72745F77 
 6606      636F5F63 
 6606      6F756E74 
 6606      657200
 6607              	.LASF49:
 6608 0568 736F6674 		.ascii	"soft_limit\000"
 6608      5F6C696D 
 6608      697400
 6609              	.LASF122:
 6610 0573 4C43445F 		.ascii	"LCD_Start\000"
 6610      53746172 
 6610      7400
 6611              	.LASF3:
 6612 057d 5F5F7569 		.ascii	"__uint8_t\000"
 6612      6E74385F 
 6612      7400
 6613              	.LASF89:
 6614 0587 66737472 		.ascii	"fstr\000"
ARM GAS  C:\Users\Bart\AppData\Local\Temp\ccOIOErW.s 			page 140


 6614      00
 6615              	.LASF110:
 6616 058c 6D656E75 		.ascii	"menu_item_selected\000"
 6616      5F697465 
 6616      6D5F7365 
 6616      6C656374 
 6616      656400
 6617              	.LASF92:
 6618 059f 7072696E 		.ascii	"print_position\000"
 6618      745F706F 
 6618      73697469 
 6618      6F6E00
 6619              	.LASF51:
 6620 05ae 70726F62 		.ascii	"probe_succeeded\000"
 6620      655F7375 
 6620      63636565 
 6620      64656400 
 6621              	.LASF105:
 6622 05be 7379735F 		.ascii	"sys_rt_exec_accessory_override\000"
 6622      72745F65 
 6622      7865635F 
 6622      61636365 
 6622      73736F72 
 6623              	.LASF87:
 6624 05dd 73776974 		.ascii	"switches\000"
 6624      63686573 
 6624      00
 6625              	.LASF61:
 6626 05e6 6D6F7469 		.ascii	"motion\000"
 6626      6F6E00
 6627              	.LASF24:
 6628 05ed 73697A65 		.ascii	"sizetype\000"
 6628      74797065 
 6628      00
 6629              	.LASF8:
 6630 05f6 6C6F6E67 		.ascii	"long unsigned int\000"
 6630      20756E73 
 6630      69676E65 
 6630      6420696E 
 6630      7400
 6631              	.LASF115:
 6632 0608 6C63645F 		.ascii	"lcd_FRO\000"
 6632      46524F00 
 6633              	.LASF14:
 6634 0610 696E7433 		.ascii	"int32_t\000"
 6634      325F7400 
 6635              	.LASF77:
 6636 0618 636F6F72 		.ascii	"coord_offset\000"
 6636      645F6F66 
 6636      66736574 
 6636      00
 6637              	.LASF96:
 6638 0625 4C43445F 		.ascii	"LCD_customFonts\000"
 6638      63757374 
 6638      6F6D466F 
 6638      6E747300 
 6639              	.LASF1:
ARM GAS  C:\Users\Bart\AppData\Local\Temp\ccOIOErW.s 			page 141


 6640 0635 756E7369 		.ascii	"unsigned char\000"
 6640      676E6564 
 6640      20636861 
 6640      7200
 6641              	.LASF140:
 6642 0643 474E5520 		.ascii	"GNU C 4.9.3 20150303 (release) [ARM/embedded-4_9-br"
 6642      4320342E 
 6642      392E3320 
 6642      32303135 
 6642      30333033 
 6643 0676 616E6368 		.ascii	"anch revision 221220] -mcpu=cortex-m3 -mthumb -g -O"
 6643      20726576 
 6643      6973696F 
 6643      6E203232 
 6643      31323230 
 6644 06a9 67202D66 		.ascii	"g -ffunction-sections -ffat-lto-objects\000"
 6644      66756E63 
 6644      74696F6E 
 6644      2D736563 
 6644      74696F6E 
 6645              	.LASF84:
 6646 06d1 6C696E65 		.ascii	"line\000"
 6646      00
 6647              	.LASF134:
 6648 06d6 73797374 		.ascii	"system_check_safety_door_ajar\000"
 6648      656D5F63 
 6648      6865636B 
 6648      5F736166 
 6648      6574795F 
 6649              	.LASF46:
 6650 06f4 73746174 		.ascii	"state\000"
 6650      6500
 6651              	.LASF103:
 6652 06fa 7379735F 		.ascii	"sys_rt_exec_alarm\000"
 6652      72745F65 
 6652      7865635F 
 6652      616C6172 
 6652      6D00
 6653              	.LASF71:
 6654 070c 67635F6D 		.ascii	"gc_modal_t\000"
 6654      6F64616C 
 6654      5F7400
 6655              	.LASF63:
 6656 0717 756E6974 		.ascii	"units\000"
 6656      7300
 6657              	.LASF117:
 6658 071d 6C63645F 		.ascii	"lcd_probe_thickness\000"
 6658      70726F62 
 6658      655F7468 
 6658      69636B6E 
 6658      65737300 
 6659              	.LASF130:
 6660 0731 73797374 		.ascii	"system_execute_line\000"
 6660      656D5F65 
 6660      78656375 
 6660      74655F6C 
 6660      696E6500 
ARM GAS  C:\Users\Bart\AppData\Local\Temp\ccOIOErW.s 			page 142


 6661              	.LASF0:
 6662 0745 7369676E 		.ascii	"signed char\000"
 6662      65642063 
 6662      68617200 
 6663              	.LASF43:
 6664 0751 686F6D69 		.ascii	"homing_debounce_delay\000"
 6664      6E675F64 
 6664      65626F75 
 6664      6E63655F 
 6664      64656C61 
 6665              	.LASF5:
 6666 0767 73686F72 		.ascii	"short unsigned int\000"
 6666      7420756E 
 6666      7369676E 
 6666      65642069 
 6666      6E7400
 6667              	.LASF38:
 6668 077a 72706D5F 		.ascii	"rpm_min\000"
 6668      6D696E00 
 6669              	.LASF45:
 6670 0782 73657474 		.ascii	"settings_t\000"
 6670      696E6773 
 6670      5F7400
 6671              	.LASF15:
 6672 078d 75696E74 		.ascii	"uint8\000"
 6672      3800
 6673              	.LASF20:
 6674 0793 646F7562 		.ascii	"double\000"
 6674      6C6500
 6675              	.LASF40:
 6676 079a 686F6D69 		.ascii	"homing_dir_mask\000"
 6676      6E675F64 
 6676      69725F6D 
 6676      61736B00 
 6677              	.LASF116:
 6678 07aa 6C63645F 		.ascii	"lcd_SRO\000"
 6678      53524F00 
 6679              	.LASF35:
 6680 07b2 6A756E63 		.ascii	"junction_deviation\000"
 6680      74696F6E 
 6680      5F646576 
 6680      69617469 
 6680      6F6E00
 6681              	.LASF90:
 6682 07c5 6E756D5F 		.ascii	"num_format\000"
 6682      666F726D 
 6682      617400
 6683              	.LASF52:
 6684 07d0 686F6D69 		.ascii	"homing_axis_lock\000"
 6684      6E675F61 
 6684      7869735F 
 6684      6C6F636B 
 6684      00
 6685              	.LASF113:
 6686 07e1 73776974 		.ascii	"switch_clicked\000"
 6686      63685F63 
 6686      6C69636B 
ARM GAS  C:\Users\Bart\AppData\Local\Temp\ccOIOErW.s 			page 143


 6686      656400
 6687              	.LASF75:
 6688 07f0 706F7369 		.ascii	"position\000"
 6688      74696F6E 
 6688      00
 6689              	.LASF32:
 6690 07f9 6469725F 		.ascii	"dir_invert_mask\000"
 6690      696E7665 
 6690      72745F6D 
 6690      61736B00 
 6691              	.LASF121:
 6692 0809 4C43445F 		.ascii	"LCD_WriteControl\000"
 6692      57726974 
 6692      65436F6E 
 6692      74726F6C 
 6692      00
 6693              	.LASF125:
 6694 081a 4C43445F 		.ascii	"LCD_PutChar\000"
 6694      50757443 
 6694      68617200 
 6695              		.ident	"GCC: (GNU Tools for ARM Embedded Processors) 4.9.3 20150303 (release) [ARM/embedded-4_9-br
