ARM GAS  C:\Users\Bart\AppData\Local\Temp\cc3mxRq4.s 			page 1


   1              		.syntax unified
   2              		.cpu cortex-m3
   3              		.fpu softvfp
   4              		.eabi_attribute 20, 1
   5              		.eabi_attribute 21, 1
   6              		.eabi_attribute 23, 3
   7              		.eabi_attribute 24, 1
   8              		.eabi_attribute 25, 1
   9              		.eabi_attribute 26, 1
  10              		.eabi_attribute 30, 1
  11              		.eabi_attribute 34, 1
  12              		.eabi_attribute 18, 4
  13              		.thumb
  14              		.file	"LCD_BarGraph.c"
  15              		.text
  16              	.Ltext0:
  17              		.cfi_sections	.debug_frame
  18              		.section	.text.LCD_LoadCustomFonts,"ax",%progbits
  19              		.align	2
  20              		.global	LCD_LoadCustomFonts
  21              		.thumb
  22              		.thumb_func
  23              		.type	LCD_LoadCustomFonts, %function
  24              	LCD_LoadCustomFonts:
  25              	.LFB0:
  26              		.file 1 ".\\Generated_Source\\PSoC5\\LCD_BarGraph.c"
   1:.\Generated_Source\PSoC5/LCD_BarGraph.c **** /*******************************************************************************
   2:.\Generated_Source\PSoC5/LCD_BarGraph.c **** * File Name: LCD_BarGraph.c
   3:.\Generated_Source\PSoC5/LCD_BarGraph.c **** * Version 2.20
   4:.\Generated_Source\PSoC5/LCD_BarGraph.c **** *
   5:.\Generated_Source\PSoC5/LCD_BarGraph.c **** * Description:
   6:.\Generated_Source\PSoC5/LCD_BarGraph.c **** *  This file provides the custom character data and API for creating and using
   7:.\Generated_Source\PSoC5/LCD_BarGraph.c **** *  bar graphs with the Character LCD component.
   8:.\Generated_Source\PSoC5/LCD_BarGraph.c **** *
   9:.\Generated_Source\PSoC5/LCD_BarGraph.c **** * Note:
  10:.\Generated_Source\PSoC5/LCD_BarGraph.c **** *
  11:.\Generated_Source\PSoC5/LCD_BarGraph.c **** ********************************************************************************
  12:.\Generated_Source\PSoC5/LCD_BarGraph.c **** * Copyright 2008-2014, Cypress Semiconductor Corporation.  All rights reserved.
  13:.\Generated_Source\PSoC5/LCD_BarGraph.c **** * You may use this file only in accordance with the license, terms, conditions,
  14:.\Generated_Source\PSoC5/LCD_BarGraph.c **** * disclaimers, and limitations in the end user license agreement accompanying
  15:.\Generated_Source\PSoC5/LCD_BarGraph.c **** * the software package with which this file was provided.
  16:.\Generated_Source\PSoC5/LCD_BarGraph.c **** *******************************************************************************/
  17:.\Generated_Source\PSoC5/LCD_BarGraph.c **** 
  18:.\Generated_Source\PSoC5/LCD_BarGraph.c **** #include "LCD.h"
  19:.\Generated_Source\PSoC5/LCD_BarGraph.c **** 
  20:.\Generated_Source\PSoC5/LCD_BarGraph.c **** 
  21:.\Generated_Source\PSoC5/LCD_BarGraph.c **** uint8 const CYCODE LCD_customFonts[] = \
  22:.\Generated_Source\PSoC5/LCD_BarGraph.c **** {
  23:.\Generated_Source\PSoC5/LCD_BarGraph.c ****     /* Character LCD_CUSTOM_0   */
  24:.\Generated_Source\PSoC5/LCD_BarGraph.c ****     0x00u,    0x00u,    0x00u,    0x00u,    0x00u,    0x00u,    0x00u,    0x00u, \
  25:.\Generated_Source\PSoC5/LCD_BarGraph.c ****     /* Character LCD_CUSTOM_1   */
  26:.\Generated_Source\PSoC5/LCD_BarGraph.c ****     0x10u,    0x10u,    0x10u,    0x10u,    0x10u,    0x10u,    0x10u,    0x10u, \
  27:.\Generated_Source\PSoC5/LCD_BarGraph.c ****     /* Character LCD_CUSTOM_2   */
  28:.\Generated_Source\PSoC5/LCD_BarGraph.c ****     0x18u,    0x18u,    0x18u,    0x18u,    0x18u,    0x18u,    0x18u,    0x18u, \
  29:.\Generated_Source\PSoC5/LCD_BarGraph.c ****     /* Character LCD_CUSTOM_3   */
  30:.\Generated_Source\PSoC5/LCD_BarGraph.c ****     0x1Cu,    0x1Cu,    0x1Cu,    0x1Cu,    0x1Cu,    0x1Cu,    0x1Cu,    0x1Cu, \
  31:.\Generated_Source\PSoC5/LCD_BarGraph.c ****     /* Character LCD_CUSTOM_4   */
ARM GAS  C:\Users\Bart\AppData\Local\Temp\cc3mxRq4.s 			page 2


  32:.\Generated_Source\PSoC5/LCD_BarGraph.c ****     0x1Eu,    0x1Eu,    0x1Eu,    0x1Eu,    0x1Eu,    0x1Eu,    0x1Eu,    0x1Eu, \
  33:.\Generated_Source\PSoC5/LCD_BarGraph.c ****     /* Character LCD_CUSTOM_5   */
  34:.\Generated_Source\PSoC5/LCD_BarGraph.c ****     0x1Fu,    0x1Fu,    0x1Fu,    0x1Fu,    0x1Fu,    0x1Fu,    0x1Fu,    0x1Fu, \
  35:.\Generated_Source\PSoC5/LCD_BarGraph.c ****     /* Character LCD_CUSTOM_6   */
  36:.\Generated_Source\PSoC5/LCD_BarGraph.c ****     0x00u,    0x00u,    0x00u,    0x00u,    0x00u,    0x00u,    0x00u,    0x00u, \
  37:.\Generated_Source\PSoC5/LCD_BarGraph.c ****     /* Character LCD_CUSTOM_7   */
  38:.\Generated_Source\PSoC5/LCD_BarGraph.c ****     0x00u,    0x00u,    0x00u,    0x00u,    0x00u,    0x00u,    0x00u,    0x00u \
  39:.\Generated_Source\PSoC5/LCD_BarGraph.c **** };
  40:.\Generated_Source\PSoC5/LCD_BarGraph.c **** 
  41:.\Generated_Source\PSoC5/LCD_BarGraph.c **** 
  42:.\Generated_Source\PSoC5/LCD_BarGraph.c **** /*******************************************************************************
  43:.\Generated_Source\PSoC5/LCD_BarGraph.c **** * Function Name: LCD_LoadCustomFonts
  44:.\Generated_Source\PSoC5/LCD_BarGraph.c **** ********************************************************************************
  45:.\Generated_Source\PSoC5/LCD_BarGraph.c **** *
  46:.\Generated_Source\PSoC5/LCD_BarGraph.c **** * Summary:
  47:.\Generated_Source\PSoC5/LCD_BarGraph.c **** *  Loads 8 custom font characters into the LCD Module for use.  Cannot use
  48:.\Generated_Source\PSoC5/LCD_BarGraph.c **** *  characters from two different font sets at once, but font sets can be
  49:.\Generated_Source\PSoC5/LCD_BarGraph.c **** *  switched out during runtime.
  50:.\Generated_Source\PSoC5/LCD_BarGraph.c **** *
  51:.\Generated_Source\PSoC5/LCD_BarGraph.c **** * Parameters:
  52:.\Generated_Source\PSoC5/LCD_BarGraph.c **** *  customData:  pointer to a constant array of 64 bytes representing 8 custom
  53:.\Generated_Source\PSoC5/LCD_BarGraph.c **** *               font characters.
  54:.\Generated_Source\PSoC5/LCD_BarGraph.c **** * Return:
  55:.\Generated_Source\PSoC5/LCD_BarGraph.c **** *  None.
  56:.\Generated_Source\PSoC5/LCD_BarGraph.c **** *
  57:.\Generated_Source\PSoC5/LCD_BarGraph.c **** * Theory:
  58:.\Generated_Source\PSoC5/LCD_BarGraph.c **** *  Prior to using this function user need to import the pointer to custom
  59:.\Generated_Source\PSoC5/LCD_BarGraph.c **** *  font array to your project by writting the following in the source code file
  60:.\Generated_Source\PSoC5/LCD_BarGraph.c **** *  where custom font will be used:
  61:.\Generated_Source\PSoC5/LCD_BarGraph.c **** *       extern uint8 const CYCODE LCD_Char_customFonts[];
  62:.\Generated_Source\PSoC5/LCD_BarGraph.c **** *  This function is not automatically called by the Start() routine and must be
  63:.\Generated_Source\PSoC5/LCD_BarGraph.c **** *  called manually by the user.
  64:.\Generated_Source\PSoC5/LCD_BarGraph.c **** *******************************************************************************/
  65:.\Generated_Source\PSoC5/LCD_BarGraph.c **** void LCD_LoadCustomFonts(uint8 const customData[]) 
  66:.\Generated_Source\PSoC5/LCD_BarGraph.c **** {
  27              		.loc 1 66 0
  28              		.cfi_startproc
  29              		@ args = 0, pretend = 0, frame = 0
  30              		@ frame_needed = 0, uses_anonymous_args = 0
  31              	.LVL0:
  32 0000 38B5     		push	{r3, r4, r5, lr}
  33              		.cfi_def_cfa_offset 16
  34              		.cfi_offset 3, -16
  35              		.cfi_offset 4, -12
  36              		.cfi_offset 5, -8
  37              		.cfi_offset 14, -4
  38 0002 0546     		mov	r5, r0
  67:.\Generated_Source\PSoC5/LCD_BarGraph.c ****     uint8 indexU8;
  68:.\Generated_Source\PSoC5/LCD_BarGraph.c **** 
  69:.\Generated_Source\PSoC5/LCD_BarGraph.c ****     LCD_IsReady();
  39              		.loc 1 69 0
  40 0004 FFF7FEFF 		bl	LCD_IsReady
  41              	.LVL1:
  70:.\Generated_Source\PSoC5/LCD_BarGraph.c ****     /* Set starting address in the LCD Module */
  71:.\Generated_Source\PSoC5/LCD_BarGraph.c ****     /* Optionally: Read the current address to restore at a later time */
  72:.\Generated_Source\PSoC5/LCD_BarGraph.c ****     LCD_WriteControl(LCD_CGRAM_0);
  42              		.loc 1 72 0
ARM GAS  C:\Users\Bart\AppData\Local\Temp\cc3mxRq4.s 			page 3


  43 0008 4020     		movs	r0, #64
  44 000a FFF7FEFF 		bl	LCD_WriteControl
  45              	.LVL2:
  73:.\Generated_Source\PSoC5/LCD_BarGraph.c **** 
  74:.\Generated_Source\PSoC5/LCD_BarGraph.c ****     /* Load in the 64 bytes of CustomChar Data */
  75:.\Generated_Source\PSoC5/LCD_BarGraph.c ****     for(indexU8 = 0u; indexU8 < LCD_CUSTOM_CHAR_SET_LEN; indexU8++)
  46              		.loc 1 75 0
  47 000e 0024     		movs	r4, #0
  48 0010 04E0     		b	.L2
  49              	.LVL3:
  50              	.L3:
  76:.\Generated_Source\PSoC5/LCD_BarGraph.c ****     {
  77:.\Generated_Source\PSoC5/LCD_BarGraph.c ****         /* Delay between each write */
  78:.\Generated_Source\PSoC5/LCD_BarGraph.c ****         LCD_WriteData(customData[indexU8]);
  51              		.loc 1 78 0 discriminator 3
  52 0012 285D     		ldrb	r0, [r5, r4]	@ zero_extendqisi2
  53 0014 FFF7FEFF 		bl	LCD_WriteData
  54              	.LVL4:
  75:.\Generated_Source\PSoC5/LCD_BarGraph.c ****     {
  55              		.loc 1 75 0 discriminator 3
  56 0018 0134     		adds	r4, r4, #1
  57              	.LVL5:
  58 001a E4B2     		uxtb	r4, r4
  59              	.LVL6:
  60              	.L2:
  75:.\Generated_Source\PSoC5/LCD_BarGraph.c ****     {
  61              		.loc 1 75 0 is_stmt 0 discriminator 1
  62 001c 3F2C     		cmp	r4, #63
  63 001e F8D9     		bls	.L3
  79:.\Generated_Source\PSoC5/LCD_BarGraph.c ****     }
  80:.\Generated_Source\PSoC5/LCD_BarGraph.c **** 
  81:.\Generated_Source\PSoC5/LCD_BarGraph.c ****     LCD_IsReady();
  64              		.loc 1 81 0 is_stmt 1
  65 0020 FFF7FEFF 		bl	LCD_IsReady
  66              	.LVL7:
  82:.\Generated_Source\PSoC5/LCD_BarGraph.c ****     LCD_WriteControl(LCD_DDRAM_0);
  67              		.loc 1 82 0
  68 0024 8020     		movs	r0, #128
  69 0026 FFF7FEFF 		bl	LCD_WriteControl
  70              	.LVL8:
  71 002a 38BD     		pop	{r3, r4, r5, pc}
  72              		.cfi_endproc
  73              	.LFE0:
  74              		.size	LCD_LoadCustomFonts, .-LCD_LoadCustomFonts
  75              		.section	.text.LCD_DrawHorizontalBG,"ax",%progbits
  76              		.align	2
  77              		.global	LCD_DrawHorizontalBG
  78              		.thumb
  79              		.thumb_func
  80              		.type	LCD_DrawHorizontalBG, %function
  81              	LCD_DrawHorizontalBG:
  82              	.LFB1:
  83:.\Generated_Source\PSoC5/LCD_BarGraph.c **** }
  84:.\Generated_Source\PSoC5/LCD_BarGraph.c **** 
  85:.\Generated_Source\PSoC5/LCD_BarGraph.c **** 
  86:.\Generated_Source\PSoC5/LCD_BarGraph.c **** #if (LCD_CUSTOM_CHAR_SET == LCD_HORIZONTAL_BG)
  87:.\Generated_Source\PSoC5/LCD_BarGraph.c **** 
ARM GAS  C:\Users\Bart\AppData\Local\Temp\cc3mxRq4.s 			page 4


  88:.\Generated_Source\PSoC5/LCD_BarGraph.c ****     /*******************************************************************************
  89:.\Generated_Source\PSoC5/LCD_BarGraph.c ****     * Function Name: LCD_DrawHorizontalBG
  90:.\Generated_Source\PSoC5/LCD_BarGraph.c ****     ********************************************************************************
  91:.\Generated_Source\PSoC5/LCD_BarGraph.c ****     *
  92:.\Generated_Source\PSoC5/LCD_BarGraph.c ****     * Summary:
  93:.\Generated_Source\PSoC5/LCD_BarGraph.c ****     *  Draws the horizontal bargraph.
  94:.\Generated_Source\PSoC5/LCD_BarGraph.c ****     *
  95:.\Generated_Source\PSoC5/LCD_BarGraph.c ****     * Parameters:
  96:.\Generated_Source\PSoC5/LCD_BarGraph.c ****     *  row:            The row in which the bar graph starts.
  97:.\Generated_Source\PSoC5/LCD_BarGraph.c ****     *  column:         The column in which the bar graph starts.
  98:.\Generated_Source\PSoC5/LCD_BarGraph.c ****     *  maxCharacters:  The max length of the graph in whole characters.
  99:.\Generated_Source\PSoC5/LCD_BarGraph.c ****     *  value:          The current length or height of the graph in pixels.
 100:.\Generated_Source\PSoC5/LCD_BarGraph.c ****     *
 101:.\Generated_Source\PSoC5/LCD_BarGraph.c ****     * Return:
 102:.\Generated_Source\PSoC5/LCD_BarGraph.c ****     *  void.
 103:.\Generated_Source\PSoC5/LCD_BarGraph.c ****     *
 104:.\Generated_Source\PSoC5/LCD_BarGraph.c ****     *******************************************************************************/
 105:.\Generated_Source\PSoC5/LCD_BarGraph.c ****     void LCD_DrawHorizontalBG(uint8 row, uint8 column, uint8 maxCharacters, uint8 value) \
 106:.\Generated_Source\PSoC5/LCD_BarGraph.c ****                                                             
 107:.\Generated_Source\PSoC5/LCD_BarGraph.c ****     {
  83              		.loc 1 107 0
  84              		.cfi_startproc
  85              		@ args = 0, pretend = 0, frame = 0
  86              		@ frame_needed = 0, uses_anonymous_args = 0
  87              	.LVL9:
  88 0000 F8B5     		push	{r3, r4, r5, r6, r7, lr}
  89              		.cfi_def_cfa_offset 24
  90              		.cfi_offset 3, -24
  91              		.cfi_offset 4, -20
  92              		.cfi_offset 5, -16
  93              		.cfi_offset 6, -12
  94              		.cfi_offset 7, -8
  95              		.cfi_offset 14, -4
  96 0002 1646     		mov	r6, r2
 108:.\Generated_Source\PSoC5/LCD_BarGraph.c ****         /* 8-bit Counter */
 109:.\Generated_Source\PSoC5/LCD_BarGraph.c ****         uint8 count8;
 110:.\Generated_Source\PSoC5/LCD_BarGraph.c ****         uint8 fullChars;
 111:.\Generated_Source\PSoC5/LCD_BarGraph.c ****         uint8 remainingPixels;
 112:.\Generated_Source\PSoC5/LCD_BarGraph.c **** 
 113:.\Generated_Source\PSoC5/LCD_BarGraph.c ****         /* Number of full characters to draw */
 114:.\Generated_Source\PSoC5/LCD_BarGraph.c ****         fullChars = value / LCD_CHARACTER_WIDTH;
  97              		.loc 1 114 0
  98 0004 154A     		ldr	r2, .L15
  99              	.LVL10:
 100 0006 A2FB0342 		umull	r4, r2, r2, r3
 101 000a 9208     		lsrs	r2, r2, #2
 102 000c D5B2     		uxtb	r5, r2
 103              	.LVL11:
 115:.\Generated_Source\PSoC5/LCD_BarGraph.c **** 
 116:.\Generated_Source\PSoC5/LCD_BarGraph.c ****         /* Number of remaining pixels to draw */
 117:.\Generated_Source\PSoC5/LCD_BarGraph.c ****         remainingPixels = value % LCD_CHARACTER_WIDTH;
 104              		.loc 1 117 0
 105 000e 02EB8202 		add	r2, r2, r2, lsl #2
 106 0012 9A1A     		subs	r2, r3, r2
 107 0014 D7B2     		uxtb	r7, r2
 108              	.LVL12:
 118:.\Generated_Source\PSoC5/LCD_BarGraph.c **** 
ARM GAS  C:\Users\Bart\AppData\Local\Temp\cc3mxRq4.s 			page 5


 119:.\Generated_Source\PSoC5/LCD_BarGraph.c ****         /* Ensure that the maximum character limit is followed. */
 120:.\Generated_Source\PSoC5/LCD_BarGraph.c ****         if(fullChars >= maxCharacters)
 109              		.loc 1 120 0
 110 0016 B542     		cmp	r5, r6
 111 0018 00D3     		bcc	.L6
 121:.\Generated_Source\PSoC5/LCD_BarGraph.c ****         {
 122:.\Generated_Source\PSoC5/LCD_BarGraph.c ****             fullChars = maxCharacters;
 112              		.loc 1 122 0
 113 001a 3546     		mov	r5, r6
 114              	.LVL13:
 115              	.L6:
 123:.\Generated_Source\PSoC5/LCD_BarGraph.c ****         }
 124:.\Generated_Source\PSoC5/LCD_BarGraph.c **** 
 125:.\Generated_Source\PSoC5/LCD_BarGraph.c ****         /* Put Cursor at start position */
 126:.\Generated_Source\PSoC5/LCD_BarGraph.c ****         LCD_Position(row, column);
 116              		.loc 1 126 0
 117 001c FFF7FEFF 		bl	LCD_Position
 118              	.LVL14:
 127:.\Generated_Source\PSoC5/LCD_BarGraph.c **** 
 128:.\Generated_Source\PSoC5/LCD_BarGraph.c ****         /* Write full characters */
 129:.\Generated_Source\PSoC5/LCD_BarGraph.c ****         for(count8 = 0u; count8 < fullChars; count8++)
 119              		.loc 1 129 0
 120 0020 0024     		movs	r4, #0
 121 0022 04E0     		b	.L7
 122              	.LVL15:
 123              	.L8:
 130:.\Generated_Source\PSoC5/LCD_BarGraph.c ****         {
 131:.\Generated_Source\PSoC5/LCD_BarGraph.c ****             LCD_WriteData(LCD_CUSTOM_5);
 124              		.loc 1 131 0 discriminator 3
 125 0024 0520     		movs	r0, #5
 126 0026 FFF7FEFF 		bl	LCD_WriteData
 127              	.LVL16:
 129:.\Generated_Source\PSoC5/LCD_BarGraph.c ****         {
 128              		.loc 1 129 0 discriminator 3
 129 002a 0134     		adds	r4, r4, #1
 130              	.LVL17:
 131 002c E4B2     		uxtb	r4, r4
 132              	.LVL18:
 133              	.L7:
 129:.\Generated_Source\PSoC5/LCD_BarGraph.c ****         {
 134              		.loc 1 129 0 is_stmt 0 discriminator 1
 135 002e AC42     		cmp	r4, r5
 136 0030 F8D3     		bcc	.L8
 132:.\Generated_Source\PSoC5/LCD_BarGraph.c ****         }
 133:.\Generated_Source\PSoC5/LCD_BarGraph.c **** 
 134:.\Generated_Source\PSoC5/LCD_BarGraph.c ****         if(fullChars < maxCharacters)
 137              		.loc 1 134 0 is_stmt 1
 138 0032 B542     		cmp	r5, r6
 139 0034 11D2     		bcs	.L5
 135:.\Generated_Source\PSoC5/LCD_BarGraph.c ****         {
 136:.\Generated_Source\PSoC5/LCD_BarGraph.c ****             /* Write remaining pixels */
 137:.\Generated_Source\PSoC5/LCD_BarGraph.c ****             LCD_WriteData(remainingPixels);
 140              		.loc 1 137 0
 141 0036 3846     		mov	r0, r7
 142 0038 FFF7FEFF 		bl	LCD_WriteData
 143              	.LVL19:
 138:.\Generated_Source\PSoC5/LCD_BarGraph.c **** 
ARM GAS  C:\Users\Bart\AppData\Local\Temp\cc3mxRq4.s 			page 6


 139:.\Generated_Source\PSoC5/LCD_BarGraph.c ****             if(fullChars < (maxCharacters - 1u))
 144              		.loc 1 139 0
 145 003c 731E     		subs	r3, r6, #1
 146 003e 9D42     		cmp	r5, r3
 147 0040 06D3     		bcc	.L13
 148 0042 F8BD     		pop	{r3, r4, r5, r6, r7, pc}
 149              	.LVL20:
 150              	.L11:
 140:.\Generated_Source\PSoC5/LCD_BarGraph.c ****             {
 141:.\Generated_Source\PSoC5/LCD_BarGraph.c ****                 /* Fill with whitespace to end of bar graph */
 142:.\Generated_Source\PSoC5/LCD_BarGraph.c ****                 for(count8 = 0u; count8 < (maxCharacters - fullChars - 1u); count8++)
 143:.\Generated_Source\PSoC5/LCD_BarGraph.c ****                 {
 144:.\Generated_Source\PSoC5/LCD_BarGraph.c ****                     LCD_WriteData(LCD_CUSTOM_0);
 151              		.loc 1 144 0 discriminator 3
 152 0044 0020     		movs	r0, #0
 153 0046 FFF7FEFF 		bl	LCD_WriteData
 154              	.LVL21:
 142:.\Generated_Source\PSoC5/LCD_BarGraph.c ****                 {
 155              		.loc 1 142 0 discriminator 3
 156 004a 0134     		adds	r4, r4, #1
 157              	.LVL22:
 158 004c E4B2     		uxtb	r4, r4
 159              	.LVL23:
 160 004e 00E0     		b	.L10
 161              	.L13:
 162 0050 0024     		movs	r4, #0
 163              	.LVL24:
 164              	.L10:
 142:.\Generated_Source\PSoC5/LCD_BarGraph.c ****                 {
 165              		.loc 1 142 0 is_stmt 0 discriminator 1
 166 0052 731B     		subs	r3, r6, r5
 167 0054 013B     		subs	r3, r3, #1
 168 0056 9C42     		cmp	r4, r3
 169 0058 F4D3     		bcc	.L11
 170              	.L5:
 171 005a F8BD     		pop	{r3, r4, r5, r6, r7, pc}
 172              	.LVL25:
 173              	.L16:
 174              		.align	2
 175              	.L15:
 176 005c CDCCCCCC 		.word	-858993459
 177              		.cfi_endproc
 178              	.LFE1:
 179              		.size	LCD_DrawHorizontalBG, .-LCD_DrawHorizontalBG
 180              		.global	LCD_customFonts
 181              		.section	.rodata
 182              		.align	2
 183              		.type	LCD_customFonts, %object
 184              		.size	LCD_customFonts, 64
 185              	LCD_customFonts:
 186 0000 00       		.byte	0
 187 0001 00       		.byte	0
 188 0002 00       		.byte	0
 189 0003 00       		.byte	0
 190 0004 00       		.byte	0
 191 0005 00       		.byte	0
 192 0006 00       		.byte	0
ARM GAS  C:\Users\Bart\AppData\Local\Temp\cc3mxRq4.s 			page 7


 193 0007 00       		.byte	0
 194 0008 10       		.byte	16
 195 0009 10       		.byte	16
 196 000a 10       		.byte	16
 197 000b 10       		.byte	16
 198 000c 10       		.byte	16
 199 000d 10       		.byte	16
 200 000e 10       		.byte	16
 201 000f 10       		.byte	16
 202 0010 18       		.byte	24
 203 0011 18       		.byte	24
 204 0012 18       		.byte	24
 205 0013 18       		.byte	24
 206 0014 18       		.byte	24
 207 0015 18       		.byte	24
 208 0016 18       		.byte	24
 209 0017 18       		.byte	24
 210 0018 1C       		.byte	28
 211 0019 1C       		.byte	28
 212 001a 1C       		.byte	28
 213 001b 1C       		.byte	28
 214 001c 1C       		.byte	28
 215 001d 1C       		.byte	28
 216 001e 1C       		.byte	28
 217 001f 1C       		.byte	28
 218 0020 1E       		.byte	30
 219 0021 1E       		.byte	30
 220 0022 1E       		.byte	30
 221 0023 1E       		.byte	30
 222 0024 1E       		.byte	30
 223 0025 1E       		.byte	30
 224 0026 1E       		.byte	30
 225 0027 1E       		.byte	30
 226 0028 1F       		.byte	31
 227 0029 1F       		.byte	31
 228 002a 1F       		.byte	31
 229 002b 1F       		.byte	31
 230 002c 1F       		.byte	31
 231 002d 1F       		.byte	31
 232 002e 1F       		.byte	31
 233 002f 1F       		.byte	31
 234 0030 00       		.byte	0
 235 0031 00       		.byte	0
 236 0032 00       		.byte	0
 237 0033 00       		.byte	0
 238 0034 00       		.byte	0
 239 0035 00       		.byte	0
 240 0036 00       		.byte	0
 241 0037 00       		.byte	0
 242 0038 00       		.byte	0
 243 0039 00       		.byte	0
 244 003a 00       		.byte	0
 245 003b 00       		.byte	0
 246 003c 00       		.byte	0
 247 003d 00       		.byte	0
 248 003e 00       		.byte	0
 249 003f 00       		.byte	0
ARM GAS  C:\Users\Bart\AppData\Local\Temp\cc3mxRq4.s 			page 8


 250              		.text
 251              	.Letext0:
 252              		.file 2 ".\\Generated_Source\\PSoC5\\LCD.h"
 253              		.file 3 ".\\Generated_Source\\PSoC5\\cytypes.h"