ARM GAS  C:\Users\Bart\AppData\Local\Temp\ccvV6tPS.s 			page 1


   1              		.syntax unified
   2              		.cpu cortex-m3
   3              		.fpu softvfp
   4              		.eabi_attribute 20, 1
   5              		.eabi_attribute 21, 1
   6              		.eabi_attribute 23, 3
   7              		.eabi_attribute 24, 1
   8              		.eabi_attribute 25, 1
   9              		.eabi_attribute 26, 1
  10              		.eabi_attribute 30, 1
  11              		.eabi_attribute 34, 1
  12              		.eabi_attribute 18, 4
  13              		.thumb
  14              		.file	"LCD_CustChars.c"
  15              		.text
  16              	.Ltext0:
  17              		.cfi_sections	.debug_frame
  18              		.section	.text.LCD_LoadCustomFonts,"ax",%progbits
  19              		.align	2
  20              		.global	LCD_LoadCustomFonts
  21              		.thumb
  22              		.thumb_func
  23              		.type	LCD_LoadCustomFonts, %function
  24              	LCD_LoadCustomFonts:
  25              	.LFB0:
  26              		.file 1 "Generated_Source\\PSoC5\\LCD_CustChars.c"
   1:Generated_Source\PSoC5/LCD_CustChars.c **** /*******************************************************************************
   2:Generated_Source\PSoC5/LCD_CustChars.c **** * File Name: LCD_CustChars.c
   3:Generated_Source\PSoC5/LCD_CustChars.c **** * Version 2.20
   4:Generated_Source\PSoC5/LCD_CustChars.c **** *
   5:Generated_Source\PSoC5/LCD_CustChars.c **** * Description:
   6:Generated_Source\PSoC5/LCD_CustChars.c **** *  This file provides the source code for the Character LCD custom character
   7:Generated_Source\PSoC5/LCD_CustChars.c **** *  API.
   8:Generated_Source\PSoC5/LCD_CustChars.c **** *
   9:Generated_Source\PSoC5/LCD_CustChars.c **** * Note:
  10:Generated_Source\PSoC5/LCD_CustChars.c **** *
  11:Generated_Source\PSoC5/LCD_CustChars.c **** ********************************************************************************
  12:Generated_Source\PSoC5/LCD_CustChars.c **** * Copyright 2008-2014, Cypress Semiconductor Corporation.  All rights reserved.
  13:Generated_Source\PSoC5/LCD_CustChars.c **** * You may use this file only in accordance with the license, terms, conditions,
  14:Generated_Source\PSoC5/LCD_CustChars.c **** * disclaimers, and limitations in the end user license agreement accompanying
  15:Generated_Source\PSoC5/LCD_CustChars.c **** * the software package with which this file was provided.
  16:Generated_Source\PSoC5/LCD_CustChars.c **** *******************************************************************************/
  17:Generated_Source\PSoC5/LCD_CustChars.c **** 
  18:Generated_Source\PSoC5/LCD_CustChars.c **** #include "LCD.h"
  19:Generated_Source\PSoC5/LCD_CustChars.c **** 
  20:Generated_Source\PSoC5/LCD_CustChars.c **** 
  21:Generated_Source\PSoC5/LCD_CustChars.c **** uint8 const CYCODE LCD_customFonts[] = \
  22:Generated_Source\PSoC5/LCD_CustChars.c **** {
  23:Generated_Source\PSoC5/LCD_CustChars.c ****     /* Character LCD_CUSTOM_0   */
  24:Generated_Source\PSoC5/LCD_CustChars.c ****         0x00u,    0x04u,    0x06u,    0x1Fu,    0x06u,    0x04u,    0x00u,    0x00u, \
  25:Generated_Source\PSoC5/LCD_CustChars.c ****     /* Character LCD_CUSTOM_1   */
  26:Generated_Source\PSoC5/LCD_CustChars.c ****         0x00u,    0x0Au,    0x0Au,    0x04u,    0x04u,    0x04u,    0x00u,    0x00u, \
  27:Generated_Source\PSoC5/LCD_CustChars.c ****     /* Character LCD_CUSTOM_2   */
  28:Generated_Source\PSoC5/LCD_CustChars.c ****         0x00u,    0x1Cu,    0x04u,    0x04u,    0x15u,    0x0Eu,    0x04u,    0x00u, \
  29:Generated_Source\PSoC5/LCD_CustChars.c ****     /* Character LCD_CUSTOM_3   */
  30:Generated_Source\PSoC5/LCD_CustChars.c ****         0x00u,    0x04u,    0x0Eu,    0x15u,    0x04u,    0x04u,    0x1Cu,    0x00u, \
  31:Generated_Source\PSoC5/LCD_CustChars.c ****     /* Character LCD_CUSTOM_4   */
ARM GAS  C:\Users\Bart\AppData\Local\Temp\ccvV6tPS.s 			page 2


  32:Generated_Source\PSoC5/LCD_CustChars.c ****         0x00u,    0x0Eu,    0x08u,    0x0Cu,    0x08u,    0x0Eu,    0x00u,    0x00u, \
  33:Generated_Source\PSoC5/LCD_CustChars.c ****     /* Character LCD_CUSTOM_5   */
  34:Generated_Source\PSoC5/LCD_CustChars.c ****         0x00u,    0x0Eu,    0x08u,    0x0Eu,    0x02u,    0x0Eu,    0x00u,    0x00u, \
  35:Generated_Source\PSoC5/LCD_CustChars.c ****     /* Character LCD_CUSTOM_6   */
  36:Generated_Source\PSoC5/LCD_CustChars.c ****         0x00u,    0x0Eu,    0x08u,    0x0Eu,    0x02u,    0x0Eu,    0x00u,    0x00u, \
  37:Generated_Source\PSoC5/LCD_CustChars.c ****     /* Character LCD_CUSTOM_7   */
  38:Generated_Source\PSoC5/LCD_CustChars.c ****         0x00u,    0x04u,    0x04u,    0x04u,    0x00u,    0x04u,    0x00u,    0x00u \
  39:Generated_Source\PSoC5/LCD_CustChars.c ****  };
  40:Generated_Source\PSoC5/LCD_CustChars.c **** 
  41:Generated_Source\PSoC5/LCD_CustChars.c **** 
  42:Generated_Source\PSoC5/LCD_CustChars.c **** /*******************************************************************************
  43:Generated_Source\PSoC5/LCD_CustChars.c **** * Function Name: LCD_LoadCustomFonts
  44:Generated_Source\PSoC5/LCD_CustChars.c **** ********************************************************************************
  45:Generated_Source\PSoC5/LCD_CustChars.c **** *
  46:Generated_Source\PSoC5/LCD_CustChars.c **** * Summary:
  47:Generated_Source\PSoC5/LCD_CustChars.c **** *  Loads 8 custom font characters into the LCD Module for use.  Cannot use
  48:Generated_Source\PSoC5/LCD_CustChars.c **** *  characters from two different font sets at once, but font sets can be
  49:Generated_Source\PSoC5/LCD_CustChars.c **** *  switched out during runtime.
  50:Generated_Source\PSoC5/LCD_CustChars.c **** *
  51:Generated_Source\PSoC5/LCD_CustChars.c **** * Parameters:
  52:Generated_Source\PSoC5/LCD_CustChars.c **** *  customData:  pointer to a constant array of 64 bytes representing 8 custom
  53:Generated_Source\PSoC5/LCD_CustChars.c **** *               font characters.
  54:Generated_Source\PSoC5/LCD_CustChars.c **** * Return:
  55:Generated_Source\PSoC5/LCD_CustChars.c **** *  None.
  56:Generated_Source\PSoC5/LCD_CustChars.c **** *
  57:Generated_Source\PSoC5/LCD_CustChars.c **** * Theory:
  58:Generated_Source\PSoC5/LCD_CustChars.c **** *  Prior to using this function user need to import the pointer to custom
  59:Generated_Source\PSoC5/LCD_CustChars.c **** *  font array to your project by writting the following in the source code file
  60:Generated_Source\PSoC5/LCD_CustChars.c **** *  where custom font will be used:
  61:Generated_Source\PSoC5/LCD_CustChars.c **** *       extern uint8 const CYCODE LCD_Char_customFonts[];
  62:Generated_Source\PSoC5/LCD_CustChars.c **** *  This function is not automatically called by the Start() routine and must be
  63:Generated_Source\PSoC5/LCD_CustChars.c **** *  called manually by the user.
  64:Generated_Source\PSoC5/LCD_CustChars.c **** *
  65:Generated_Source\PSoC5/LCD_CustChars.c **** *******************************************************************************/
  66:Generated_Source\PSoC5/LCD_CustChars.c **** void LCD_LoadCustomFonts(uint8 const customData[]) 
  67:Generated_Source\PSoC5/LCD_CustChars.c **** {
  27              		.loc 1 67 0
  28              		.cfi_startproc
  29              		@ args = 0, pretend = 0, frame = 0
  30              		@ frame_needed = 0, uses_anonymous_args = 0
  31              	.LVL0:
  32 0000 38B5     		push	{r3, r4, r5, lr}
  33              		.cfi_def_cfa_offset 16
  34              		.cfi_offset 3, -16
  35              		.cfi_offset 4, -12
  36              		.cfi_offset 5, -8
  37              		.cfi_offset 14, -4
  38 0002 0546     		mov	r5, r0
  68:Generated_Source\PSoC5/LCD_CustChars.c ****     uint8 indexU8;
  69:Generated_Source\PSoC5/LCD_CustChars.c **** 
  70:Generated_Source\PSoC5/LCD_CustChars.c ****     LCD_IsReady();
  39              		.loc 1 70 0
  40 0004 FFF7FEFF 		bl	LCD_IsReady
  41              	.LVL1:
  71:Generated_Source\PSoC5/LCD_CustChars.c **** 
  72:Generated_Source\PSoC5/LCD_CustChars.c ****     /* Set starting address in the LCD Module.
  73:Generated_Source\PSoC5/LCD_CustChars.c ****     * Optionally: Read the current address to restore at a later time.
ARM GAS  C:\Users\Bart\AppData\Local\Temp\ccvV6tPS.s 			page 3


  74:Generated_Source\PSoC5/LCD_CustChars.c ****     */
  75:Generated_Source\PSoC5/LCD_CustChars.c ****     LCD_WriteControl(LCD_CGRAM_0);
  42              		.loc 1 75 0
  43 0008 4020     		movs	r0, #64
  44 000a FFF7FEFF 		bl	LCD_WriteControl
  45              	.LVL2:
  76:Generated_Source\PSoC5/LCD_CustChars.c **** 
  77:Generated_Source\PSoC5/LCD_CustChars.c ****     /* Load in the 64 bytes of CustomChar Data */
  78:Generated_Source\PSoC5/LCD_CustChars.c ****     for(indexU8 = 0u; indexU8 < LCD_CUSTOM_CHAR_SET_LEN; indexU8++)
  46              		.loc 1 78 0
  47 000e 0024     		movs	r4, #0
  48 0010 04E0     		b	.L2
  49              	.LVL3:
  50              	.L3:
  79:Generated_Source\PSoC5/LCD_CustChars.c ****     {
  80:Generated_Source\PSoC5/LCD_CustChars.c ****         LCD_WriteData(customData[indexU8]);
  51              		.loc 1 80 0 discriminator 3
  52 0012 285D     		ldrb	r0, [r5, r4]	@ zero_extendqisi2
  53 0014 FFF7FEFF 		bl	LCD_WriteData
  54              	.LVL4:
  78:Generated_Source\PSoC5/LCD_CustChars.c ****     {
  55              		.loc 1 78 0 discriminator 3
  56 0018 0134     		adds	r4, r4, #1
  57              	.LVL5:
  58 001a E4B2     		uxtb	r4, r4
  59              	.LVL6:
  60              	.L2:
  78:Generated_Source\PSoC5/LCD_CustChars.c ****     {
  61              		.loc 1 78 0 is_stmt 0 discriminator 1
  62 001c 3F2C     		cmp	r4, #63
  63 001e F8D9     		bls	.L3
  81:Generated_Source\PSoC5/LCD_CustChars.c ****     }
  82:Generated_Source\PSoC5/LCD_CustChars.c **** 
  83:Generated_Source\PSoC5/LCD_CustChars.c ****     LCD_IsReady();
  64              		.loc 1 83 0 is_stmt 1
  65 0020 FFF7FEFF 		bl	LCD_IsReady
  66              	.LVL7:
  84:Generated_Source\PSoC5/LCD_CustChars.c ****     LCD_WriteControl(LCD_DDRAM_0);
  67              		.loc 1 84 0
  68 0024 8020     		movs	r0, #128
  69 0026 FFF7FEFF 		bl	LCD_WriteControl
  70              	.LVL8:
  71 002a 38BD     		pop	{r3, r4, r5, pc}
  72              		.cfi_endproc
  73              	.LFE0:
  74              		.size	LCD_LoadCustomFonts, .-LCD_LoadCustomFonts
  75              		.global	LCD_customFonts
  76              		.section	.rodata
  77              		.align	2
  78              		.type	LCD_customFonts, %object
  79              		.size	LCD_customFonts, 64
  80              	LCD_customFonts:
  81 0000 00       		.byte	0
  82 0001 04       		.byte	4
  83 0002 06       		.byte	6
  84 0003 1F       		.byte	31
  85 0004 06       		.byte	6
ARM GAS  C:\Users\Bart\AppData\Local\Temp\ccvV6tPS.s 			page 4


  86 0005 04       		.byte	4
  87 0006 00       		.byte	0
  88 0007 00       		.byte	0
  89 0008 00       		.byte	0
  90 0009 0A       		.byte	10
  91 000a 0A       		.byte	10
  92 000b 04       		.byte	4
  93 000c 04       		.byte	4
  94 000d 04       		.byte	4
  95 000e 00       		.byte	0
  96 000f 00       		.byte	0
  97 0010 00       		.byte	0
  98 0011 1C       		.byte	28
  99 0012 04       		.byte	4
 100 0013 04       		.byte	4
 101 0014 15       		.byte	21
 102 0015 0E       		.byte	14
 103 0016 04       		.byte	4
 104 0017 00       		.byte	0
 105 0018 00       		.byte	0
 106 0019 04       		.byte	4
 107 001a 0E       		.byte	14
 108 001b 15       		.byte	21
 109 001c 04       		.byte	4
 110 001d 04       		.byte	4
 111 001e 1C       		.byte	28
 112 001f 00       		.byte	0
 113 0020 00       		.byte	0
 114 0021 0E       		.byte	14
 115 0022 08       		.byte	8
 116 0023 0C       		.byte	12
 117 0024 08       		.byte	8
 118 0025 0E       		.byte	14
 119 0026 00       		.byte	0
 120 0027 00       		.byte	0
 121 0028 00       		.byte	0
 122 0029 0E       		.byte	14
 123 002a 08       		.byte	8
 124 002b 0E       		.byte	14
 125 002c 02       		.byte	2
 126 002d 0E       		.byte	14
 127 002e 00       		.byte	0
 128 002f 00       		.byte	0
 129 0030 00       		.byte	0
 130 0031 0E       		.byte	14
 131 0032 08       		.byte	8
 132 0033 0E       		.byte	14
 133 0034 02       		.byte	2
 134 0035 0E       		.byte	14
 135 0036 00       		.byte	0
 136 0037 00       		.byte	0
 137 0038 00       		.byte	0
 138 0039 04       		.byte	4
 139 003a 04       		.byte	4
 140 003b 04       		.byte	4
 141 003c 00       		.byte	0
 142 003d 04       		.byte	4
ARM GAS  C:\Users\Bart\AppData\Local\Temp\ccvV6tPS.s 			page 5


 143 003e 00       		.byte	0
 144 003f 00       		.byte	0
 145              		.text
 146              	.Letext0:
 147              		.file 2 "Generated_Source\\PSoC5\\cytypes.h"
 148              		.file 3 "Generated_Source\\PSoC5\\LCD.h"