ARM GAS  C:\Users\Bart\AppData\Local\Temp\ccOIOErW.s 			page 1


   1              		.syntax unified
   2              		.cpu cortex-m3
   3              		.fpu softvfp
   4              		.eabi_attribute 20, 1
   5              		.eabi_attribute 21, 1
   6              		.eabi_attribute 23, 3
   7              		.eabi_attribute 24, 1
   8              		.eabi_attribute 25, 1
   9              		.eabi_attribute 26, 1
  10              		.eabi_attribute 30, 1
  11              		.eabi_attribute 34, 1
  12              		.eabi_attribute 18, 4
  13              		.thumb
  14              		.file	"lcd_report.c"
  15              		.text
  16              	.Ltext0:
  17              		.cfi_sections	.debug_frame
  18              		.section	.text.enc_sw_isr_handler,"ax",%progbits
  19              		.align	2
  20              		.global	enc_sw_isr_handler
  21              		.thumb
  22              		.thumb_func
  23              		.type	enc_sw_isr_handler, %function
  24              	enc_sw_isr_handler:
  25              	.LFB64:
  26              		.file 1 "lcd_report.c"
   1:lcd_report.c  **** /* ========================================
   2:lcd_report.c  ****  *
   3:lcd_report.c  ****  * Copyright YOUR COMPANY, THE YEAR
   4:lcd_report.c  ****  * All Rights Reserved
   5:lcd_report.c  ****  * UNPUBLISHED, LICENSED SOFTWARE.
   6:lcd_report.c  ****  *
   7:lcd_report.c  ****  * CONFIDENTIAL AND PROPRIETARY INFORMATION
   8:lcd_report.c  ****  * WHICH IS THE PROPERTY OF your company.
   9:lcd_report.c  ****  *
  10:lcd_report.c  ****  * ========================================
  11:lcd_report.c  **** */
  12:lcd_report.c  **** #include <project.h>
  13:lcd_report.c  **** #include "grbl.h"
  14:lcd_report.c  **** 
  15:lcd_report.c  **** 
  16:lcd_report.c  **** int8 fro;
  17:lcd_report.c  **** int8 lcd_screen = MAIN_SCREEN;
  18:lcd_report.c  **** int8 menu_item_selected = false;
  19:lcd_report.c  **** int8 lcd_cursor = 4;
  20:lcd_report.c  **** int8 lcd_cursor_max = 6;
  21:lcd_report.c  **** int8 switch_clicked = false;
  22:lcd_report.c  **** int8 lcd_units = LCD_UNIT_MM;
  23:lcd_report.c  **** int16 lcd_FRO = 100; 
  24:lcd_report.c  **** int16 lcd_SRO = 100;
  25:lcd_report.c  **** // TO DO store these in EEPROM 
  26:lcd_report.c  **** float lcd_probe_thickness = 15.0;
  27:lcd_report.c  **** int16 lcd_probe_rate = 100;
  28:lcd_report.c  **** int16 lcd_probe_dist = 120;
  29:lcd_report.c  **** 
  30:lcd_report.c  **** void lcd_init()
  31:lcd_report.c  **** {
ARM GAS  C:\Users\Bart\AppData\Local\Temp\ccOIOErW.s 			page 2


  32:lcd_report.c  ****     LCD_Start();
  33:lcd_report.c  ****     LCD_LoadCustomFonts(LCD_customFonts); 
  34:lcd_report.c  ****     LCD_WriteControl(LCD_CLEAR_DISPLAY);
  35:lcd_report.c  ****     QuadDec_Start();
  36:lcd_report.c  ****     isr_Enc_Sw_StartEx(enc_sw_isr_handler);
  37:lcd_report.c  ****     exec_lcd_status = false;
  38:lcd_report.c  **** }
  39:lcd_report.c  **** 
  40:lcd_report.c  **** void enc_sw_isr_handler()
  41:lcd_report.c  **** {
  27              		.loc 1 41 0
  28              		.cfi_startproc
  29              		@ args = 0, pretend = 0, frame = 0
  30              		@ frame_needed = 0, uses_anonymous_args = 0
  31              		@ link register save eliminated.
  42:lcd_report.c  ****   switch_clicked = true;
  32              		.loc 1 42 0
  33 0000 0122     		movs	r2, #1
  34 0002 014B     		ldr	r3, .L2
  35 0004 1A70     		strb	r2, [r3]
  36 0006 7047     		bx	lr
  37              	.L3:
  38              		.align	2
  39              	.L2:
  40 0008 00000000 		.word	.LANCHOR0
  41              		.cfi_endproc
  42              	.LFE64:
  43              		.size	enc_sw_isr_handler, .-enc_sw_isr_handler
  44              		.section	.text.lcd_init,"ax",%progbits
  45              		.align	2
  46              		.global	lcd_init
  47              		.thumb
  48              		.thumb_func
  49              		.type	lcd_init, %function
  50              	lcd_init:
  51              	.LFB63:
  31:lcd_report.c  ****     LCD_Start();
  52              		.loc 1 31 0
  53              		.cfi_startproc
  54              		@ args = 0, pretend = 0, frame = 0
  55              		@ frame_needed = 0, uses_anonymous_args = 0
  56 0000 08B5     		push	{r3, lr}
  57              		.cfi_def_cfa_offset 8
  58              		.cfi_offset 3, -8
  59              		.cfi_offset 14, -4
  32:lcd_report.c  ****     LCD_LoadCustomFonts(LCD_customFonts); 
  60              		.loc 1 32 0
  61 0002 FFF7FEFF 		bl	LCD_Start
  62              	.LVL0:
  33:lcd_report.c  ****     LCD_WriteControl(LCD_CLEAR_DISPLAY);
  63              		.loc 1 33 0
  64 0006 0748     		ldr	r0, .L6
  65 0008 FFF7FEFF 		bl	LCD_LoadCustomFonts
  66              	.LVL1:
  34:lcd_report.c  ****     QuadDec_Start();
  67              		.loc 1 34 0
  68 000c 0120     		movs	r0, #1
ARM GAS  C:\Users\Bart\AppData\Local\Temp\ccOIOErW.s 			page 3


  69 000e FFF7FEFF 		bl	LCD_WriteControl
  70              	.LVL2:
  35:lcd_report.c  ****     isr_Enc_Sw_StartEx(enc_sw_isr_handler);
  71              		.loc 1 35 0
  72 0012 FFF7FEFF 		bl	QuadDec_Start
  73              	.LVL3:
  36:lcd_report.c  ****     exec_lcd_status = false;
  74              		.loc 1 36 0
  75 0016 0448     		ldr	r0, .L6+4
  76 0018 FFF7FEFF 		bl	isr_Enc_Sw_StartEx
  77              	.LVL4:
  37:lcd_report.c  **** }
  78              		.loc 1 37 0
  79 001c 0022     		movs	r2, #0
  80 001e 034B     		ldr	r3, .L6+8
  81 0020 1A70     		strb	r2, [r3]
  82 0022 08BD     		pop	{r3, pc}
  83              	.L7:
  84              		.align	2
  85              	.L6:
  86 0024 00000000 		.word	LCD_customFonts
  87 0028 00000000 		.word	enc_sw_isr_handler
  88 002c 00000000 		.word	exec_lcd_status
  89              		.cfi_endproc
  90              	.LFE63:
  91              		.size	lcd_init, .-lcd_init
  92              		.section	.text.ISR_lcd,"ax",%progbits
  93              		.align	2
  94              		.global	ISR_lcd
  95              		.thumb
  96              		.thumb_func
  97              		.type	ISR_lcd, %function
  98              	ISR_lcd:
  99              	.LFB66:
  43:lcd_report.c  **** }
  44:lcd_report.c  **** 
  45:lcd_report.c  **** void lcd_report_init_message()
  46:lcd_report.c  **** {
  47:lcd_report.c  ****     LCD_WriteControl(LCD_CLEAR_DISPLAY);
  48:lcd_report.c  ****     LCD_Position(0u, 3u);
  49:lcd_report.c  ****     
  50:lcd_report.c  ****     /* Output demo start message */
  51:lcd_report.c  ****     LCD_PrintString(GRBL_PORT " " GRBL_VERSION);
  52:lcd_report.c  ****     delay_ms(1000);
  53:lcd_report.c  ****     LCD_WriteControl(LCD_CLEAR_DISPLAY);
  54:lcd_report.c  ****     
  55:lcd_report.c  ****     lcd_report_realtime();
  56:lcd_report.c  ****     
  57:lcd_report.c  **** }
  58:lcd_report.c  **** 
  59:lcd_report.c  **** CY_ISR(ISR_lcd)
  60:lcd_report.c  **** {
 100              		.loc 1 60 0
 101              		.cfi_startproc
 102              		@ args = 0, pretend = 0, frame = 0
 103              		@ frame_needed = 0, uses_anonymous_args = 0
 104              		@ link register save eliminated.
ARM GAS  C:\Users\Bart\AppData\Local\Temp\ccOIOErW.s 			page 4


  61:lcd_report.c  ****   exec_lcd_status = true;
 105              		.loc 1 61 0
 106 0000 0122     		movs	r2, #1
 107 0002 014B     		ldr	r3, .L9
 108 0004 1A70     		strb	r2, [r3]
 109 0006 7047     		bx	lr
 110              	.L10:
 111              		.align	2
 112              	.L9:
 113 0008 00000000 		.word	exec_lcd_status
 114              		.cfi_endproc
 115              	.LFE66:
 116              		.size	ISR_lcd, .-ISR_lcd
 117              		.section	.text.lcd_unsigned_int8,"ax",%progbits
 118              		.align	2
 119              		.global	lcd_unsigned_int8
 120              		.thumb
 121              		.thumb_func
 122              		.type	lcd_unsigned_int8, %function
 123              	lcd_unsigned_int8:
 124              	.LFB68:
  62:lcd_report.c  **** }
  63:lcd_report.c  **** 
  64:lcd_report.c  **** void lcd_report_realtime()
  65:lcd_report.c  **** {
  66:lcd_report.c  ****   uint8_t switches = false;  // currently used for hardware checking.
  67:lcd_report.c  ****    uint8_t idx;
  68:lcd_report.c  ****   char stat[12];    
  69:lcd_report.c  ****   char fstr[20];
  70:lcd_report.c  ****   char line[20];
  71:lcd_report.c  ****   char num_format[] = "%+8.2f";
  72:lcd_report.c  ****   int32_t current_position[N_AXIS]; // Copy current state of the system position variable
  73:lcd_report.c  ****   memcpy(current_position,sys_position,sizeof(sys_position));
  74:lcd_report.c  ****   float print_position[N_AXIS];
  75:lcd_report.c  ****   
  76:lcd_report.c  ****   
  77:lcd_report.c  ****     
  78:lcd_report.c  ****   switch (lcd_screen)
  79:lcd_report.c  ****   {
  80:lcd_report.c  ****     case MAIN_SCREEN:   // ====================================================
  81:lcd_report.c  ****       // Current machine state
  82:lcd_report.c  ****       lcd_cursor_max = 7;
  83:lcd_report.c  ****       get_state(stat);
  84:lcd_report.c  ****       LCD_Position(0u, 0u);
  85:lcd_report.c  ****       LCD_PrintString(stat);
  86:lcd_report.c  ****       
  87:lcd_report.c  ****       if (switch_clicked) {
  88:lcd_report.c  ****         switch_clicked = false;
  89:lcd_report.c  ****         switch (lcd_cursor)
  90:lcd_report.c  ****         {
  91:lcd_report.c  ****           case MENU_ITEM_MAIN_STATUS:
  92:lcd_report.c  ****             if (sys.state == STATE_ALARM) {  // Ignore if already in alarm state. 
  93:lcd_report.c  ****               system_execute_line("$X");
  94:lcd_report.c  ****             }
  95:lcd_report.c  ****           break;
  96:lcd_report.c  ****           case MENU_ITEM_MAIN_X_DRO:
  97:lcd_report.c  ****            lcd_menu_execute("G10L20P0X0");
ARM GAS  C:\Users\Bart\AppData\Local\Temp\ccOIOErW.s 			page 5


  98:lcd_report.c  ****           break;
  99:lcd_report.c  ****           case MENU_ITEM_MAIN_Y_DRO:
 100:lcd_report.c  ****            lcd_menu_execute("G10L20P0Y0");
 101:lcd_report.c  ****           break;
 102:lcd_report.c  ****           case MENU_ITEM_MAIN_Z_DRO:
 103:lcd_report.c  ****            lcd_menu_execute("G10L20P0Z0");
 104:lcd_report.c  ****           break;
 105:lcd_report.c  ****           
 106:lcd_report.c  ****           case MENU_ITEM_MAIN_UNIT:
 107:lcd_report.c  ****             if (lcd_units == LCD_UNIT_MM)
 108:lcd_report.c  ****               lcd_units = LCD_UNIT_IN;
 109:lcd_report.c  ****             else
 110:lcd_report.c  ****               lcd_units = LCD_UNIT_MM;
 111:lcd_report.c  ****           break;
 112:lcd_report.c  ****           case MENU_ITEM_MAIN_FRO:
 113:lcd_report.c  ****               menu_item_selected = !menu_item_selected;
 114:lcd_report.c  ****               if (menu_item_selected)
 115:lcd_report.c  ****                 QuadDec_SetCounter(lcd_FRO);
 116:lcd_report.c  ****               else
 117:lcd_report.c  ****                 QuadDec_SetCounter(MENU_ITEM_MAIN_FRO);
 118:lcd_report.c  ****           break;  
 119:lcd_report.c  ****           case MENU_ITEM_MAIN_SRO:
 120:lcd_report.c  ****               menu_item_selected = !menu_item_selected;
 121:lcd_report.c  ****               if (menu_item_selected)
 122:lcd_report.c  ****                 QuadDec_SetCounter(lcd_SRO);
 123:lcd_report.c  ****               else
 124:lcd_report.c  ****                 QuadDec_SetCounter(MENU_ITEM_MAIN_SRO);
 125:lcd_report.c  ****           break;     
 126:lcd_report.c  ****           case MENU_ITEM_MAIN_MORE:
 127:lcd_report.c  ****             lcd_screen = CMD_SCREEN; 
 128:lcd_report.c  ****             lcd_cursor = 0;
 129:lcd_report.c  ****             QuadDec_SetCounter(lcd_cursor);
 130:lcd_report.c  ****             LCD_WriteControl(LCD_CLEAR_DISPLAY);
 131:lcd_report.c  ****           break;
 132:lcd_report.c  ****             
 133:lcd_report.c  ****         }
 134:lcd_report.c  ****         if (lcd_screen != MAIN_SCREEN) break;       
 135:lcd_report.c  ****       }
 136:lcd_report.c  ****       
 137:lcd_report.c  ****     if (switches)
 138:lcd_report.c  ****     {
 139:lcd_report.c  ****       LCD_Position(1u, 0u);
 140:lcd_report.c  ****       LCD_PrintString("Limit:");
 141:lcd_report.c  ****       lcd_unsigned_int8(Status_Limit_Read(), 2, 3);      
 142:lcd_report.c  ****       
 143:lcd_report.c  ****       LCD_Position(2u, 0u);
 144:lcd_report.c  ****       LCD_PrintString("Ctl:");    
 145:lcd_report.c  ****       lcd_unsigned_int8(Status_Control_Read(), 2, 4);
 146:lcd_report.c  ****       
 147:lcd_report.c  ****       LCD_Position(3u, 0u);
 148:lcd_report.c  ****       LCD_PrintString("Probe:");
 149:lcd_report.c  ****       lcd_unsigned_int8(Status_Probe_Read(), 2, 1);
 150:lcd_report.c  ****       break;
 151:lcd_report.c  ****     }
 152:lcd_report.c  ****     
 153:lcd_report.c  ****       system_convert_array_steps_to_mpos(print_position,current_position); // get the position in M
 154:lcd_report.c  ****       
ARM GAS  C:\Users\Bart\AppData\Local\Temp\ccOIOErW.s 			page 6


 155:lcd_report.c  ****       // convert it to WCS      
 156:lcd_report.c  ****       for (idx=0; idx< N_AXIS; idx++) {
 157:lcd_report.c  ****       print_position[idx] -= gc_state.coord_system[idx]+gc_state.coord_offset[idx];
 158:lcd_report.c  ****         if (idx == TOOL_LENGTH_OFFSET_AXIS) { print_position[idx] -= gc_state.tool_length_offset; }
 159:lcd_report.c  ****       }
 160:lcd_report.c  ****       
 161:lcd_report.c  ****       // determine the units, set the number of decimals and convert to inches if req'd
 162:lcd_report.c  ****       LCD_Position(0u, 11u);
 163:lcd_report.c  ****       LCD_PrintString(" Unit:");
 164:lcd_report.c  ****       if (lcd_units == LCD_UNIT_MM) {
 165:lcd_report.c  ****         LCD_PrintString(" mm");
 166:lcd_report.c  ****         strcpy(num_format, "%+8.2f");
 167:lcd_report.c  ****       }
 168:lcd_report.c  ****       else { 
 169:lcd_report.c  ****           for (idx=0; idx< N_AXIS; idx++) {   // convert to inches
 170:lcd_report.c  ****             print_position[idx] /= MM_PER_INCH;  
 171:lcd_report.c  ****           }
 172:lcd_report.c  ****           LCD_PrintString(" in"); 
 173:lcd_report.c  ****           strcpy(num_format, "%+8.3f");
 174:lcd_report.c  ****       }
 175:lcd_report.c  ****       
 176:lcd_report.c  ****       // Do the DROs
 177:lcd_report.c  ****       LCD_Position(1u, 0u);
 178:lcd_report.c  ****       LCD_PrintString(" X");
 179:lcd_report.c  ****       sprintf(fstr, num_format, print_position[X_AXIS] ); 
 180:lcd_report.c  ****       LCD_PrintString(fstr);    
 181:lcd_report.c  ****     
 182:lcd_report.c  ****       LCD_Position(2u, 0u);
 183:lcd_report.c  ****       LCD_PrintString(" Y");
 184:lcd_report.c  ****       sprintf(fstr, num_format, print_position[Y_AXIS] ); 
 185:lcd_report.c  ****       LCD_PrintString(fstr);      
 186:lcd_report.c  ****       
 187:lcd_report.c  ****       LCD_Position(3u, 0u);
 188:lcd_report.c  ****       LCD_PrintString(" Z");
 189:lcd_report.c  ****       sprintf(fstr, num_format, print_position[Z_AXIS] ); 
 190:lcd_report.c  ****       LCD_PrintString(fstr);      
 191:lcd_report.c  ****       
 192:lcd_report.c  ****       LCD_Position(1u, 11u);
 193:lcd_report.c  ****       LCD_PrintString(" FRO:");
 194:lcd_report.c  ****       sprintf(fstr, "%3d", lcd_FRO ); 
 195:lcd_report.c  ****       LCD_PrintString(fstr);
 196:lcd_report.c  ****       LCD_PrintString("%");
 197:lcd_report.c  ****       
 198:lcd_report.c  ****       LCD_Position(2u, 11u);
 199:lcd_report.c  ****       LCD_PrintString(" SRO:");
 200:lcd_report.c  ****       sprintf(fstr, "%3d", lcd_SRO ); 
 201:lcd_report.c  ****       LCD_PrintString(fstr);
 202:lcd_report.c  ****       LCD_PrintString("%");
 203:lcd_report.c  ****       
 204:lcd_report.c  ****       LCD_Position(3u, 11u);
 205:lcd_report.c  ****       LCD_PrintString(" More ");
 206:lcd_report.c  ****       LCD_PutChar(LCD_CUSTOM_2);
 207:lcd_report.c  ****       
 208:lcd_report.c  ****       
 209:lcd_report.c  ****       if (menu_item_selected) {
 210:lcd_report.c  ****         switch (lcd_cursor) {
 211:lcd_report.c  ****          case MENU_ITEM_MAIN_FRO:
ARM GAS  C:\Users\Bart\AppData\Local\Temp\ccOIOErW.s 			page 7


 212:lcd_report.c  ****           lcd_FRO = QuadDec_GetCounter();
 213:lcd_report.c  ****           if (lcd_FRO > LCD_FRO_MAX) lcd_FRO = LCD_FRO_MAX;
 214:lcd_report.c  ****           if (lcd_FRO < LCD_FRO_MIN) lcd_FRO = LCD_FRO_MIN;
 215:lcd_report.c  ****          break; 
 216:lcd_report.c  ****           case MENU_ITEM_MAIN_SRO:
 217:lcd_report.c  ****           lcd_SRO = QuadDec_GetCounter();
 218:lcd_report.c  ****           if (lcd_SRO > LCD_SRO_MAX) lcd_FRO = LCD_SRO_MAX;
 219:lcd_report.c  ****           if (lcd_SRO < LCD_SRO_MIN) lcd_FRO = LCD_SRO_MIN;
 220:lcd_report.c  ****           break;
 221:lcd_report.c  ****         }
 222:lcd_report.c  ****       }
 223:lcd_report.c  ****       else {
 224:lcd_report.c  ****         lcd_cursor = QuadDec_GetCounter();
 225:lcd_report.c  ****         if  (lcd_cursor > lcd_cursor_max) lcd_cursor = lcd_cursor_max;
 226:lcd_report.c  ****         if  (lcd_cursor < 0) lcd_cursor = 0;
 227:lcd_report.c  ****         
 228:lcd_report.c  ****         QuadDec_SetCounter(lcd_cursor);
 229:lcd_report.c  ****         
 230:lcd_report.c  ****       }
 231:lcd_report.c  ****       
 232:lcd_report.c  ****        
 233:lcd_report.c  ****       
 234:lcd_report.c  ****       LCD_WriteControl(LCD_DISPLAY_ON_CURSOR_OFF);
 235:lcd_report.c  ****       switch (lcd_cursor)
 236:lcd_report.c  ****       {
 237:lcd_report.c  ****        case MENU_ITEM_MAIN_STATUS:
 238:lcd_report.c  ****         LCD_Position(0u, 0u);
 239:lcd_report.c  ****         LCD_PutChar(LCD_CUSTOM_0);
 240:lcd_report.c  ****        break;
 241:lcd_report.c  ****        case MENU_ITEM_MAIN_X_DRO:
 242:lcd_report.c  ****         LCD_Position(1u, 0u);
 243:lcd_report.c  ****         LCD_PutChar(LCD_CUSTOM_0);
 244:lcd_report.c  ****        break;
 245:lcd_report.c  ****        case MENU_ITEM_MAIN_Y_DRO:
 246:lcd_report.c  ****         LCD_Position(2u, 0u);
 247:lcd_report.c  ****         LCD_PutChar(LCD_CUSTOM_0);
 248:lcd_report.c  ****        break; 
 249:lcd_report.c  ****        case MENU_ITEM_MAIN_Z_DRO:
 250:lcd_report.c  ****         LCD_Position(3u, 0u);
 251:lcd_report.c  ****         LCD_PutChar(LCD_CUSTOM_0);
 252:lcd_report.c  ****        break;
 253:lcd_report.c  ****        case MENU_ITEM_MAIN_UNIT:
 254:lcd_report.c  ****         LCD_Position(0u, 11u);
 255:lcd_report.c  ****         LCD_PutChar(LCD_CUSTOM_0);
 256:lcd_report.c  ****        break;
 257:lcd_report.c  ****        case MENU_ITEM_MAIN_FRO:
 258:lcd_report.c  ****         LCD_Position(1u, 11u);
 259:lcd_report.c  ****         LCD_PutChar(LCD_CUSTOM_0);
 260:lcd_report.c  ****         if (menu_item_selected) {
 261:lcd_report.c  ****           LCD_Position(1u, 11u);
 262:lcd_report.c  ****           LCD_WriteControl(LCD_CURSOR_WINK);
 263:lcd_report.c  ****         }
 264:lcd_report.c  ****         else {
 265:lcd_report.c  ****           
 266:lcd_report.c  ****         }
 267:lcd_report.c  ****        break;
 268:lcd_report.c  ****        case MENU_ITEM_MAIN_SRO:
ARM GAS  C:\Users\Bart\AppData\Local\Temp\ccOIOErW.s 			page 8


 269:lcd_report.c  ****         LCD_Position(2u, 11u);
 270:lcd_report.c  ****         LCD_PutChar(LCD_CUSTOM_0);
 271:lcd_report.c  ****         if (menu_item_selected) {
 272:lcd_report.c  ****           LCD_Position(2u, 11u);
 273:lcd_report.c  ****           LCD_WriteControl(LCD_CURSOR_WINK);
 274:lcd_report.c  ****         }
 275:lcd_report.c  ****         else {
 276:lcd_report.c  ****           
 277:lcd_report.c  ****         }
 278:lcd_report.c  ****         
 279:lcd_report.c  ****        break;
 280:lcd_report.c  ****        case MENU_ITEM_MAIN_MORE:
 281:lcd_report.c  ****         LCD_Position(3u, 11u);
 282:lcd_report.c  ****         LCD_PutChar(LCD_CUSTOM_0);
 283:lcd_report.c  ****        break;       
 284:lcd_report.c  ****       }
 285:lcd_report.c  ****       
 286:lcd_report.c  ****     
 287:lcd_report.c  ****       
 288:lcd_report.c  ****     break; // main screen
 289:lcd_report.c  ****       
 290:lcd_report.c  ****     case CMD_SCREEN:  // ============================================================
 291:lcd_report.c  ****       lcd_cursor_max = 7;
 292:lcd_report.c  ****       
 293:lcd_report.c  ****       if (switch_clicked) {
 294:lcd_report.c  ****         switch_clicked = false;
 295:lcd_report.c  ****         switch (lcd_cursor)
 296:lcd_report.c  ****         {
 297:lcd_report.c  ****           case 0: // return to main
 298:lcd_report.c  ****             lcd_screen = MAIN_SCREEN; 
 299:lcd_report.c  ****             lcd_cursor = 0;        
 300:lcd_report.c  ****             LCD_WriteControl(LCD_CLEAR_DISPLAY);
 301:lcd_report.c  ****           break;
 302:lcd_report.c  ****             
 303:lcd_report.c  ****           case 1: // home axes
 304:lcd_report.c  ****             if (bit_istrue(settings.flags,BITFLAG_HOMING_ENABLE)) { 
 305:lcd_report.c  ****             // Block if safety door is ajar.
 306:lcd_report.c  ****             if (system_check_safety_door_ajar()) { lcd_beep(); }
 307:lcd_report.c  ****             sys.state = STATE_HOMING; // Set system state variable
 308:lcd_report.c  ****             mc_homing_cycle(HOMING_CYCLE_ALL);
 309:lcd_report.c  ****             if (!sys.abort) {  // Execute startup scripts after successful homing.
 310:lcd_report.c  ****               sys.state = STATE_IDLE; // Set to IDLE when complete.
 311:lcd_report.c  ****               st_go_idle(); // Set steppers to the settings idle state before returning.
 312:lcd_report.c  ****               //system_execute_startup(line); 
 313:lcd_report.c  ****             }
 314:lcd_report.c  ****           } else { lcd_beep(); }
 315:lcd_report.c  ****           break;
 316:lcd_report.c  ****             
 317:lcd_report.c  ****           case 2: // Top of Z
 318:lcd_report.c  ****             lcd_menu_execute("G53G0Z-1");
 319:lcd_report.c  ****           break;
 320:lcd_report.c  ****             
 321:lcd_report.c  ****           case 3: // go to probe screen
 322:lcd_report.c  ****             lcd_screen = PROBE_SCREEN;
 323:lcd_report.c  ****             lcd_cursor_max = 4;
 324:lcd_report.c  ****             lcd_cursor = 0;
 325:lcd_report.c  ****             QuadDec_SetCounter(lcd_cursor);
ARM GAS  C:\Users\Bart\AppData\Local\Temp\ccOIOErW.s 			page 9


 326:lcd_report.c  ****             LCD_WriteControl(LCD_CLEAR_DISPLAY);
 327:lcd_report.c  ****           break;  
 328:lcd_report.c  ****             
 329:lcd_report.c  ****           case 4:  // goto 0,0
 330:lcd_report.c  ****             lcd_menu_execute("G0X0Y0");
 331:lcd_report.c  ****           break;
 332:lcd_report.c  ****             
 333:lcd_report.c  ****           case 5: // G28
 334:lcd_report.c  ****             lcd_menu_execute("G28");
 335:lcd_report.c  ****           break;
 336:lcd_report.c  ****             
 337:lcd_report.c  ****           case 6: // G30
 338:lcd_report.c  ****             lcd_menu_execute("G30");
 339:lcd_report.c  ****           break;
 340:lcd_report.c  ****             
 341:lcd_report.c  ****           case 7: // sd card
 342:lcd_report.c  ****             lcd_screen = SD_CARD_SCREEN; 
 343:lcd_report.c  ****             lcd_cursor = 0;        
 344:lcd_report.c  ****             LCD_WriteControl(LCD_CLEAR_DISPLAY);
 345:lcd_report.c  ****           break;  
 346:lcd_report.c  ****             
 347:lcd_report.c  ****         }
 348:lcd_report.c  ****         
 349:lcd_report.c  ****         if (lcd_screen != CMD_SCREEN) break;
 350:lcd_report.c  ****       }
 351:lcd_report.c  ****     
 352:lcd_report.c  ****       LCD_Position(0u, 0u);
 353:lcd_report.c  ****       LCD_PrintString(" Back ");
 354:lcd_report.c  ****       LCD_PutChar(LCD_CUSTOM_3);
 355:lcd_report.c  ****       LCD_Position(1u, 0u);
 356:lcd_report.c  ****       LCD_PrintString(" Home Axes");
 357:lcd_report.c  ****       LCD_Position(2u, 0u);
 358:lcd_report.c  ****       LCD_PrintString(" Top of Z");
 359:lcd_report.c  ****       LCD_Position(3u, 0u);
 360:lcd_report.c  ****       LCD_PrintString(" Z Probe ");
 361:lcd_report.c  ****       LCD_PutChar(LCD_CUSTOM_2);
 362:lcd_report.c  ****       
 363:lcd_report.c  ****       LCD_Position(0u, 11u);
 364:lcd_report.c  ****       LCD_PrintString(" Goto 0,0");
 365:lcd_report.c  ****       LCD_Position(1u, 11u);
 366:lcd_report.c  ****       LCD_PrintString(" Goto G28");
 367:lcd_report.c  ****       LCD_Position(2u, 11u);
 368:lcd_report.c  ****       LCD_PrintString(" Goto G30");
 369:lcd_report.c  ****       LCD_Position(3u, 11u);
 370:lcd_report.c  ****       LCD_PrintString(" SdCard ");
 371:lcd_report.c  ****       LCD_PutChar(LCD_CUSTOM_2);
 372:lcd_report.c  ****         
 373:lcd_report.c  ****       if (menu_item_selected) {
 374:lcd_report.c  ****       }
 375:lcd_report.c  ****       else {
 376:lcd_report.c  ****         lcd_cursor = QuadDec_GetCounter();
 377:lcd_report.c  ****         if  (lcd_cursor > lcd_cursor_max) lcd_cursor = lcd_cursor_max;
 378:lcd_report.c  ****         if  (lcd_cursor < 0) lcd_cursor = 0;
 379:lcd_report.c  ****         
 380:lcd_report.c  ****         QuadDec_SetCounter(lcd_cursor);
 381:lcd_report.c  ****         
 382:lcd_report.c  ****       }
ARM GAS  C:\Users\Bart\AppData\Local\Temp\ccOIOErW.s 			page 10


 383:lcd_report.c  ****         
 384:lcd_report.c  ****       switch (lcd_cursor)
 385:lcd_report.c  ****       {
 386:lcd_report.c  ****        case 0:
 387:lcd_report.c  ****         LCD_Position(0u, 0u);
 388:lcd_report.c  ****         LCD_PutChar(LCD_CUSTOM_0);
 389:lcd_report.c  ****        break;
 390:lcd_report.c  ****        case 1:
 391:lcd_report.c  ****         LCD_Position(1u, 0u);
 392:lcd_report.c  ****         LCD_PutChar(LCD_CUSTOM_0);
 393:lcd_report.c  ****        break; 
 394:lcd_report.c  ****        case 2:
 395:lcd_report.c  ****         LCD_Position(2u, 0u);
 396:lcd_report.c  ****         LCD_PutChar(LCD_CUSTOM_0);
 397:lcd_report.c  ****        break;
 398:lcd_report.c  ****        case 3:
 399:lcd_report.c  ****         LCD_Position(3u, 0u);
 400:lcd_report.c  ****         LCD_PutChar(LCD_CUSTOM_0);
 401:lcd_report.c  ****        break;
 402:lcd_report.c  ****        case 4:
 403:lcd_report.c  ****         LCD_Position(0u, 11u);
 404:lcd_report.c  ****         LCD_PutChar(LCD_CUSTOM_0);
 405:lcd_report.c  ****        break;
 406:lcd_report.c  ****        case 5:
 407:lcd_report.c  ****         LCD_Position(1u, 11u);
 408:lcd_report.c  ****         LCD_PutChar(LCD_CUSTOM_0);
 409:lcd_report.c  ****        break;
 410:lcd_report.c  ****        case 6:
 411:lcd_report.c  ****         LCD_Position(2u, 11u);
 412:lcd_report.c  ****         LCD_PutChar(LCD_CUSTOM_0);
 413:lcd_report.c  ****        break;
 414:lcd_report.c  ****         case 7:
 415:lcd_report.c  ****         LCD_Position(3u, 11u);
 416:lcd_report.c  ****         LCD_PutChar(LCD_CUSTOM_0);
 417:lcd_report.c  ****        break; 
 418:lcd_report.c  ****       }
 419:lcd_report.c  ****         
 420:lcd_report.c  ****     break;
 421:lcd_report.c  ****       
 422:lcd_report.c  ****     case PROBE_SCREEN: // ===============================================================
 423:lcd_report.c  ****       
 424:lcd_report.c  ****       if (switch_clicked) {
 425:lcd_report.c  ****         switch_clicked = false;
 426:lcd_report.c  ****         switch (lcd_cursor)
 427:lcd_report.c  ****         {
 428:lcd_report.c  ****           case MENU_ITEM_PRB_BACK: // return to main
 429:lcd_report.c  ****             lcd_screen = CMD_SCREEN;            
 430:lcd_report.c  ****             LCD_WriteControl(LCD_CLEAR_DISPLAY);
 431:lcd_report.c  ****           break;
 432:lcd_report.c  ****             
 433:lcd_report.c  ****           case MENU_ITEM_PRB_PROBE:
 434:lcd_report.c  ****             LCD_WriteControl(LCD_CLEAR_DISPLAY);
 435:lcd_report.c  ****             lcd_screen = MAIN_SCREEN;
 436:lcd_report.c  ****             strcpy(line, "G91G38.2Z-");
 437:lcd_report.c  ****             sprintf(fstr, "%d", lcd_probe_dist);
 438:lcd_report.c  ****             strcat(line, fstr);
 439:lcd_report.c  ****             strcat(line, "F");
ARM GAS  C:\Users\Bart\AppData\Local\Temp\ccOIOErW.s 			page 11


 440:lcd_report.c  ****             sprintf(fstr, "%d", lcd_probe_rate);
 441:lcd_report.c  ****             strcat(line, fstr);
 442:lcd_report.c  ****             gc_execute_line(line);
 443:lcd_report.c  ****             LCD_Position(3u, 0u);
 444:lcd_report.c  ****             if (sys.probe_succeeded == false) {
 445:lcd_report.c  ****               // TO DO Not sure if this works
 446:lcd_report.c  ****               LCD_PrintString("Failure");
 447:lcd_report.c  ****             }
 448:lcd_report.c  ****             else {
 449:lcd_report.c  ****               //LCD_Position(3u, 0u);
 450:lcd_report.c  ****               LCD_PrintString("Success");
 451:lcd_report.c  ****               sprintf(fstr, "%2.2f", lcd_probe_thickness);
 452:lcd_report.c  ****               strcpy(line, "G10L20P0Z");
 453:lcd_report.c  ****               strcat(line, fstr);
 454:lcd_report.c  ****               gc_execute_line(line);
 455:lcd_report.c  ****               
 456:lcd_report.c  ****             }
 457:lcd_report.c  ****           break;  
 458:lcd_report.c  ****             
 459:lcd_report.c  ****           case MENU_ITEM_PRB_THICK:
 460:lcd_report.c  ****             menu_item_selected = !menu_item_selected;
 461:lcd_report.c  ****             if (menu_item_selected)
 462:lcd_report.c  ****                 QuadDec_SetCounter(lcd_probe_thickness * LCD_PROBE_MULT);
 463:lcd_report.c  ****               else
 464:lcd_report.c  ****                 QuadDec_SetCounter(lcd_cursor);
 465:lcd_report.c  ****           break;  
 466:lcd_report.c  ****                 
 467:lcd_report.c  ****           case MENU_ITEM_PRB_RATE:
 468:lcd_report.c  ****                 menu_item_selected = !menu_item_selected;
 469:lcd_report.c  ****             if (menu_item_selected)
 470:lcd_report.c  ****                 QuadDec_SetCounter(lcd_probe_rate);
 471:lcd_report.c  ****               else
 472:lcd_report.c  ****                 QuadDec_SetCounter(lcd_cursor);
 473:lcd_report.c  ****           break;
 474:lcd_report.c  ****                 
 475:lcd_report.c  ****           case MENU_ITEM_PRB_DIST:
 476:lcd_report.c  ****                 menu_item_selected = !menu_item_selected;
 477:lcd_report.c  ****             if (menu_item_selected)
 478:lcd_report.c  ****                 QuadDec_SetCounter(lcd_probe_dist);
 479:lcd_report.c  ****               else
 480:lcd_report.c  ****                 QuadDec_SetCounter(lcd_cursor);
 481:lcd_report.c  ****           break;            
 482:lcd_report.c  ****         }        
 483:lcd_report.c  ****         if (lcd_screen != PROBE_SCREEN) break;
 484:lcd_report.c  ****       }
 485:lcd_report.c  ****       
 486:lcd_report.c  ****       LCD_Position(0u, 0u);
 487:lcd_report.c  ****       LCD_PrintString(" Back ");
 488:lcd_report.c  ****       LCD_PutChar(LCD_CUSTOM_3);
 489:lcd_report.c  ****       
 490:lcd_report.c  ****       LCD_Position(0u, 8u);
 491:lcd_report.c  ****       LCD_PrintString(" Begin Probe"); 
 492:lcd_report.c  ****       
 493:lcd_report.c  ****       LCD_Position(1u, 8u);
 494:lcd_report.c  ****       LCD_PrintString(" Thick:");
 495:lcd_report.c  ****       sprintf(fstr, "%2.2f", lcd_probe_thickness ); 
 496:lcd_report.c  ****       LCD_PrintString(fstr);
ARM GAS  C:\Users\Bart\AppData\Local\Temp\ccOIOErW.s 			page 12


 497:lcd_report.c  ****       
 498:lcd_report.c  ****       LCD_Position(2u, 8u);
 499:lcd_report.c  ****       LCD_PrintString(" Rate:");
 500:lcd_report.c  ****       sprintf(fstr, "%6d", lcd_probe_rate ); 
 501:lcd_report.c  ****       LCD_PrintString(fstr);
 502:lcd_report.c  ****       
 503:lcd_report.c  ****       LCD_Position(3u, 8u);
 504:lcd_report.c  ****       LCD_PrintString(" Dist:");
 505:lcd_report.c  ****       sprintf(fstr, "%6d", lcd_probe_dist ); 
 506:lcd_report.c  ****       LCD_PrintString(fstr);
 507:lcd_report.c  ****      
 508:lcd_report.c  ****       if (menu_item_selected) {
 509:lcd_report.c  ****       }
 510:lcd_report.c  ****       else {
 511:lcd_report.c  ****         lcd_cursor = QuadDec_GetCounter();
 512:lcd_report.c  ****         if  (lcd_cursor > lcd_cursor_max) lcd_cursor = lcd_cursor_max;
 513:lcd_report.c  ****         if  (lcd_cursor < 0) lcd_cursor = 0;
 514:lcd_report.c  ****         
 515:lcd_report.c  ****         QuadDec_SetCounter(lcd_cursor);
 516:lcd_report.c  ****         
 517:lcd_report.c  ****       }
 518:lcd_report.c  ****       
 519:lcd_report.c  ****       if (menu_item_selected) {
 520:lcd_report.c  ****         switch (lcd_cursor) {
 521:lcd_report.c  ****          case MENU_ITEM_PRB_THICK:
 522:lcd_report.c  ****           lcd_probe_thickness = (float)QuadDec_GetCounter() / LCD_PROBE_MULT;
 523:lcd_report.c  ****           if (lcd_probe_thickness > LCD_PRB_THICK_MAX) lcd_probe_thickness = LCD_PRB_THICK_MAX;
 524:lcd_report.c  ****           if (lcd_probe_thickness < LCD_PRB_THICK_MIN) lcd_probe_thickness = LCD_PRB_THICK_MIN;
 525:lcd_report.c  ****           QuadDec_SetCounter(lcd_probe_thickness * LCD_PROBE_MULT);
 526:lcd_report.c  ****          break;
 527:lcd_report.c  ****          case MENU_ITEM_PRB_RATE:
 528:lcd_report.c  ****           lcd_probe_rate = QuadDec_GetCounter();
 529:lcd_report.c  ****           if (lcd_probe_rate > LCD_PRB_RATE_MAX) lcd_probe_rate = LCD_PRB_RATE_MAX;
 530:lcd_report.c  ****           if (lcd_probe_rate < LCD_PRB_RATE_MIN) lcd_probe_rate = LCD_PRB_RATE_MIN;
 531:lcd_report.c  ****           QuadDec_SetCounter(lcd_probe_rate);
 532:lcd_report.c  ****          break;
 533:lcd_report.c  ****          case MENU_ITEM_PRB_DIST:
 534:lcd_report.c  ****           lcd_probe_dist = QuadDec_GetCounter();
 535:lcd_report.c  ****           if (lcd_probe_dist > LCD_PRB_DIST_MAX) lcd_probe_dist = LCD_PRB_DIST_MAX;
 536:lcd_report.c  ****           if (lcd_probe_dist < LCD_PRB_DIST_MIN) lcd_probe_dist = LCD_PRB_DIST_MIN;
 537:lcd_report.c  ****           QuadDec_SetCounter(lcd_probe_dist);
 538:lcd_report.c  ****          break; 
 539:lcd_report.c  ****           
 540:lcd_report.c  ****         }
 541:lcd_report.c  ****       }
 542:lcd_report.c  ****       else {
 543:lcd_report.c  ****         lcd_cursor = QuadDec_GetCounter();
 544:lcd_report.c  ****         if  (lcd_cursor > lcd_cursor_max) lcd_cursor = lcd_cursor_max;
 545:lcd_report.c  ****         if  (lcd_cursor < 0) lcd_cursor = 0;
 546:lcd_report.c  ****         
 547:lcd_report.c  ****         QuadDec_SetCounter(lcd_cursor);        
 548:lcd_report.c  ****       }
 549:lcd_report.c  ****       
 550:lcd_report.c  ****       switch (lcd_cursor)
 551:lcd_report.c  ****       {
 552:lcd_report.c  ****        case 0:
 553:lcd_report.c  ****         LCD_Position(0u, 0u);
ARM GAS  C:\Users\Bart\AppData\Local\Temp\ccOIOErW.s 			page 13


 554:lcd_report.c  ****         LCD_PutChar(LCD_CUSTOM_0);
 555:lcd_report.c  ****        break;
 556:lcd_report.c  ****        case 1:
 557:lcd_report.c  ****         LCD_Position(0u, 8u);
 558:lcd_report.c  ****         LCD_PutChar(LCD_CUSTOM_0);
 559:lcd_report.c  ****        break; 
 560:lcd_report.c  ****        case 2:
 561:lcd_report.c  ****         LCD_Position(1u, 8u);
 562:lcd_report.c  ****         LCD_PutChar(LCD_CUSTOM_0);
 563:lcd_report.c  ****        break;
 564:lcd_report.c  ****        case 3:
 565:lcd_report.c  ****         LCD_Position(2u, 8u);
 566:lcd_report.c  ****         LCD_PutChar(LCD_CUSTOM_0);
 567:lcd_report.c  ****        break;
 568:lcd_report.c  ****        case 4:
 569:lcd_report.c  ****         LCD_Position(3u, 8u);
 570:lcd_report.c  ****         LCD_PutChar(LCD_CUSTOM_0);
 571:lcd_report.c  ****        break;       
 572:lcd_report.c  ****       }
 573:lcd_report.c  ****       
 574:lcd_report.c  ****     break;  
 575:lcd_report.c  ****       
 576:lcd_report.c  ****     case SD_CARD_SCREEN:
 577:lcd_report.c  ****       LCD_Position(0u, 0u);
 578:lcd_report.c  ****       LCD_PrintString(" Back ");
 579:lcd_report.c  ****       LCD_PutChar(LCD_CUSTOM_3);
 580:lcd_report.c  ****       
 581:lcd_report.c  ****       LCD_Position(2u, 0u);
 582:lcd_report.c  ****       LCD_PrintString("Feature not ready"); 
 583:lcd_report.c  ****       
 584:lcd_report.c  ****       if (switch_clicked) {
 585:lcd_report.c  ****         
 586:lcd_report.c  ****         lcd_screen = CMD_SCREEN; 
 587:lcd_report.c  ****         lcd_cursor = 0;
 588:lcd_report.c  ****         QuadDec_SetCounter(lcd_cursor);
 589:lcd_report.c  ****         LCD_WriteControl(LCD_CLEAR_DISPLAY);
 590:lcd_report.c  ****         switch_clicked = false;
 591:lcd_report.c  ****       }
 592:lcd_report.c  ****       
 593:lcd_report.c  ****     break;  
 594:lcd_report.c  ****       
 595:lcd_report.c  ****       
 596:lcd_report.c  ****     default:
 597:lcd_report.c  ****       LCD_Position(0u, 0u);
 598:lcd_report.c  ****       sprintf(fstr, "Scn:%-5d", lcd_screen );
 599:lcd_report.c  ****       LCD_PrintString(fstr);
 600:lcd_report.c  ****     break;
 601:lcd_report.c  ****   }  // switch lcd_screen
 602:lcd_report.c  **** 
 603:lcd_report.c  ****     
 604:lcd_report.c  **** }
 605:lcd_report.c  **** 
 606:lcd_report.c  **** // Prints an uint8 variable with base and number of desired digits.
 607:lcd_report.c  **** void lcd_unsigned_int8(uint8_t n, uint8_t base, uint8_t digits)
 608:lcd_report.c  **** { 
 125              		.loc 1 608 0
 126              		.cfi_startproc
ARM GAS  C:\Users\Bart\AppData\Local\Temp\ccOIOErW.s 			page 14


 127              		@ args = 0, pretend = 0, frame = 0
 128              		@ frame_needed = 1, uses_anonymous_args = 0
 129              	.LVL5:
 130 0000 B0B5     		push	{r4, r5, r7, lr}
 131              		.cfi_def_cfa_offset 16
 132              		.cfi_offset 4, -16
 133              		.cfi_offset 5, -12
 134              		.cfi_offset 7, -8
 135              		.cfi_offset 14, -4
 136 0002 00AF     		add	r7, sp, #0
 137              		.cfi_def_cfa_register 7
 138              	.LVL6:
 609:lcd_report.c  ****   unsigned char buf[digits];
 139              		.loc 1 609 0
 140 0004 D31D     		adds	r3, r2, #7
 141 0006 23F00703 		bic	r3, r3, #7
 142 000a ADEB030D 		sub	sp, sp, r3
 143 000e 6D46     		mov	r5, sp
 144              	.LVL7:
 610:lcd_report.c  ****   uint8_t i = 0;
 145              		.loc 1 610 0
 146 0010 0023     		movs	r3, #0
 611:lcd_report.c  **** 
 612:lcd_report.c  ****   for (; i < digits; i++) {
 147              		.loc 1 612 0
 148 0012 07E0     		b	.L12
 149              	.LVL8:
 150              	.L13:
 613:lcd_report.c  ****       buf[i] = n % base ;
 151              		.loc 1 613 0 discriminator 2
 152 0014 B0FBF1F4 		udiv	r4, r0, r1
 153 0018 01FB1400 		mls	r0, r1, r4, r0
 154              	.LVL9:
 155 001c E854     		strb	r0, [r5, r3]
 614:lcd_report.c  ****       n /= base;
 156              		.loc 1 614 0 discriminator 2
 157 001e E0B2     		uxtb	r0, r4
 158              	.LVL10:
 612:lcd_report.c  ****       buf[i] = n % base ;
 159              		.loc 1 612 0 discriminator 2
 160 0020 0133     		adds	r3, r3, #1
 161              	.LVL11:
 162 0022 DBB2     		uxtb	r3, r3
 163              	.LVL12:
 164              	.L12:
 612:lcd_report.c  ****       buf[i] = n % base ;
 165              		.loc 1 612 0 is_stmt 0 discriminator 1
 166 0024 9342     		cmp	r3, r2
 167 0026 F5D3     		bcc	.L13
 168 0028 06E0     		b	.L14
 169              	.LVL13:
 170              	.L15:
 615:lcd_report.c  ****   }
 616:lcd_report.c  **** 
 617:lcd_report.c  ****   for (; i > 0; i--)
 618:lcd_report.c  ****       LCD_PutChar('0' + buf[i - 1]);
 171              		.loc 1 618 0 is_stmt 1 discriminator 2
ARM GAS  C:\Users\Bart\AppData\Local\Temp\ccOIOErW.s 			page 15


 172 002a 5C1E     		subs	r4, r3, #1
 173 002c 285D     		ldrb	r0, [r5, r4]	@ zero_extendqisi2
 174 002e 3030     		adds	r0, r0, #48
 175 0030 C0B2     		uxtb	r0, r0
 176 0032 FFF7FEFF 		bl	LCD_PutChar
 177              	.LVL14:
 617:lcd_report.c  ****       LCD_PutChar('0' + buf[i - 1]);
 178              		.loc 1 617 0 discriminator 2
 179 0036 E3B2     		uxtb	r3, r4
 180              	.LVL15:
 181              	.L14:
 617:lcd_report.c  ****       LCD_PutChar('0' + buf[i - 1]);
 182              		.loc 1 617 0 is_stmt 0 discriminator 1
 183 0038 002B     		cmp	r3, #0
 184 003a F6D1     		bne	.L15
 619:lcd_report.c  **** }
 185              		.loc 1 619 0 is_stmt 1
 186 003c BD46     		mov	sp, r7
 187              		.cfi_def_cfa_register 13
 188              		@ sp needed
 189 003e B0BD     		pop	{r4, r5, r7, pc}
 190              		.cfi_endproc
 191              	.LFE68:
 192              		.size	lcd_unsigned_int8, .-lcd_unsigned_int8
 193              		.section	.text.lcd_menu_execute,"ax",%progbits
 194              		.align	2
 195              		.global	lcd_menu_execute
 196              		.thumb
 197              		.thumb_func
 198              		.type	lcd_menu_execute, %function
 199              	lcd_menu_execute:
 200              	.LFB69:
 620:lcd_report.c  **** 
 621:lcd_report.c  **** void lcd_menu_execute(char *line)
 622:lcd_report.c  **** {
 201              		.loc 1 622 0
 202              		.cfi_startproc
 203              		@ args = 0, pretend = 0, frame = 0
 204              		@ frame_needed = 0, uses_anonymous_args = 0
 205              	.LVL16:
 206 0000 08B5     		push	{r3, lr}
 207              		.cfi_def_cfa_offset 8
 208              		.cfi_offset 3, -8
 209              		.cfi_offset 14, -4
 623:lcd_report.c  ****     if ( sys.state == STATE_IDLE)
 210              		.loc 1 623 0
 211 0002 034B     		ldr	r3, .L20
 212 0004 1B78     		ldrb	r3, [r3]	@ zero_extendqisi2
 213 0006 0BB9     		cbnz	r3, .L17
 624:lcd_report.c  ****       gc_execute_line(line);
 214              		.loc 1 624 0
 215 0008 FFF7FEFF 		bl	gc_execute_line
 216              	.LVL17:
 217              	.L17:
 218 000c 08BD     		pop	{r3, pc}
 219              	.L21:
 220 000e 00BF     		.align	2
ARM GAS  C:\Users\Bart\AppData\Local\Temp\ccOIOErW.s 			page 16


 221              	.L20:
 222 0010 00000000 		.word	sys
 223              		.cfi_endproc
 224              	.LFE69:
 225              		.size	lcd_menu_execute, .-lcd_menu_execute
 226              		.global	__aeabi_fadd
 227              		.global	__aeabi_fsub
 228              		.global	__aeabi_f2d
 229              		.global	__aeabi_ddiv
 230              		.global	__aeabi_d2f
 231              		.global	__aeabi_fmul
 232              		.global	__aeabi_f2iz
 233              		.global	__aeabi_i2f
 234              		.global	__aeabi_fdiv
 235              		.global	__aeabi_fcmpgt
 236              		.global	__aeabi_fcmplt
 237              		.section	.text.lcd_report_realtime,"ax",%progbits
 238              		.align	2
 239              		.global	lcd_report_realtime
 240              		.thumb
 241              		.thumb_func
 242              		.type	lcd_report_realtime, %function
 243              	lcd_report_realtime:
 244              	.LFB67:
  65:lcd_report.c  ****   uint8_t switches = false;  // currently used for hardware checking.
 245              		.loc 1 65 0
 246              		.cfi_startproc
 247              		@ args = 0, pretend = 0, frame = 88
 248              		@ frame_needed = 0, uses_anonymous_args = 0
 249 0000 F0B5     		push	{r4, r5, r6, r7, lr}
 250              		.cfi_def_cfa_offset 20
 251              		.cfi_offset 4, -20
 252              		.cfi_offset 5, -16
 253              		.cfi_offset 6, -12
 254              		.cfi_offset 7, -8
 255              		.cfi_offset 14, -4
 256 0002 97B0     		sub	sp, sp, #92
 257              		.cfi_def_cfa_offset 112
 258              	.LVL18:
  71:lcd_report.c  ****   int32_t current_position[N_AXIS]; // Copy current state of the system position variable
 259              		.loc 1 71 0
 260 0004 B44B     		ldr	r3, .L130+8
 261 0006 93E80300 		ldmia	r3, {r0, r1}
 262 000a 0790     		str	r0, [sp, #28]
 263 000c ADF82010 		strh	r1, [sp, #32]	@ movhi
 264 0010 090C     		lsrs	r1, r1, #16
 265 0012 8DF82210 		strb	r1, [sp, #34]
  73:lcd_report.c  ****   float print_position[N_AXIS];
 266              		.loc 1 73 0
 267 0016 B14A     		ldr	r2, .L130+12
 268 0018 04AB     		add	r3, sp, #16
 269 001a 07CA     		ldmia	r2, {r0, r1, r2}
 270 001c 83E80700 		stmia	r3, {r0, r1, r2}
  78:lcd_report.c  ****   {
 271              		.loc 1 78 0
 272 0020 AF4B     		ldr	r3, .L130+16
 273 0022 93F90130 		ldrsb	r3, [r3, #1]
ARM GAS  C:\Users\Bart\AppData\Local\Temp\ccOIOErW.s 			page 17


 274 0026 032B     		cmp	r3, #3
 275 0028 00F23985 		bhi	.L23
 276 002c DFE813F0 		tbh	[pc, r3, lsl #1]
 277              	.L25:
 278 0030 0400     		.2byte	(.L24-.L25)/2
 279 0032 1F02     		.2byte	(.L26-.L25)/2
 280 0034 3A03     		.2byte	(.L27-.L25)/2
 281 0036 1505     		.2byte	(.L28-.L25)/2
 282              		.p2align 1
 283              	.L24:
  82:lcd_report.c  ****       get_state(stat);
 284              		.loc 1 82 0
 285 0038 0722     		movs	r2, #7
 286 003a AA4B     		ldr	r3, .L130+20
 287 003c 1A70     		strb	r2, [r3]
  83:lcd_report.c  ****       LCD_Position(0u, 0u);
 288              		.loc 1 83 0
 289 003e 13A8     		add	r0, sp, #76
 290 0040 FFF7FEFF 		bl	get_state
 291              	.LVL19:
  84:lcd_report.c  ****       LCD_PrintString(stat);
 292              		.loc 1 84 0
 293 0044 0020     		movs	r0, #0
 294 0046 0146     		mov	r1, r0
 295 0048 FFF7FEFF 		bl	LCD_Position
 296              	.LVL20:
  85:lcd_report.c  ****       
 297              		.loc 1 85 0
 298 004c 13A8     		add	r0, sp, #76
 299 004e FFF7FEFF 		bl	LCD_PrintString
 300              	.LVL21:
  87:lcd_report.c  ****         switch_clicked = false;
 301              		.loc 1 87 0
 302 0052 A34B     		ldr	r3, .L130+16
 303 0054 1B78     		ldrb	r3, [r3]	@ zero_extendqisi2
 304 0056 002B     		cmp	r3, #0
 305 0058 60D0     		beq	.L29
  88:lcd_report.c  ****         switch (lcd_cursor)
 306              		.loc 1 88 0
 307 005a 0022     		movs	r2, #0
 308 005c A04B     		ldr	r3, .L130+16
 309 005e 1A70     		strb	r2, [r3]
  89:lcd_report.c  ****         {
 310              		.loc 1 89 0
 311 0060 A04B     		ldr	r3, .L130+20
 312 0062 93F90130 		ldrsb	r3, [r3, #1]
 313 0066 072B     		cmp	r3, #7
 314 0068 53D8     		bhi	.L30
 315 006a DFE803F0 		tbb	[pc, r3]
 316              	.L32:
 317 006e 04       		.byte	(.L31-.L32)/2
 318 006f 0C       		.byte	(.L33-.L32)/2
 319 0070 10       		.byte	(.L34-.L32)/2
 320 0071 14       		.byte	(.L35-.L32)/2
 321 0072 18       		.byte	(.L36-.L32)/2
 322 0073 23       		.byte	(.L37-.L32)/2
 323 0074 35       		.byte	(.L38-.L32)/2
ARM GAS  C:\Users\Bart\AppData\Local\Temp\ccOIOErW.s 			page 18


 324 0075 47       		.byte	(.L39-.L32)/2
 325              		.p2align 1
 326              	.L31:
  92:lcd_report.c  ****               system_execute_line("$X");
 327              		.loc 1 92 0
 328 0076 9C4B     		ldr	r3, .L130+24
 329 0078 1B78     		ldrb	r3, [r3]	@ zero_extendqisi2
 330 007a 012B     		cmp	r3, #1
 331 007c 49D1     		bne	.L30
  93:lcd_report.c  ****             }
 332              		.loc 1 93 0
 333 007e 9B48     		ldr	r0, .L130+28
 334 0080 FFF7FEFF 		bl	system_execute_line
 335              	.LVL22:
 336 0084 45E0     		b	.L30
 337              	.L33:
  97:lcd_report.c  ****           break;
 338              		.loc 1 97 0
 339 0086 9A48     		ldr	r0, .L130+32
 340 0088 FFF7FEFF 		bl	lcd_menu_execute
 341              	.LVL23:
  98:lcd_report.c  ****           case MENU_ITEM_MAIN_Y_DRO:
 342              		.loc 1 98 0
 343 008c 41E0     		b	.L30
 344              	.L34:
 100:lcd_report.c  ****           break;
 345              		.loc 1 100 0
 346 008e 9948     		ldr	r0, .L130+36
 347 0090 FFF7FEFF 		bl	lcd_menu_execute
 348              	.LVL24:
 101:lcd_report.c  ****           case MENU_ITEM_MAIN_Z_DRO:
 349              		.loc 1 101 0
 350 0094 3DE0     		b	.L30
 351              	.L35:
 103:lcd_report.c  ****           break;
 352              		.loc 1 103 0
 353 0096 9848     		ldr	r0, .L130+40
 354 0098 FFF7FEFF 		bl	lcd_menu_execute
 355              	.LVL25:
 104:lcd_report.c  ****           
 356              		.loc 1 104 0
 357 009c 39E0     		b	.L30
 358              	.L36:
 107:lcd_report.c  ****               lcd_units = LCD_UNIT_IN;
 359              		.loc 1 107 0
 360 009e 904B     		ldr	r3, .L130+16
 361 00a0 9B78     		ldrb	r3, [r3, #2]	@ zero_extendqisi2
 362 00a2 1BB9     		cbnz	r3, .L40
 108:lcd_report.c  ****             else
 363              		.loc 1 108 0
 364 00a4 0122     		movs	r2, #1
 365 00a6 8E4B     		ldr	r3, .L130+16
 366 00a8 9A70     		strb	r2, [r3, #2]
 367 00aa 32E0     		b	.L30
 368              	.L40:
 110:lcd_report.c  ****           break;
 369              		.loc 1 110 0
ARM GAS  C:\Users\Bart\AppData\Local\Temp\ccOIOErW.s 			page 19


 370 00ac 0022     		movs	r2, #0
 371 00ae 8C4B     		ldr	r3, .L130+16
 372 00b0 9A70     		strb	r2, [r3, #2]
 373 00b2 2EE0     		b	.L30
 374              	.L37:
 113:lcd_report.c  ****               if (menu_item_selected)
 375              		.loc 1 113 0
 376 00b4 8A4A     		ldr	r2, .L130+16
 377 00b6 92F90330 		ldrsb	r3, [r2, #3]
 378 00ba B3FA83F3 		clz	r3, r3
 379 00be 5B09     		lsrs	r3, r3, #5
 380 00c0 D370     		strb	r3, [r2, #3]
 114:lcd_report.c  ****                 QuadDec_SetCounter(lcd_FRO);
 381              		.loc 1 114 0
 382 00c2 2BB1     		cbz	r3, .L41
 115:lcd_report.c  ****               else
 383              		.loc 1 115 0
 384 00c4 874B     		ldr	r3, .L130+20
 385 00c6 B3F90200 		ldrsh	r0, [r3, #2]
 386 00ca FFF7FEFF 		bl	QuadDec_SetCounter
 387              	.LVL26:
 388 00ce 20E0     		b	.L30
 389              	.L41:
 117:lcd_report.c  ****           break;  
 390              		.loc 1 117 0
 391 00d0 0520     		movs	r0, #5
 392 00d2 FFF7FEFF 		bl	QuadDec_SetCounter
 393              	.LVL27:
 394 00d6 1CE0     		b	.L30
 395              	.L38:
 120:lcd_report.c  ****               if (menu_item_selected)
 396              		.loc 1 120 0
 397 00d8 814A     		ldr	r2, .L130+16
 398 00da 92F90330 		ldrsb	r3, [r2, #3]
 399 00de B3FA83F3 		clz	r3, r3
 400 00e2 5B09     		lsrs	r3, r3, #5
 401 00e4 D370     		strb	r3, [r2, #3]
 121:lcd_report.c  ****                 QuadDec_SetCounter(lcd_SRO);
 402              		.loc 1 121 0
 403 00e6 2BB1     		cbz	r3, .L42
 122:lcd_report.c  ****               else
 404              		.loc 1 122 0
 405 00e8 7E4B     		ldr	r3, .L130+20
 406 00ea B3F90400 		ldrsh	r0, [r3, #4]
 407 00ee FFF7FEFF 		bl	QuadDec_SetCounter
 408              	.LVL28:
 409 00f2 0EE0     		b	.L30
 410              	.L42:
 124:lcd_report.c  ****           break;     
 411              		.loc 1 124 0
 412 00f4 0620     		movs	r0, #6
 413 00f6 FFF7FEFF 		bl	QuadDec_SetCounter
 414              	.LVL29:
 415 00fa 0AE0     		b	.L30
 416              	.L39:
 127:lcd_report.c  ****             lcd_cursor = 0;
 417              		.loc 1 127 0
ARM GAS  C:\Users\Bart\AppData\Local\Temp\ccOIOErW.s 			page 20


 418 00fc 0124     		movs	r4, #1
 419 00fe 784B     		ldr	r3, .L130+16
 420 0100 5C70     		strb	r4, [r3, #1]
 128:lcd_report.c  ****             QuadDec_SetCounter(lcd_cursor);
 421              		.loc 1 128 0
 422 0102 0020     		movs	r0, #0
 423 0104 774B     		ldr	r3, .L130+20
 424 0106 5870     		strb	r0, [r3, #1]
 129:lcd_report.c  ****             LCD_WriteControl(LCD_CLEAR_DISPLAY);
 425              		.loc 1 129 0
 426 0108 FFF7FEFF 		bl	QuadDec_SetCounter
 427              	.LVL30:
 130:lcd_report.c  ****           break;
 428              		.loc 1 130 0
 429 010c 2046     		mov	r0, r4
 430 010e FFF7FEFF 		bl	LCD_WriteControl
 431              	.LVL31:
 432              	.L30:
 134:lcd_report.c  ****       }
 433              		.loc 1 134 0
 434 0112 734B     		ldr	r3, .L130+16
 435 0114 5B78     		ldrb	r3, [r3, #1]	@ zero_extendqisi2
 436 0116 002B     		cmp	r3, #0
 437 0118 40F0CF84 		bne	.L22
 438              	.L29:
 153:lcd_report.c  ****       
 439              		.loc 1 153 0
 440 011c 01A8     		add	r0, sp, #4
 441 011e 04A9     		add	r1, sp, #16
 442 0120 FFF7FEFF 		bl	system_convert_array_steps_to_mpos
 443              	.LVL32:
 156:lcd_report.c  ****       print_position[idx] -= gc_state.coord_system[idx]+gc_state.coord_offset[idx];
 444              		.loc 1 156 0
 445 0124 0024     		movs	r4, #0
 446 0126 20E0     		b	.L44
 447              	.LVL33:
 448              	.L46:
 157:lcd_report.c  ****         if (idx == TOOL_LENGTH_OFFSET_AXIS) { print_position[idx] -= gc_state.tool_length_offset; }
 449              		.loc 1 157 0
 450 0128 744A     		ldr	r2, .L130+44
 451 012a 04F10A03 		add	r3, r4, #10
 452 012e 02EB8401 		add	r1, r2, r4, lsl #2
 453 0132 52F82300 		ldr	r0, [r2, r3, lsl #2]	@ float
 454 0136 496B     		ldr	r1, [r1, #52]	@ float
 455 0138 FFF7FEFF 		bl	__aeabi_fadd
 456              	.LVL34:
 457 013c 0146     		mov	r1, r0
 458 013e 16AB     		add	r3, sp, #88
 459 0140 03EB8405 		add	r5, r3, r4, lsl #2
 460 0144 55F8540C 		ldr	r0, [r5, #-84]	@ float
 461 0148 FFF7FEFF 		bl	__aeabi_fsub
 462              	.LVL35:
 463 014c 45F8540C 		str	r0, [r5, #-84]	@ float
 158:lcd_report.c  ****       }
 464              		.loc 1 158 0
 465 0150 022C     		cmp	r4, #2
 466 0152 08D1     		bne	.L45
ARM GAS  C:\Users\Bart\AppData\Local\Temp\ccOIOErW.s 			page 21


 158:lcd_report.c  ****       }
 467              		.loc 1 158 0 is_stmt 0 discriminator 1
 468 0154 694B     		ldr	r3, .L130+44
 469 0156 196C     		ldr	r1, [r3, #64]	@ float
 470 0158 FFF7FEFF 		bl	__aeabi_fsub
 471              	.LVL36:
 472 015c 16AB     		add	r3, sp, #88
 473 015e 03EB8403 		add	r3, r3, r4, lsl #2
 474 0162 43F8540C 		str	r0, [r3, #-84]	@ float
 475              	.L45:
 156:lcd_report.c  ****       print_position[idx] -= gc_state.coord_system[idx]+gc_state.coord_offset[idx];
 476              		.loc 1 156 0 is_stmt 1 discriminator 2
 477 0166 0134     		adds	r4, r4, #1
 478              	.LVL37:
 479 0168 E4B2     		uxtb	r4, r4
 480              	.LVL38:
 481              	.L44:
 156:lcd_report.c  ****       print_position[idx] -= gc_state.coord_system[idx]+gc_state.coord_offset[idx];
 482              		.loc 1 156 0 is_stmt 0 discriminator 1
 483 016a 022C     		cmp	r4, #2
 484 016c DCD9     		bls	.L46
 162:lcd_report.c  ****       LCD_PrintString(" Unit:");
 485              		.loc 1 162 0 is_stmt 1
 486 016e 0020     		movs	r0, #0
 487 0170 0B21     		movs	r1, #11
 488 0172 FFF7FEFF 		bl	LCD_Position
 489              	.LVL39:
 163:lcd_report.c  ****       if (lcd_units == LCD_UNIT_MM) {
 490              		.loc 1 163 0
 491 0176 6248     		ldr	r0, .L130+48
 492 0178 FFF7FEFF 		bl	LCD_PrintString
 493              	.LVL40:
 164:lcd_report.c  ****         LCD_PrintString(" mm");
 494              		.loc 1 164 0
 495 017c 584B     		ldr	r3, .L130+16
 496 017e 9B78     		ldrb	r3, [r3, #2]	@ zero_extendqisi2
 497 0180 FBB9     		cbnz	r3, .L126
 165:lcd_report.c  ****         strcpy(num_format, "%+8.2f");
 498              		.loc 1 165 0
 499 0182 6048     		ldr	r0, .L130+52
 500 0184 FFF7FEFF 		bl	LCD_PrintString
 501              	.LVL41:
 166:lcd_report.c  ****       }
 502              		.loc 1 166 0
 503 0188 534B     		ldr	r3, .L130+8
 504 018a 93E80300 		ldmia	r3, {r0, r1}
 505 018e 0790     		str	r0, [sp, #28]
 506 0190 ADF82010 		strh	r1, [sp, #32]	@ movhi
 507 0194 090C     		lsrs	r1, r1, #16
 508 0196 8DF82210 		strb	r1, [sp, #34]
 509 019a 21E0     		b	.L48
 510              	.L49:
 170:lcd_report.c  ****           }
 511              		.loc 1 170 0 discriminator 3
 512 019c 16AB     		add	r3, sp, #88
 513 019e 03EB8405 		add	r5, r3, r4, lsl #2
 514 01a2 55F8540C 		ldr	r0, [r5, #-84]	@ float
ARM GAS  C:\Users\Bart\AppData\Local\Temp\ccOIOErW.s 			page 22


 515 01a6 FFF7FEFF 		bl	__aeabi_f2d
 516              	.LVL42:
 517 01aa 49A3     		adr	r3, .L130
 518 01ac D3E90023 		ldrd	r2, [r3]
 519 01b0 FFF7FEFF 		bl	__aeabi_ddiv
 520              	.LVL43:
 521 01b4 FFF7FEFF 		bl	__aeabi_d2f
 522              	.LVL44:
 523 01b8 45F8540C 		str	r0, [r5, #-84]	@ float
 169:lcd_report.c  ****             print_position[idx] /= MM_PER_INCH;  
 524              		.loc 1 169 0 discriminator 3
 525 01bc 0134     		adds	r4, r4, #1
 526              	.LVL45:
 527 01be E4B2     		uxtb	r4, r4
 528              	.LVL46:
 529 01c0 00E0     		b	.L47
 530              	.L126:
 531 01c2 0024     		movs	r4, #0
 532              	.LVL47:
 533              	.L47:
 169:lcd_report.c  ****             print_position[idx] /= MM_PER_INCH;  
 534              		.loc 1 169 0 is_stmt 0 discriminator 1
 535 01c4 022C     		cmp	r4, #2
 536 01c6 E9D9     		bls	.L49
 172:lcd_report.c  ****           strcpy(num_format, "%+8.3f");
 537              		.loc 1 172 0 is_stmt 1
 538 01c8 4F48     		ldr	r0, .L130+56
 539 01ca FFF7FEFF 		bl	LCD_PrintString
 540              	.LVL48:
 173:lcd_report.c  ****       }
 541              		.loc 1 173 0
 542 01ce 4F4B     		ldr	r3, .L130+60
 543 01d0 93E80300 		ldmia	r3, {r0, r1}
 544 01d4 0790     		str	r0, [sp, #28]
 545 01d6 ADF82010 		strh	r1, [sp, #32]	@ movhi
 546 01da 090C     		lsrs	r1, r1, #16
 547 01dc 8DF82210 		strb	r1, [sp, #34]
 548              	.L48:
 177:lcd_report.c  ****       LCD_PrintString(" X");
 549              		.loc 1 177 0
 550 01e0 0120     		movs	r0, #1
 551 01e2 0021     		movs	r1, #0
 552 01e4 FFF7FEFF 		bl	LCD_Position
 553              	.LVL49:
 178:lcd_report.c  ****       sprintf(fstr, num_format, print_position[X_AXIS] ); 
 554              		.loc 1 178 0
 555 01e8 4948     		ldr	r0, .L130+64
 556 01ea FFF7FEFF 		bl	LCD_PrintString
 557              	.LVL50:
 179:lcd_report.c  ****       LCD_PrintString(fstr);    
 558              		.loc 1 179 0
 559 01ee 0198     		ldr	r0, [sp, #4]	@ float
 560 01f0 FFF7FEFF 		bl	__aeabi_f2d
 561              	.LVL51:
 562 01f4 0246     		mov	r2, r0
 563 01f6 0B46     		mov	r3, r1
 564 01f8 0EA8     		add	r0, sp, #56
ARM GAS  C:\Users\Bart\AppData\Local\Temp\ccOIOErW.s 			page 23


 565 01fa 07A9     		add	r1, sp, #28
 566 01fc FFF7FEFF 		bl	sprintf
 567              	.LVL52:
 180:lcd_report.c  ****     
 568              		.loc 1 180 0
 569 0200 0EA8     		add	r0, sp, #56
 570 0202 FFF7FEFF 		bl	LCD_PrintString
 571              	.LVL53:
 182:lcd_report.c  ****       LCD_PrintString(" Y");
 572              		.loc 1 182 0
 573 0206 0220     		movs	r0, #2
 574 0208 0021     		movs	r1, #0
 575 020a FFF7FEFF 		bl	LCD_Position
 576              	.LVL54:
 183:lcd_report.c  ****       sprintf(fstr, num_format, print_position[Y_AXIS] ); 
 577              		.loc 1 183 0
 578 020e 4148     		ldr	r0, .L130+68
 579 0210 FFF7FEFF 		bl	LCD_PrintString
 580              	.LVL55:
 184:lcd_report.c  ****       LCD_PrintString(fstr);      
 581              		.loc 1 184 0
 582 0214 0298     		ldr	r0, [sp, #8]	@ float
 583 0216 FFF7FEFF 		bl	__aeabi_f2d
 584              	.LVL56:
 585 021a 0246     		mov	r2, r0
 586 021c 0B46     		mov	r3, r1
 587 021e 0EA8     		add	r0, sp, #56
 588 0220 07A9     		add	r1, sp, #28
 589 0222 FFF7FEFF 		bl	sprintf
 590              	.LVL57:
 185:lcd_report.c  ****       
 591              		.loc 1 185 0
 592 0226 0EA8     		add	r0, sp, #56
 593 0228 FFF7FEFF 		bl	LCD_PrintString
 594              	.LVL58:
 187:lcd_report.c  ****       LCD_PrintString(" Z");
 595              		.loc 1 187 0
 596 022c 0320     		movs	r0, #3
 597 022e 0021     		movs	r1, #0
 598 0230 FFF7FEFF 		bl	LCD_Position
 599              	.LVL59:
 188:lcd_report.c  ****       sprintf(fstr, num_format, print_position[Z_AXIS] ); 
 600              		.loc 1 188 0
 601 0234 3848     		ldr	r0, .L130+72
 602 0236 FFF7FEFF 		bl	LCD_PrintString
 603              	.LVL60:
 189:lcd_report.c  ****       LCD_PrintString(fstr);      
 604              		.loc 1 189 0
 605 023a 0398     		ldr	r0, [sp, #12]	@ float
 606 023c FFF7FEFF 		bl	__aeabi_f2d
 607              	.LVL61:
 608 0240 0246     		mov	r2, r0
 609 0242 0B46     		mov	r3, r1
 610 0244 0EA8     		add	r0, sp, #56
 611 0246 07A9     		add	r1, sp, #28
 612 0248 FFF7FEFF 		bl	sprintf
 613              	.LVL62:
ARM GAS  C:\Users\Bart\AppData\Local\Temp\ccOIOErW.s 			page 24


 190:lcd_report.c  ****       
 614              		.loc 1 190 0
 615 024c 0EA8     		add	r0, sp, #56
 616 024e FFF7FEFF 		bl	LCD_PrintString
 617              	.LVL63:
 192:lcd_report.c  ****       LCD_PrintString(" FRO:");
 618              		.loc 1 192 0
 619 0252 0120     		movs	r0, #1
 620 0254 0B21     		movs	r1, #11
 621 0256 FFF7FEFF 		bl	LCD_Position
 622              	.LVL64:
 193:lcd_report.c  ****       sprintf(fstr, "%3d", lcd_FRO ); 
 623              		.loc 1 193 0
 624 025a 3048     		ldr	r0, .L130+76
 625 025c FFF7FEFF 		bl	LCD_PrintString
 626              	.LVL65:
 194:lcd_report.c  ****       LCD_PrintString(fstr);
 627              		.loc 1 194 0
 628 0260 2F4E     		ldr	r6, .L130+80
 629 0262 204D     		ldr	r5, .L130+20
 630 0264 0EA8     		add	r0, sp, #56
 631 0266 3146     		mov	r1, r6
 632 0268 B5F90220 		ldrsh	r2, [r5, #2]
 633 026c FFF7FEFF 		bl	sprintf
 634              	.LVL66:
 195:lcd_report.c  ****       LCD_PrintString("%");
 635              		.loc 1 195 0
 636 0270 0EA8     		add	r0, sp, #56
 637 0272 FFF7FEFF 		bl	LCD_PrintString
 638              	.LVL67:
 196:lcd_report.c  ****       
 639              		.loc 1 196 0
 640 0276 2B4C     		ldr	r4, .L130+84
 641              	.LVL68:
 642 0278 2046     		mov	r0, r4
 643 027a FFF7FEFF 		bl	LCD_PrintString
 644              	.LVL69:
 198:lcd_report.c  ****       LCD_PrintString(" SRO:");
 645              		.loc 1 198 0
 646 027e 0220     		movs	r0, #2
 647 0280 0B21     		movs	r1, #11
 648 0282 FFF7FEFF 		bl	LCD_Position
 649              	.LVL70:
 199:lcd_report.c  ****       sprintf(fstr, "%3d", lcd_SRO ); 
 650              		.loc 1 199 0
 651 0286 2848     		ldr	r0, .L130+88
 652 0288 FFF7FEFF 		bl	LCD_PrintString
 653              	.LVL71:
 200:lcd_report.c  ****       LCD_PrintString(fstr);
 654              		.loc 1 200 0
 655 028c 0EA8     		add	r0, sp, #56
 656 028e 3146     		mov	r1, r6
 657 0290 B5F90420 		ldrsh	r2, [r5, #4]
 658 0294 FFF7FEFF 		bl	sprintf
 659              	.LVL72:
 201:lcd_report.c  ****       LCD_PrintString("%");
 660              		.loc 1 201 0
ARM GAS  C:\Users\Bart\AppData\Local\Temp\ccOIOErW.s 			page 25


 661 0298 0EA8     		add	r0, sp, #56
 662 029a FFF7FEFF 		bl	LCD_PrintString
 663              	.LVL73:
 202:lcd_report.c  ****       
 664              		.loc 1 202 0
 665 029e 2046     		mov	r0, r4
 666 02a0 FFF7FEFF 		bl	LCD_PrintString
 667              	.LVL74:
 204:lcd_report.c  ****       LCD_PrintString(" More ");
 668              		.loc 1 204 0
 669 02a4 0320     		movs	r0, #3
 670 02a6 0B21     		movs	r1, #11
 671 02a8 FFF7FEFF 		bl	LCD_Position
 672              	.LVL75:
 205:lcd_report.c  ****       LCD_PutChar(LCD_CUSTOM_2);
 673              		.loc 1 205 0
 674 02ac 1F48     		ldr	r0, .L130+92
 675 02ae FFF7FEFF 		bl	LCD_PrintString
 676              	.LVL76:
 206:lcd_report.c  ****       
 677              		.loc 1 206 0
 678 02b2 0220     		movs	r0, #2
 679 02b4 FFF7FEFF 		bl	LCD_PutChar
 680              	.LVL77:
 209:lcd_report.c  ****         switch (lcd_cursor) {
 681              		.loc 1 209 0
 682 02b8 094B     		ldr	r3, .L130+16
 683 02ba DB78     		ldrb	r3, [r3, #3]	@ zero_extendqisi2
 684 02bc 002B     		cmp	r3, #0
 685 02be 56D0     		beq	.L50
 210:lcd_report.c  ****          case MENU_ITEM_MAIN_FRO:
 686              		.loc 1 210 0
 687 02c0 95F90130 		ldrsb	r3, [r5, #1]
 688 02c4 052B     		cmp	r3, #5
 689 02c6 33D0     		beq	.L52
 690 02c8 062B     		cmp	r3, #6
 691 02ca 42D0     		beq	.L53
 692 02cc 68E0     		b	.L51
 693              	.L131:
 694 02ce 00BF     		.align	3
 695              	.L130:
 696 02d0 66666666 		.word	1717986918
 697 02d4 66663940 		.word	1077503590
 698 02d8 60010000 		.word	.LC0
 699 02dc 00000000 		.word	sys_position
 700 02e0 00000000 		.word	.LANCHOR0
 701 02e4 00000000 		.word	.LANCHOR1
 702 02e8 00000000 		.word	sys
 703 02ec 00000000 		.word	.LC1
 704 02f0 04000000 		.word	.LC2
 705 02f4 10000000 		.word	.LC3
 706 02f8 1C000000 		.word	.LC4
 707 02fc 00000000 		.word	gc_state
 708 0300 28000000 		.word	.LC5
 709 0304 30000000 		.word	.LC6
 710 0308 34000000 		.word	.LC7
 711 030c 68010000 		.word	.LC8
ARM GAS  C:\Users\Bart\AppData\Local\Temp\ccOIOErW.s 			page 26


 712 0310 38000000 		.word	.LC9
 713 0314 3C000000 		.word	.LC10
 714 0318 40000000 		.word	.LC11
 715 031c 44000000 		.word	.LC12
 716 0320 4C000000 		.word	.LC13
 717 0324 50000000 		.word	.LC14
 718 0328 54000000 		.word	.LC15
 719 032c 5C000000 		.word	.LC16
 720              	.L52:
 212:lcd_report.c  ****           if (lcd_FRO > LCD_FRO_MAX) lcd_FRO = LCD_FRO_MAX;
 721              		.loc 1 212 0
 722 0330 FFF7FEFF 		bl	QuadDec_GetCounter
 723              	.LVL78:
 724 0334 774B     		ldr	r3, .L132
 725 0336 5880     		strh	r0, [r3, #2]	@ movhi
 213:lcd_report.c  ****           if (lcd_FRO < LCD_FRO_MIN) lcd_FRO = LCD_FRO_MIN;
 726              		.loc 1 213 0
 727 0338 FA28     		cmp	r0, #250
 728 033a 01DD     		ble	.L54
 213:lcd_report.c  ****           if (lcd_FRO < LCD_FRO_MIN) lcd_FRO = LCD_FRO_MIN;
 729              		.loc 1 213 0 is_stmt 0 discriminator 1
 730 033c FA22     		movs	r2, #250
 731 033e 5A80     		strh	r2, [r3, #2]	@ movhi
 732              	.L54:
 214:lcd_report.c  ****          break; 
 733              		.loc 1 214 0 is_stmt 1
 734 0340 744B     		ldr	r3, .L132
 735 0342 B3F90230 		ldrsh	r3, [r3, #2]
 736 0346 092B     		cmp	r3, #9
 737 0348 2ADC     		bgt	.L51
 214:lcd_report.c  ****          break; 
 738              		.loc 1 214 0 is_stmt 0 discriminator 1
 739 034a 0A22     		movs	r2, #10
 740 034c 714B     		ldr	r3, .L132
 741 034e 5A80     		strh	r2, [r3, #2]	@ movhi
 742 0350 26E0     		b	.L51
 743              	.L53:
 217:lcd_report.c  ****           if (lcd_SRO > LCD_SRO_MAX) lcd_FRO = LCD_SRO_MAX;
 744              		.loc 1 217 0 is_stmt 1
 745 0352 FFF7FEFF 		bl	QuadDec_GetCounter
 746              	.LVL79:
 747 0356 6F4B     		ldr	r3, .L132
 748 0358 9880     		strh	r0, [r3, #4]	@ movhi
 218:lcd_report.c  ****           if (lcd_SRO < LCD_SRO_MIN) lcd_FRO = LCD_SRO_MIN;
 749              		.loc 1 218 0
 750 035a FA28     		cmp	r0, #250
 751 035c 01DD     		ble	.L55
 218:lcd_report.c  ****           if (lcd_SRO < LCD_SRO_MIN) lcd_FRO = LCD_SRO_MIN;
 752              		.loc 1 218 0 is_stmt 0 discriminator 1
 753 035e FA22     		movs	r2, #250
 754 0360 5A80     		strh	r2, [r3, #2]	@ movhi
 755              	.L55:
 219:lcd_report.c  ****           break;
 756              		.loc 1 219 0 is_stmt 1
 757 0362 3128     		cmp	r0, #49
 758 0364 1CDC     		bgt	.L51
 219:lcd_report.c  ****           break;
ARM GAS  C:\Users\Bart\AppData\Local\Temp\ccOIOErW.s 			page 27


 759              		.loc 1 219 0 is_stmt 0 discriminator 1
 760 0366 3222     		movs	r2, #50
 761 0368 6A4B     		ldr	r3, .L132
 762 036a 5A80     		strh	r2, [r3, #2]	@ movhi
 763 036c 18E0     		b	.L51
 764              	.L50:
 224:lcd_report.c  ****         if  (lcd_cursor > lcd_cursor_max) lcd_cursor = lcd_cursor_max;
 765              		.loc 1 224 0 is_stmt 1
 766 036e FFF7FEFF 		bl	QuadDec_GetCounter
 767              	.LVL80:
 768 0372 C0B2     		uxtb	r0, r0
 769 0374 674B     		ldr	r3, .L132
 770 0376 5870     		strb	r0, [r3, #1]
 225:lcd_report.c  ****         if  (lcd_cursor < 0) lcd_cursor = 0;
 771              		.loc 1 225 0
 772 0378 1B78     		ldrb	r3, [r3]	@ zero_extendqisi2
 773 037a 40B2     		sxtb	r0, r0
 774 037c 5AB2     		sxtb	r2, r3
 775 037e 9042     		cmp	r0, r2
 776 0380 01DD     		ble	.L56
 225:lcd_report.c  ****         if  (lcd_cursor < 0) lcd_cursor = 0;
 777              		.loc 1 225 0 is_stmt 0 discriminator 1
 778 0382 644A     		ldr	r2, .L132
 779 0384 5370     		strb	r3, [r2, #1]
 780              	.L56:
 226:lcd_report.c  ****         
 781              		.loc 1 226 0 is_stmt 1
 782 0386 634B     		ldr	r3, .L132
 783 0388 93F90130 		ldrsb	r3, [r3, #1]
 784 038c 002B     		cmp	r3, #0
 785 038e 02DA     		bge	.L57
 226:lcd_report.c  ****         
 786              		.loc 1 226 0 is_stmt 0 discriminator 1
 787 0390 0022     		movs	r2, #0
 788 0392 604B     		ldr	r3, .L132
 789 0394 5A70     		strb	r2, [r3, #1]
 790              	.L57:
 228:lcd_report.c  ****         
 791              		.loc 1 228 0 is_stmt 1
 792 0396 5F4B     		ldr	r3, .L132
 793 0398 93F90100 		ldrsb	r0, [r3, #1]
 794 039c FFF7FEFF 		bl	QuadDec_SetCounter
 795              	.LVL81:
 796              	.L51:
 234:lcd_report.c  ****       switch (lcd_cursor)
 797              		.loc 1 234 0
 798 03a0 0C20     		movs	r0, #12
 799 03a2 FFF7FEFF 		bl	LCD_WriteControl
 800              	.LVL82:
 235:lcd_report.c  ****       {
 801              		.loc 1 235 0
 802 03a6 5B4B     		ldr	r3, .L132
 803 03a8 93F90130 		ldrsb	r3, [r3, #1]
 804 03ac 072B     		cmp	r3, #7
 805 03ae 00F28483 		bhi	.L22
 806 03b2 DFE803F0 		tbb	[pc, r3]
 807              	.L59:
ARM GAS  C:\Users\Bart\AppData\Local\Temp\ccOIOErW.s 			page 28


 808 03b6 04       		.byte	(.L58-.L59)/2
 809 03b7 0C       		.byte	(.L60-.L59)/2
 810 03b8 14       		.byte	(.L61-.L59)/2
 811 03b9 1C       		.byte	(.L62-.L59)/2
 812 03ba 24       		.byte	(.L63-.L59)/2
 813 03bb 2C       		.byte	(.L64-.L59)/2
 814 03bc 40       		.byte	(.L65-.L59)/2
 815 03bd 54       		.byte	(.L66-.L59)/2
 816              		.p2align 1
 817              	.L58:
 238:lcd_report.c  ****         LCD_PutChar(LCD_CUSTOM_0);
 818              		.loc 1 238 0
 819 03be 0020     		movs	r0, #0
 820 03c0 0146     		mov	r1, r0
 821 03c2 FFF7FEFF 		bl	LCD_Position
 822              	.LVL83:
 239:lcd_report.c  ****        break;
 823              		.loc 1 239 0
 824 03c6 0020     		movs	r0, #0
 825 03c8 FFF7FEFF 		bl	LCD_PutChar
 826              	.LVL84:
 240:lcd_report.c  ****        case MENU_ITEM_MAIN_X_DRO:
 827              		.loc 1 240 0
 828 03cc 75E3     		b	.L22
 829              	.L60:
 242:lcd_report.c  ****         LCD_PutChar(LCD_CUSTOM_0);
 830              		.loc 1 242 0
 831 03ce 0120     		movs	r0, #1
 832 03d0 0021     		movs	r1, #0
 833 03d2 FFF7FEFF 		bl	LCD_Position
 834              	.LVL85:
 243:lcd_report.c  ****        break;
 835              		.loc 1 243 0
 836 03d6 0020     		movs	r0, #0
 837 03d8 FFF7FEFF 		bl	LCD_PutChar
 838              	.LVL86:
 244:lcd_report.c  ****        case MENU_ITEM_MAIN_Y_DRO:
 839              		.loc 1 244 0
 840 03dc 6DE3     		b	.L22
 841              	.L61:
 246:lcd_report.c  ****         LCD_PutChar(LCD_CUSTOM_0);
 842              		.loc 1 246 0
 843 03de 0220     		movs	r0, #2
 844 03e0 0021     		movs	r1, #0
 845 03e2 FFF7FEFF 		bl	LCD_Position
 846              	.LVL87:
 247:lcd_report.c  ****        break; 
 847              		.loc 1 247 0
 848 03e6 0020     		movs	r0, #0
 849 03e8 FFF7FEFF 		bl	LCD_PutChar
 850              	.LVL88:
 248:lcd_report.c  ****        case MENU_ITEM_MAIN_Z_DRO:
 851              		.loc 1 248 0
 852 03ec 65E3     		b	.L22
 853              	.L62:
 250:lcd_report.c  ****         LCD_PutChar(LCD_CUSTOM_0);
 854              		.loc 1 250 0
ARM GAS  C:\Users\Bart\AppData\Local\Temp\ccOIOErW.s 			page 29


 855 03ee 0320     		movs	r0, #3
 856 03f0 0021     		movs	r1, #0
 857 03f2 FFF7FEFF 		bl	LCD_Position
 858              	.LVL89:
 251:lcd_report.c  ****        break;
 859              		.loc 1 251 0
 860 03f6 0020     		movs	r0, #0
 861 03f8 FFF7FEFF 		bl	LCD_PutChar
 862              	.LVL90:
 252:lcd_report.c  ****        case MENU_ITEM_MAIN_UNIT:
 863              		.loc 1 252 0
 864 03fc 5DE3     		b	.L22
 865              	.L63:
 254:lcd_report.c  ****         LCD_PutChar(LCD_CUSTOM_0);
 866              		.loc 1 254 0
 867 03fe 0020     		movs	r0, #0
 868 0400 0B21     		movs	r1, #11
 869 0402 FFF7FEFF 		bl	LCD_Position
 870              	.LVL91:
 255:lcd_report.c  ****        break;
 871              		.loc 1 255 0
 872 0406 0020     		movs	r0, #0
 873 0408 FFF7FEFF 		bl	LCD_PutChar
 874              	.LVL92:
 256:lcd_report.c  ****        case MENU_ITEM_MAIN_FRO:
 875              		.loc 1 256 0
 876 040c 55E3     		b	.L22
 877              	.L64:
 258:lcd_report.c  ****         LCD_PutChar(LCD_CUSTOM_0);
 878              		.loc 1 258 0
 879 040e 0120     		movs	r0, #1
 880 0410 0B21     		movs	r1, #11
 881 0412 FFF7FEFF 		bl	LCD_Position
 882              	.LVL93:
 259:lcd_report.c  ****         if (menu_item_selected) {
 883              		.loc 1 259 0
 884 0416 0020     		movs	r0, #0
 885 0418 FFF7FEFF 		bl	LCD_PutChar
 886              	.LVL94:
 260:lcd_report.c  ****           LCD_Position(1u, 11u);
 887              		.loc 1 260 0
 888 041c 3E4B     		ldr	r3, .L132+4
 889 041e DB78     		ldrb	r3, [r3, #3]	@ zero_extendqisi2
 890 0420 002B     		cmp	r3, #0
 891 0422 00F04A83 		beq	.L22
 261:lcd_report.c  ****           LCD_WriteControl(LCD_CURSOR_WINK);
 892              		.loc 1 261 0
 893 0426 0120     		movs	r0, #1
 894 0428 0B21     		movs	r1, #11
 895 042a FFF7FEFF 		bl	LCD_Position
 896              	.LVL95:
 262:lcd_report.c  ****         }
 897              		.loc 1 262 0
 898 042e 0D20     		movs	r0, #13
 899 0430 FFF7FEFF 		bl	LCD_WriteControl
 900              	.LVL96:
 901 0434 41E3     		b	.L22
ARM GAS  C:\Users\Bart\AppData\Local\Temp\ccOIOErW.s 			page 30


 902              	.L65:
 269:lcd_report.c  ****         LCD_PutChar(LCD_CUSTOM_0);
 903              		.loc 1 269 0
 904 0436 0220     		movs	r0, #2
 905 0438 0B21     		movs	r1, #11
 906 043a FFF7FEFF 		bl	LCD_Position
 907              	.LVL97:
 270:lcd_report.c  ****         if (menu_item_selected) {
 908              		.loc 1 270 0
 909 043e 0020     		movs	r0, #0
 910 0440 FFF7FEFF 		bl	LCD_PutChar
 911              	.LVL98:
 271:lcd_report.c  ****           LCD_Position(2u, 11u);
 912              		.loc 1 271 0
 913 0444 344B     		ldr	r3, .L132+4
 914 0446 DB78     		ldrb	r3, [r3, #3]	@ zero_extendqisi2
 915 0448 002B     		cmp	r3, #0
 916 044a 00F03683 		beq	.L22
 272:lcd_report.c  ****           LCD_WriteControl(LCD_CURSOR_WINK);
 917              		.loc 1 272 0
 918 044e 0220     		movs	r0, #2
 919 0450 0B21     		movs	r1, #11
 920 0452 FFF7FEFF 		bl	LCD_Position
 921              	.LVL99:
 273:lcd_report.c  ****         }
 922              		.loc 1 273 0
 923 0456 0D20     		movs	r0, #13
 924 0458 FFF7FEFF 		bl	LCD_WriteControl
 925              	.LVL100:
 926 045c 2DE3     		b	.L22
 927              	.L66:
 281:lcd_report.c  ****         LCD_PutChar(LCD_CUSTOM_0);
 928              		.loc 1 281 0
 929 045e 0320     		movs	r0, #3
 930 0460 0B21     		movs	r1, #11
 931 0462 FFF7FEFF 		bl	LCD_Position
 932              	.LVL101:
 282:lcd_report.c  ****        break;       
 933              		.loc 1 282 0
 934 0466 0020     		movs	r0, #0
 935 0468 FFF7FEFF 		bl	LCD_PutChar
 936              	.LVL102:
 283:lcd_report.c  ****       }
 937              		.loc 1 283 0
 938 046c 25E3     		b	.L22
 939              	.L26:
 291:lcd_report.c  ****       
 940              		.loc 1 291 0
 941 046e 0722     		movs	r2, #7
 942 0470 284B     		ldr	r3, .L132
 943 0472 1A70     		strb	r2, [r3]
 293:lcd_report.c  ****         switch_clicked = false;
 944              		.loc 1 293 0
 945 0474 284B     		ldr	r3, .L132+4
 946 0476 1B78     		ldrb	r3, [r3]	@ zero_extendqisi2
 947 0478 002B     		cmp	r3, #0
 948 047a 6AD0     		beq	.L67
ARM GAS  C:\Users\Bart\AppData\Local\Temp\ccOIOErW.s 			page 31


 294:lcd_report.c  ****         switch (lcd_cursor)
 949              		.loc 1 294 0
 950 047c 0022     		movs	r2, #0
 951 047e 264B     		ldr	r3, .L132+4
 952 0480 1A70     		strb	r2, [r3]
 295:lcd_report.c  ****         {
 953              		.loc 1 295 0
 954 0482 244B     		ldr	r3, .L132
 955 0484 93F90130 		ldrsb	r3, [r3, #1]
 956 0488 072B     		cmp	r3, #7
 957 048a 5CD8     		bhi	.L68
 958 048c DFE803F0 		tbb	[pc, r3]
 959              	.L70:
 960 0490 04       		.byte	(.L69-.L70)/2
 961 0491 0D       		.byte	(.L71-.L70)/2
 962 0492 23       		.byte	(.L72-.L70)/2
 963 0493 27       		.byte	(.L73-.L70)/2
 964 0494 35       		.byte	(.L74-.L70)/2
 965 0495 39       		.byte	(.L75-.L70)/2
 966 0496 3D       		.byte	(.L76-.L70)/2
 967 0497 52       		.byte	(.L77-.L70)/2
 968              		.p2align 1
 969              	.L69:
 298:lcd_report.c  ****             lcd_cursor = 0;        
 970              		.loc 1 298 0
 971 0498 0023     		movs	r3, #0
 972 049a 1F4A     		ldr	r2, .L132+4
 973 049c 5370     		strb	r3, [r2, #1]
 299:lcd_report.c  ****             LCD_WriteControl(LCD_CLEAR_DISPLAY);
 974              		.loc 1 299 0
 975 049e 1D4A     		ldr	r2, .L132
 976 04a0 5370     		strb	r3, [r2, #1]
 300:lcd_report.c  ****           break;
 977              		.loc 1 300 0
 978 04a2 0120     		movs	r0, #1
 979 04a4 FFF7FEFF 		bl	LCD_WriteControl
 980              	.LVL103:
 301:lcd_report.c  ****             
 981              		.loc 1 301 0
 982 04a8 4DE0     		b	.L68
 983              	.L71:
 304:lcd_report.c  ****             // Block if safety door is ajar.
 984              		.loc 1 304 0
 985 04aa 1C4B     		ldr	r3, .L132+8
 986 04ac 93F84830 		ldrb	r3, [r3, #72]	@ zero_extendqisi2
 987 04b0 13F0100F 		tst	r3, #16
 988 04b4 47D0     		beq	.L68
 306:lcd_report.c  ****             sys.state = STATE_HOMING; // Set system state variable
 989              		.loc 1 306 0
 990 04b6 FFF7FEFF 		bl	system_check_safety_door_ajar
 991              	.LVL104:
 307:lcd_report.c  ****             mc_homing_cycle(HOMING_CYCLE_ALL);
 992              		.loc 1 307 0
 993 04ba 194C     		ldr	r4, .L132+12
 994 04bc 0423     		movs	r3, #4
 995 04be 2370     		strb	r3, [r4]
 308:lcd_report.c  ****             if (!sys.abort) {  // Execute startup scripts after successful homing.
ARM GAS  C:\Users\Bart\AppData\Local\Temp\ccOIOErW.s 			page 32


 996              		.loc 1 308 0
 997 04c0 0020     		movs	r0, #0
 998 04c2 FFF7FEFF 		bl	mc_homing_cycle
 999              	.LVL105:
 309:lcd_report.c  ****               sys.state = STATE_IDLE; // Set to IDLE when complete.
 1000              		.loc 1 309 0
 1001 04c6 6378     		ldrb	r3, [r4, #1]	@ zero_extendqisi2
 1002 04c8 002B     		cmp	r3, #0
 1003 04ca 3CD1     		bne	.L68
 310:lcd_report.c  ****               st_go_idle(); // Set steppers to the settings idle state before returning.
 1004              		.loc 1 310 0
 1005 04cc 0022     		movs	r2, #0
 1006 04ce 2270     		strb	r2, [r4]
 311:lcd_report.c  ****               //system_execute_startup(line); 
 1007              		.loc 1 311 0
 1008 04d0 FFF7FEFF 		bl	st_go_idle
 1009              	.LVL106:
 1010 04d4 37E0     		b	.L68
 1011              	.L72:
 318:lcd_report.c  ****           break;
 1012              		.loc 1 318 0
 1013 04d6 1348     		ldr	r0, .L132+16
 1014 04d8 FFF7FEFF 		bl	lcd_menu_execute
 1015              	.LVL107:
 319:lcd_report.c  ****             
 1016              		.loc 1 319 0
 1017 04dc 33E0     		b	.L68
 1018              	.L73:
 322:lcd_report.c  ****             lcd_cursor_max = 4;
 1019              		.loc 1 322 0
 1020 04de 0222     		movs	r2, #2
 1021 04e0 0D4B     		ldr	r3, .L132+4
 1022 04e2 5A70     		strb	r2, [r3, #1]
 323:lcd_report.c  ****             lcd_cursor = 0;
 1023              		.loc 1 323 0
 1024 04e4 0B4B     		ldr	r3, .L132
 1025 04e6 0422     		movs	r2, #4
 1026 04e8 1A70     		strb	r2, [r3]
 324:lcd_report.c  ****             QuadDec_SetCounter(lcd_cursor);
 1027              		.loc 1 324 0
 1028 04ea 0020     		movs	r0, #0
 1029 04ec 5870     		strb	r0, [r3, #1]
 325:lcd_report.c  ****             LCD_WriteControl(LCD_CLEAR_DISPLAY);
 1030              		.loc 1 325 0
 1031 04ee FFF7FEFF 		bl	QuadDec_SetCounter
 1032              	.LVL108:
 326:lcd_report.c  ****           break;  
 1033              		.loc 1 326 0
 1034 04f2 0120     		movs	r0, #1
 1035 04f4 FFF7FEFF 		bl	LCD_WriteControl
 1036              	.LVL109:
 327:lcd_report.c  ****             
 1037              		.loc 1 327 0
 1038 04f8 25E0     		b	.L68
 1039              	.L74:
 330:lcd_report.c  ****           break;
 1040              		.loc 1 330 0
ARM GAS  C:\Users\Bart\AppData\Local\Temp\ccOIOErW.s 			page 33


 1041 04fa 0B48     		ldr	r0, .L132+20
 1042 04fc FFF7FEFF 		bl	lcd_menu_execute
 1043              	.LVL110:
 331:lcd_report.c  ****             
 1044              		.loc 1 331 0
 1045 0500 21E0     		b	.L68
 1046              	.L75:
 334:lcd_report.c  ****           break;
 1047              		.loc 1 334 0
 1048 0502 0A48     		ldr	r0, .L132+24
 1049 0504 FFF7FEFF 		bl	lcd_menu_execute
 1050              	.LVL111:
 335:lcd_report.c  ****             
 1051              		.loc 1 335 0
 1052 0508 1DE0     		b	.L68
 1053              	.L76:
 338:lcd_report.c  ****           break;
 1054              		.loc 1 338 0
 1055 050a 0948     		ldr	r0, .L132+28
 1056 050c FFF7FEFF 		bl	lcd_menu_execute
 1057              	.LVL112:
 339:lcd_report.c  ****             
 1058              		.loc 1 339 0
 1059 0510 19E0     		b	.L68
 1060              	.L133:
 1061 0512 00BF     		.align	2
 1062              	.L132:
 1063 0514 00000000 		.word	.LANCHOR1
 1064 0518 00000000 		.word	.LANCHOR0
 1065 051c 00000000 		.word	settings
 1066 0520 00000000 		.word	sys
 1067 0524 64000000 		.word	.LC17
 1068 0528 70000000 		.word	.LC18
 1069 052c 78000000 		.word	.LC19
 1070 0530 7C000000 		.word	.LC20
 1071              	.L77:
 342:lcd_report.c  ****             lcd_cursor = 0;        
 1072              		.loc 1 342 0
 1073 0534 0322     		movs	r2, #3
 1074 0536 AD4B     		ldr	r3, .L134
 1075 0538 5A70     		strb	r2, [r3, #1]
 343:lcd_report.c  ****             LCD_WriteControl(LCD_CLEAR_DISPLAY);
 1076              		.loc 1 343 0
 1077 053a 0022     		movs	r2, #0
 1078 053c AC4B     		ldr	r3, .L134+4
 1079 053e 5A70     		strb	r2, [r3, #1]
 344:lcd_report.c  ****           break;  
 1080              		.loc 1 344 0
 1081 0540 0120     		movs	r0, #1
 1082 0542 FFF7FEFF 		bl	LCD_WriteControl
 1083              	.LVL113:
 1084              	.L68:
 349:lcd_report.c  ****       }
 1085              		.loc 1 349 0
 1086 0546 A94B     		ldr	r3, .L134
 1087 0548 93F90130 		ldrsb	r3, [r3, #1]
 1088 054c 012B     		cmp	r3, #1
ARM GAS  C:\Users\Bart\AppData\Local\Temp\ccOIOErW.s 			page 34


 1089 054e 40F0B482 		bne	.L22
 1090              	.L67:
 352:lcd_report.c  ****       LCD_PrintString(" Back ");
 1091              		.loc 1 352 0
 1092 0552 0020     		movs	r0, #0
 1093 0554 0146     		mov	r1, r0
 1094 0556 FFF7FEFF 		bl	LCD_Position
 1095              	.LVL114:
 353:lcd_report.c  ****       LCD_PutChar(LCD_CUSTOM_3);
 1096              		.loc 1 353 0
 1097 055a A648     		ldr	r0, .L134+8
 1098 055c FFF7FEFF 		bl	LCD_PrintString
 1099              	.LVL115:
 354:lcd_report.c  ****       LCD_Position(1u, 0u);
 1100              		.loc 1 354 0
 1101 0560 0320     		movs	r0, #3
 1102 0562 FFF7FEFF 		bl	LCD_PutChar
 1103              	.LVL116:
 355:lcd_report.c  ****       LCD_PrintString(" Home Axes");
 1104              		.loc 1 355 0
 1105 0566 0120     		movs	r0, #1
 1106 0568 0021     		movs	r1, #0
 1107 056a FFF7FEFF 		bl	LCD_Position
 1108              	.LVL117:
 356:lcd_report.c  ****       LCD_Position(2u, 0u);
 1109              		.loc 1 356 0
 1110 056e A248     		ldr	r0, .L134+12
 1111 0570 FFF7FEFF 		bl	LCD_PrintString
 1112              	.LVL118:
 357:lcd_report.c  ****       LCD_PrintString(" Top of Z");
 1113              		.loc 1 357 0
 1114 0574 0220     		movs	r0, #2
 1115 0576 0021     		movs	r1, #0
 1116 0578 FFF7FEFF 		bl	LCD_Position
 1117              	.LVL119:
 358:lcd_report.c  ****       LCD_Position(3u, 0u);
 1118              		.loc 1 358 0
 1119 057c 9F48     		ldr	r0, .L134+16
 1120 057e FFF7FEFF 		bl	LCD_PrintString
 1121              	.LVL120:
 359:lcd_report.c  ****       LCD_PrintString(" Z Probe ");
 1122              		.loc 1 359 0
 1123 0582 0320     		movs	r0, #3
 1124 0584 0021     		movs	r1, #0
 1125 0586 FFF7FEFF 		bl	LCD_Position
 1126              	.LVL121:
 360:lcd_report.c  ****       LCD_PutChar(LCD_CUSTOM_2);
 1127              		.loc 1 360 0
 1128 058a 9D48     		ldr	r0, .L134+20
 1129 058c FFF7FEFF 		bl	LCD_PrintString
 1130              	.LVL122:
 361:lcd_report.c  ****       
 1131              		.loc 1 361 0
 1132 0590 0220     		movs	r0, #2
 1133 0592 FFF7FEFF 		bl	LCD_PutChar
 1134              	.LVL123:
 363:lcd_report.c  ****       LCD_PrintString(" Goto 0,0");
ARM GAS  C:\Users\Bart\AppData\Local\Temp\ccOIOErW.s 			page 35


 1135              		.loc 1 363 0
 1136 0596 0020     		movs	r0, #0
 1137 0598 0B21     		movs	r1, #11
 1138 059a FFF7FEFF 		bl	LCD_Position
 1139              	.LVL124:
 364:lcd_report.c  ****       LCD_Position(1u, 11u);
 1140              		.loc 1 364 0
 1141 059e 9948     		ldr	r0, .L134+24
 1142 05a0 FFF7FEFF 		bl	LCD_PrintString
 1143              	.LVL125:
 365:lcd_report.c  ****       LCD_PrintString(" Goto G28");
 1144              		.loc 1 365 0
 1145 05a4 0120     		movs	r0, #1
 1146 05a6 0B21     		movs	r1, #11
 1147 05a8 FFF7FEFF 		bl	LCD_Position
 1148              	.LVL126:
 366:lcd_report.c  ****       LCD_Position(2u, 11u);
 1149              		.loc 1 366 0
 1150 05ac 9648     		ldr	r0, .L134+28
 1151 05ae FFF7FEFF 		bl	LCD_PrintString
 1152              	.LVL127:
 367:lcd_report.c  ****       LCD_PrintString(" Goto G30");
 1153              		.loc 1 367 0
 1154 05b2 0220     		movs	r0, #2
 1155 05b4 0B21     		movs	r1, #11
 1156 05b6 FFF7FEFF 		bl	LCD_Position
 1157              	.LVL128:
 368:lcd_report.c  ****       LCD_Position(3u, 11u);
 1158              		.loc 1 368 0
 1159 05ba 9448     		ldr	r0, .L134+32
 1160 05bc FFF7FEFF 		bl	LCD_PrintString
 1161              	.LVL129:
 369:lcd_report.c  ****       LCD_PrintString(" SdCard ");
 1162              		.loc 1 369 0
 1163 05c0 0320     		movs	r0, #3
 1164 05c2 0B21     		movs	r1, #11
 1165 05c4 FFF7FEFF 		bl	LCD_Position
 1166              	.LVL130:
 370:lcd_report.c  ****       LCD_PutChar(LCD_CUSTOM_2);
 1167              		.loc 1 370 0
 1168 05c8 9148     		ldr	r0, .L134+36
 1169 05ca FFF7FEFF 		bl	LCD_PrintString
 1170              	.LVL131:
 371:lcd_report.c  ****         
 1171              		.loc 1 371 0
 1172 05ce 0220     		movs	r0, #2
 1173 05d0 FFF7FEFF 		bl	LCD_PutChar
 1174              	.LVL132:
 373:lcd_report.c  ****       }
 1175              		.loc 1 373 0
 1176 05d4 854B     		ldr	r3, .L134
 1177 05d6 DB78     		ldrb	r3, [r3, #3]	@ zero_extendqisi2
 1178 05d8 C3B9     		cbnz	r3, .L78
 376:lcd_report.c  ****         if  (lcd_cursor > lcd_cursor_max) lcd_cursor = lcd_cursor_max;
 1179              		.loc 1 376 0
 1180 05da FFF7FEFF 		bl	QuadDec_GetCounter
 1181              	.LVL133:
ARM GAS  C:\Users\Bart\AppData\Local\Temp\ccOIOErW.s 			page 36


 1182 05de C0B2     		uxtb	r0, r0
 1183 05e0 834B     		ldr	r3, .L134+4
 1184 05e2 5870     		strb	r0, [r3, #1]
 377:lcd_report.c  ****         if  (lcd_cursor < 0) lcd_cursor = 0;
 1185              		.loc 1 377 0
 1186 05e4 1B78     		ldrb	r3, [r3]	@ zero_extendqisi2
 1187 05e6 40B2     		sxtb	r0, r0
 1188 05e8 5AB2     		sxtb	r2, r3
 1189 05ea 9042     		cmp	r0, r2
 1190 05ec 01DD     		ble	.L79
 377:lcd_report.c  ****         if  (lcd_cursor < 0) lcd_cursor = 0;
 1191              		.loc 1 377 0 is_stmt 0 discriminator 1
 1192 05ee 804A     		ldr	r2, .L134+4
 1193 05f0 5370     		strb	r3, [r2, #1]
 1194              	.L79:
 378:lcd_report.c  ****         
 1195              		.loc 1 378 0 is_stmt 1
 1196 05f2 7F4B     		ldr	r3, .L134+4
 1197 05f4 93F90130 		ldrsb	r3, [r3, #1]
 1198 05f8 002B     		cmp	r3, #0
 1199 05fa 02DA     		bge	.L80
 378:lcd_report.c  ****         
 1200              		.loc 1 378 0 is_stmt 0 discriminator 1
 1201 05fc 0022     		movs	r2, #0
 1202 05fe 7C4B     		ldr	r3, .L134+4
 1203 0600 5A70     		strb	r2, [r3, #1]
 1204              	.L80:
 380:lcd_report.c  ****         
 1205              		.loc 1 380 0 is_stmt 1
 1206 0602 7B4B     		ldr	r3, .L134+4
 1207 0604 93F90100 		ldrsb	r0, [r3, #1]
 1208 0608 FFF7FEFF 		bl	QuadDec_SetCounter
 1209              	.LVL134:
 1210              	.L78:
 384:lcd_report.c  ****       {
 1211              		.loc 1 384 0
 1212 060c 784B     		ldr	r3, .L134+4
 1213 060e 93F90130 		ldrsb	r3, [r3, #1]
 1214 0612 072B     		cmp	r3, #7
 1215 0614 00F25182 		bhi	.L22
 1216 0618 DFE803F0 		tbb	[pc, r3]
 1217              	.L82:
 1218 061c 04       		.byte	(.L81-.L82)/2
 1219 061d 0C       		.byte	(.L83-.L82)/2
 1220 061e 14       		.byte	(.L84-.L82)/2
 1221 061f 1C       		.byte	(.L85-.L82)/2
 1222 0620 24       		.byte	(.L86-.L82)/2
 1223 0621 2C       		.byte	(.L87-.L82)/2
 1224 0622 34       		.byte	(.L88-.L82)/2
 1225 0623 3C       		.byte	(.L89-.L82)/2
 1226              		.p2align 1
 1227              	.L81:
 387:lcd_report.c  ****         LCD_PutChar(LCD_CUSTOM_0);
 1228              		.loc 1 387 0
 1229 0624 0020     		movs	r0, #0
 1230 0626 0146     		mov	r1, r0
 1231 0628 FFF7FEFF 		bl	LCD_Position
ARM GAS  C:\Users\Bart\AppData\Local\Temp\ccOIOErW.s 			page 37


 1232              	.LVL135:
 388:lcd_report.c  ****        break;
 1233              		.loc 1 388 0
 1234 062c 0020     		movs	r0, #0
 1235 062e FFF7FEFF 		bl	LCD_PutChar
 1236              	.LVL136:
 389:lcd_report.c  ****        case 1:
 1237              		.loc 1 389 0
 1238 0632 42E2     		b	.L22
 1239              	.L83:
 391:lcd_report.c  ****         LCD_PutChar(LCD_CUSTOM_0);
 1240              		.loc 1 391 0
 1241 0634 0120     		movs	r0, #1
 1242 0636 0021     		movs	r1, #0
 1243 0638 FFF7FEFF 		bl	LCD_Position
 1244              	.LVL137:
 392:lcd_report.c  ****        break; 
 1245              		.loc 1 392 0
 1246 063c 0020     		movs	r0, #0
 1247 063e FFF7FEFF 		bl	LCD_PutChar
 1248              	.LVL138:
 393:lcd_report.c  ****        case 2:
 1249              		.loc 1 393 0
 1250 0642 3AE2     		b	.L22
 1251              	.L84:
 395:lcd_report.c  ****         LCD_PutChar(LCD_CUSTOM_0);
 1252              		.loc 1 395 0
 1253 0644 0220     		movs	r0, #2
 1254 0646 0021     		movs	r1, #0
 1255 0648 FFF7FEFF 		bl	LCD_Position
 1256              	.LVL139:
 396:lcd_report.c  ****        break;
 1257              		.loc 1 396 0
 1258 064c 0020     		movs	r0, #0
 1259 064e FFF7FEFF 		bl	LCD_PutChar
 1260              	.LVL140:
 397:lcd_report.c  ****        case 3:
 1261              		.loc 1 397 0
 1262 0652 32E2     		b	.L22
 1263              	.L85:
 399:lcd_report.c  ****         LCD_PutChar(LCD_CUSTOM_0);
 1264              		.loc 1 399 0
 1265 0654 0320     		movs	r0, #3
 1266 0656 0021     		movs	r1, #0
 1267 0658 FFF7FEFF 		bl	LCD_Position
 1268              	.LVL141:
 400:lcd_report.c  ****        break;
 1269              		.loc 1 400 0
 1270 065c 0020     		movs	r0, #0
 1271 065e FFF7FEFF 		bl	LCD_PutChar
 1272              	.LVL142:
 401:lcd_report.c  ****        case 4:
 1273              		.loc 1 401 0
 1274 0662 2AE2     		b	.L22
 1275              	.L86:
 403:lcd_report.c  ****         LCD_PutChar(LCD_CUSTOM_0);
 1276              		.loc 1 403 0
ARM GAS  C:\Users\Bart\AppData\Local\Temp\ccOIOErW.s 			page 38


 1277 0664 0020     		movs	r0, #0
 1278 0666 0B21     		movs	r1, #11
 1279 0668 FFF7FEFF 		bl	LCD_Position
 1280              	.LVL143:
 404:lcd_report.c  ****        break;
 1281              		.loc 1 404 0
 1282 066c 0020     		movs	r0, #0
 1283 066e FFF7FEFF 		bl	LCD_PutChar
 1284              	.LVL144:
 405:lcd_report.c  ****        case 5:
 1285              		.loc 1 405 0
 1286 0672 22E2     		b	.L22
 1287              	.L87:
 407:lcd_report.c  ****         LCD_PutChar(LCD_CUSTOM_0);
 1288              		.loc 1 407 0
 1289 0674 0120     		movs	r0, #1
 1290 0676 0B21     		movs	r1, #11
 1291 0678 FFF7FEFF 		bl	LCD_Position
 1292              	.LVL145:
 408:lcd_report.c  ****        break;
 1293              		.loc 1 408 0
 1294 067c 0020     		movs	r0, #0
 1295 067e FFF7FEFF 		bl	LCD_PutChar
 1296              	.LVL146:
 409:lcd_report.c  ****        case 6:
 1297              		.loc 1 409 0
 1298 0682 1AE2     		b	.L22
 1299              	.L88:
 411:lcd_report.c  ****         LCD_PutChar(LCD_CUSTOM_0);
 1300              		.loc 1 411 0
 1301 0684 0220     		movs	r0, #2
 1302 0686 0B21     		movs	r1, #11
 1303 0688 FFF7FEFF 		bl	LCD_Position
 1304              	.LVL147:
 412:lcd_report.c  ****        break;
 1305              		.loc 1 412 0
 1306 068c 0020     		movs	r0, #0
 1307 068e FFF7FEFF 		bl	LCD_PutChar
 1308              	.LVL148:
 413:lcd_report.c  ****         case 7:
 1309              		.loc 1 413 0
 1310 0692 12E2     		b	.L22
 1311              	.L89:
 415:lcd_report.c  ****         LCD_PutChar(LCD_CUSTOM_0);
 1312              		.loc 1 415 0
 1313 0694 0320     		movs	r0, #3
 1314 0696 0B21     		movs	r1, #11
 1315 0698 FFF7FEFF 		bl	LCD_Position
 1316              	.LVL149:
 416:lcd_report.c  ****        break; 
 1317              		.loc 1 416 0
 1318 069c 0020     		movs	r0, #0
 1319 069e FFF7FEFF 		bl	LCD_PutChar
 1320              	.LVL150:
 417:lcd_report.c  ****       }
 1321              		.loc 1 417 0
 1322 06a2 0AE2     		b	.L22
ARM GAS  C:\Users\Bart\AppData\Local\Temp\ccOIOErW.s 			page 39


 1323              	.L27:
 424:lcd_report.c  ****         switch_clicked = false;
 1324              		.loc 1 424 0
 1325 06a4 514B     		ldr	r3, .L134
 1326 06a6 1B78     		ldrb	r3, [r3]	@ zero_extendqisi2
 1327 06a8 002B     		cmp	r3, #0
 1328 06aa 00F0CE80 		beq	.L90
 425:lcd_report.c  ****         switch (lcd_cursor)
 1329              		.loc 1 425 0
 1330 06ae 0022     		movs	r2, #0
 1331 06b0 4E4B     		ldr	r3, .L134
 1332 06b2 1A70     		strb	r2, [r3]
 426:lcd_report.c  ****         {
 1333              		.loc 1 426 0
 1334 06b4 4E4B     		ldr	r3, .L134+4
 1335 06b6 5878     		ldrb	r0, [r3, #1]	@ zero_extendqisi2
 1336 06b8 43B2     		sxtb	r3, r0
 1337 06ba 042B     		cmp	r3, #4
 1338 06bc 00F2BF80 		bhi	.L91
 1339 06c0 DFE803F0 		tbb	[pc, r3]
 1340              	.L93:
 1341 06c4 03       		.byte	(.L92-.L93)/2
 1342 06c5 09       		.byte	(.L94-.L93)/2
 1343 06c6 5C       		.byte	(.L95-.L93)/2
 1344 06c7 73       		.byte	(.L96-.L93)/2
 1345 06c8 85       		.byte	(.L97-.L93)/2
 1346 06c9 00       		.p2align 1
 1347              	.L92:
 429:lcd_report.c  ****             LCD_WriteControl(LCD_CLEAR_DISPLAY);
 1348              		.loc 1 429 0
 1349 06ca 0120     		movs	r0, #1
 1350 06cc 474B     		ldr	r3, .L134
 1351 06ce 5870     		strb	r0, [r3, #1]
 430:lcd_report.c  ****           break;
 1352              		.loc 1 430 0
 1353 06d0 FFF7FEFF 		bl	LCD_WriteControl
 1354              	.LVL151:
 431:lcd_report.c  ****             
 1355              		.loc 1 431 0
 1356 06d4 B3E0     		b	.L91
 1357              	.L94:
 434:lcd_report.c  ****             lcd_screen = MAIN_SCREEN;
 1358              		.loc 1 434 0
 1359 06d6 0120     		movs	r0, #1
 1360 06d8 FFF7FEFF 		bl	LCD_WriteControl
 1361              	.LVL152:
 435:lcd_report.c  ****             strcpy(line, "G91G38.2Z-");
 1362              		.loc 1 435 0
 1363 06dc 0025     		movs	r5, #0
 1364 06de 434B     		ldr	r3, .L134
 1365 06e0 5D70     		strb	r5, [r3, #1]
 436:lcd_report.c  ****             sprintf(fstr, "%d", lcd_probe_dist);
 1366              		.loc 1 436 0
 1367 06e2 09AC     		add	r4, sp, #36
 1368 06e4 4B4A     		ldr	r2, .L134+40
 1369 06e6 2346     		mov	r3, r4
 1370 06e8 07CA     		ldmia	r2, {r0, r1, r2}
ARM GAS  C:\Users\Bart\AppData\Local\Temp\ccOIOErW.s 			page 40


 1371 06ea 03C3     		stmia	r3!, {r0, r1}
 1372 06ec 23F8022B 		strh	r2, [r3], #2	@ movhi
 1373 06f0 120C     		lsrs	r2, r2, #16
 1374 06f2 1A70     		strb	r2, [r3]
 437:lcd_report.c  ****             strcat(line, fstr);
 1375              		.loc 1 437 0
 1376 06f4 484F     		ldr	r7, .L134+44
 1377 06f6 3E4E     		ldr	r6, .L134+4
 1378 06f8 0EA8     		add	r0, sp, #56
 1379 06fa 3946     		mov	r1, r7
 1380 06fc B6F90620 		ldrsh	r2, [r6, #6]
 1381 0700 FFF7FEFF 		bl	sprintf
 1382              	.LVL153:
 438:lcd_report.c  ****             strcat(line, "F");
 1383              		.loc 1 438 0
 1384 0704 2046     		mov	r0, r4
 1385 0706 0EA9     		add	r1, sp, #56
 1386 0708 FFF7FEFF 		bl	strcat
 1387              	.LVL154:
 439:lcd_report.c  ****             sprintf(fstr, "%d", lcd_probe_rate);
 1388              		.loc 1 439 0
 1389 070c 2046     		mov	r0, r4
 1390 070e FFF7FEFF 		bl	strlen
 1391              	.LVL155:
 1392 0712 424B     		ldr	r3, .L134+48
 1393 0714 1B88     		ldrh	r3, [r3]	@ unaligned
 1394 0716 2352     		strh	r3, [r4, r0]	@ unaligned
 440:lcd_report.c  ****             strcat(line, fstr);
 1395              		.loc 1 440 0
 1396 0718 0EA8     		add	r0, sp, #56
 1397 071a 3946     		mov	r1, r7
 1398 071c B6F90820 		ldrsh	r2, [r6, #8]
 1399 0720 FFF7FEFF 		bl	sprintf
 1400              	.LVL156:
 441:lcd_report.c  ****             gc_execute_line(line);
 1401              		.loc 1 441 0
 1402 0724 2046     		mov	r0, r4
 1403 0726 0EA9     		add	r1, sp, #56
 1404 0728 FFF7FEFF 		bl	strcat
 1405              	.LVL157:
 442:lcd_report.c  ****             LCD_Position(3u, 0u);
 1406              		.loc 1 442 0
 1407 072c 2046     		mov	r0, r4
 1408 072e FFF7FEFF 		bl	gc_execute_line
 1409              	.LVL158:
 443:lcd_report.c  ****             if (sys.probe_succeeded == false) {
 1410              		.loc 1 443 0
 1411 0732 0320     		movs	r0, #3
 1412 0734 2946     		mov	r1, r5
 1413 0736 FFF7FEFF 		bl	LCD_Position
 1414              	.LVL159:
 444:lcd_report.c  ****               // TO DO Not sure if this works
 1415              		.loc 1 444 0
 1416 073a 394B     		ldr	r3, .L134+52
 1417 073c 5B79     		ldrb	r3, [r3, #5]	@ zero_extendqisi2
 1418 073e 1BB9     		cbnz	r3, .L98
 446:lcd_report.c  ****             }
ARM GAS  C:\Users\Bart\AppData\Local\Temp\ccOIOErW.s 			page 41


 1419              		.loc 1 446 0
 1420 0740 3848     		ldr	r0, .L134+56
 1421 0742 FFF7FEFF 		bl	LCD_PrintString
 1422              	.LVL160:
 1423 0746 7AE0     		b	.L91
 1424              	.L98:
 450:lcd_report.c  ****               sprintf(fstr, "%2.2f", lcd_probe_thickness);
 1425              		.loc 1 450 0
 1426 0748 3748     		ldr	r0, .L134+60
 1427 074a FFF7FEFF 		bl	LCD_PrintString
 1428              	.LVL161:
 451:lcd_report.c  ****               strcpy(line, "G10L20P0Z");
 1429              		.loc 1 451 0
 1430 074e 284B     		ldr	r3, .L134+4
 1431 0750 D868     		ldr	r0, [r3, #12]	@ float
 1432 0752 FFF7FEFF 		bl	__aeabi_f2d
 1433              	.LVL162:
 1434 0756 0246     		mov	r2, r0
 1435 0758 0B46     		mov	r3, r1
 1436 075a 0EA8     		add	r0, sp, #56
 1437 075c 3349     		ldr	r1, .L134+64
 1438 075e FFF7FEFF 		bl	sprintf
 1439              	.LVL163:
 452:lcd_report.c  ****               strcat(line, fstr);
 1440              		.loc 1 452 0
 1441 0762 334A     		ldr	r2, .L134+68
 1442 0764 09AB     		add	r3, sp, #36
 1443 0766 07CA     		ldmia	r2, {r0, r1, r2}
 1444 0768 03C3     		stmia	r3!, {r0, r1}
 1445 076a 1A80     		strh	r2, [r3]	@ movhi
 453:lcd_report.c  ****               gc_execute_line(line);
 1446              		.loc 1 453 0
 1447 076c 09A8     		add	r0, sp, #36
 1448 076e 0EA9     		add	r1, sp, #56
 1449 0770 FFF7FEFF 		bl	strcat
 1450              	.LVL164:
 454:lcd_report.c  ****               
 1451              		.loc 1 454 0
 1452 0774 09A8     		add	r0, sp, #36
 1453 0776 FFF7FEFF 		bl	gc_execute_line
 1454              	.LVL165:
 1455 077a 60E0     		b	.L91
 1456              	.L95:
 460:lcd_report.c  ****             if (menu_item_selected)
 1457              		.loc 1 460 0
 1458 077c 1B4A     		ldr	r2, .L134
 1459 077e 92F90330 		ldrsb	r3, [r2, #3]
 1460 0782 B3FA83F3 		clz	r3, r3
 1461 0786 5B09     		lsrs	r3, r3, #5
 1462 0788 D370     		strb	r3, [r2, #3]
 461:lcd_report.c  ****                 QuadDec_SetCounter(lcd_probe_thickness * LCD_PROBE_MULT);
 1463              		.loc 1 461 0
 1464 078a 53B1     		cbz	r3, .L99
 462:lcd_report.c  ****               else
 1465              		.loc 1 462 0
 1466 078c 184B     		ldr	r3, .L134+4
 1467 078e D868     		ldr	r0, [r3, #12]	@ float
ARM GAS  C:\Users\Bart\AppData\Local\Temp\ccOIOErW.s 			page 42


 1468 0790 2849     		ldr	r1, .L134+72
 1469 0792 FFF7FEFF 		bl	__aeabi_fmul
 1470              	.LVL166:
 1471 0796 FFF7FEFF 		bl	__aeabi_f2iz
 1472              	.LVL167:
 1473 079a 00B2     		sxth	r0, r0
 1474 079c FFF7FEFF 		bl	QuadDec_SetCounter
 1475              	.LVL168:
 1476 07a0 4DE0     		b	.L91
 1477              	.L99:
 464:lcd_report.c  ****           break;  
 1478              		.loc 1 464 0
 1479 07a2 40B2     		sxtb	r0, r0
 1480 07a4 FFF7FEFF 		bl	QuadDec_SetCounter
 1481              	.LVL169:
 1482 07a8 49E0     		b	.L91
 1483              	.L96:
 468:lcd_report.c  ****             if (menu_item_selected)
 1484              		.loc 1 468 0
 1485 07aa 104A     		ldr	r2, .L134
 1486 07ac 92F90330 		ldrsb	r3, [r2, #3]
 1487 07b0 B3FA83F3 		clz	r3, r3
 1488 07b4 5B09     		lsrs	r3, r3, #5
 1489 07b6 D370     		strb	r3, [r2, #3]
 469:lcd_report.c  ****                 QuadDec_SetCounter(lcd_probe_rate);
 1490              		.loc 1 469 0
 1491 07b8 2BB1     		cbz	r3, .L100
 470:lcd_report.c  ****               else
 1492              		.loc 1 470 0
 1493 07ba 0D4B     		ldr	r3, .L134+4
 1494 07bc B3F90800 		ldrsh	r0, [r3, #8]
 1495 07c0 FFF7FEFF 		bl	QuadDec_SetCounter
 1496              	.LVL170:
 1497 07c4 3BE0     		b	.L91
 1498              	.L100:
 472:lcd_report.c  ****           break;
 1499              		.loc 1 472 0
 1500 07c6 40B2     		sxtb	r0, r0
 1501 07c8 FFF7FEFF 		bl	QuadDec_SetCounter
 1502              	.LVL171:
 1503 07cc 37E0     		b	.L91
 1504              	.L97:
 476:lcd_report.c  ****             if (menu_item_selected)
 1505              		.loc 1 476 0
 1506 07ce 074A     		ldr	r2, .L134
 1507 07d0 92F90330 		ldrsb	r3, [r2, #3]
 1508 07d4 B3FA83F3 		clz	r3, r3
 1509 07d8 5B09     		lsrs	r3, r3, #5
 1510 07da D370     		strb	r3, [r2, #3]
 477:lcd_report.c  ****                 QuadDec_SetCounter(lcd_probe_dist);
 1511              		.loc 1 477 0
 1512 07dc 63B3     		cbz	r3, .L101
 478:lcd_report.c  ****               else
 1513              		.loc 1 478 0
 1514 07de 044B     		ldr	r3, .L134+4
 1515 07e0 B3F90600 		ldrsh	r0, [r3, #6]
 1516 07e4 FFF7FEFF 		bl	QuadDec_SetCounter
ARM GAS  C:\Users\Bart\AppData\Local\Temp\ccOIOErW.s 			page 43


 1517              	.LVL172:
 1518 07e8 29E0     		b	.L91
 1519              	.L135:
 1520 07ea 00BF     		.align	2
 1521              	.L134:
 1522 07ec 00000000 		.word	.LANCHOR0
 1523 07f0 00000000 		.word	.LANCHOR1
 1524 07f4 80000000 		.word	.LC21
 1525 07f8 88000000 		.word	.LC22
 1526 07fc 94000000 		.word	.LC23
 1527 0800 A0000000 		.word	.LC24
 1528 0804 AC000000 		.word	.LC25
 1529 0808 B8000000 		.word	.LC26
 1530 080c C4000000 		.word	.LC27
 1531 0810 D0000000 		.word	.LC28
 1532 0814 DC000000 		.word	.LC29
 1533 0818 E8000000 		.word	.LC30
 1534 081c EC000000 		.word	.LC31
 1535 0820 00000000 		.word	sys
 1536 0824 F0000000 		.word	.LC32
 1537 0828 F8000000 		.word	.LC33
 1538 082c 00010000 		.word	.LC34
 1539 0830 08010000 		.word	.LC35
 1540 0834 0000C842 		.word	1120403456
 1541              	.L101:
 480:lcd_report.c  ****           break;            
 1542              		.loc 1 480 0
 1543 0838 40B2     		sxtb	r0, r0
 1544 083a FFF7FEFF 		bl	QuadDec_SetCounter
 1545              	.LVL173:
 1546              	.L91:
 483:lcd_report.c  ****       }
 1547              		.loc 1 483 0
 1548 083e A04B     		ldr	r3, .L136
 1549 0840 93F90130 		ldrsb	r3, [r3, #1]
 1550 0844 022B     		cmp	r3, #2
 1551 0846 40F03881 		bne	.L22
 1552              	.L90:
 486:lcd_report.c  ****       LCD_PrintString(" Back ");
 1553              		.loc 1 486 0
 1554 084a 0020     		movs	r0, #0
 1555 084c 0146     		mov	r1, r0
 1556 084e FFF7FEFF 		bl	LCD_Position
 1557              	.LVL174:
 487:lcd_report.c  ****       LCD_PutChar(LCD_CUSTOM_3);
 1558              		.loc 1 487 0
 1559 0852 9C48     		ldr	r0, .L136+4
 1560 0854 FFF7FEFF 		bl	LCD_PrintString
 1561              	.LVL175:
 488:lcd_report.c  ****       
 1562              		.loc 1 488 0
 1563 0858 0320     		movs	r0, #3
 1564 085a FFF7FEFF 		bl	LCD_PutChar
 1565              	.LVL176:
 490:lcd_report.c  ****       LCD_PrintString(" Begin Probe"); 
 1566              		.loc 1 490 0
 1567 085e 0020     		movs	r0, #0
ARM GAS  C:\Users\Bart\AppData\Local\Temp\ccOIOErW.s 			page 44


 1568 0860 0821     		movs	r1, #8
 1569 0862 FFF7FEFF 		bl	LCD_Position
 1570              	.LVL177:
 491:lcd_report.c  ****       
 1571              		.loc 1 491 0
 1572 0866 9848     		ldr	r0, .L136+8
 1573 0868 FFF7FEFF 		bl	LCD_PrintString
 1574              	.LVL178:
 493:lcd_report.c  ****       LCD_PrintString(" Thick:");
 1575              		.loc 1 493 0
 1576 086c 0120     		movs	r0, #1
 1577 086e 0821     		movs	r1, #8
 1578 0870 FFF7FEFF 		bl	LCD_Position
 1579              	.LVL179:
 494:lcd_report.c  ****       sprintf(fstr, "%2.2f", lcd_probe_thickness ); 
 1580              		.loc 1 494 0
 1581 0874 9548     		ldr	r0, .L136+12
 1582 0876 FFF7FEFF 		bl	LCD_PrintString
 1583              	.LVL180:
 495:lcd_report.c  ****       LCD_PrintString(fstr);
 1584              		.loc 1 495 0
 1585 087a 954C     		ldr	r4, .L136+16
 1586 087c E068     		ldr	r0, [r4, #12]	@ float
 1587 087e FFF7FEFF 		bl	__aeabi_f2d
 1588              	.LVL181:
 1589 0882 0246     		mov	r2, r0
 1590 0884 0B46     		mov	r3, r1
 1591 0886 0EA8     		add	r0, sp, #56
 1592 0888 9249     		ldr	r1, .L136+20
 1593 088a FFF7FEFF 		bl	sprintf
 1594              	.LVL182:
 496:lcd_report.c  ****       
 1595              		.loc 1 496 0
 1596 088e 0EA8     		add	r0, sp, #56
 1597 0890 FFF7FEFF 		bl	LCD_PrintString
 1598              	.LVL183:
 498:lcd_report.c  ****       LCD_PrintString(" Rate:");
 1599              		.loc 1 498 0
 1600 0894 0220     		movs	r0, #2
 1601 0896 0821     		movs	r1, #8
 1602 0898 FFF7FEFF 		bl	LCD_Position
 1603              	.LVL184:
 499:lcd_report.c  ****       sprintf(fstr, "%6d", lcd_probe_rate ); 
 1604              		.loc 1 499 0
 1605 089c 8E48     		ldr	r0, .L136+24
 1606 089e FFF7FEFF 		bl	LCD_PrintString
 1607              	.LVL185:
 500:lcd_report.c  ****       LCD_PrintString(fstr);
 1608              		.loc 1 500 0
 1609 08a2 8E4D     		ldr	r5, .L136+28
 1610 08a4 0EA8     		add	r0, sp, #56
 1611 08a6 2946     		mov	r1, r5
 1612 08a8 B4F90820 		ldrsh	r2, [r4, #8]
 1613 08ac FFF7FEFF 		bl	sprintf
 1614              	.LVL186:
 501:lcd_report.c  ****       
 1615              		.loc 1 501 0
ARM GAS  C:\Users\Bart\AppData\Local\Temp\ccOIOErW.s 			page 45


 1616 08b0 0EA8     		add	r0, sp, #56
 1617 08b2 FFF7FEFF 		bl	LCD_PrintString
 1618              	.LVL187:
 503:lcd_report.c  ****       LCD_PrintString(" Dist:");
 1619              		.loc 1 503 0
 1620 08b6 0320     		movs	r0, #3
 1621 08b8 0821     		movs	r1, #8
 1622 08ba FFF7FEFF 		bl	LCD_Position
 1623              	.LVL188:
 504:lcd_report.c  ****       sprintf(fstr, "%6d", lcd_probe_dist ); 
 1624              		.loc 1 504 0
 1625 08be 8848     		ldr	r0, .L136+32
 1626 08c0 FFF7FEFF 		bl	LCD_PrintString
 1627              	.LVL189:
 505:lcd_report.c  ****       LCD_PrintString(fstr);
 1628              		.loc 1 505 0
 1629 08c4 0EA8     		add	r0, sp, #56
 1630 08c6 2946     		mov	r1, r5
 1631 08c8 B4F90620 		ldrsh	r2, [r4, #6]
 1632 08cc FFF7FEFF 		bl	sprintf
 1633              	.LVL190:
 506:lcd_report.c  ****      
 1634              		.loc 1 506 0
 1635 08d0 0EA8     		add	r0, sp, #56
 1636 08d2 FFF7FEFF 		bl	LCD_PrintString
 1637              	.LVL191:
 508:lcd_report.c  ****       }
 1638              		.loc 1 508 0
 1639 08d6 7A4B     		ldr	r3, .L136
 1640 08d8 DB78     		ldrb	r3, [r3, #3]	@ zero_extendqisi2
 1641 08da B3B9     		cbnz	r3, .L102
 511:lcd_report.c  ****         if  (lcd_cursor > lcd_cursor_max) lcd_cursor = lcd_cursor_max;
 1642              		.loc 1 511 0
 1643 08dc FFF7FEFF 		bl	QuadDec_GetCounter
 1644              	.LVL192:
 1645 08e0 C0B2     		uxtb	r0, r0
 1646 08e2 6070     		strb	r0, [r4, #1]
 512:lcd_report.c  ****         if  (lcd_cursor < 0) lcd_cursor = 0;
 1647              		.loc 1 512 0
 1648 08e4 2378     		ldrb	r3, [r4]	@ zero_extendqisi2
 1649 08e6 40B2     		sxtb	r0, r0
 1650 08e8 5AB2     		sxtb	r2, r3
 1651 08ea 9042     		cmp	r0, r2
 1652 08ec 00DD     		ble	.L103
 512:lcd_report.c  ****         if  (lcd_cursor < 0) lcd_cursor = 0;
 1653              		.loc 1 512 0 is_stmt 0 discriminator 1
 1654 08ee 6370     		strb	r3, [r4, #1]
 1655              	.L103:
 513:lcd_report.c  ****         
 1656              		.loc 1 513 0 is_stmt 1
 1657 08f0 774B     		ldr	r3, .L136+16
 1658 08f2 93F90130 		ldrsb	r3, [r3, #1]
 1659 08f6 002B     		cmp	r3, #0
 1660 08f8 02DA     		bge	.L104
 513:lcd_report.c  ****         
 1661              		.loc 1 513 0 is_stmt 0 discriminator 1
 1662 08fa 0022     		movs	r2, #0
ARM GAS  C:\Users\Bart\AppData\Local\Temp\ccOIOErW.s 			page 46


 1663 08fc 744B     		ldr	r3, .L136+16
 1664 08fe 5A70     		strb	r2, [r3, #1]
 1665              	.L104:
 515:lcd_report.c  ****         
 1666              		.loc 1 515 0 is_stmt 1
 1667 0900 734B     		ldr	r3, .L136+16
 1668 0902 93F90100 		ldrsb	r0, [r3, #1]
 1669 0906 FFF7FEFF 		bl	QuadDec_SetCounter
 1670              	.LVL193:
 1671              	.L102:
 519:lcd_report.c  ****         switch (lcd_cursor) {
 1672              		.loc 1 519 0
 1673 090a 6D4B     		ldr	r3, .L136
 1674 090c DB78     		ldrb	r3, [r3, #3]	@ zero_extendqisi2
 1675 090e 002B     		cmp	r3, #0
 1676 0910 58D0     		beq	.L105
 520:lcd_report.c  ****          case MENU_ITEM_PRB_THICK:
 1677              		.loc 1 520 0
 1678 0912 6F4B     		ldr	r3, .L136+16
 1679 0914 93F90130 		ldrsb	r3, [r3, #1]
 1680 0918 032B     		cmp	r3, #3
 1681 091a 27D0     		beq	.L107
 1682 091c 042B     		cmp	r3, #4
 1683 091e 3BD0     		beq	.L108
 1684 0920 022B     		cmp	r3, #2
 1685 0922 68D1     		bne	.L106
 522:lcd_report.c  ****           if (lcd_probe_thickness > LCD_PRB_THICK_MAX) lcd_probe_thickness = LCD_PRB_THICK_MAX;
 1686              		.loc 1 522 0
 1687 0924 FFF7FEFF 		bl	QuadDec_GetCounter
 1688              	.LVL194:
 1689 0928 FFF7FEFF 		bl	__aeabi_i2f
 1690              	.LVL195:
 1691 092c 6D49     		ldr	r1, .L136+36
 1692 092e FFF7FEFF 		bl	__aeabi_fdiv
 1693              	.LVL196:
 1694 0932 674B     		ldr	r3, .L136+16
 1695 0934 D860     		str	r0, [r3, #12]	@ float
 523:lcd_report.c  ****           if (lcd_probe_thickness < LCD_PRB_THICK_MIN) lcd_probe_thickness = LCD_PRB_THICK_MIN;
 1696              		.loc 1 523 0
 1697 0936 6C49     		ldr	r1, .L136+40
 1698 0938 FFF7FEFF 		bl	__aeabi_fcmpgt
 1699              	.LVL197:
 1700 093c 10B1     		cbz	r0, .L110
 523:lcd_report.c  ****           if (lcd_probe_thickness < LCD_PRB_THICK_MIN) lcd_probe_thickness = LCD_PRB_THICK_MIN;
 1701              		.loc 1 523 0 is_stmt 0 discriminator 1
 1702 093e 6A4A     		ldr	r2, .L136+40
 1703 0940 634B     		ldr	r3, .L136+16
 1704 0942 DA60     		str	r2, [r3, #12]	@ float
 1705              	.L110:
 524:lcd_report.c  ****           QuadDec_SetCounter(lcd_probe_thickness * LCD_PROBE_MULT);
 1706              		.loc 1 524 0 is_stmt 1
 1707 0944 624B     		ldr	r3, .L136+16
 1708 0946 D868     		ldr	r0, [r3, #12]	@ float
 1709 0948 6849     		ldr	r1, .L136+44
 1710 094a FFF7FEFF 		bl	__aeabi_fcmplt
 1711              	.LVL198:
 1712 094e 10B1     		cbz	r0, .L112
ARM GAS  C:\Users\Bart\AppData\Local\Temp\ccOIOErW.s 			page 47


 524:lcd_report.c  ****           QuadDec_SetCounter(lcd_probe_thickness * LCD_PROBE_MULT);
 1713              		.loc 1 524 0 is_stmt 0 discriminator 1
 1714 0950 664A     		ldr	r2, .L136+44
 1715 0952 5F4B     		ldr	r3, .L136+16
 1716 0954 DA60     		str	r2, [r3, #12]	@ float
 1717              	.L112:
 525:lcd_report.c  ****          break;
 1718              		.loc 1 525 0 is_stmt 1
 1719 0956 5E4B     		ldr	r3, .L136+16
 1720 0958 D868     		ldr	r0, [r3, #12]	@ float
 1721 095a 6249     		ldr	r1, .L136+36
 1722 095c FFF7FEFF 		bl	__aeabi_fmul
 1723              	.LVL199:
 1724 0960 FFF7FEFF 		bl	__aeabi_f2iz
 1725              	.LVL200:
 1726 0964 00B2     		sxth	r0, r0
 1727 0966 FFF7FEFF 		bl	QuadDec_SetCounter
 1728              	.LVL201:
 526:lcd_report.c  ****          case MENU_ITEM_PRB_RATE:
 1729              		.loc 1 526 0
 1730 096a 44E0     		b	.L106
 1731              	.L107:
 528:lcd_report.c  ****           if (lcd_probe_rate > LCD_PRB_RATE_MAX) lcd_probe_rate = LCD_PRB_RATE_MAX;
 1732              		.loc 1 528 0
 1733 096c FFF7FEFF 		bl	QuadDec_GetCounter
 1734              	.LVL202:
 1735 0970 574B     		ldr	r3, .L136+16
 1736 0972 1881     		strh	r0, [r3, #8]	@ movhi
 529:lcd_report.c  ****           if (lcd_probe_rate < LCD_PRB_RATE_MIN) lcd_probe_rate = LCD_PRB_RATE_MIN;
 1737              		.loc 1 529 0
 1738 0974 C828     		cmp	r0, #200
 1739 0976 01DD     		ble	.L114
 529:lcd_report.c  ****           if (lcd_probe_rate < LCD_PRB_RATE_MIN) lcd_probe_rate = LCD_PRB_RATE_MIN;
 1740              		.loc 1 529 0 is_stmt 0 discriminator 1
 1741 0978 C822     		movs	r2, #200
 1742 097a 1A81     		strh	r2, [r3, #8]	@ movhi
 1743              	.L114:
 530:lcd_report.c  ****           QuadDec_SetCounter(lcd_probe_rate);
 1744              		.loc 1 530 0 is_stmt 1
 1745 097c 544B     		ldr	r3, .L136+16
 1746 097e B3F90830 		ldrsh	r3, [r3, #8]
 1747 0982 132B     		cmp	r3, #19
 1748 0984 02DC     		bgt	.L115
 530:lcd_report.c  ****           QuadDec_SetCounter(lcd_probe_rate);
 1749              		.loc 1 530 0 is_stmt 0 discriminator 1
 1750 0986 1422     		movs	r2, #20
 1751 0988 514B     		ldr	r3, .L136+16
 1752 098a 1A81     		strh	r2, [r3, #8]	@ movhi
 1753              	.L115:
 531:lcd_report.c  ****          break;
 1754              		.loc 1 531 0 is_stmt 1
 1755 098c 504B     		ldr	r3, .L136+16
 1756 098e B3F90800 		ldrsh	r0, [r3, #8]
 1757 0992 FFF7FEFF 		bl	QuadDec_SetCounter
 1758              	.LVL203:
 532:lcd_report.c  ****          case MENU_ITEM_PRB_DIST:
 1759              		.loc 1 532 0
ARM GAS  C:\Users\Bart\AppData\Local\Temp\ccOIOErW.s 			page 48


 1760 0996 2EE0     		b	.L106
 1761              	.L108:
 534:lcd_report.c  ****           if (lcd_probe_dist > LCD_PRB_DIST_MAX) lcd_probe_dist = LCD_PRB_DIST_MAX;
 1762              		.loc 1 534 0
 1763 0998 FFF7FEFF 		bl	QuadDec_GetCounter
 1764              	.LVL204:
 1765 099c 4C4B     		ldr	r3, .L136+16
 1766 099e D880     		strh	r0, [r3, #6]	@ movhi
 535:lcd_report.c  ****           if (lcd_probe_dist < LCD_PRB_DIST_MIN) lcd_probe_dist = LCD_PRB_DIST_MIN;
 1767              		.loc 1 535 0
 1768 09a0 C828     		cmp	r0, #200
 1769 09a2 01DD     		ble	.L116
 535:lcd_report.c  ****           if (lcd_probe_dist < LCD_PRB_DIST_MIN) lcd_probe_dist = LCD_PRB_DIST_MIN;
 1770              		.loc 1 535 0 is_stmt 0 discriminator 1
 1771 09a4 C822     		movs	r2, #200
 1772 09a6 DA80     		strh	r2, [r3, #6]	@ movhi
 1773              	.L116:
 536:lcd_report.c  ****           QuadDec_SetCounter(lcd_probe_dist);
 1774              		.loc 1 536 0 is_stmt 1
 1775 09a8 494B     		ldr	r3, .L136+16
 1776 09aa B3F90630 		ldrsh	r3, [r3, #6]
 1777 09ae 132B     		cmp	r3, #19
 1778 09b0 02DC     		bgt	.L117
 536:lcd_report.c  ****           QuadDec_SetCounter(lcd_probe_dist);
 1779              		.loc 1 536 0 is_stmt 0 discriminator 1
 1780 09b2 1422     		movs	r2, #20
 1781 09b4 464B     		ldr	r3, .L136+16
 1782 09b6 DA80     		strh	r2, [r3, #6]	@ movhi
 1783              	.L117:
 537:lcd_report.c  ****          break; 
 1784              		.loc 1 537 0 is_stmt 1
 1785 09b8 454B     		ldr	r3, .L136+16
 1786 09ba B3F90600 		ldrsh	r0, [r3, #6]
 1787 09be FFF7FEFF 		bl	QuadDec_SetCounter
 1788              	.LVL205:
 538:lcd_report.c  ****           
 1789              		.loc 1 538 0
 1790 09c2 18E0     		b	.L106
 1791              	.L105:
 543:lcd_report.c  ****         if  (lcd_cursor > lcd_cursor_max) lcd_cursor = lcd_cursor_max;
 1792              		.loc 1 543 0
 1793 09c4 FFF7FEFF 		bl	QuadDec_GetCounter
 1794              	.LVL206:
 1795 09c8 C0B2     		uxtb	r0, r0
 1796 09ca 414B     		ldr	r3, .L136+16
 1797 09cc 5870     		strb	r0, [r3, #1]
 544:lcd_report.c  ****         if  (lcd_cursor < 0) lcd_cursor = 0;
 1798              		.loc 1 544 0
 1799 09ce 1B78     		ldrb	r3, [r3]	@ zero_extendqisi2
 1800 09d0 40B2     		sxtb	r0, r0
 1801 09d2 5AB2     		sxtb	r2, r3
 1802 09d4 9042     		cmp	r0, r2
 1803 09d6 01DD     		ble	.L118
 544:lcd_report.c  ****         if  (lcd_cursor < 0) lcd_cursor = 0;
 1804              		.loc 1 544 0 is_stmt 0 discriminator 1
 1805 09d8 3D4A     		ldr	r2, .L136+16
 1806 09da 5370     		strb	r3, [r2, #1]
ARM GAS  C:\Users\Bart\AppData\Local\Temp\ccOIOErW.s 			page 49


 1807              	.L118:
 545:lcd_report.c  ****         
 1808              		.loc 1 545 0 is_stmt 1
 1809 09dc 3C4B     		ldr	r3, .L136+16
 1810 09de 93F90130 		ldrsb	r3, [r3, #1]
 1811 09e2 002B     		cmp	r3, #0
 1812 09e4 02DA     		bge	.L119
 545:lcd_report.c  ****         
 1813              		.loc 1 545 0 is_stmt 0 discriminator 1
 1814 09e6 0022     		movs	r2, #0
 1815 09e8 394B     		ldr	r3, .L136+16
 1816 09ea 5A70     		strb	r2, [r3, #1]
 1817              	.L119:
 547:lcd_report.c  ****       }
 1818              		.loc 1 547 0 is_stmt 1
 1819 09ec 384B     		ldr	r3, .L136+16
 1820 09ee 93F90100 		ldrsb	r0, [r3, #1]
 1821 09f2 FFF7FEFF 		bl	QuadDec_SetCounter
 1822              	.LVL207:
 1823              	.L106:
 550:lcd_report.c  ****       {
 1824              		.loc 1 550 0
 1825 09f6 364B     		ldr	r3, .L136+16
 1826 09f8 93F90130 		ldrsb	r3, [r3, #1]
 1827 09fc 042B     		cmp	r3, #4
 1828 09fe 5CD8     		bhi	.L22
 1829 0a00 DFE803F0 		tbb	[pc, r3]
 1830              	.L121:
 1831 0a04 03       		.byte	(.L120-.L121)/2
 1832 0a05 0B       		.byte	(.L122-.L121)/2
 1833 0a06 13       		.byte	(.L123-.L121)/2
 1834 0a07 1B       		.byte	(.L124-.L121)/2
 1835 0a08 23       		.byte	(.L125-.L121)/2
 1836 0a09 00       		.p2align 1
 1837              	.L120:
 553:lcd_report.c  ****         LCD_PutChar(LCD_CUSTOM_0);
 1838              		.loc 1 553 0
 1839 0a0a 0020     		movs	r0, #0
 1840 0a0c 0146     		mov	r1, r0
 1841 0a0e FFF7FEFF 		bl	LCD_Position
 1842              	.LVL208:
 554:lcd_report.c  ****        break;
 1843              		.loc 1 554 0
 1844 0a12 0020     		movs	r0, #0
 1845 0a14 FFF7FEFF 		bl	LCD_PutChar
 1846              	.LVL209:
 555:lcd_report.c  ****        case 1:
 1847              		.loc 1 555 0
 1848 0a18 4FE0     		b	.L22
 1849              	.L122:
 557:lcd_report.c  ****         LCD_PutChar(LCD_CUSTOM_0);
 1850              		.loc 1 557 0
 1851 0a1a 0020     		movs	r0, #0
 1852 0a1c 0821     		movs	r1, #8
 1853 0a1e FFF7FEFF 		bl	LCD_Position
 1854              	.LVL210:
 558:lcd_report.c  ****        break; 
ARM GAS  C:\Users\Bart\AppData\Local\Temp\ccOIOErW.s 			page 50


 1855              		.loc 1 558 0
 1856 0a22 0020     		movs	r0, #0
 1857 0a24 FFF7FEFF 		bl	LCD_PutChar
 1858              	.LVL211:
 559:lcd_report.c  ****        case 2:
 1859              		.loc 1 559 0
 1860 0a28 47E0     		b	.L22
 1861              	.L123:
 561:lcd_report.c  ****         LCD_PutChar(LCD_CUSTOM_0);
 1862              		.loc 1 561 0
 1863 0a2a 0120     		movs	r0, #1
 1864 0a2c 0821     		movs	r1, #8
 1865 0a2e FFF7FEFF 		bl	LCD_Position
 1866              	.LVL212:
 562:lcd_report.c  ****        break;
 1867              		.loc 1 562 0
 1868 0a32 0020     		movs	r0, #0
 1869 0a34 FFF7FEFF 		bl	LCD_PutChar
 1870              	.LVL213:
 563:lcd_report.c  ****        case 3:
 1871              		.loc 1 563 0
 1872 0a38 3FE0     		b	.L22
 1873              	.L124:
 565:lcd_report.c  ****         LCD_PutChar(LCD_CUSTOM_0);
 1874              		.loc 1 565 0
 1875 0a3a 0220     		movs	r0, #2
 1876 0a3c 0821     		movs	r1, #8
 1877 0a3e FFF7FEFF 		bl	LCD_Position
 1878              	.LVL214:
 566:lcd_report.c  ****        break;
 1879              		.loc 1 566 0
 1880 0a42 0020     		movs	r0, #0
 1881 0a44 FFF7FEFF 		bl	LCD_PutChar
 1882              	.LVL215:
 567:lcd_report.c  ****        case 4:
 1883              		.loc 1 567 0
 1884 0a48 37E0     		b	.L22
 1885              	.L125:
 569:lcd_report.c  ****         LCD_PutChar(LCD_CUSTOM_0);
 1886              		.loc 1 569 0
 1887 0a4a 0320     		movs	r0, #3
 1888 0a4c 0821     		movs	r1, #8
 1889 0a4e FFF7FEFF 		bl	LCD_Position
 1890              	.LVL216:
 570:lcd_report.c  ****        break;       
 1891              		.loc 1 570 0
 1892 0a52 0020     		movs	r0, #0
 1893 0a54 FFF7FEFF 		bl	LCD_PutChar
 1894              	.LVL217:
 571:lcd_report.c  ****       }
 1895              		.loc 1 571 0
 1896 0a58 2FE0     		b	.L22
 1897              	.L28:
 577:lcd_report.c  ****       LCD_PrintString(" Back ");
 1898              		.loc 1 577 0
 1899 0a5a 0020     		movs	r0, #0
 1900 0a5c 0146     		mov	r1, r0
ARM GAS  C:\Users\Bart\AppData\Local\Temp\ccOIOErW.s 			page 51


 1901 0a5e FFF7FEFF 		bl	LCD_Position
 1902              	.LVL218:
 578:lcd_report.c  ****       LCD_PutChar(LCD_CUSTOM_3);
 1903              		.loc 1 578 0
 1904 0a62 1848     		ldr	r0, .L136+4
 1905 0a64 FFF7FEFF 		bl	LCD_PrintString
 1906              	.LVL219:
 579:lcd_report.c  ****       
 1907              		.loc 1 579 0
 1908 0a68 0320     		movs	r0, #3
 1909 0a6a FFF7FEFF 		bl	LCD_PutChar
 1910              	.LVL220:
 581:lcd_report.c  ****       LCD_PrintString("Feature not ready"); 
 1911              		.loc 1 581 0
 1912 0a6e 0220     		movs	r0, #2
 1913 0a70 0021     		movs	r1, #0
 1914 0a72 FFF7FEFF 		bl	LCD_Position
 1915              	.LVL221:
 582:lcd_report.c  ****       
 1916              		.loc 1 582 0
 1917 0a76 1E48     		ldr	r0, .L136+48
 1918 0a78 FFF7FEFF 		bl	LCD_PrintString
 1919              	.LVL222:
 584:lcd_report.c  ****         
 1920              		.loc 1 584 0
 1921 0a7c 104B     		ldr	r3, .L136
 1922 0a7e 1B78     		ldrb	r3, [r3]	@ zero_extendqisi2
 1923 0a80 DBB1     		cbz	r3, .L22
 586:lcd_report.c  ****         lcd_cursor = 0;
 1924              		.loc 1 586 0
 1925 0a82 0F4D     		ldr	r5, .L136
 1926 0a84 0126     		movs	r6, #1
 1927 0a86 6E70     		strb	r6, [r5, #1]
 587:lcd_report.c  ****         QuadDec_SetCounter(lcd_cursor);
 1928              		.loc 1 587 0
 1929 0a88 0024     		movs	r4, #0
 1930 0a8a 114B     		ldr	r3, .L136+16
 1931 0a8c 5C70     		strb	r4, [r3, #1]
 588:lcd_report.c  ****         LCD_WriteControl(LCD_CLEAR_DISPLAY);
 1932              		.loc 1 588 0
 1933 0a8e 2046     		mov	r0, r4
 1934 0a90 FFF7FEFF 		bl	QuadDec_SetCounter
 1935              	.LVL223:
 589:lcd_report.c  ****         switch_clicked = false;
 1936              		.loc 1 589 0
 1937 0a94 3046     		mov	r0, r6
 1938 0a96 FFF7FEFF 		bl	LCD_WriteControl
 1939              	.LVL224:
 590:lcd_report.c  ****       }
 1940              		.loc 1 590 0
 1941 0a9a 2C70     		strb	r4, [r5]
 1942 0a9c 0DE0     		b	.L22
 1943              	.L23:
 597:lcd_report.c  ****       sprintf(fstr, "Scn:%-5d", lcd_screen );
 1944              		.loc 1 597 0
 1945 0a9e 0020     		movs	r0, #0
 1946 0aa0 0146     		mov	r1, r0
ARM GAS  C:\Users\Bart\AppData\Local\Temp\ccOIOErW.s 			page 52


 1947 0aa2 FFF7FEFF 		bl	LCD_Position
 1948              	.LVL225:
 598:lcd_report.c  ****       LCD_PrintString(fstr);
 1949              		.loc 1 598 0
 1950 0aa6 0EA8     		add	r0, sp, #56
 1951 0aa8 1249     		ldr	r1, .L136+52
 1952 0aaa 054B     		ldr	r3, .L136
 1953 0aac 93F90120 		ldrsb	r2, [r3, #1]
 1954 0ab0 FFF7FEFF 		bl	sprintf
 1955              	.LVL226:
 599:lcd_report.c  ****     break;
 1956              		.loc 1 599 0
 1957 0ab4 0EA8     		add	r0, sp, #56
 1958 0ab6 FFF7FEFF 		bl	LCD_PrintString
 1959              	.LVL227:
 1960              	.L22:
 604:lcd_report.c  **** 
 1961              		.loc 1 604 0
 1962 0aba 17B0     		add	sp, sp, #92
 1963              		.cfi_def_cfa_offset 20
 1964              		@ sp needed
 1965 0abc F0BD     		pop	{r4, r5, r6, r7, pc}
 1966              	.L137:
 1967 0abe 00BF     		.align	2
 1968              	.L136:
 1969 0ac0 00000000 		.word	.LANCHOR0
 1970 0ac4 80000000 		.word	.LC21
 1971 0ac8 14010000 		.word	.LC36
 1972 0acc 24010000 		.word	.LC37
 1973 0ad0 00000000 		.word	.LANCHOR1
 1974 0ad4 00010000 		.word	.LC34
 1975 0ad8 2C010000 		.word	.LC38
 1976 0adc 34010000 		.word	.LC39
 1977 0ae0 38010000 		.word	.LC40
 1978 0ae4 0000C842 		.word	1120403456
 1979 0ae8 0000F041 		.word	1106247680
 1980 0aec 00004040 		.word	1077936128
 1981 0af0 40010000 		.word	.LC41
 1982 0af4 54010000 		.word	.LC42
 1983              		.cfi_endproc
 1984              	.LFE67:
 1985              		.size	lcd_report_realtime, .-lcd_report_realtime
 1986              		.section	.text.lcd_report_init_message,"ax",%progbits
 1987              		.align	2
 1988              		.global	lcd_report_init_message
 1989              		.thumb
 1990              		.thumb_func
 1991              		.type	lcd_report_init_message, %function
 1992              	lcd_report_init_message:
 1993              	.LFB65:
  46:lcd_report.c  ****     LCD_WriteControl(LCD_CLEAR_DISPLAY);
 1994              		.loc 1 46 0
 1995              		.cfi_startproc
 1996              		@ args = 0, pretend = 0, frame = 0
 1997              		@ frame_needed = 0, uses_anonymous_args = 0
 1998 0000 08B5     		push	{r3, lr}
 1999              		.cfi_def_cfa_offset 8
ARM GAS  C:\Users\Bart\AppData\Local\Temp\ccOIOErW.s 			page 53


 2000              		.cfi_offset 3, -8
 2001              		.cfi_offset 14, -4
  47:lcd_report.c  ****     LCD_Position(0u, 3u);
 2002              		.loc 1 47 0
 2003 0002 0120     		movs	r0, #1
 2004 0004 FFF7FEFF 		bl	LCD_WriteControl
 2005              	.LVL228:
  48:lcd_report.c  ****     
 2006              		.loc 1 48 0
 2007 0008 0020     		movs	r0, #0
 2008 000a 0321     		movs	r1, #3
 2009 000c FFF7FEFF 		bl	LCD_Position
 2010              	.LVL229:
  51:lcd_report.c  ****     delay_ms(1000);
 2011              		.loc 1 51 0
 2012 0010 0648     		ldr	r0, .L140
 2013 0012 FFF7FEFF 		bl	LCD_PrintString
 2014              	.LVL230:
  52:lcd_report.c  ****     LCD_WriteControl(LCD_CLEAR_DISPLAY);
 2015              		.loc 1 52 0
 2016 0016 4FF47A70 		mov	r0, #1000
 2017 001a FFF7FEFF 		bl	CyDelay
 2018              	.LVL231:
  53:lcd_report.c  ****     
 2019              		.loc 1 53 0
 2020 001e 0120     		movs	r0, #1
 2021 0020 FFF7FEFF 		bl	LCD_WriteControl
 2022              	.LVL232:
  55:lcd_report.c  ****     
 2023              		.loc 1 55 0
 2024 0024 FFF7FEFF 		bl	lcd_report_realtime
 2025              	.LVL233:
 2026 0028 08BD     		pop	{r3, pc}
 2027              	.L141:
 2028 002a 00BF     		.align	2
 2029              	.L140:
 2030 002c 70010000 		.word	.LC43
 2031              		.cfi_endproc
 2032              	.LFE65:
 2033              		.size	lcd_report_init_message, .-lcd_report_init_message
 2034              		.section	.text.lcd_beep,"ax",%progbits
 2035              		.align	2
 2036              		.global	lcd_beep
 2037              		.thumb
 2038              		.thumb_func
 2039              		.type	lcd_beep, %function
 2040              	lcd_beep:
 2041              	.LFB70:
 625:lcd_report.c  ****     else
 626:lcd_report.c  ****       lcd_beep();
 627:lcd_report.c  ****       
 628:lcd_report.c  **** }
 629:lcd_report.c  **** 
 630:lcd_report.c  **** void lcd_beep()
 631:lcd_report.c  **** {
 2042              		.loc 1 631 0
 2043              		.cfi_startproc
ARM GAS  C:\Users\Bart\AppData\Local\Temp\ccOIOErW.s 			page 54


 2044              		@ args = 0, pretend = 0, frame = 0
 2045              		@ frame_needed = 0, uses_anonymous_args = 0
 2046              		@ link register save eliminated.
 2047 0000 7047     		bx	lr
 2048              		.cfi_endproc
 2049              	.LFE70:
 2050              		.size	lcd_beep, .-lcd_beep
 2051              		.global	lcd_probe_dist
 2052              		.global	lcd_probe_rate
 2053              		.global	lcd_probe_thickness
 2054              		.global	lcd_SRO
 2055              		.global	lcd_FRO
 2056              		.global	lcd_units
 2057              		.global	switch_clicked
 2058              		.global	lcd_cursor_max
 2059              		.global	lcd_cursor
 2060              		.global	menu_item_selected
 2061              		.global	lcd_screen
 2062              		.comm	fro,1,1
 2063              		.comm	exec_lcd_status,1,1
 2064              		.comm	sys_rt_exec_debug,1,1
 2065              		.comm	sys_rt_exec_accessory_override,1,1
 2066              		.comm	sys_rt_exec_motion_override,1,1
 2067              		.comm	sys_rt_exec_alarm,1,1
 2068              		.comm	sys_rt_exec_state,1,1
 2069              		.comm	sys_probe_state,1,1
 2070              		.comm	sys_probe_position,12,4
 2071              		.comm	sys_position,12,4
 2072 0002 00BF     		.data
 2073              		.align	2
 2074              		.set	.LANCHOR1,. + 0
 2075              		.type	lcd_cursor_max, %object
 2076              		.size	lcd_cursor_max, 1
 2077              	lcd_cursor_max:
 2078 0000 06       		.byte	6
 2079              		.type	lcd_cursor, %object
 2080              		.size	lcd_cursor, 1
 2081              	lcd_cursor:
 2082 0001 04       		.byte	4
 2083              		.type	lcd_FRO, %object
 2084              		.size	lcd_FRO, 2
 2085              	lcd_FRO:
 2086 0002 6400     		.short	100
 2087              		.type	lcd_SRO, %object
 2088              		.size	lcd_SRO, 2
 2089              	lcd_SRO:
 2090 0004 6400     		.short	100
 2091              		.type	lcd_probe_dist, %object
 2092              		.size	lcd_probe_dist, 2
 2093              	lcd_probe_dist:
 2094 0006 7800     		.short	120
 2095              		.type	lcd_probe_rate, %object
 2096              		.size	lcd_probe_rate, 2
 2097              	lcd_probe_rate:
 2098 0008 6400     		.short	100
 2099 000a 0000     		.space	2
 2100              		.type	lcd_probe_thickness, %object
ARM GAS  C:\Users\Bart\AppData\Local\Temp\ccOIOErW.s 			page 55


 2101              		.size	lcd_probe_thickness, 4
 2102              	lcd_probe_thickness:
 2103 000c 00007041 		.word	1097859072
 2104              		.section	.rodata.str1.4,"aMS",%progbits,1
 2105              		.align	2
 2106              	.LC1:
 2107 0000 245800   		.ascii	"$X\000"
 2108 0003 00       		.space	1
 2109              	.LC2:
 2110 0004 4731304C 		.ascii	"G10L20P0X0\000"
 2110      32305030 
 2110      583000
 2111 000f 00       		.space	1
 2112              	.LC3:
 2113 0010 4731304C 		.ascii	"G10L20P0Y0\000"
 2113      32305030 
 2113      593000
 2114 001b 00       		.space	1
 2115              	.LC4:
 2116 001c 4731304C 		.ascii	"G10L20P0Z0\000"
 2116      32305030 
 2116      5A3000
 2117 0027 00       		.space	1
 2118              	.LC5:
 2119 0028 20556E69 		.ascii	" Unit:\000"
 2119      743A00
 2120 002f 00       		.space	1
 2121              	.LC6:
 2122 0030 206D6D00 		.ascii	" mm\000"
 2123              	.LC7:
 2124 0034 20696E00 		.ascii	" in\000"
 2125              	.LC9:
 2126 0038 205800   		.ascii	" X\000"
 2127 003b 00       		.space	1
 2128              	.LC10:
 2129 003c 205900   		.ascii	" Y\000"
 2130 003f 00       		.space	1
 2131              	.LC11:
 2132 0040 205A00   		.ascii	" Z\000"
 2133 0043 00       		.space	1
 2134              	.LC12:
 2135 0044 2046524F 		.ascii	" FRO:\000"
 2135      3A00
 2136 004a 0000     		.space	2
 2137              	.LC13:
 2138 004c 25336400 		.ascii	"%3d\000"
 2139              	.LC14:
 2140 0050 2500     		.ascii	"%\000"
 2141 0052 0000     		.space	2
 2142              	.LC15:
 2143 0054 2053524F 		.ascii	" SRO:\000"
 2143      3A00
 2144 005a 0000     		.space	2
 2145              	.LC16:
 2146 005c 204D6F72 		.ascii	" More \000"
 2146      652000
 2147 0063 00       		.space	1
ARM GAS  C:\Users\Bart\AppData\Local\Temp\ccOIOErW.s 			page 56


 2148              	.LC17:
 2149 0064 47353347 		.ascii	"G53G0Z-1\000"
 2149      305A2D31 
 2149      00
 2150 006d 000000   		.space	3
 2151              	.LC18:
 2152 0070 47305830 		.ascii	"G0X0Y0\000"
 2152      593000
 2153 0077 00       		.space	1
 2154              	.LC19:
 2155 0078 47323800 		.ascii	"G28\000"
 2156              	.LC20:
 2157 007c 47333000 		.ascii	"G30\000"
 2158              	.LC21:
 2159 0080 20426163 		.ascii	" Back \000"
 2159      6B2000
 2160 0087 00       		.space	1
 2161              	.LC22:
 2162 0088 20486F6D 		.ascii	" Home Axes\000"
 2162      65204178 
 2162      657300
 2163 0093 00       		.space	1
 2164              	.LC23:
 2165 0094 20546F70 		.ascii	" Top of Z\000"
 2165      206F6620 
 2165      5A00
 2166 009e 0000     		.space	2
 2167              	.LC24:
 2168 00a0 205A2050 		.ascii	" Z Probe \000"
 2168      726F6265 
 2168      2000
 2169 00aa 0000     		.space	2
 2170              	.LC25:
 2171 00ac 20476F74 		.ascii	" Goto 0,0\000"
 2171      6F20302C 
 2171      3000
 2172 00b6 0000     		.space	2
 2173              	.LC26:
 2174 00b8 20476F74 		.ascii	" Goto G28\000"
 2174      6F204732 
 2174      3800
 2175 00c2 0000     		.space	2
 2176              	.LC27:
 2177 00c4 20476F74 		.ascii	" Goto G30\000"
 2177      6F204733 
 2177      3000
 2178 00ce 0000     		.space	2
 2179              	.LC28:
 2180 00d0 20536443 		.ascii	" SdCard \000"
 2180      61726420 
 2180      00
 2181 00d9 000000   		.space	3
 2182              	.LC29:
 2183 00dc 47393147 		.ascii	"G91G38.2Z-\000"
 2183      33382E32 
 2183      5A2D00
 2184 00e7 00       		.space	1
ARM GAS  C:\Users\Bart\AppData\Local\Temp\ccOIOErW.s 			page 57


 2185              	.LC30:
 2186 00e8 256400   		.ascii	"%d\000"
 2187 00eb 00       		.space	1
 2188              	.LC31:
 2189 00ec 4600     		.ascii	"F\000"
 2190 00ee 0000     		.space	2
 2191              	.LC32:
 2192 00f0 4661696C 		.ascii	"Failure\000"
 2192      75726500 
 2193              	.LC33:
 2194 00f8 53756363 		.ascii	"Success\000"
 2194      65737300 
 2195              	.LC34:
 2196 0100 25322E32 		.ascii	"%2.2f\000"
 2196      6600
 2197 0106 0000     		.space	2
 2198              	.LC35:
 2199 0108 4731304C 		.ascii	"G10L20P0Z\000"
 2199      32305030 
 2199      5A00
 2200 0112 0000     		.space	2
 2201              	.LC36:
 2202 0114 20426567 		.ascii	" Begin Probe\000"
 2202      696E2050 
 2202      726F6265 
 2202      00
 2203 0121 000000   		.space	3
 2204              	.LC37:
 2205 0124 20546869 		.ascii	" Thick:\000"
 2205      636B3A00 
 2206              	.LC38:
 2207 012c 20526174 		.ascii	" Rate:\000"
 2207      653A00
 2208 0133 00       		.space	1
 2209              	.LC39:
 2210 0134 25366400 		.ascii	"%6d\000"
 2211              	.LC40:
 2212 0138 20446973 		.ascii	" Dist:\000"
 2212      743A00
 2213 013f 00       		.space	1
 2214              	.LC41:
 2215 0140 46656174 		.ascii	"Feature not ready\000"
 2215      75726520 
 2215      6E6F7420 
 2215      72656164 
 2215      7900
 2216 0152 0000     		.space	2
 2217              	.LC42:
 2218 0154 53636E3A 		.ascii	"Scn:%-5d\000"
 2218      252D3564 
 2218      00
 2219 015d 000000   		.space	3
 2220              	.LC0:
 2221 0160 252B382E 		.ascii	"%+8.2f\000"
 2221      326600
 2222 0167 00       		.space	1
 2223              	.LC8:
ARM GAS  C:\Users\Bart\AppData\Local\Temp\ccOIOErW.s 			page 58


 2224 0168 252B382E 		.ascii	"%+8.3f\000"
 2224      336600
 2225 016f 00       		.space	1
 2226              	.LC43:
 2227 0170 50536F43 		.ascii	"PSoC_Grbl 1.1e\000"
 2227      5F477262 
 2227      6C20312E 
 2227      316500
 2228 017f 00       		.bss
 2229              		.set	.LANCHOR0,. + 0
 2230              		.type	switch_clicked, %object
 2231              		.size	switch_clicked, 1
 2232              	switch_clicked:
 2233 0000 00       		.space	1
 2234              		.type	lcd_screen, %object
 2235              		.size	lcd_screen, 1
 2236              	lcd_screen:
 2237 0001 00       		.space	1
 2238              		.type	lcd_units, %object
 2239              		.size	lcd_units, 1
 2240              	lcd_units:
 2241 0002 00       		.space	1
 2242              		.type	menu_item_selected, %object
 2243              		.size	menu_item_selected, 1
 2244              	menu_item_selected:
 2245 0003 00       		.space	1
 2246              		.text
 2247              	.Letext0:
 2248              		.file 2 "d:\\program files (x86)\\cypress\\psoc creator\\4.0\\psoc creator\\import\\gnu\\arm\\4.9.
 2249              		.file 3 "d:\\program files (x86)\\cypress\\psoc creator\\4.0\\psoc creator\\import\\gnu\\arm\\4.9.
 2250              		.file 4 "Generated_Source\\PSoC5/cytypes.h"
 2251              		.file 5 "settings.h"
 2252              		.file 6 "system.h"
 2253              		.file 7 "gcode.h"
 2254              		.file 8 "Generated_Source\\PSoC5/LCD.h"
 2255              		.file 9 "Generated_Source\\PSoC5/core_cm3.h"
 2256              		.file 10 "lcd_report.h"
 2257              		.file 11 "Generated_Source\\PSoC5/QuadDec.h"
 2258              		.file 12 "Generated_Source\\PSoC5/isr_Enc_Sw.h"
 2259              		.file 13 "report.h"
 2260              		.file 14 "d:\\program files (x86)\\cypress\\psoc creator\\4.0\\psoc creator\\import\\gnu\\arm\\4.9
 2261              		.file 15 "motion_control.h"
 2262              		.file 16 "d:\\program files (x86)\\cypress\\psoc creator\\4.0\\psoc creator\\import\\gnu\\arm\\4.9
 2263              		.file 17 "<built-in>"
 2264              		.file 18 "stepper.h"
 2265              		.file 19 "Generated_Source\\PSoC5/CyLib.h"