ARM GAS  C:\Users\Bart\AppData\Local\Temp\ccgKK9Ga.s 			page 1


   1              		.syntax unified
   2              		.cpu cortex-m3
   3              		.fpu softvfp
   4              		.eabi_attribute 20, 1
   5              		.eabi_attribute 21, 1
   6              		.eabi_attribute 23, 3
   7              		.eabi_attribute 24, 1
   8              		.eabi_attribute 25, 1
   9              		.eabi_attribute 26, 1
  10              		.eabi_attribute 30, 1
  11              		.eabi_attribute 34, 1
  12              		.eabi_attribute 18, 4
  13              		.thumb
  14              		.file	"Limit_Pin.c"
  15              		.text
  16              	.Ltext0:
  17              		.cfi_sections	.debug_frame
  18              		.section	.text.Limit_Pin_Write,"ax",%progbits
  19              		.align	2
  20              		.global	Limit_Pin_Write
  21              		.thumb
  22              		.thumb_func
  23              		.type	Limit_Pin_Write, %function
  24              	Limit_Pin_Write:
  25              	.LFB0:
  26              		.file 1 ".\\Generated_Source\\PSoC5\\Limit_Pin.c"
   1:.\Generated_Source\PSoC5/Limit_Pin.c **** /*******************************************************************************
   2:.\Generated_Source\PSoC5/Limit_Pin.c **** * File Name: Limit_Pin.c  
   3:.\Generated_Source\PSoC5/Limit_Pin.c **** * Version 2.20
   4:.\Generated_Source\PSoC5/Limit_Pin.c **** *
   5:.\Generated_Source\PSoC5/Limit_Pin.c **** * Description:
   6:.\Generated_Source\PSoC5/Limit_Pin.c **** *  This file contains API to enable firmware control of a Pins component.
   7:.\Generated_Source\PSoC5/Limit_Pin.c **** *
   8:.\Generated_Source\PSoC5/Limit_Pin.c **** * Note:
   9:.\Generated_Source\PSoC5/Limit_Pin.c **** *
  10:.\Generated_Source\PSoC5/Limit_Pin.c **** ********************************************************************************
  11:.\Generated_Source\PSoC5/Limit_Pin.c **** * Copyright 2008-2015, Cypress Semiconductor Corporation.  All rights reserved.
  12:.\Generated_Source\PSoC5/Limit_Pin.c **** * You may use this file only in accordance with the license, terms, conditions, 
  13:.\Generated_Source\PSoC5/Limit_Pin.c **** * disclaimers, and limitations in the end user license agreement accompanying 
  14:.\Generated_Source\PSoC5/Limit_Pin.c **** * the software package with which this file was provided.
  15:.\Generated_Source\PSoC5/Limit_Pin.c **** *******************************************************************************/
  16:.\Generated_Source\PSoC5/Limit_Pin.c **** 
  17:.\Generated_Source\PSoC5/Limit_Pin.c **** #include "cytypes.h"
  18:.\Generated_Source\PSoC5/Limit_Pin.c **** #include "Limit_Pin.h"
  19:.\Generated_Source\PSoC5/Limit_Pin.c **** 
  20:.\Generated_Source\PSoC5/Limit_Pin.c **** /* APIs are not generated for P15[7:6] on PSoC 5 */
  21:.\Generated_Source\PSoC5/Limit_Pin.c **** #if !(CY_PSOC5A &&\
  22:.\Generated_Source\PSoC5/Limit_Pin.c **** 	 Limit_Pin__PORT == 15 && ((Limit_Pin__MASK & 0xC0) != 0))
  23:.\Generated_Source\PSoC5/Limit_Pin.c **** 
  24:.\Generated_Source\PSoC5/Limit_Pin.c **** 
  25:.\Generated_Source\PSoC5/Limit_Pin.c **** /*******************************************************************************
  26:.\Generated_Source\PSoC5/Limit_Pin.c **** * Function Name: Limit_Pin_Write
  27:.\Generated_Source\PSoC5/Limit_Pin.c **** ****************************************************************************//**
  28:.\Generated_Source\PSoC5/Limit_Pin.c **** *
  29:.\Generated_Source\PSoC5/Limit_Pin.c **** * \brief Writes the value to the physical port (data output register), masking
  30:.\Generated_Source\PSoC5/Limit_Pin.c **** *  and shifting the bits appropriately. 
  31:.\Generated_Source\PSoC5/Limit_Pin.c **** *
ARM GAS  C:\Users\Bart\AppData\Local\Temp\ccgKK9Ga.s 			page 2


  32:.\Generated_Source\PSoC5/Limit_Pin.c **** * The data output register controls the signal applied to the physical pin in 
  33:.\Generated_Source\PSoC5/Limit_Pin.c **** * conjunction with the drive mode parameter. This function avoids changing 
  34:.\Generated_Source\PSoC5/Limit_Pin.c **** * other bits in the port by using the appropriate method (read-modify-write or
  35:.\Generated_Source\PSoC5/Limit_Pin.c **** * bit banding).
  36:.\Generated_Source\PSoC5/Limit_Pin.c **** *
  37:.\Generated_Source\PSoC5/Limit_Pin.c **** * <b>Note</b> This function should not be used on a hardware digital output pin 
  38:.\Generated_Source\PSoC5/Limit_Pin.c **** * as it is driven by the hardware signal attached to it.
  39:.\Generated_Source\PSoC5/Limit_Pin.c **** *
  40:.\Generated_Source\PSoC5/Limit_Pin.c **** * \param value
  41:.\Generated_Source\PSoC5/Limit_Pin.c **** *  Value to write to the component instance.
  42:.\Generated_Source\PSoC5/Limit_Pin.c **** *
  43:.\Generated_Source\PSoC5/Limit_Pin.c **** * \return 
  44:.\Generated_Source\PSoC5/Limit_Pin.c **** *  None 
  45:.\Generated_Source\PSoC5/Limit_Pin.c **** *
  46:.\Generated_Source\PSoC5/Limit_Pin.c **** * \sideeffect
  47:.\Generated_Source\PSoC5/Limit_Pin.c **** *  If you use read-modify-write operations that are not atomic; the Interrupt 
  48:.\Generated_Source\PSoC5/Limit_Pin.c **** *  Service Routines (ISR) can cause corruption of this function. An ISR that 
  49:.\Generated_Source\PSoC5/Limit_Pin.c **** *  interrupts this function and performs writes to the Pins component data 
  50:.\Generated_Source\PSoC5/Limit_Pin.c **** *  register can cause corrupted port data. To avoid this issue, you should 
  51:.\Generated_Source\PSoC5/Limit_Pin.c **** *  either use the Per-Pin APIs (primary method) or disable interrupts around 
  52:.\Generated_Source\PSoC5/Limit_Pin.c **** *  this function.
  53:.\Generated_Source\PSoC5/Limit_Pin.c **** *
  54:.\Generated_Source\PSoC5/Limit_Pin.c **** * \funcusage
  55:.\Generated_Source\PSoC5/Limit_Pin.c **** *  \snippet Limit_Pin_SUT.c usage_Limit_Pin_Write
  56:.\Generated_Source\PSoC5/Limit_Pin.c **** *******************************************************************************/
  57:.\Generated_Source\PSoC5/Limit_Pin.c **** void Limit_Pin_Write(uint8 value)
  58:.\Generated_Source\PSoC5/Limit_Pin.c **** {
  27              		.loc 1 58 0
  28              		.cfi_startproc
  29              		@ args = 0, pretend = 0, frame = 0
  30              		@ frame_needed = 0, uses_anonymous_args = 0
  31              		@ link register save eliminated.
  32              	.LVL0:
  59:.\Generated_Source\PSoC5/Limit_Pin.c ****     uint8 staticBits = (Limit_Pin_DR & (uint8)(~Limit_Pin_MASK));
  33              		.loc 1 59 0
  34 0000 044A     		ldr	r2, .L2
  35 0002 1378     		ldrb	r3, [r2]	@ zero_extendqisi2
  36 0004 03F0F803 		and	r3, r3, #248
  37              	.LVL1:
  60:.\Generated_Source\PSoC5/Limit_Pin.c ****     Limit_Pin_DR = staticBits | ((uint8)(value << Limit_Pin_SHIFT) & Limit_Pin_MASK);
  38              		.loc 1 60 0
  39 0008 00F00700 		and	r0, r0, #7
  40              	.LVL2:
  41 000c 1843     		orrs	r0, r0, r3
  42 000e 1070     		strb	r0, [r2]
  43 0010 7047     		bx	lr
  44              	.L3:
  45 0012 00BF     		.align	2
  46              	.L2:
  47 0014 50510040 		.word	1073762640
  48              		.cfi_endproc
  49              	.LFE0:
  50              		.size	Limit_Pin_Write, .-Limit_Pin_Write
  51              		.section	.text.Limit_Pin_SetDriveMode,"ax",%progbits
  52              		.align	2
  53              		.global	Limit_Pin_SetDriveMode
  54              		.thumb
ARM GAS  C:\Users\Bart\AppData\Local\Temp\ccgKK9Ga.s 			page 3


  55              		.thumb_func
  56              		.type	Limit_Pin_SetDriveMode, %function
  57              	Limit_Pin_SetDriveMode:
  58              	.LFB1:
  61:.\Generated_Source\PSoC5/Limit_Pin.c **** }
  62:.\Generated_Source\PSoC5/Limit_Pin.c **** 
  63:.\Generated_Source\PSoC5/Limit_Pin.c **** 
  64:.\Generated_Source\PSoC5/Limit_Pin.c **** /*******************************************************************************
  65:.\Generated_Source\PSoC5/Limit_Pin.c **** * Function Name: Limit_Pin_SetDriveMode
  66:.\Generated_Source\PSoC5/Limit_Pin.c **** ****************************************************************************//**
  67:.\Generated_Source\PSoC5/Limit_Pin.c **** *
  68:.\Generated_Source\PSoC5/Limit_Pin.c **** * \brief Sets the drive mode for each of the Pins component's pins.
  69:.\Generated_Source\PSoC5/Limit_Pin.c **** * 
  70:.\Generated_Source\PSoC5/Limit_Pin.c **** * <b>Note</b> This affects all pins in the Pins component instance. Use the
  71:.\Generated_Source\PSoC5/Limit_Pin.c **** * Per-Pin APIs if you wish to control individual pin's drive modes.
  72:.\Generated_Source\PSoC5/Limit_Pin.c **** *
  73:.\Generated_Source\PSoC5/Limit_Pin.c **** * \param mode
  74:.\Generated_Source\PSoC5/Limit_Pin.c **** *  Mode for the selected signals. Valid options are documented in 
  75:.\Generated_Source\PSoC5/Limit_Pin.c **** *  \ref driveMode.
  76:.\Generated_Source\PSoC5/Limit_Pin.c **** *
  77:.\Generated_Source\PSoC5/Limit_Pin.c **** * \return
  78:.\Generated_Source\PSoC5/Limit_Pin.c **** *  None
  79:.\Generated_Source\PSoC5/Limit_Pin.c **** *
  80:.\Generated_Source\PSoC5/Limit_Pin.c **** * \sideeffect
  81:.\Generated_Source\PSoC5/Limit_Pin.c **** *  If you use read-modify-write operations that are not atomic, the ISR can
  82:.\Generated_Source\PSoC5/Limit_Pin.c **** *  cause corruption of this function. An ISR that interrupts this function 
  83:.\Generated_Source\PSoC5/Limit_Pin.c **** *  and performs writes to the Pins component Drive Mode registers can cause 
  84:.\Generated_Source\PSoC5/Limit_Pin.c **** *  corrupted port data. To avoid this issue, you should either use the Per-Pin
  85:.\Generated_Source\PSoC5/Limit_Pin.c **** *  APIs (primary method) or disable interrupts around this function.
  86:.\Generated_Source\PSoC5/Limit_Pin.c **** *
  87:.\Generated_Source\PSoC5/Limit_Pin.c **** * \funcusage
  88:.\Generated_Source\PSoC5/Limit_Pin.c **** *  \snippet Limit_Pin_SUT.c usage_Limit_Pin_SetDriveMode
  89:.\Generated_Source\PSoC5/Limit_Pin.c **** *******************************************************************************/
  90:.\Generated_Source\PSoC5/Limit_Pin.c **** void Limit_Pin_SetDriveMode(uint8 mode)
  91:.\Generated_Source\PSoC5/Limit_Pin.c **** {
  59              		.loc 1 91 0
  60              		.cfi_startproc
  61              		@ args = 0, pretend = 0, frame = 0
  62              		@ frame_needed = 0, uses_anonymous_args = 0
  63              		@ link register save eliminated.
  64              	.LVL3:
  92:.\Generated_Source\PSoC5/Limit_Pin.c **** 	CyPins_SetPinDriveMode(Limit_Pin_0, mode);
  65              		.loc 1 92 0
  66 0000 0A4A     		ldr	r2, .L5
  67 0002 1378     		ldrb	r3, [r2]	@ zero_extendqisi2
  68 0004 00F00E00 		and	r0, r0, #14
  69              	.LVL4:
  70 0008 03F0F103 		and	r3, r3, #241
  71 000c 0343     		orrs	r3, r3, r0
  72 000e 1370     		strb	r3, [r2]
  93:.\Generated_Source\PSoC5/Limit_Pin.c **** 	CyPins_SetPinDriveMode(Limit_Pin_1, mode);
  73              		.loc 1 93 0
  74 0010 0132     		adds	r2, r2, #1
  75 0012 1378     		ldrb	r3, [r2]	@ zero_extendqisi2
  76 0014 03F0F103 		and	r3, r3, #241
  77 0018 0343     		orrs	r3, r3, r0
  78 001a 1370     		strb	r3, [r2]
ARM GAS  C:\Users\Bart\AppData\Local\Temp\ccgKK9Ga.s 			page 4


  94:.\Generated_Source\PSoC5/Limit_Pin.c **** 	CyPins_SetPinDriveMode(Limit_Pin_2, mode);
  79              		.loc 1 94 0
  80 001c 0132     		adds	r2, r2, #1
  81 001e 1378     		ldrb	r3, [r2]	@ zero_extendqisi2
  82 0020 03F0F103 		and	r3, r3, #241
  83 0024 1843     		orrs	r0, r0, r3
  84 0026 1070     		strb	r0, [r2]
  85 0028 7047     		bx	lr
  86              	.L6:
  87 002a 00BF     		.align	2
  88              	.L5:
  89 002c 28500040 		.word	1073762344
  90              		.cfi_endproc
  91              	.LFE1:
  92              		.size	Limit_Pin_SetDriveMode, .-Limit_Pin_SetDriveMode
  93              		.section	.text.Limit_Pin_Read,"ax",%progbits
  94              		.align	2
  95              		.global	Limit_Pin_Read
  96              		.thumb
  97              		.thumb_func
  98              		.type	Limit_Pin_Read, %function
  99              	Limit_Pin_Read:
 100              	.LFB2:
  95:.\Generated_Source\PSoC5/Limit_Pin.c **** }
  96:.\Generated_Source\PSoC5/Limit_Pin.c **** 
  97:.\Generated_Source\PSoC5/Limit_Pin.c **** 
  98:.\Generated_Source\PSoC5/Limit_Pin.c **** /*******************************************************************************
  99:.\Generated_Source\PSoC5/Limit_Pin.c **** * Function Name: Limit_Pin_Read
 100:.\Generated_Source\PSoC5/Limit_Pin.c **** ****************************************************************************//**
 101:.\Generated_Source\PSoC5/Limit_Pin.c **** *
 102:.\Generated_Source\PSoC5/Limit_Pin.c **** * \brief Reads the associated physical port (pin status register) and masks 
 103:.\Generated_Source\PSoC5/Limit_Pin.c **** *  the required bits according to the width and bit position of the component
 104:.\Generated_Source\PSoC5/Limit_Pin.c **** *  instance. 
 105:.\Generated_Source\PSoC5/Limit_Pin.c **** *
 106:.\Generated_Source\PSoC5/Limit_Pin.c **** * The pin's status register returns the current logic level present on the 
 107:.\Generated_Source\PSoC5/Limit_Pin.c **** * physical pin.
 108:.\Generated_Source\PSoC5/Limit_Pin.c **** *
 109:.\Generated_Source\PSoC5/Limit_Pin.c **** * \return 
 110:.\Generated_Source\PSoC5/Limit_Pin.c **** *  The current value for the pins in the component as a right justified number.
 111:.\Generated_Source\PSoC5/Limit_Pin.c **** *
 112:.\Generated_Source\PSoC5/Limit_Pin.c **** * \funcusage
 113:.\Generated_Source\PSoC5/Limit_Pin.c **** *  \snippet Limit_Pin_SUT.c usage_Limit_Pin_Read  
 114:.\Generated_Source\PSoC5/Limit_Pin.c **** *******************************************************************************/
 115:.\Generated_Source\PSoC5/Limit_Pin.c **** uint8 Limit_Pin_Read(void)
 116:.\Generated_Source\PSoC5/Limit_Pin.c **** {
 101              		.loc 1 116 0
 102              		.cfi_startproc
 103              		@ args = 0, pretend = 0, frame = 0
 104              		@ frame_needed = 0, uses_anonymous_args = 0
 105              		@ link register save eliminated.
 117:.\Generated_Source\PSoC5/Limit_Pin.c ****     return (Limit_Pin_PS & Limit_Pin_MASK) >> Limit_Pin_SHIFT;
 106              		.loc 1 117 0
 107 0000 024B     		ldr	r3, .L8
 108 0002 1878     		ldrb	r0, [r3]	@ zero_extendqisi2
 118:.\Generated_Source\PSoC5/Limit_Pin.c **** }
 109              		.loc 1 118 0
 110 0004 00F00700 		and	r0, r0, #7
ARM GAS  C:\Users\Bart\AppData\Local\Temp\ccgKK9Ga.s 			page 5


 111 0008 7047     		bx	lr
 112              	.L9:
 113 000a 00BF     		.align	2
 114              	.L8:
 115 000c 51510040 		.word	1073762641
 116              		.cfi_endproc
 117              	.LFE2:
 118              		.size	Limit_Pin_Read, .-Limit_Pin_Read
 119              		.section	.text.Limit_Pin_ReadDataReg,"ax",%progbits
 120              		.align	2
 121              		.global	Limit_Pin_ReadDataReg
 122              		.thumb
 123              		.thumb_func
 124              		.type	Limit_Pin_ReadDataReg, %function
 125              	Limit_Pin_ReadDataReg:
 126              	.LFB3:
 119:.\Generated_Source\PSoC5/Limit_Pin.c **** 
 120:.\Generated_Source\PSoC5/Limit_Pin.c **** 
 121:.\Generated_Source\PSoC5/Limit_Pin.c **** /*******************************************************************************
 122:.\Generated_Source\PSoC5/Limit_Pin.c **** * Function Name: Limit_Pin_ReadDataReg
 123:.\Generated_Source\PSoC5/Limit_Pin.c **** ****************************************************************************//**
 124:.\Generated_Source\PSoC5/Limit_Pin.c **** *
 125:.\Generated_Source\PSoC5/Limit_Pin.c **** * \brief Reads the associated physical port's data output register and masks 
 126:.\Generated_Source\PSoC5/Limit_Pin.c **** *  the correct bits according to the width and bit position of the component 
 127:.\Generated_Source\PSoC5/Limit_Pin.c **** *  instance. 
 128:.\Generated_Source\PSoC5/Limit_Pin.c **** *
 129:.\Generated_Source\PSoC5/Limit_Pin.c **** * The data output register controls the signal applied to the physical pin in 
 130:.\Generated_Source\PSoC5/Limit_Pin.c **** * conjunction with the drive mode parameter. This is not the same as the 
 131:.\Generated_Source\PSoC5/Limit_Pin.c **** * preferred Limit_Pin_Read() API because the 
 132:.\Generated_Source\PSoC5/Limit_Pin.c **** * Limit_Pin_ReadDataReg() reads the data register instead of the status 
 133:.\Generated_Source\PSoC5/Limit_Pin.c **** * register. For output pins this is a useful function to determine the value 
 134:.\Generated_Source\PSoC5/Limit_Pin.c **** * just written to the pin.
 135:.\Generated_Source\PSoC5/Limit_Pin.c **** *
 136:.\Generated_Source\PSoC5/Limit_Pin.c **** * \return 
 137:.\Generated_Source\PSoC5/Limit_Pin.c **** *  The current value of the data register masked and shifted into a right 
 138:.\Generated_Source\PSoC5/Limit_Pin.c **** *  justified number for the component instance.
 139:.\Generated_Source\PSoC5/Limit_Pin.c **** *
 140:.\Generated_Source\PSoC5/Limit_Pin.c **** * \funcusage
 141:.\Generated_Source\PSoC5/Limit_Pin.c **** *  \snippet Limit_Pin_SUT.c usage_Limit_Pin_ReadDataReg 
 142:.\Generated_Source\PSoC5/Limit_Pin.c **** *******************************************************************************/
 143:.\Generated_Source\PSoC5/Limit_Pin.c **** uint8 Limit_Pin_ReadDataReg(void)
 144:.\Generated_Source\PSoC5/Limit_Pin.c **** {
 127              		.loc 1 144 0
 128              		.cfi_startproc
 129              		@ args = 0, pretend = 0, frame = 0
 130              		@ frame_needed = 0, uses_anonymous_args = 0
 131              		@ link register save eliminated.
 145:.\Generated_Source\PSoC5/Limit_Pin.c ****     return (Limit_Pin_DR & Limit_Pin_MASK) >> Limit_Pin_SHIFT;
 132              		.loc 1 145 0
 133 0000 024B     		ldr	r3, .L11
 134 0002 1878     		ldrb	r0, [r3]	@ zero_extendqisi2
 146:.\Generated_Source\PSoC5/Limit_Pin.c **** }
 135              		.loc 1 146 0
 136 0004 00F00700 		and	r0, r0, #7
 137 0008 7047     		bx	lr
 138              	.L12:
 139 000a 00BF     		.align	2
ARM GAS  C:\Users\Bart\AppData\Local\Temp\ccgKK9Ga.s 			page 6


 140              	.L11:
 141 000c 50510040 		.word	1073762640
 142              		.cfi_endproc
 143              	.LFE3:
 144              		.size	Limit_Pin_ReadDataReg, .-Limit_Pin_ReadDataReg
 145              		.text
 146              	.Letext0:
 147              		.file 2 ".\\Generated_Source\\PSoC5\\cytypes.h"