ARM GAS  C:\Users\Bart\AppData\Local\Temp\cc9rSPXf.s 			page 1


   1              		.syntax unified
   2              		.cpu cortex-m3
   3              		.fpu softvfp
   4              		.eabi_attribute 20, 1
   5              		.eabi_attribute 21, 1
   6              		.eabi_attribute 23, 3
   7              		.eabi_attribute 24, 1
   8              		.eabi_attribute 25, 1
   9              		.eabi_attribute 26, 1
  10              		.eabi_attribute 30, 1
  11              		.eabi_attribute 34, 1
  12              		.eabi_attribute 18, 4
  13              		.thumb
  14              		.file	"motion_control.c"
  15              		.text
  16              	.Ltext0:
  17              		.cfi_sections	.debug_frame
  18              		.section	.text.mc_line,"ax",%progbits
  19              		.align	2
  20              		.global	mc_line
  21              		.thumb
  22              		.thumb_func
  23              		.type	mc_line, %function
  24              	mc_line:
  25              	.LFB63:
  26              		.file 1 "motion_control.c"
   1:motion_control.c **** /*
   2:motion_control.c ****   motion_control.c - high level interface for issuing motion commands
   3:motion_control.c ****   Part of Grbl
   4:motion_control.c **** 
   5:motion_control.c ****   Copyright (c) 2011-2016 Sungeun K. Jeon for Gnea Research LLC
   6:motion_control.c ****   Copyright (c) 2009-2011 Simen Svale Skogsrud
   7:motion_control.c **** 
   8:motion_control.c ****   Grbl is free software: you can redistribute it and/or modify
   9:motion_control.c ****   it under the terms of the GNU General Public License as published by
  10:motion_control.c ****   the Free Software Foundation, either version 3 of the License, or
  11:motion_control.c ****   (at your option) any later version.
  12:motion_control.c **** 
  13:motion_control.c ****   Grbl is distributed in the hope that it will be useful,
  14:motion_control.c ****   but WITHOUT ANY WARRANTY; without even the implied warranty of
  15:motion_control.c ****   MERCHANTABILITY or FITNESS FOR A PARTICULAR PURPOSE.  See the
  16:motion_control.c ****   GNU General Public License for more details.
  17:motion_control.c **** 
  18:motion_control.c ****   You should have received a copy of the GNU General Public License
  19:motion_control.c ****   along with Grbl.  If not, see <http://www.gnu.org/licenses/>.
  20:motion_control.c **** */
  21:motion_control.c **** 
  22:motion_control.c **** #include "grbl.h"
  23:motion_control.c **** 
  24:motion_control.c **** 
  25:motion_control.c **** // Execute linear motion in absolute millimeter coordinates. Feed rate given in millimeters/second
  26:motion_control.c **** // unless invert_feed_rate is true. Then the feed_rate means that the motion should be completed in
  27:motion_control.c **** // (1 minute)/feed_rate time.
  28:motion_control.c **** // NOTE: This is the primary gateway to the grbl planner. All line motions, including arc line
  29:motion_control.c **** // segments, must pass through this routine before being passed to the planner. The seperation of
  30:motion_control.c **** // mc_line and plan_buffer_line is done primarily to place non-planner-type functions from being
  31:motion_control.c **** // in the planner and to let backlash compensation or canned cycle integration simple and direct.
ARM GAS  C:\Users\Bart\AppData\Local\Temp\cc9rSPXf.s 			page 2


  32:motion_control.c **** void mc_line(float *target, plan_line_data_t *pl_data)
  33:motion_control.c **** {
  27              		.loc 1 33 0
  28              		.cfi_startproc
  29              		@ args = 0, pretend = 0, frame = 0
  30              		@ frame_needed = 0, uses_anonymous_args = 0
  31              	.LVL0:
  32 0000 38B5     		push	{r3, r4, r5, lr}
  33              		.cfi_def_cfa_offset 16
  34              		.cfi_offset 3, -16
  35              		.cfi_offset 4, -12
  36              		.cfi_offset 5, -8
  37              		.cfi_offset 14, -4
  38 0002 0446     		mov	r4, r0
  39 0004 0D46     		mov	r5, r1
  34:motion_control.c ****   // If enabled, check for soft limit violations. Placed here all line motions are picked up
  35:motion_control.c ****   // from everywhere in Grbl.
  36:motion_control.c ****   if (bit_istrue(settings.flags,BITFLAG_SOFT_LIMIT_ENABLE)) {
  40              		.loc 1 36 0
  41 0006 104B     		ldr	r3, .L7
  42 0008 93F84830 		ldrb	r3, [r3, #72]	@ zero_extendqisi2
  43 000c 13F0200F 		tst	r3, #32
  44 0010 05D0     		beq	.L2
  37:motion_control.c ****     // NOTE: Block jog state. Jogging is a special case and soft limits are handled independently.
  38:motion_control.c ****     if (sys.state != STATE_JOG) { limits_soft_check(target); }
  45              		.loc 1 38 0
  46 0012 0E4B     		ldr	r3, .L7+4
  47 0014 1B78     		ldrb	r3, [r3]	@ zero_extendqisi2
  48 0016 202B     		cmp	r3, #32
  49 0018 01D0     		beq	.L2
  50              		.loc 1 38 0 is_stmt 0 discriminator 1
  51 001a FFF7FEFF 		bl	limits_soft_check
  52              	.LVL1:
  53              	.L2:
  39:motion_control.c ****   }
  40:motion_control.c **** 
  41:motion_control.c ****   // If in check gcode mode, prevent motion by blocking planner. Soft limits still work.
  42:motion_control.c ****   if (sys.state == STATE_CHECK_MODE) { return; }
  54              		.loc 1 42 0 is_stmt 1
  55 001e 0B4B     		ldr	r3, .L7+4
  56 0020 1B78     		ldrb	r3, [r3]	@ zero_extendqisi2
  57 0022 022B     		cmp	r3, #2
  58 0024 0ED0     		beq	.L1
  59              	.L5:
  43:motion_control.c **** 
  44:motion_control.c ****   // NOTE: Backlash compensation may be installed here. It will need direction info to track when
  45:motion_control.c ****   // to insert a backlash line motion(s) before the intended line motion and will require its own
  46:motion_control.c ****   // plan_check_full_buffer() and check for system abort loop. Also for position reporting
  47:motion_control.c ****   // backlash steps will need to be also tracked, which will need to be kept at a system level.
  48:motion_control.c ****   // There are likely some other things that will need to be tracked as well. However, we feel
  49:motion_control.c ****   // that backlash compensation should NOT be handled by Grbl itself, because there are a myriad
  50:motion_control.c ****   // of ways to implement it and can be effective or ineffective for different CNC machines. This
  51:motion_control.c ****   // would be better handled by the interface as a post-processor task, where the original g-code
  52:motion_control.c ****   // is translated and inserts backlash motions that best suits the machine.
  53:motion_control.c ****   // NOTE: Perhaps as a middle-ground, all that needs to be sent is a flag or special command that
  54:motion_control.c ****   // indicates to Grbl what is a backlash compensation motion, so that Grbl executes the move but
  55:motion_control.c ****   // doesn't update the machine position values. Since the position values used by the g-code
ARM GAS  C:\Users\Bart\AppData\Local\Temp\cc9rSPXf.s 			page 3


  56:motion_control.c ****   // parser and planner are separate from the system machine positions, this is doable.
  57:motion_control.c **** 
  58:motion_control.c ****   // If the buffer is full: good! That means we are well ahead of the robot.
  59:motion_control.c ****   // Remain in this loop until there is room in the buffer.
  60:motion_control.c ****   do {
  61:motion_control.c ****     protocol_execute_realtime(); // Check for any run-time commands
  60              		.loc 1 61 0
  61 0026 FFF7FEFF 		bl	protocol_execute_realtime
  62              	.LVL2:
  62:motion_control.c ****     if (sys.abort) { return; } // Bail, if system abort.
  63              		.loc 1 62 0
  64 002a 084B     		ldr	r3, .L7+4
  65 002c 5B78     		ldrb	r3, [r3, #1]	@ zero_extendqisi2
  66 002e 4BB9     		cbnz	r3, .L1
  63:motion_control.c ****     if ( plan_check_full_buffer() ) { protocol_auto_cycle_start(); } // Auto-cycle start when buffe
  67              		.loc 1 63 0
  68 0030 FFF7FEFF 		bl	plan_check_full_buffer
  69              	.LVL3:
  70 0034 10B1     		cbz	r0, .L4
  71              		.loc 1 63 0 is_stmt 0 discriminator 1
  72 0036 FFF7FEFF 		bl	protocol_auto_cycle_start
  73              	.LVL4:
  64:motion_control.c ****     else { break; }
  65:motion_control.c ****   } while (1);
  74              		.loc 1 65 0 is_stmt 1 discriminator 1
  75 003a F4E7     		b	.L5
  76              	.L4:
  66:motion_control.c **** 
  67:motion_control.c ****   // Plan and queue motion into planner buffer
  68:motion_control.c ****   // uint8_t plan_status; // Not used in normal operation.
  69:motion_control.c ****   plan_buffer_line(target, pl_data);
  77              		.loc 1 69 0
  78 003c 2046     		mov	r0, r4
  79 003e 2946     		mov	r1, r5
  80 0040 FFF7FEFF 		bl	plan_buffer_line
  81              	.LVL5:
  82              	.L1:
  83 0044 38BD     		pop	{r3, r4, r5, pc}
  84              	.LVL6:
  85              	.L8:
  86 0046 00BF     		.align	2
  87              	.L7:
  88 0048 00000000 		.word	settings
  89 004c 00000000 		.word	sys
  90              		.cfi_endproc
  91              	.LFE63:
  92              		.size	mc_line, .-mc_line
  93              		.global	__aeabi_fadd
  94              		.global	__aeabi_fsub
  95              		.global	__aeabi_fmul
  96              		.global	__aeabi_f2d
  97              		.global	__aeabi_d2f
  98              		.global	__aeabi_dcmpge
  99              		.global	__aeabi_dsub
 100              		.global	__aeabi_dcmple
 101              		.global	__aeabi_dadd
 102              		.global	__aeabi_dmul
ARM GAS  C:\Users\Bart\AppData\Local\Temp\cc9rSPXf.s 			page 4


 103              		.global	__aeabi_ddiv
 104              		.global	__aeabi_d2uiz
 105              		.global	__aeabi_i2f
 106              		.global	__aeabi_fdiv
 107              		.section	.text.mc_arc,"ax",%progbits
 108              		.align	2
 109              		.global	mc_arc
 110              		.thumb
 111              		.thumb_func
 112              		.type	mc_arc, %function
 113              	mc_arc:
 114              	.LFB64:
  70:motion_control.c **** }
  71:motion_control.c **** 
  72:motion_control.c **** 
  73:motion_control.c **** // Execute an arc in offset mode format. position == current xyz, target == target xyz,
  74:motion_control.c **** // offset == offset from current xyz, axis_X defines circle plane in tool space, axis_linear is
  75:motion_control.c **** // the direction of helical travel, radius == circle radius, isclockwise boolean. Used
  76:motion_control.c **** // for vector transformation direction.
  77:motion_control.c **** // The arc is approximated by generating a huge number of tiny, linear segments. The chordal tolera
  78:motion_control.c **** // of each segment is configured in settings.arc_tolerance, which is defined to be the maximum norm
  79:motion_control.c **** // distance from segment to the circle when the end points both lie on the circle.
  80:motion_control.c **** void mc_arc(float *target, plan_line_data_t *pl_data, float *position, float *offset, float radius,
  81:motion_control.c ****   uint8_t axis_0, uint8_t axis_1, uint8_t axis_linear, uint8_t is_clockwise_arc)
  82:motion_control.c **** {
 115              		.loc 1 82 0
 116              		.cfi_startproc
 117              		@ args = 20, pretend = 0, frame = 64
 118              		@ frame_needed = 0, uses_anonymous_args = 0
 119              	.LVL7:
 120 0000 2DE9F04F 		push	{r4, r5, r6, r7, r8, r9, r10, fp, lr}
 121              		.cfi_def_cfa_offset 36
 122              		.cfi_offset 4, -36
 123              		.cfi_offset 5, -32
 124              		.cfi_offset 6, -28
 125              		.cfi_offset 7, -24
 126              		.cfi_offset 8, -20
 127              		.cfi_offset 9, -16
 128              		.cfi_offset 10, -12
 129              		.cfi_offset 11, -8
 130              		.cfi_offset 14, -4
 131 0004 91B0     		sub	sp, sp, #68
 132              		.cfi_def_cfa_offset 104
 133 0006 0F90     		str	r0, [sp, #60]
 134 0008 0591     		str	r1, [sp, #20]
 135 000a 1546     		mov	r5, r2
 136 000c 0892     		str	r2, [sp, #32]
 137 000e 1E46     		mov	r6, r3
 138 0010 9DF86C70 		ldrb	r7, [sp, #108]	@ zero_extendqisi2
 139 0014 9DF87040 		ldrb	r4, [sp, #112]	@ zero_extendqisi2
 140 0018 9DF87410 		ldrb	r1, [sp, #116]	@ zero_extendqisi2
 141              	.LVL8:
 142 001c 0991     		str	r1, [sp, #36]
  83:motion_control.c ****   float center_axis0 = position[axis_0] + offset[axis_0];
 143              		.loc 1 83 0
 144 001e BB00     		lsls	r3, r7, #2
 145              	.LVL9:
ARM GAS  C:\Users\Bart\AppData\Local\Temp\cc9rSPXf.s 			page 5


 146 0020 02EB030B 		add	fp, r2, r3
 147 0024 06EB0309 		add	r9, r6, r3
 148 0028 56F82780 		ldr	r8, [r6, r7, lsl #2]	@ float
 149 002c 52F82700 		ldr	r0, [r2, r7, lsl #2]	@ float
 150              	.LVL10:
 151 0030 4146     		mov	r1, r8
 152 0032 FFF7FEFF 		bl	__aeabi_fadd
 153              	.LVL11:
 154 0036 0690     		str	r0, [sp, #24]	@ float
 155              	.LVL12:
  84:motion_control.c ****   float center_axis1 = position[axis_1] + offset[axis_1];
 156              		.loc 1 84 0
 157 0038 A300     		lsls	r3, r4, #2
 158 003a 2A46     		mov	r2, r5
 159 003c 1D44     		add	r5, r5, r3
 160              	.LVL13:
 161 003e F318     		adds	r3, r6, r3
 162 0040 0D93     		str	r3, [sp, #52]
 163 0042 56F82460 		ldr	r6, [r6, r4, lsl #2]	@ float
 164              	.LVL14:
 165 0046 52F82400 		ldr	r0, [r2, r4, lsl #2]	@ float
 166              	.LVL15:
 167 004a 3146     		mov	r1, r6
 168 004c FFF7FEFF 		bl	__aeabi_fadd
 169              	.LVL16:
 170 0050 0790     		str	r0, [sp, #28]	@ float
 171              	.LVL17:
  85:motion_control.c ****   float r_axis0 = -offset[axis_0];  // Radius vector from center to current location
 172              		.loc 1 85 0
 173 0052 08F10042 		add	r2, r8, #-2147483648
 174 0056 9246     		mov	r10, r2
 175 0058 0092     		str	r2, [sp]	@ float
 176              	.LVL18:
  86:motion_control.c ****   float r_axis1 = -offset[axis_1];
 177              		.loc 1 86 0
 178 005a 06F10046 		add	r6, r6, #-2147483648
 179              	.LVL19:
  87:motion_control.c ****   float rt_axis0 = target[axis_0] - center_axis0;
 180              		.loc 1 87 0
 181 005e 0F9B     		ldr	r3, [sp, #60]
 182 0060 53F82700 		ldr	r0, [r3, r7, lsl #2]	@ float
 183              	.LVL20:
 184 0064 0699     		ldr	r1, [sp, #24]	@ float
 185 0066 FFF7FEFF 		bl	__aeabi_fsub
 186              	.LVL21:
 187 006a 8046     		mov	r8, r0
 188              	.LVL22:
  88:motion_control.c ****   float rt_axis1 = target[axis_1] - center_axis1;
 189              		.loc 1 88 0
 190 006c 0F9B     		ldr	r3, [sp, #60]
 191 006e 53F82400 		ldr	r0, [r3, r4, lsl #2]	@ float
 192              	.LVL23:
 193 0072 0799     		ldr	r1, [sp, #28]	@ float
 194 0074 FFF7FEFF 		bl	__aeabi_fsub
 195              	.LVL24:
 196 0078 0446     		mov	r4, r0
 197              	.LVL25:
ARM GAS  C:\Users\Bart\AppData\Local\Temp\cc9rSPXf.s 			page 6


  89:motion_control.c **** 
  90:motion_control.c ****   // CCW angle between position and target from circle center. Only one atan2() trig computation re
  91:motion_control.c ****   float angular_travel = atan2(r_axis0*rt_axis1-r_axis1*rt_axis0, r_axis0*rt_axis0+r_axis1*rt_axis1
 198              		.loc 1 91 0
 199 007a 5046     		mov	r0, r10
 200              	.LVL26:
 201 007c 2146     		mov	r1, r4
 202 007e FFF7FEFF 		bl	__aeabi_fmul
 203              	.LVL27:
 204 0082 0746     		mov	r7, r0
 205 0084 3046     		mov	r0, r6
 206 0086 4146     		mov	r1, r8
 207 0088 FFF7FEFF 		bl	__aeabi_fmul
 208              	.LVL28:
 209 008c 0146     		mov	r1, r0
 210 008e 3846     		mov	r0, r7
 211 0090 FFF7FEFF 		bl	__aeabi_fsub
 212              	.LVL29:
 213 0094 0746     		mov	r7, r0
 214 0096 5046     		mov	r0, r10
 215 0098 4146     		mov	r1, r8
 216 009a FFF7FEFF 		bl	__aeabi_fmul
 217              	.LVL30:
 218 009e 8046     		mov	r8, r0
 219              	.LVL31:
 220 00a0 3046     		mov	r0, r6
 221 00a2 2146     		mov	r1, r4
 222 00a4 FFF7FEFF 		bl	__aeabi_fmul
 223              	.LVL32:
 224 00a8 0146     		mov	r1, r0
 225 00aa 4046     		mov	r0, r8
 226 00ac FFF7FEFF 		bl	__aeabi_fadd
 227              	.LVL33:
 228 00b0 0446     		mov	r4, r0
 229              	.LVL34:
 230 00b2 3846     		mov	r0, r7
 231 00b4 FFF7FEFF 		bl	__aeabi_f2d
 232              	.LVL35:
 233 00b8 CDE90201 		strd	r0, [sp, #8]
 234 00bc 2046     		mov	r0, r4
 235 00be FFF7FEFF 		bl	__aeabi_f2d
 236              	.LVL36:
 237 00c2 0246     		mov	r2, r0
 238 00c4 0B46     		mov	r3, r1
 239 00c6 DDE90201 		ldrd	r0, [sp, #8]
 240 00ca FFF7FEFF 		bl	atan2
 241              	.LVL37:
 242 00ce FFF7FEFF 		bl	__aeabi_d2f
 243              	.LVL38:
 244 00d2 8046     		mov	r8, r0
 245              	.LVL39:
  92:motion_control.c ****   if (is_clockwise_arc) { // Correct atan2 output per direction
 246              		.loc 1 92 0
 247 00d4 9DF87830 		ldrb	r3, [sp, #120]	@ zero_extendqisi2
 248 00d8 A3B1     		cbz	r3, .L10
  93:motion_control.c ****     if (angular_travel >= -ARC_ANGULAR_TRAVEL_EPSILON) { angular_travel -= 2*M_PI; }
 249              		.loc 1 93 0
ARM GAS  C:\Users\Bart\AppData\Local\Temp\cc9rSPXf.s 			page 7


 250 00da FFF7FEFF 		bl	__aeabi_f2d
 251              	.LVL40:
 252 00de CDE90201 		strd	r0, [sp, #8]
 253 00e2 9FA3     		adr	r3, .L24
 254 00e4 D3E90023 		ldrd	r2, [r3]
 255 00e8 FFF7FEFF 		bl	__aeabi_dcmpge
 256              	.LVL41:
 257 00ec F0B1     		cbz	r0, .L11
 258              		.loc 1 93 0 is_stmt 0 discriminator 1
 259 00ee DDE90201 		ldrd	r0, [sp, #8]
 260 00f2 9DA3     		adr	r3, .L24+8
 261 00f4 D3E90023 		ldrd	r2, [r3]
 262 00f8 FFF7FEFF 		bl	__aeabi_dsub
 263              	.LVL42:
 264 00fc FFF7FEFF 		bl	__aeabi_d2f
 265              	.LVL43:
 266 0100 8046     		mov	r8, r0
 267              	.LVL44:
 268 0102 13E0     		b	.L11
 269              	.L10:
  94:motion_control.c ****   } else {
  95:motion_control.c ****     if (angular_travel <= ARC_ANGULAR_TRAVEL_EPSILON) { angular_travel += 2*M_PI; }
 270              		.loc 1 95 0 is_stmt 1
 271 0104 FFF7FEFF 		bl	__aeabi_f2d
 272              	.LVL45:
 273 0108 CDE90201 		strd	r0, [sp, #8]
 274 010c 98A3     		adr	r3, .L24+16
 275 010e D3E90023 		ldrd	r2, [r3]
 276 0112 FFF7FEFF 		bl	__aeabi_dcmple
 277              	.LVL46:
 278 0116 48B1     		cbz	r0, .L11
 279              		.loc 1 95 0 is_stmt 0 discriminator 1
 280 0118 DDE90201 		ldrd	r0, [sp, #8]
 281 011c 92A3     		adr	r3, .L24+8
 282 011e D3E90023 		ldrd	r2, [r3]
 283 0122 FFF7FEFF 		bl	__aeabi_dadd
 284              	.LVL47:
 285 0126 FFF7FEFF 		bl	__aeabi_d2f
 286              	.LVL48:
 287 012a 8046     		mov	r8, r0
 288              	.LVL49:
 289              	.L11:
  96:motion_control.c ****   }
  97:motion_control.c **** 
  98:motion_control.c ****   // NOTE: Segment end points are on the arc, which can lead to the arc diameter being smaller by u
  99:motion_control.c ****   // (2x) settings.arc_tolerance. For 99% of users, this is just fine. If a different arc segment f
 100:motion_control.c ****   // is desired, i.e. least-squares, midpoint on arc, just change the mm_per_arc_segment calculatio
 101:motion_control.c ****   // For the intended uses of Grbl, this value shouldn't exceed 2000 for the strictest of cases.
 102:motion_control.c ****   uint16_t segments = floor(fabs(0.5*angular_travel*radius)/
 290              		.loc 1 102 0 is_stmt 1
 291 012c 4046     		mov	r0, r8
 292 012e FFF7FEFF 		bl	__aeabi_f2d
 293              	.LVL50:
 294 0132 0022     		movs	r2, #0
 295 0134 924B     		ldr	r3, .L24+32
 296 0136 FFF7FEFF 		bl	__aeabi_dmul
 297              	.LVL51:
ARM GAS  C:\Users\Bart\AppData\Local\Temp\cc9rSPXf.s 			page 8


 298 013a CDE90201 		strd	r0, [sp, #8]
 299 013e 1A98     		ldr	r0, [sp, #104]	@ float
 300 0140 FFF7FEFF 		bl	__aeabi_f2d
 301              	.LVL52:
 302 0144 0246     		mov	r2, r0
 303 0146 0B46     		mov	r3, r1
 304 0148 DDE90201 		ldrd	r0, [sp, #8]
 305 014c FFF7FEFF 		bl	__aeabi_dmul
 306              	.LVL53:
 307 0150 8246     		mov	r10, r0
 308              	.LVL54:
 309 0152 21F00044 		bic	r4, r1, #-2147483648
 103:motion_control.c ****                           sqrt(settings.arc_tolerance*(2*radius - settings.arc_tolerance)) );
 310              		.loc 1 103 0
 311 0156 1A98     		ldr	r0, [sp, #104]	@ float
 312 0158 0146     		mov	r1, r0
 313 015a FFF7FEFF 		bl	__aeabi_fadd
 314              	.LVL55:
 315 015e 894B     		ldr	r3, .L24+36
 316 0160 DF6B     		ldr	r7, [r3, #60]	@ float
 317 0162 3946     		mov	r1, r7
 318 0164 FFF7FEFF 		bl	__aeabi_fsub
 319              	.LVL56:
 320 0168 0146     		mov	r1, r0
 321 016a 3846     		mov	r0, r7
 322 016c FFF7FEFF 		bl	__aeabi_fmul
 323              	.LVL57:
 324 0170 0746     		mov	r7, r0
 325 0172 3846     		mov	r0, r7
 326 0174 FFF7FEFF 		bl	__aeabi_f2d
 327              	.LVL58:
 328 0178 FFF7FEFF 		bl	sqrt
 329              	.LVL59:
 330 017c 0246     		mov	r2, r0
 331 017e 0B46     		mov	r3, r1
 102:motion_control.c ****                           sqrt(settings.arc_tolerance*(2*radius - settings.arc_tolerance)) );
 332              		.loc 1 102 0
 333 0180 5046     		mov	r0, r10
 334 0182 2146     		mov	r1, r4
 335 0184 FFF7FEFF 		bl	__aeabi_ddiv
 336              	.LVL60:
 337 0188 FFF7FEFF 		bl	floor
 338              	.LVL61:
 339 018c FFF7FEFF 		bl	__aeabi_d2uiz
 340              	.LVL62:
 341 0190 1FFA80FA 		uxth	r10, r0
 342              	.LVL63:
 104:motion_control.c **** 
 105:motion_control.c ****   if (segments) {
 343              		.loc 1 105 0
 344 0194 BAF1000F 		cmp	r10, #0
 345 0198 00F0DA80 		beq	.L14
 346              	.LBB2:
 106:motion_control.c ****     // Multiply inverse feed_rate to compensate for the fact that this movement is approximated
 107:motion_control.c ****     // by a number of discrete segments. The inverse feed_rate should be correct for the sum of
 108:motion_control.c ****     // all segments.
 109:motion_control.c ****     if (pl_data->condition & PL_COND_FLAG_INVERSE_TIME) { 
ARM GAS  C:\Users\Bart\AppData\Local\Temp\cc9rSPXf.s 			page 9


 347              		.loc 1 109 0
 348 019c 059B     		ldr	r3, [sp, #20]
 349 019e 1C7A     		ldrb	r4, [r3, #8]	@ zero_extendqisi2
 350 01a0 14F0080F 		tst	r4, #8
 351 01a4 0BD0     		beq	.L15
 110:motion_control.c ****       pl_data->feed_rate *= segments; 
 352              		.loc 1 110 0
 353 01a6 5046     		mov	r0, r10
 354 01a8 FFF7FEFF 		bl	__aeabi_i2f
 355              	.LVL64:
 356 01ac 0146     		mov	r1, r0
 357 01ae 059F     		ldr	r7, [sp, #20]
 358 01b0 3868     		ldr	r0, [r7]	@ float
 359 01b2 FFF7FEFF 		bl	__aeabi_fmul
 360              	.LVL65:
 361 01b6 3860     		str	r0, [r7]	@ float
 111:motion_control.c ****       bit_false(pl_data->condition,PL_COND_FLAG_INVERSE_TIME); // Force as feed absolute mode over 
 362              		.loc 1 111 0
 363 01b8 24F00804 		bic	r4, r4, #8
 364 01bc 3C72     		strb	r4, [r7, #8]
 365              	.L15:
 112:motion_control.c ****     }
 113:motion_control.c ****     
 114:motion_control.c ****     float theta_per_segment = angular_travel/segments;
 366              		.loc 1 114 0
 367 01be 5046     		mov	r0, r10
 368 01c0 FFF7FEFF 		bl	__aeabi_i2f
 369              	.LVL66:
 370 01c4 0446     		mov	r4, r0
 371 01c6 4046     		mov	r0, r8
 372 01c8 2146     		mov	r1, r4
 373 01ca FFF7FEFF 		bl	__aeabi_fdiv
 374              	.LVL67:
 375 01ce 8046     		mov	r8, r0
 376              	.LVL68:
 377 01d0 0E90     		str	r0, [sp, #56]	@ float
 378              	.LVL69:
 115:motion_control.c ****     float linear_per_segment = (target[axis_linear] - position[axis_linear])/segments;
 379              		.loc 1 115 0
 380 01d2 0899     		ldr	r1, [sp, #32]
 381 01d4 099A     		ldr	r2, [sp, #36]
 382 01d6 01EB8207 		add	r7, r1, r2, lsl #2
 383 01da 0F9B     		ldr	r3, [sp, #60]
 384 01dc 1846     		mov	r0, r3
 385              	.LVL70:
 386 01de 1346     		mov	r3, r2
 387 01e0 50F82200 		ldr	r0, [r0, r2, lsl #2]	@ float
 388 01e4 51F82310 		ldr	r1, [r1, r3, lsl #2]	@ float
 389 01e8 FFF7FEFF 		bl	__aeabi_fsub
 390              	.LVL71:
 391 01ec 2146     		mov	r1, r4
 392 01ee FFF7FEFF 		bl	__aeabi_fdiv
 393              	.LVL72:
 394 01f2 0990     		str	r0, [sp, #36]	@ float
 395              	.LVL73:
 116:motion_control.c **** 
 117:motion_control.c ****     /* Vector rotation by transformation matrix: r is the original vector, r_T is the rotated vecto
ARM GAS  C:\Users\Bart\AppData\Local\Temp\cc9rSPXf.s 			page 10


 118:motion_control.c ****        and phi is the angle of rotation. Solution approach by Jens Geisler.
 119:motion_control.c ****            r_T = [cos(phi) -sin(phi);
 120:motion_control.c ****                   sin(phi)  cos(phi] * r ;
 121:motion_control.c **** 
 122:motion_control.c ****        For arc generation, the center of the circle is the axis of rotation and the radius vector i
 123:motion_control.c ****        defined from the circle center to the initial position. Each line segment is formed by succe
 124:motion_control.c ****        vector rotations. Single precision values can accumulate error greater than tool precision i
 125:motion_control.c ****        cases. So, exact arc path correction is implemented. This approach avoids the problem of too
 126:motion_control.c ****        expensive trig operations [sin(),cos(),tan()] which can take 100-200 usec each to compute.
 127:motion_control.c **** 
 128:motion_control.c ****        Small angle approximation may be used to reduce computation overhead further. A third-order 
 129:motion_control.c ****        (second order sin() has too much error) holds for most, if not, all CNC applications. Note t
 130:motion_control.c ****        approximation will begin to accumulate a numerical drift error when theta_per_segment is gre
 131:motion_control.c ****        ~0.25 rad(14 deg) AND the approximation is successively used without correction several doze
 132:motion_control.c ****        scenario is extremely unlikely, since segment lengths and theta_per_segment are automaticall
 133:motion_control.c ****        and scaled by the arc tolerance setting. Only a very large arc tolerance setting, unrealisti
 134:motion_control.c ****        applications, would cause this numerical drift error. However, it is best to set N_ARC_CORRE
 135:motion_control.c ****        low of ~4 to a high of ~20 or so to avoid trig operations while keeping arc generation accur
 136:motion_control.c **** 
 137:motion_control.c ****        This approximation also allows mc_arc to immediately insert a line segment into the planner
 138:motion_control.c ****        without the initial overhead of computing cos() or sin(). By the time the arc needs to be ap
 139:motion_control.c ****        a correction, the planner should have caught up to the lag caused by the initial mc_arc over
 140:motion_control.c ****        This is important when there are successive arc motions.
 141:motion_control.c ****     */
 142:motion_control.c ****     // Computes: cos_T = 1 - theta_per_segment^2/2, sin_T = theta_per_segment - theta_per_segment^3
 143:motion_control.c ****     float cos_T = 2.0 - theta_per_segment*theta_per_segment;
 396              		.loc 1 143 0
 397 01f4 4046     		mov	r0, r8
 398              	.LVL74:
 399 01f6 4146     		mov	r1, r8
 400 01f8 FFF7FEFF 		bl	__aeabi_fmul
 401              	.LVL75:
 402 01fc 0146     		mov	r1, r0
 403 01fe 4FF08040 		mov	r0, #1073741824
 404 0202 FFF7FEFF 		bl	__aeabi_fsub
 405              	.LVL76:
 406 0206 0446     		mov	r4, r0
 407              	.LVL77:
 144:motion_control.c ****     float sin_T = theta_per_segment*0.16666667*(cos_T + 4.0);
 408              		.loc 1 144 0
 409 0208 4046     		mov	r0, r8
 410              	.LVL78:
 411 020a FFF7FEFF 		bl	__aeabi_f2d
 412              	.LVL79:
 413 020e 5AA3     		adr	r3, .L24+24
 414 0210 D3E90023 		ldrd	r2, [r3]
 415 0214 FFF7FEFF 		bl	__aeabi_dmul
 416              	.LVL80:
 417 0218 CDE90201 		strd	r0, [sp, #8]
 418 021c 2046     		mov	r0, r4
 419 021e FFF7FEFF 		bl	__aeabi_f2d
 420              	.LVL81:
 421 0222 0022     		movs	r2, #0
 422 0224 584B     		ldr	r3, .L24+40
 423 0226 FFF7FEFF 		bl	__aeabi_dadd
 424              	.LVL82:
 425 022a 0246     		mov	r2, r0
ARM GAS  C:\Users\Bart\AppData\Local\Temp\cc9rSPXf.s 			page 11


 426 022c 0B46     		mov	r3, r1
 427 022e DDE90201 		ldrd	r0, [sp, #8]
 428 0232 FFF7FEFF 		bl	__aeabi_dmul
 429              	.LVL83:
 430 0236 FFF7FEFF 		bl	__aeabi_d2f
 431              	.LVL84:
 432 023a 0A90     		str	r0, [sp, #40]	@ float
 433              	.LVL85:
 145:motion_control.c ****     cos_T *= 0.5;
 434              		.loc 1 145 0
 435 023c 2046     		mov	r0, r4
 436              	.LVL86:
 437 023e 4FF07C51 		mov	r1, #1056964608
 438 0242 FFF7FEFF 		bl	__aeabi_fmul
 439              	.LVL87:
 440 0246 0B90     		str	r0, [sp, #44]	@ float
 441              	.LVL88:
 146:motion_control.c **** 
 147:motion_control.c ****     float sin_Ti;
 148:motion_control.c ****     float cos_Ti;
 149:motion_control.c ****     float r_axisi;
 150:motion_control.c ****     uint16_t i;
 151:motion_control.c ****     uint8_t count = 0;
 442              		.loc 1 151 0
 443 0248 4FF00008 		mov	r8, #0
 444              	.LVL89:
 152:motion_control.c **** 
 153:motion_control.c ****     for (i = 1; i<segments; i++) { // Increment (segments-1).
 445              		.loc 1 153 0
 446 024c 0124     		movs	r4, #1
 447 024e 2B46     		mov	r3, r5
 448 0250 4D46     		mov	r5, r9
 449 0252 9946     		mov	r9, r3
 450 0254 7AE0     		b	.L16
 451              	.LVL90:
 452              	.L20:
 154:motion_control.c **** 
 155:motion_control.c ****       if (count < N_ARC_CORRECTION) {
 453              		.loc 1 155 0
 454 0256 B8F10B0F 		cmp	r8, #11
 455 025a 21D8     		bhi	.L17
 156:motion_control.c ****         // Apply vector rotation matrix. ~40 usec
 157:motion_control.c ****         r_axisi = r_axis0*sin_T + r_axis1*cos_T;
 456              		.loc 1 157 0
 457 025c 0098     		ldr	r0, [sp]	@ float
 458 025e 0A99     		ldr	r1, [sp, #40]	@ float
 459 0260 FFF7FEFF 		bl	__aeabi_fmul
 460              	.LVL91:
 461 0264 0290     		str	r0, [sp, #8]	@ float
 462 0266 3046     		mov	r0, r6
 463 0268 0B99     		ldr	r1, [sp, #44]	@ float
 464 026a FFF7FEFF 		bl	__aeabi_fmul
 465              	.LVL92:
 466 026e 0146     		mov	r1, r0
 467 0270 0298     		ldr	r0, [sp, #8]	@ float
 468 0272 FFF7FEFF 		bl	__aeabi_fadd
 469              	.LVL93:
ARM GAS  C:\Users\Bart\AppData\Local\Temp\cc9rSPXf.s 			page 12


 470 0276 0290     		str	r0, [sp, #8]	@ float
 471              	.LVL94:
 158:motion_control.c ****         r_axis0 = r_axis0*cos_T - r_axis1*sin_T;
 472              		.loc 1 158 0
 473 0278 0098     		ldr	r0, [sp]	@ float
 474              	.LVL95:
 475 027a 0B99     		ldr	r1, [sp, #44]	@ float
 476 027c FFF7FEFF 		bl	__aeabi_fmul
 477              	.LVL96:
 478 0280 0090     		str	r0, [sp]	@ float
 479              	.LVL97:
 480 0282 3046     		mov	r0, r6
 481 0284 0A99     		ldr	r1, [sp, #40]	@ float
 482 0286 FFF7FEFF 		bl	__aeabi_fmul
 483              	.LVL98:
 484 028a 0146     		mov	r1, r0
 485 028c 0098     		ldr	r0, [sp]	@ float
 486 028e FFF7FEFF 		bl	__aeabi_fsub
 487              	.LVL99:
 488 0292 0090     		str	r0, [sp]	@ float
 489              	.LVL100:
 159:motion_control.c ****         r_axis1 = r_axisi;
 160:motion_control.c ****         count++;
 490              		.loc 1 160 0
 491 0294 08F10108 		add	r8, r8, #1
 492              	.LVL101:
 493 0298 5FFA88F8 		uxtb	r8, r8
 494              	.LVL102:
 159:motion_control.c ****         r_axis1 = r_axisi;
 495              		.loc 1 159 0
 496 029c 029E     		ldr	r6, [sp, #8]	@ float
 497 029e 3BE0     		b	.L18
 498              	.LVL103:
 499              	.L17:
 161:motion_control.c ****       } else {
 162:motion_control.c ****         // Arc correction to radius vector. Computed only every N_ARC_CORRECTION increments. ~375 u
 163:motion_control.c ****         // Compute exact location by applying transformation matrix from initial radius vector(=-of
 164:motion_control.c ****         cos_Ti = cos(i*theta_per_segment);
 500              		.loc 1 164 0
 501 02a0 2046     		mov	r0, r4
 502 02a2 FFF7FEFF 		bl	__aeabi_i2f
 503              	.LVL104:
 504 02a6 0E99     		ldr	r1, [sp, #56]	@ float
 505 02a8 FFF7FEFF 		bl	__aeabi_fmul
 506              	.LVL105:
 507 02ac FFF7FEFF 		bl	__aeabi_f2d
 508              	.LVL106:
 509 02b0 CDE90001 		strd	r0, [sp]
 510              	.LVL107:
 511 02b4 FFF7FEFF 		bl	cos
 512              	.LVL108:
 513 02b8 FFF7FEFF 		bl	__aeabi_d2f
 514              	.LVL109:
 515 02bc 8046     		mov	r8, r0
 516              	.LVL110:
 165:motion_control.c ****         sin_Ti = sin(i*theta_per_segment);
 517              		.loc 1 165 0
ARM GAS  C:\Users\Bart\AppData\Local\Temp\cc9rSPXf.s 			page 13


 518 02be DDE90001 		ldrd	r0, [sp]
 519              	.LVL111:
 520 02c2 FFF7FEFF 		bl	sin
 521              	.LVL112:
 522 02c6 FFF7FEFF 		bl	__aeabi_d2f
 523              	.LVL113:
 524 02ca 0290     		str	r0, [sp, #8]	@ float
 525              	.LVL114:
 166:motion_control.c ****         r_axis0 = -offset[axis_0]*cos_Ti + offset[axis_1]*sin_Ti;
 526              		.loc 1 166 0
 527 02cc 2E68     		ldr	r6, [r5]	@ float
 528              	.LVL115:
 529 02ce 06F10046 		add	r6, r6, #-2147483648
 530 02d2 3046     		mov	r0, r6
 531              	.LVL116:
 532 02d4 CDF83080 		str	r8, [sp, #48]	@ float
 533 02d8 4146     		mov	r1, r8
 534 02da FFF7FEFF 		bl	__aeabi_fmul
 535              	.LVL117:
 536 02de 0090     		str	r0, [sp]	@ float
 537 02e0 0D9B     		ldr	r3, [sp, #52]
 538 02e2 D3F80080 		ldr	r8, [r3]	@ float
 539              	.LVL118:
 540 02e6 4046     		mov	r0, r8
 541 02e8 0299     		ldr	r1, [sp, #8]	@ float
 542 02ea FFF7FEFF 		bl	__aeabi_fmul
 543              	.LVL119:
 544 02ee 0146     		mov	r1, r0
 545 02f0 0098     		ldr	r0, [sp]	@ float
 546 02f2 FFF7FEFF 		bl	__aeabi_fadd
 547              	.LVL120:
 548 02f6 0090     		str	r0, [sp]	@ float
 549              	.LVL121:
 167:motion_control.c ****         r_axis1 = -offset[axis_0]*sin_Ti - offset[axis_1]*cos_Ti;
 550              		.loc 1 167 0
 551 02f8 0298     		ldr	r0, [sp, #8]	@ float
 552              	.LVL122:
 553 02fa 3146     		mov	r1, r6
 554 02fc FFF7FEFF 		bl	__aeabi_fmul
 555              	.LVL123:
 556 0300 0646     		mov	r6, r0
 557 0302 0C98     		ldr	r0, [sp, #48]	@ float
 558 0304 4146     		mov	r1, r8
 559 0306 FFF7FEFF 		bl	__aeabi_fmul
 560              	.LVL124:
 561 030a 0146     		mov	r1, r0
 562 030c 3046     		mov	r0, r6
 563 030e FFF7FEFF 		bl	__aeabi_fsub
 564              	.LVL125:
 565 0312 0646     		mov	r6, r0
 566              	.LVL126:
 168:motion_control.c ****         count = 0;
 567              		.loc 1 168 0
 568 0314 4FF00008 		mov	r8, #0
 569              	.LVL127:
 570              	.L18:
 169:motion_control.c ****       }
ARM GAS  C:\Users\Bart\AppData\Local\Temp\cc9rSPXf.s 			page 14


 170:motion_control.c **** 
 171:motion_control.c ****       // Update arc_target location
 172:motion_control.c ****       position[axis_0] = center_axis0 + r_axis0;
 571              		.loc 1 172 0
 572 0318 0698     		ldr	r0, [sp, #24]	@ float
 573 031a 0099     		ldr	r1, [sp]	@ float
 574 031c FFF7FEFF 		bl	__aeabi_fadd
 575              	.LVL128:
 576 0320 CBF80000 		str	r0, [fp]	@ float
 173:motion_control.c ****       position[axis_1] = center_axis1 + r_axis1;
 577              		.loc 1 173 0
 578 0324 0798     		ldr	r0, [sp, #28]	@ float
 579 0326 3146     		mov	r1, r6
 580 0328 FFF7FEFF 		bl	__aeabi_fadd
 581              	.LVL129:
 582 032c C9F80000 		str	r0, [r9]	@ float
 174:motion_control.c ****       position[axis_linear] += linear_per_segment;
 583              		.loc 1 174 0
 584 0330 3868     		ldr	r0, [r7]	@ float
 585 0332 0999     		ldr	r1, [sp, #36]	@ float
 586 0334 FFF7FEFF 		bl	__aeabi_fadd
 587              	.LVL130:
 588 0338 3860     		str	r0, [r7]	@ float
 175:motion_control.c **** 
 176:motion_control.c ****       mc_line(position, pl_data);
 589              		.loc 1 176 0
 590 033a 0898     		ldr	r0, [sp, #32]
 591 033c 0599     		ldr	r1, [sp, #20]
 592 033e FFF7FEFF 		bl	mc_line
 593              	.LVL131:
 177:motion_control.c **** 
 178:motion_control.c ****       // Bail mid-circle on system abort. Runtime command check already performed by mc_line.
 179:motion_control.c ****       if (sys.abort) { return; }
 594              		.loc 1 179 0
 595 0342 124B     		ldr	r3, .L24+44
 596 0344 5B78     		ldrb	r3, [r3, #1]	@ zero_extendqisi2
 597 0346 3BB9     		cbnz	r3, .L9
 153:motion_control.c **** 
 598              		.loc 1 153 0 discriminator 2
 599 0348 0134     		adds	r4, r4, #1
 600              	.LVL132:
 601 034a A4B2     		uxth	r4, r4
 602              	.LVL133:
 603              	.L16:
 153:motion_control.c **** 
 604              		.loc 1 153 0 is_stmt 0 discriminator 1
 605 034c 5445     		cmp	r4, r10
 606 034e 82D3     		bcc	.L20
 607              	.LVL134:
 608              	.L14:
 609              	.LBE2:
 180:motion_control.c ****     }
 181:motion_control.c ****   }
 182:motion_control.c ****   // Ensure last segment arrives at target location.
 183:motion_control.c ****   mc_line(target, pl_data);
 610              		.loc 1 183 0 is_stmt 1
 611 0350 0F98     		ldr	r0, [sp, #60]
ARM GAS  C:\Users\Bart\AppData\Local\Temp\cc9rSPXf.s 			page 15


 612 0352 0599     		ldr	r1, [sp, #20]
 613 0354 FFF7FEFF 		bl	mc_line
 614              	.LVL135:
 615              	.L9:
 184:motion_control.c **** }
 616              		.loc 1 184 0
 617 0358 11B0     		add	sp, sp, #68
 618              		.cfi_def_cfa_offset 36
 619              		@ sp needed
 620 035a BDE8F08F 		pop	{r4, r5, r6, r7, r8, r9, r10, fp, pc}
 621              	.LVL136:
 622              	.L25:
 623 035e 00BF     		.align	3
 624              	.L24:
 625 0360 8DEDB5A0 		.word	-1598689907
 626 0364 F7C6A0BE 		.word	-1096759561
 627 0368 182D4454 		.word	1413754136
 628 036c FB211940 		.word	1075388923
 629 0370 8DEDB5A0 		.word	-1598689907
 630 0374 F7C6A03E 		.word	1050724087
 631 0378 4BDA7D5C 		.word	1551751755
 632 037c 5555C53F 		.word	1069897045
 633 0380 0000E03F 		.word	1071644672
 634 0384 00000000 		.word	settings
 635 0388 00001040 		.word	1074790400
 636 038c 00000000 		.word	sys
 637              		.cfi_endproc
 638              	.LFE64:
 639              		.size	mc_arc, .-mc_arc
 640              		.section	.text.mc_dwell,"ax",%progbits
 641              		.align	2
 642              		.global	mc_dwell
 643              		.thumb
 644              		.thumb_func
 645              		.type	mc_dwell, %function
 646              	mc_dwell:
 647              	.LFB65:
 185:motion_control.c **** 
 186:motion_control.c **** 
 187:motion_control.c **** // Execute dwell in seconds.
 188:motion_control.c **** void mc_dwell(float seconds)
 189:motion_control.c **** {
 648              		.loc 1 189 0
 649              		.cfi_startproc
 650              		@ args = 0, pretend = 0, frame = 0
 651              		@ frame_needed = 0, uses_anonymous_args = 0
 652              	.LVL137:
 190:motion_control.c ****   if (sys.state == STATE_CHECK_MODE) { return; }
 653              		.loc 1 190 0
 654 0000 064B     		ldr	r3, .L30
 655 0002 1B78     		ldrb	r3, [r3]	@ zero_extendqisi2
 656 0004 022B     		cmp	r3, #2
 657 0006 08D0     		beq	.L29
 189:motion_control.c ****   if (sys.state == STATE_CHECK_MODE) { return; }
 658              		.loc 1 189 0
 659 0008 10B5     		push	{r4, lr}
 660              		.cfi_def_cfa_offset 8
ARM GAS  C:\Users\Bart\AppData\Local\Temp\cc9rSPXf.s 			page 16


 661              		.cfi_offset 4, -8
 662              		.cfi_offset 14, -4
 663 000a 0446     		mov	r4, r0
 191:motion_control.c ****   protocol_buffer_synchronize();
 664              		.loc 1 191 0
 665 000c FFF7FEFF 		bl	protocol_buffer_synchronize
 666              	.LVL138:
 192:motion_control.c ****   delay_sec(seconds, DELAY_MODE_DWELL);
 667              		.loc 1 192 0
 668 0010 2046     		mov	r0, r4
 669 0012 0021     		movs	r1, #0
 670 0014 FFF7FEFF 		bl	delay_sec
 671              	.LVL139:
 672 0018 10BD     		pop	{r4, pc}
 673              	.LVL140:
 674              	.L29:
 675              		.cfi_def_cfa_offset 0
 676              		.cfi_restore 4
 677              		.cfi_restore 14
 678 001a 7047     		bx	lr
 679              	.L31:
 680              		.align	2
 681              	.L30:
 682 001c 00000000 		.word	sys
 683              		.cfi_endproc
 684              	.LFE65:
 685              		.size	mc_dwell, .-mc_dwell
 686              		.section	.text.mc_homing_cycle,"ax",%progbits
 687              		.align	2
 688              		.global	mc_homing_cycle
 689              		.thumb
 690              		.thumb_func
 691              		.type	mc_homing_cycle, %function
 692              	mc_homing_cycle:
 693              	.LFB66:
 193:motion_control.c **** }
 194:motion_control.c **** 
 195:motion_control.c **** 
 196:motion_control.c **** // Perform homing cycle to locate and set machine zero. Only '$H' executes this command.
 197:motion_control.c **** // NOTE: There should be no motions in the buffer and Grbl must be in an idle state before
 198:motion_control.c **** // executing the homing cycle. This prevents incorrect buffered plans after homing.
 199:motion_control.c **** void mc_homing_cycle(uint8_t cycle_mask)
 200:motion_control.c **** {
 694              		.loc 1 200 0
 695              		.cfi_startproc
 696              		@ args = 0, pretend = 0, frame = 0
 697              		@ frame_needed = 0, uses_anonymous_args = 0
 698              	.LVL141:
 699 0000 10B5     		push	{r4, lr}
 700              		.cfi_def_cfa_offset 8
 701              		.cfi_offset 4, -8
 702              		.cfi_offset 14, -4
 703 0002 0446     		mov	r4, r0
 201:motion_control.c ****   // Check and abort homing cycle, if hard limits are already enabled. Helps prevent problems
 202:motion_control.c ****   // with machines with limits wired on both ends of travel to one limit pin.
 203:motion_control.c ****   // TODO: Move the pin-specific LIMIT_PIN call to limits.c as a function.
 204:motion_control.c ****   #ifdef LIMITS_TWO_SWITCHES_ON_AXES
ARM GAS  C:\Users\Bart\AppData\Local\Temp\cc9rSPXf.s 			page 17


 205:motion_control.c ****     if (limits_get_state()) {
 206:motion_control.c ****       mc_reset(); // Issue system reset and ensure spindle and coolant are shutdown.
 207:motion_control.c ****       system_set_exec_alarm(EXEC_ALARM_HARD_LIMIT);
 208:motion_control.c ****       return;
 209:motion_control.c ****     }
 210:motion_control.c ****   #endif
 211:motion_control.c **** 
 212:motion_control.c ****   limits_disable(); // Disable hard limits pin change register for cycle duration
 704              		.loc 1 212 0
 705 0004 FFF7FEFF 		bl	limits_disable
 706              	.LVL142:
 213:motion_control.c **** 
 214:motion_control.c ****   // -------------------------------------------------------------------------------------
 215:motion_control.c ****   // Perform homing routine. NOTE: Special motion case. Only system reset works.
 216:motion_control.c ****   
 217:motion_control.c ****   #ifdef HOMING_SINGLE_AXIS_COMMANDS
 218:motion_control.c ****     if (cycle_mask) { limits_go_home(cycle_mask); } // Perform homing cycle based on mask.
 707              		.loc 1 218 0
 708 0008 1CB1     		cbz	r4, .L33
 709              		.loc 1 218 0 is_stmt 0 discriminator 1
 710 000a 2046     		mov	r0, r4
 711 000c FFF7FEFF 		bl	limits_go_home
 712              	.LVL143:
 713 0010 08E0     		b	.L34
 714              	.L33:
 219:motion_control.c ****     else
 220:motion_control.c ****   #endif
 221:motion_control.c ****   {
 222:motion_control.c ****     // Search to engage all axes limit switches at faster homing seek rate.
 223:motion_control.c ****     limits_go_home(HOMING_CYCLE_0);  // Homing cycle 0
 715              		.loc 1 223 0 is_stmt 1
 716 0012 0420     		movs	r0, #4
 717 0014 FFF7FEFF 		bl	limits_go_home
 718              	.LVL144:
 224:motion_control.c ****     #ifdef HOMING_CYCLE_1
 225:motion_control.c ****       limits_go_home(HOMING_CYCLE_1);  // Homing cycle 1
 719              		.loc 1 225 0
 720 0018 0120     		movs	r0, #1
 721 001a FFF7FEFF 		bl	limits_go_home
 722              	.LVL145:
 226:motion_control.c ****     #endif
 227:motion_control.c ****     #ifdef HOMING_CYCLE_2
 228:motion_control.c ****       limits_go_home(HOMING_CYCLE_2);  // Homing cycle 2
 723              		.loc 1 228 0
 724 001e 0220     		movs	r0, #2
 725 0020 FFF7FEFF 		bl	limits_go_home
 726              	.LVL146:
 727              	.L34:
 229:motion_control.c ****     #endif
 230:motion_control.c ****     
 231:motion_control.c ****     
 232:motion_control.c ****    
 233:motion_control.c ****     
 234:motion_control.c ****   }
 235:motion_control.c **** 
 236:motion_control.c ****   protocol_execute_realtime(); // Check for reset and set system abort.
 728              		.loc 1 236 0
ARM GAS  C:\Users\Bart\AppData\Local\Temp\cc9rSPXf.s 			page 18


 729 0024 FFF7FEFF 		bl	protocol_execute_realtime
 730              	.LVL147:
 237:motion_control.c ****   if (sys.abort) { return; } // Did not complete. Alarm state set by mc_alarm.
 731              		.loc 1 237 0
 732 0028 044B     		ldr	r3, .L37
 733 002a 5B78     		ldrb	r3, [r3, #1]	@ zero_extendqisi2
 734 002c 2BB9     		cbnz	r3, .L32
 238:motion_control.c **** 
 239:motion_control.c ****   // Homing cycle complete! Setup system for normal operation.
 240:motion_control.c ****   // -------------------------------------------------------------------------------------
 241:motion_control.c **** 
 242:motion_control.c ****   // Sync gcode parser and planner positions to homed position.
 243:motion_control.c ****   gc_sync_position();
 735              		.loc 1 243 0
 736 002e FFF7FEFF 		bl	gc_sync_position
 737              	.LVL148:
 244:motion_control.c ****   plan_sync_position();
 738              		.loc 1 244 0
 739 0032 FFF7FEFF 		bl	plan_sync_position
 740              	.LVL149:
 245:motion_control.c **** 
 246:motion_control.c ****   // If hard limits feature enabled, re-enable hard limits pin change register after homing cycle.
 247:motion_control.c ****   limits_init();
 741              		.loc 1 247 0
 742 0036 FFF7FEFF 		bl	limits_init
 743              	.LVL150:
 744              	.L32:
 745 003a 10BD     		pop	{r4, pc}
 746              	.L38:
 747              		.align	2
 748              	.L37:
 749 003c 00000000 		.word	sys
 750              		.cfi_endproc
 751              	.LFE66:
 752              		.size	mc_homing_cycle, .-mc_homing_cycle
 753              		.section	.text.mc_probe_cycle,"ax",%progbits
 754              		.align	2
 755              		.global	mc_probe_cycle
 756              		.thumb
 757              		.thumb_func
 758              		.type	mc_probe_cycle, %function
 759              	mc_probe_cycle:
 760              	.LFB67:
 248:motion_control.c **** }
 249:motion_control.c **** 
 250:motion_control.c **** 
 251:motion_control.c **** // Perform tool length probe cycle. Requires probe switch.
 252:motion_control.c **** // NOTE: Upon probe failure, the program will be stopped and placed into ALARM state.
 253:motion_control.c **** uint8_t mc_probe_cycle(float *target, plan_line_data_t *pl_data, uint8_t parser_flags)
 254:motion_control.c **** {
 761              		.loc 1 254 0
 762              		.cfi_startproc
 763              		@ args = 0, pretend = 0, frame = 0
 764              		@ frame_needed = 0, uses_anonymous_args = 0
 765              	.LVL151:
 766 0000 F8B5     		push	{r3, r4, r5, r6, r7, lr}
 767              		.cfi_def_cfa_offset 24
ARM GAS  C:\Users\Bart\AppData\Local\Temp\cc9rSPXf.s 			page 19


 768              		.cfi_offset 3, -24
 769              		.cfi_offset 4, -20
 770              		.cfi_offset 5, -16
 771              		.cfi_offset 6, -12
 772              		.cfi_offset 7, -8
 773              		.cfi_offset 14, -4
 255:motion_control.c ****   // TODO: Need to update this cycle so it obeys a non-auto cycle start.
 256:motion_control.c ****   if (sys.state == STATE_CHECK_MODE) { return(GC_PROBE_CHECK_MODE); }
 774              		.loc 1 256 0
 775 0002 324B     		ldr	r3, .L50
 776 0004 1B78     		ldrb	r3, [r3]	@ zero_extendqisi2
 777 0006 022B     		cmp	r3, #2
 778 0008 59D0     		beq	.L46
 779 000a 1646     		mov	r6, r2
 780 000c 0D46     		mov	r5, r1
 781 000e 0446     		mov	r4, r0
 257:motion_control.c **** 
 258:motion_control.c ****   // Finish all queued commands and empty planner buffer before starting probe cycle.
 259:motion_control.c ****   protocol_buffer_synchronize();
 782              		.loc 1 259 0
 783 0010 FFF7FEFF 		bl	protocol_buffer_synchronize
 784              	.LVL152:
 260:motion_control.c ****   if (sys.abort) { return(GC_PROBE_ABORT); } // Return if system reset has been issued.
 785              		.loc 1 260 0
 786 0014 2D4B     		ldr	r3, .L50
 787 0016 5B78     		ldrb	r3, [r3, #1]	@ zero_extendqisi2
 788 0018 002B     		cmp	r3, #0
 789 001a 52D1     		bne	.L47
 790              	.LVL153:
 261:motion_control.c **** 
 262:motion_control.c ****   // Initialize probing control variables
 263:motion_control.c ****   uint8_t is_probe_away = bit_istrue(parser_flags,GC_PARSER_PROBE_IS_AWAY);
 264:motion_control.c ****   uint8_t is_no_error = bit_istrue(parser_flags,GC_PARSER_PROBE_IS_NO_ERROR);
 791              		.loc 1 264 0
 792 001c 06F01007 		and	r7, r6, #16
 793 0020 FFB2     		uxtb	r7, r7
 794              	.LVL154:
 265:motion_control.c ****   sys.probe_succeeded = false; // Re-initialize probe history before beginning cycle.
 795              		.loc 1 265 0
 796 0022 0022     		movs	r2, #0
 797 0024 294B     		ldr	r3, .L50
 798 0026 5A71     		strb	r2, [r3, #5]
 266:motion_control.c ****   probe_configure_invert_mask(is_probe_away);
 799              		.loc 1 266 0
 800 0028 C6F3C000 		ubfx	r0, r6, #3, #1
 801 002c FFF7FEFF 		bl	probe_configure_invert_mask
 802              	.LVL155:
 267:motion_control.c **** 
 268:motion_control.c ****   // After syncing, check if probe is already triggered. If so, halt and issue alarm.
 269:motion_control.c ****   // NOTE: This probe initialization error applies to all probing cycles.
 270:motion_control.c ****   if ( probe_get_state() ) { // Check probe pin state.
 803              		.loc 1 270 0
 804 0030 FFF7FEFF 		bl	probe_get_state
 805              	.LVL156:
 806 0034 48B1     		cbz	r0, .L41
 271:motion_control.c ****     system_set_exec_alarm(EXEC_ALARM_PROBE_FAIL_INITIAL);
 807              		.loc 1 271 0
ARM GAS  C:\Users\Bart\AppData\Local\Temp\cc9rSPXf.s 			page 20


 808 0036 0420     		movs	r0, #4
 809 0038 FFF7FEFF 		bl	system_set_exec_alarm
 810              	.LVL157:
 272:motion_control.c ****     protocol_execute_realtime();
 811              		.loc 1 272 0
 812 003c FFF7FEFF 		bl	protocol_execute_realtime
 813              	.LVL158:
 273:motion_control.c ****     probe_configure_invert_mask(false); // Re-initialize invert mask before returning.
 814              		.loc 1 273 0
 815 0040 0020     		movs	r0, #0
 816 0042 FFF7FEFF 		bl	probe_configure_invert_mask
 817              	.LVL159:
 274:motion_control.c ****     return(GC_PROBE_FAIL_INIT); // Nothing else to do but bail.
 818              		.loc 1 274 0
 819 0046 0220     		movs	r0, #2
 820 0048 F8BD     		pop	{r3, r4, r5, r6, r7, pc}
 821              	.LVL160:
 822              	.L41:
 275:motion_control.c ****   }
 276:motion_control.c **** 
 277:motion_control.c ****   // Setup and queue probing motion. Auto cycle-start should not start the cycle.
 278:motion_control.c ****   mc_line(target, pl_data);
 823              		.loc 1 278 0
 824 004a 2046     		mov	r0, r4
 825 004c 2946     		mov	r1, r5
 826 004e FFF7FEFF 		bl	mc_line
 827              	.LVL161:
 279:motion_control.c **** 
 280:motion_control.c ****   // Activate the probing state monitor in the stepper module.
 281:motion_control.c ****   sys_probe_state = PROBE_ACTIVE;
 828              		.loc 1 281 0
 829 0052 0122     		movs	r2, #1
 830 0054 1E4B     		ldr	r3, .L50+4
 831 0056 1A70     		strb	r2, [r3]
 282:motion_control.c **** 
 283:motion_control.c ****   // Perform probing cycle. Wait here until probe is triggered or motion completes.
 284:motion_control.c ****   system_set_exec_state_flag(EXEC_CYCLE_START);
 832              		.loc 1 284 0
 833 0058 0220     		movs	r0, #2
 834 005a FFF7FEFF 		bl	system_set_exec_state_flag
 835              	.LVL162:
 836              	.L42:
 285:motion_control.c ****   do {
 286:motion_control.c ****     protocol_execute_realtime();
 837              		.loc 1 286 0
 838 005e FFF7FEFF 		bl	protocol_execute_realtime
 839              	.LVL163:
 287:motion_control.c ****     if (sys.abort) { return(GC_PROBE_ABORT); } // Check for system abort
 840              		.loc 1 287 0
 841 0062 1A4B     		ldr	r3, .L50
 842 0064 5B78     		ldrb	r3, [r3, #1]	@ zero_extendqisi2
 843 0066 73BB     		cbnz	r3, .L48
 288:motion_control.c ****   } while (sys.state != STATE_IDLE);
 844              		.loc 1 288 0
 845 0068 184B     		ldr	r3, .L50
 846 006a 1B78     		ldrb	r3, [r3]	@ zero_extendqisi2
 847 006c 002B     		cmp	r3, #0
ARM GAS  C:\Users\Bart\AppData\Local\Temp\cc9rSPXf.s 			page 21


 848 006e F6D1     		bne	.L42
 289:motion_control.c **** 
 290:motion_control.c ****   // Probing cycle complete!
 291:motion_control.c **** 
 292:motion_control.c ****   // Set state variables and error out, if the probe failed and cycle with error is enabled.
 293:motion_control.c ****   if (sys_probe_state == PROBE_ACTIVE) {
 849              		.loc 1 293 0
 850 0070 174B     		ldr	r3, .L50+4
 851 0072 1B78     		ldrb	r3, [r3]	@ zero_extendqisi2
 852 0074 DBB2     		uxtb	r3, r3
 853 0076 012B     		cmp	r3, #1
 854 0078 0AD1     		bne	.L43
 294:motion_control.c ****     if (is_no_error) { memcpy(sys_probe_position, sys_position, sizeof(sys_position)); }
 855              		.loc 1 294 0
 856 007a 2FB1     		cbz	r7, .L44
 857              		.loc 1 294 0 is_stmt 0 discriminator 1
 858 007c 154B     		ldr	r3, .L50+8
 859 007e 164A     		ldr	r2, .L50+12
 860 0080 07CA     		ldmia	r2, {r0, r1, r2}
 861 0082 83E80700 		stmia	r3, {r0, r1, r2}
 862 0086 06E0     		b	.L45
 863              	.L44:
 295:motion_control.c ****     else { system_set_exec_alarm(EXEC_ALARM_PROBE_FAIL_CONTACT); }
 864              		.loc 1 295 0 is_stmt 1
 865 0088 0520     		movs	r0, #5
 866 008a FFF7FEFF 		bl	system_set_exec_alarm
 867              	.LVL164:
 868 008e 02E0     		b	.L45
 869              	.L43:
 296:motion_control.c ****   } else {
 297:motion_control.c ****     sys.probe_succeeded = true; // Indicate to system the probing cycle completed successfully.
 870              		.loc 1 297 0
 871 0090 0122     		movs	r2, #1
 872 0092 0E4B     		ldr	r3, .L50
 873 0094 5A71     		strb	r2, [r3, #5]
 874              	.L45:
 298:motion_control.c ****   }
 299:motion_control.c ****   sys_probe_state = PROBE_OFF; // Ensure probe state monitor is disabled.
 875              		.loc 1 299 0
 876 0096 0020     		movs	r0, #0
 877 0098 0D4B     		ldr	r3, .L50+4
 878 009a 1870     		strb	r0, [r3]
 300:motion_control.c ****   probe_configure_invert_mask(false); // Re-initialize invert mask.
 879              		.loc 1 300 0
 880 009c FFF7FEFF 		bl	probe_configure_invert_mask
 881              	.LVL165:
 301:motion_control.c ****   protocol_execute_realtime();   // Check and execute run-time commands
 882              		.loc 1 301 0
 883 00a0 FFF7FEFF 		bl	protocol_execute_realtime
 884              	.LVL166:
 302:motion_control.c **** 
 303:motion_control.c ****   // Reset the stepper and planner buffers to remove the remainder of the probe motion.
 304:motion_control.c ****   st_reset(); // Reset step segment buffer.
 885              		.loc 1 304 0
 886 00a4 FFF7FEFF 		bl	st_reset
 887              	.LVL167:
 305:motion_control.c ****   plan_reset(); // Reset planner buffer. Zero planner positions. Ensure probing motion is cleared.
ARM GAS  C:\Users\Bart\AppData\Local\Temp\cc9rSPXf.s 			page 22


 888              		.loc 1 305 0
 889 00a8 FFF7FEFF 		bl	plan_reset
 890              	.LVL168:
 306:motion_control.c ****   plan_sync_position(); // Sync planner position to current machine position.
 891              		.loc 1 306 0
 892 00ac FFF7FEFF 		bl	plan_sync_position
 893              	.LVL169:
 307:motion_control.c **** 
 308:motion_control.c ****   #ifdef MESSAGE_PROBE_COORDINATES
 309:motion_control.c ****     // All done! Output the probe position as message.
 310:motion_control.c ****     report_probe_parameters();
 894              		.loc 1 310 0
 895 00b0 FFF7FEFF 		bl	report_probe_parameters
 896              	.LVL170:
 311:motion_control.c ****   #endif
 312:motion_control.c **** 
 313:motion_control.c ****   if (sys.probe_succeeded) { return(GC_PROBE_FOUND); } // Successful probe cycle.
 897              		.loc 1 313 0
 898 00b4 054B     		ldr	r3, .L50
 899 00b6 5879     		ldrb	r0, [r3, #5]	@ zero_extendqisi2
 900 00b8 30B1     		cbz	r0, .L40
 901 00ba 0120     		movs	r0, #1
 902 00bc F8BD     		pop	{r3, r4, r5, r6, r7, pc}
 903              	.LVL171:
 904              	.L46:
 256:motion_control.c **** 
 905              		.loc 1 256 0
 906 00be 0020     		movs	r0, #0
 907              	.LVL172:
 908 00c0 F8BD     		pop	{r3, r4, r5, r6, r7, pc}
 909              	.LVL173:
 910              	.L47:
 260:motion_control.c **** 
 911              		.loc 1 260 0
 912 00c2 0220     		movs	r0, #2
 913 00c4 F8BD     		pop	{r3, r4, r5, r6, r7, pc}
 914              	.LVL174:
 915              	.L48:
 287:motion_control.c ****   } while (sys.state != STATE_IDLE);
 916              		.loc 1 287 0
 917 00c6 0220     		movs	r0, #2
 918              	.L40:
 314:motion_control.c ****   else { return(GC_PROBE_FAIL_END); } // Failed to trigger probe within travel. With or without err
 315:motion_control.c **** }
 919              		.loc 1 315 0
 920 00c8 F8BD     		pop	{r3, r4, r5, r6, r7, pc}
 921              	.LVL175:
 922              	.L51:
 923 00ca 00BF     		.align	2
 924              	.L50:
 925 00cc 00000000 		.word	sys
 926 00d0 00000000 		.word	sys_probe_state
 927 00d4 00000000 		.word	sys_probe_position
 928 00d8 00000000 		.word	sys_position
 929              		.cfi_endproc
 930              	.LFE67:
 931              		.size	mc_probe_cycle, .-mc_probe_cycle
ARM GAS  C:\Users\Bart\AppData\Local\Temp\cc9rSPXf.s 			page 23


 932              		.section	.text.mc_parking_motion,"ax",%progbits
 933              		.align	2
 934              		.global	mc_parking_motion
 935              		.thumb
 936              		.thumb_func
 937              		.type	mc_parking_motion, %function
 938              	mc_parking_motion:
 939              	.LFB68:
 316:motion_control.c **** 
 317:motion_control.c **** 
 318:motion_control.c **** // Plans and executes the single special motion case for parking. Independent of main planner buffe
 319:motion_control.c **** // NOTE: Uses the always free planner ring buffer head to store motion parameters for execution.
 320:motion_control.c **** void mc_parking_motion(float *parking_target, plan_line_data_t *pl_data)
 321:motion_control.c **** {
 940              		.loc 1 321 0
 941              		.cfi_startproc
 942              		@ args = 0, pretend = 0, frame = 0
 943              		@ frame_needed = 0, uses_anonymous_args = 0
 944              	.LVL176:
 945 0000 08B5     		push	{r3, lr}
 946              		.cfi_def_cfa_offset 8
 947              		.cfi_offset 3, -8
 948              		.cfi_offset 14, -4
 322:motion_control.c ****   if (sys.abort) { return; } // Block during abort.
 949              		.loc 1 322 0
 950 0002 144B     		ldr	r3, .L57
 951 0004 5B78     		ldrb	r3, [r3, #1]	@ zero_extendqisi2
 952 0006 1BBB     		cbnz	r3, .L52
 323:motion_control.c **** 
 324:motion_control.c ****   uint8_t plan_status = plan_buffer_line(parking_target, pl_data);
 953              		.loc 1 324 0
 954 0008 FFF7FEFF 		bl	plan_buffer_line
 955              	.LVL177:
 325:motion_control.c **** 
 326:motion_control.c ****   if (plan_status) {
 956              		.loc 1 326 0
 957 000c C8B1     		cbz	r0, .L54
 327:motion_control.c **** 		bit_true(sys.step_control, STEP_CONTROL_EXECUTE_SYS_MOTION);
 958              		.loc 1 327 0
 959 000e 114A     		ldr	r2, .L57
 960 0010 1379     		ldrb	r3, [r2, #4]	@ zero_extendqisi2
 961 0012 43F00403 		orr	r3, r3, #4
 328:motion_control.c **** 		bit_false(sys.step_control, STEP_CONTROL_END_MOTION); // Allow parking motion to execute, if feed
 962              		.loc 1 328 0
 963 0016 23F00103 		bic	r3, r3, #1
 964 001a 1371     		strb	r3, [r2, #4]
 329:motion_control.c ****     st_parking_setup_buffer(); // Setup step segment buffer for special parking motion case
 965              		.loc 1 329 0
 966 001c FFF7FEFF 		bl	st_parking_setup_buffer
 967              	.LVL178:
 330:motion_control.c **** 		st_prep_buffer();
 968              		.loc 1 330 0
 969 0020 FFF7FEFF 		bl	st_prep_buffer
 970              	.LVL179:
 331:motion_control.c **** 		st_wake_up();
 971              		.loc 1 331 0
 972 0024 FFF7FEFF 		bl	st_wake_up
ARM GAS  C:\Users\Bart\AppData\Local\Temp\cc9rSPXf.s 			page 24


 973              	.LVL180:
 974              	.L55:
 332:motion_control.c **** 		do {
 333:motion_control.c **** 			protocol_exec_rt_system();
 975              		.loc 1 333 0
 976 0028 FFF7FEFF 		bl	protocol_exec_rt_system
 977              	.LVL181:
 334:motion_control.c **** 			if (sys.abort) { return; }
 978              		.loc 1 334 0
 979 002c 094B     		ldr	r3, .L57
 980 002e 5B78     		ldrb	r3, [r3, #1]	@ zero_extendqisi2
 981 0030 73B9     		cbnz	r3, .L52
 335:motion_control.c **** 		} while (sys.step_control & STEP_CONTROL_EXECUTE_SYS_MOTION);
 982              		.loc 1 335 0
 983 0032 084B     		ldr	r3, .L57
 984 0034 1B79     		ldrb	r3, [r3, #4]	@ zero_extendqisi2
 985 0036 13F0040F 		tst	r3, #4
 986 003a F5D1     		bne	.L55
 336:motion_control.c **** 		st_parking_restore_buffer(); // Restore step segment buffer to normal run state.
 987              		.loc 1 336 0
 988 003c FFF7FEFF 		bl	st_parking_restore_buffer
 989              	.LVL182:
 990 0040 08BD     		pop	{r3, pc}
 991              	.LVL183:
 992              	.L54:
 337:motion_control.c **** 	} else {
 338:motion_control.c ****     bit_false(sys.step_control, STEP_CONTROL_EXECUTE_SYS_MOTION);
 993              		.loc 1 338 0
 994 0042 044A     		ldr	r2, .L57
 995 0044 1379     		ldrb	r3, [r2, #4]	@ zero_extendqisi2
 996 0046 23F00403 		bic	r3, r3, #4
 997 004a 1371     		strb	r3, [r2, #4]
 339:motion_control.c **** 		protocol_exec_rt_system();
 998              		.loc 1 339 0
 999 004c FFF7FEFF 		bl	protocol_exec_rt_system
 1000              	.LVL184:
 1001              	.L52:
 1002 0050 08BD     		pop	{r3, pc}
 1003              	.L58:
 1004 0052 00BF     		.align	2
 1005              	.L57:
 1006 0054 00000000 		.word	sys
 1007              		.cfi_endproc
 1008              	.LFE68:
 1009              		.size	mc_parking_motion, .-mc_parking_motion
 1010              		.section	.text.mc_reset,"ax",%progbits
 1011              		.align	2
 1012              		.global	mc_reset
 1013              		.thumb
 1014              		.thumb_func
 1015              		.type	mc_reset, %function
 1016              	mc_reset:
 1017              	.LFB69:
 340:motion_control.c ****   }
 341:motion_control.c **** 
 342:motion_control.c **** }
 343:motion_control.c **** 
ARM GAS  C:\Users\Bart\AppData\Local\Temp\cc9rSPXf.s 			page 25


 344:motion_control.c **** 
 345:motion_control.c **** // Method to ready the system to reset by setting the realtime reset command and killing any
 346:motion_control.c **** // active processes in the system. This also checks if a system reset is issued while Grbl
 347:motion_control.c **** // is in a motion state. If so, kills the steppers and sets the system alarm to flag position
 348:motion_control.c **** // lost, since there was an abrupt uncontrolled deceleration. Called at an interrupt level by
 349:motion_control.c **** // realtime abort command and hard limits. So, keep to a minimum.
 350:motion_control.c **** void mc_reset()
 351:motion_control.c **** {
 1018              		.loc 1 351 0
 1019              		.cfi_startproc
 1020              		@ args = 0, pretend = 0, frame = 0
 1021              		@ frame_needed = 0, uses_anonymous_args = 0
 1022 0000 08B5     		push	{r3, lr}
 1023              		.cfi_def_cfa_offset 8
 1024              		.cfi_offset 3, -8
 1025              		.cfi_offset 14, -4
 352:motion_control.c ****   // Only this function can set the system reset. Helps prevent multiple kill calls.
 353:motion_control.c ****   if (bit_isfalse(sys_rt_exec_state, EXEC_RESET)) {
 1026              		.loc 1 353 0
 1027 0002 134B     		ldr	r3, .L65
 1028 0004 1B78     		ldrb	r3, [r3]	@ zero_extendqisi2
 1029 0006 13F0100F 		tst	r3, #16
 1030 000a 20D1     		bne	.L59
 354:motion_control.c ****     system_set_exec_state_flag(EXEC_RESET);
 1031              		.loc 1 354 0
 1032 000c 1020     		movs	r0, #16
 1033 000e FFF7FEFF 		bl	system_set_exec_state_flag
 1034              	.LVL185:
 355:motion_control.c **** 
 356:motion_control.c ****     // Kill spindle and coolant.
 357:motion_control.c ****     spindle_stop();
 1035              		.loc 1 357 0
 1036 0012 FFF7FEFF 		bl	spindle_stop
 1037              	.LVL186:
 358:motion_control.c ****     coolant_stop();
 1038              		.loc 1 358 0
 1039 0016 FFF7FEFF 		bl	coolant_stop
 1040              	.LVL187:
 359:motion_control.c **** 
 360:motion_control.c ****     // Kill steppers only if in any motion state, i.e. cycle, actively holding, or homing.
 361:motion_control.c ****     // NOTE: If steppers are kept enabled via the step idle delay setting, this also keeps
 362:motion_control.c ****     // the steppers enabled by avoiding the go_idle call altogether, unless the motion state is
 363:motion_control.c ****     // violated, by which, all bets are off.
 364:motion_control.c ****     if ((sys.state & (STATE_CYCLE | STATE_HOMING | STATE_JOG)) ||
 1041              		.loc 1 364 0
 1042 001a 0E4B     		ldr	r3, .L65+4
 1043 001c 1B78     		ldrb	r3, [r3]	@ zero_extendqisi2
 1044 001e 13F02C0F 		tst	r3, #44
 1045 0022 04D1     		bne	.L61
 365:motion_control.c ****     		(sys.step_control & (STEP_CONTROL_EXECUTE_HOLD | STEP_CONTROL_EXECUTE_SYS_MOTION))) {
 1046              		.loc 1 365 0 discriminator 1
 1047 0024 0B4A     		ldr	r2, .L65+4
 1048 0026 1279     		ldrb	r2, [r2, #4]	@ zero_extendqisi2
 364:motion_control.c ****     		(sys.step_control & (STEP_CONTROL_EXECUTE_HOLD | STEP_CONTROL_EXECUTE_SYS_MOTION))) {
 1049              		.loc 1 364 0 discriminator 1
 1050 0028 12F0060F 		tst	r2, #6
 1051 002c 0FD0     		beq	.L59
ARM GAS  C:\Users\Bart\AppData\Local\Temp\cc9rSPXf.s 			page 26


 1052              	.L61:
 366:motion_control.c ****       if (sys.state == STATE_HOMING) { 
 1053              		.loc 1 366 0
 1054 002e 042B     		cmp	r3, #4
 1055 0030 08D1     		bne	.L62
 367:motion_control.c ****         if (!sys_rt_exec_alarm) {system_set_exec_alarm(EXEC_ALARM_HOMING_FAIL_RESET); }
 1056              		.loc 1 367 0
 1057 0032 094B     		ldr	r3, .L65+8
 1058 0034 1B78     		ldrb	r3, [r3]	@ zero_extendqisi2
 1059 0036 13F0FF0F 		tst	r3, #255
 1060 003a 06D1     		bne	.L63
 1061              		.loc 1 367 0 is_stmt 0 discriminator 1
 1062 003c 0620     		movs	r0, #6
 1063 003e FFF7FEFF 		bl	system_set_exec_alarm
 1064              	.LVL188:
 1065 0042 02E0     		b	.L63
 1066              	.L62:
 368:motion_control.c ****       } else { system_set_exec_alarm(EXEC_ALARM_ABORT_CYCLE); }
 1067              		.loc 1 368 0 is_stmt 1
 1068 0044 0320     		movs	r0, #3
 1069 0046 FFF7FEFF 		bl	system_set_exec_alarm
 1070              	.LVL189:
 1071              	.L63:
 369:motion_control.c ****       st_go_idle(); // Force kill steppers. Position has likely been lost.
 1072              		.loc 1 369 0
 1073 004a FFF7FEFF 		bl	st_go_idle
 1074              	.LVL190:
 1075              	.L59:
 1076 004e 08BD     		pop	{r3, pc}
 1077              	.L66:
 1078              		.align	2
 1079              	.L65:
 1080 0050 00000000 		.word	sys_rt_exec_state
 1081 0054 00000000 		.word	sys
 1082 0058 00000000 		.word	sys_rt_exec_alarm
 1083              		.cfi_endproc
 1084              	.LFE69:
 1085              		.size	mc_reset, .-mc_reset
 1086              		.comm	exec_lcd_status,1,1
 1087              		.comm	sys_rt_exec_debug,1,1
 1088              		.comm	sys_rt_exec_accessory_override,1,1
 1089              		.comm	sys_rt_exec_motion_override,1,1
 1090              		.comm	sys_rt_exec_alarm,1,1
 1091              		.comm	sys_rt_exec_state,1,1
 1092              		.comm	sys_probe_state,1,1
 1093              		.comm	sys_probe_position,12,4
 1094              		.comm	sys_position,12,4
 1095              		.text
 1096              	.Letext0:
 1097              		.file 2 "d:\\program files (x86)\\cypress\\psoc creator\\4.0\\psoc creator\\import\\gnu\\arm\\4.9.
 1098              		.file 3 "d:\\program files (x86)\\cypress\\psoc creator\\4.0\\psoc creator\\import\\gnu\\arm\\4.9.
 1099              		.file 4 "settings.h"
 1100              		.file 5 "system.h"
 1101              		.file 6 "planner.h"
 1102              		.file 7 "Generated_Source\\PSoC5/core_cm3.h"
 1103              		.file 8 "lcd_report.h"
 1104              		.file 9 "./limits.h"
ARM GAS  C:\Users\Bart\AppData\Local\Temp\cc9rSPXf.s 			page 27


 1105              		.file 10 "protocol.h"
 1106              		.file 11 "d:\\program files (x86)\\cypress\\psoc creator\\4.0\\psoc creator\\import\\gnu\\arm\\4.9
 1107              		.file 12 "nuts_bolts.h"
 1108              		.file 13 "gcode.h"
 1109              		.file 14 "probe.h"
 1110              		.file 15 "stepper.h"
 1111              		.file 16 "report.h"
 1112              		.file 17 "spindle_control.h"
 1113              		.file 18 "coolant_control.h"