ARM GAS  C:\Users\Bart\AppData\Local\Temp\ccVZz0lh.s 			page 1


   1              		.syntax unified
   2              		.cpu cortex-m3
   3              		.fpu softvfp
   4              		.eabi_attribute 20, 1
   5              		.eabi_attribute 21, 1
   6              		.eabi_attribute 23, 3
   7              		.eabi_attribute 24, 1
   8              		.eabi_attribute 25, 1
   9              		.eabi_attribute 26, 1
  10              		.eabi_attribute 30, 1
  11              		.eabi_attribute 34, 1
  12              		.eabi_attribute 18, 4
  13              		.thumb
  14              		.file	"nut_bolts.c"
  15              		.text
  16              	.Ltext0:
  17              		.cfi_sections	.debug_frame
  18              		.global	__aeabi_ui2f
  19              		.global	__aeabi_fcmpeq
  20              		.global	__aeabi_f2d
  21              		.global	__aeabi_dmul
  22              		.global	__aeabi_d2f
  23              		.global	__aeabi_fmul
  24              		.section	.text.read_float,"ax",%progbits
  25              		.align	2
  26              		.global	read_float
  27              		.thumb
  28              		.thumb_func
  29              		.type	read_float, %function
  30              	read_float:
  31              	.LFB63:
  32              		.file 1 "nut_bolts.c"
   1:nut_bolts.c   **** /*
   2:nut_bolts.c   ****   nuts_bolts.c - Shared functions
   3:nut_bolts.c   ****   Part of Grbl
   4:nut_bolts.c   **** 
   5:nut_bolts.c   ****   Copyright (c) 2011-2016 Sungeun K. Jeon for Gnea Research LLC
   6:nut_bolts.c   ****   Copyright (c) 2009-2011 Simen Svale Skogsrud
   7:nut_bolts.c   **** 
   8:nut_bolts.c   ****   Grbl is free software: you can redistribute it and/or modify
   9:nut_bolts.c   ****   it under the terms of the GNU General Public License as published by
  10:nut_bolts.c   ****   the Free Software Foundation, either version 3 of the License, or
  11:nut_bolts.c   ****   (at your option) any later version.
  12:nut_bolts.c   **** 
  13:nut_bolts.c   ****   Grbl is distributed in the hope that it will be useful,
  14:nut_bolts.c   ****   but WITHOUT ANY WARRANTY; without even the implied warranty of
  15:nut_bolts.c   ****   MERCHANTABILITY or FITNESS FOR A PARTICULAR PURPOSE.  See the
  16:nut_bolts.c   ****   GNU General Public License for more details.
  17:nut_bolts.c   **** 
  18:nut_bolts.c   ****   You should have received a copy of the GNU General Public License
  19:nut_bolts.c   ****   along with Grbl.  If not, see <http://www.gnu.org/licenses/>.
  20:nut_bolts.c   **** */
  21:nut_bolts.c   **** 
  22:nut_bolts.c   **** #include "grbl.h"
  23:nut_bolts.c   **** 
  24:nut_bolts.c   **** 
  25:nut_bolts.c   **** #define MAX_INT_DIGITS 8 // Maximum number of digits in int32 (and float)
ARM GAS  C:\Users\Bart\AppData\Local\Temp\ccVZz0lh.s 			page 2


  26:nut_bolts.c   **** 
  27:nut_bolts.c   **** 
  28:nut_bolts.c   **** // Extracts a floating point value from a string. The following code is based loosely on
  29:nut_bolts.c   **** // the avr-libc strtod() function by Michael Stumpf and Dmitry Xmelkov and many freely
  30:nut_bolts.c   **** // available conversion method examples, but has been highly optimized for Grbl. For known
  31:nut_bolts.c   **** // CNC applications, the typical decimal value is expected to be in the range of E0 to E-4.
  32:nut_bolts.c   **** // Scientific notation is officially not supported by g-code, and the 'E' character may
  33:nut_bolts.c   **** // be a g-code word on some CNC systems. So, 'E' notation will not be recognized.
  34:nut_bolts.c   **** // NOTE: Thanks to Radu-Eosif Mihailescu for identifying the issues with using strtod().
  35:nut_bolts.c   **** uint8_t read_float(char *line, uint8_t *char_counter, float *float_ptr)
  36:nut_bolts.c   **** {
  33              		.loc 1 36 0
  34              		.cfi_startproc
  35              		@ args = 0, pretend = 0, frame = 0
  36              		@ frame_needed = 0, uses_anonymous_args = 0
  37              	.LVL0:
  38 0000 2DE9F047 		push	{r4, r5, r6, r7, r8, r9, r10, lr}
  39              		.cfi_def_cfa_offset 32
  40              		.cfi_offset 4, -32
  41              		.cfi_offset 5, -28
  42              		.cfi_offset 6, -24
  43              		.cfi_offset 7, -20
  44              		.cfi_offset 8, -16
  45              		.cfi_offset 9, -12
  46              		.cfi_offset 10, -8
  47              		.cfi_offset 14, -4
  48 0004 9146     		mov	r9, r2
  37:nut_bolts.c   ****   char *ptr = line + *char_counter;
  49              		.loc 1 37 0
  50 0006 0B78     		ldrb	r3, [r1]	@ zero_extendqisi2
  51 0008 C218     		adds	r2, r0, r3
  52              	.LVL1:
  38:nut_bolts.c   ****   unsigned char c;
  39:nut_bolts.c   **** 
  40:nut_bolts.c   ****   // Grab first character and increment pointer. No spaces assumed in line.
  41:nut_bolts.c   ****   c = *ptr++;
  53              		.loc 1 41 0
  54 000a 541C     		adds	r4, r2, #1
  55              	.LVL2:
  56 000c C35C     		ldrb	r3, [r0, r3]	@ zero_extendqisi2
  57              	.LVL3:
  42:nut_bolts.c   **** 
  43:nut_bolts.c   ****   // Capture initial positive/minus character
  44:nut_bolts.c   ****   bool isnegative = false;
  45:nut_bolts.c   ****   if (c == '-') {
  58              		.loc 1 45 0
  59 000e 2D2B     		cmp	r3, #45
  60 0010 03D1     		bne	.L2
  61              	.LVL4:
  46:nut_bolts.c   ****     isnegative = true;
  47:nut_bolts.c   ****     c = *ptr++;
  62              		.loc 1 47 0
  63 0012 941C     		adds	r4, r2, #2
  64              	.LVL5:
  65 0014 5378     		ldrb	r3, [r2, #1]	@ zero_extendqisi2
  66              	.LVL6:
  46:nut_bolts.c   ****     isnegative = true;
ARM GAS  C:\Users\Bart\AppData\Local\Temp\ccVZz0lh.s 			page 3


  67              		.loc 1 46 0
  68 0016 0127     		movs	r7, #1
  69 0018 06E0     		b	.L3
  70              	.LVL7:
  71              	.L2:
  48:nut_bolts.c   ****   } else if (c == '+') {
  72              		.loc 1 48 0
  73 001a 2B2B     		cmp	r3, #43
  74 001c 03D1     		bne	.L19
  49:nut_bolts.c   ****     c = *ptr++;
  75              		.loc 1 49 0
  76 001e 941C     		adds	r4, r2, #2
  77              	.LVL8:
  78 0020 5378     		ldrb	r3, [r2, #1]	@ zero_extendqisi2
  79              	.LVL9:
  44:nut_bolts.c   ****   if (c == '-') {
  80              		.loc 1 44 0
  81 0022 0027     		movs	r7, #0
  82 0024 00E0     		b	.L3
  83              	.L19:
  84 0026 0027     		movs	r7, #0
  85              	.LVL10:
  86              	.L3:
  50:nut_bolts.c   ****   }
  51:nut_bolts.c   **** 
  52:nut_bolts.c   ****   // Extract number into fast integer. Track decimal in terms of exponent value.
  53:nut_bolts.c   ****   uint32_t intval = 0;
  54:nut_bolts.c   ****   int8_t exp = 0;
  55:nut_bolts.c   ****   uint8_t ndigit = 0;
  56:nut_bolts.c   ****   bool isdecimal = false;
  87              		.loc 1 56 0
  88 0028 0022     		movs	r2, #0
  55:nut_bolts.c   ****   bool isdecimal = false;
  89              		.loc 1 55 0
  90 002a 1546     		mov	r5, r2
  54:nut_bolts.c   ****   uint8_t ndigit = 0;
  91              		.loc 1 54 0
  92 002c 1646     		mov	r6, r2
  53:nut_bolts.c   ****   int8_t exp = 0;
  93              		.loc 1 53 0
  94 002e 9646     		mov	lr, r2
  95              	.LVL11:
  96              	.L9:
  57:nut_bolts.c   ****   while(1) {
  58:nut_bolts.c   ****     c -= '0';
  97              		.loc 1 58 0
  98 0030 303B     		subs	r3, r3, #48
  99              	.LVL12:
 100 0032 DBB2     		uxtb	r3, r3
 101              	.LVL13:
  59:nut_bolts.c   ****     if (c <= 9) {
 102              		.loc 1 59 0
 103 0034 092B     		cmp	r3, #9
 104 0036 0FD8     		bhi	.L4
  60:nut_bolts.c   ****       ndigit++;
 105              		.loc 1 60 0
 106 0038 0135     		adds	r5, r5, #1
ARM GAS  C:\Users\Bart\AppData\Local\Temp\ccVZz0lh.s 			page 4


 107              	.LVL14:
 108 003a EDB2     		uxtb	r5, r5
 109              	.LVL15:
  61:nut_bolts.c   ****       if (ndigit <= MAX_INT_DIGITS) {
 110              		.loc 1 61 0
 111 003c 082D     		cmp	r5, #8
 112 003e 07D8     		bhi	.L5
  62:nut_bolts.c   ****         if (isdecimal) { exp--; }
 113              		.loc 1 62 0
 114 0040 0AB1     		cbz	r2, .L6
 115              		.loc 1 62 0 is_stmt 0 discriminator 1
 116 0042 013E     		subs	r6, r6, #1
 117              	.LVL16:
 118 0044 F6B2     		uxtb	r6, r6
 119              	.LVL17:
 120              	.L6:
  63:nut_bolts.c   ****         intval = (((intval << 2) + intval) << 1) + c; // intval*10 + c
 121              		.loc 1 63 0 is_stmt 1
 122 0046 0EEB8E0E 		add	lr, lr, lr, lsl #2
 123              	.LVL18:
 124 004a 03EB4E0E 		add	lr, r3, lr, lsl #1
 125              	.LVL19:
 126 004e 07E0     		b	.L7
 127              	.L5:
  64:nut_bolts.c   ****       } else {
  65:nut_bolts.c   ****         if (!(isdecimal)) { exp++; }  // Drop overflow digits
 128              		.loc 1 65 0
 129 0050 32B9     		cbnz	r2, .L7
 130              		.loc 1 65 0 is_stmt 0 discriminator 1
 131 0052 0136     		adds	r6, r6, #1
 132              	.LVL20:
 133 0054 F6B2     		uxtb	r6, r6
 134              	.LVL21:
 135 0056 03E0     		b	.L7
 136              	.L4:
  66:nut_bolts.c   ****       }
  67:nut_bolts.c   ****     } else if (c == (('.'-'0') & 0xff)  &&  !(isdecimal)) {
 137              		.loc 1 67 0 is_stmt 1
 138 0058 FE2B     		cmp	r3, #254
 139 005a 04D1     		bne	.L8
 140              		.loc 1 67 0 is_stmt 0 discriminator 1
 141 005c 1AB9     		cbnz	r2, .L8
  68:nut_bolts.c   ****       isdecimal = true;
 142              		.loc 1 68 0 is_stmt 1
 143 005e 0122     		movs	r2, #1
 144              	.LVL22:
 145              	.L7:
  69:nut_bolts.c   ****     } else {
  70:nut_bolts.c   ****       break;
  71:nut_bolts.c   ****     }
  72:nut_bolts.c   ****     c = *ptr++;
 146              		.loc 1 72 0
 147 0060 2378     		ldrb	r3, [r4]	@ zero_extendqisi2
 148              	.LVL23:
 149 0062 0134     		adds	r4, r4, #1
 150              	.LVL24:
  73:nut_bolts.c   ****   }
ARM GAS  C:\Users\Bart\AppData\Local\Temp\ccVZz0lh.s 			page 5


 151              		.loc 1 73 0
 152 0064 E4E7     		b	.L9
 153              	.L8:
  74:nut_bolts.c   **** 
  75:nut_bolts.c   ****   // Return if no digits have been read.
  76:nut_bolts.c   ****   if (!ndigit) { return(false); };
 154              		.loc 1 76 0
 155 0066 002D     		cmp	r5, #0
 156 0068 47D0     		beq	.L20
 157 006a 8846     		mov	r8, r1
 158 006c 8246     		mov	r10, r0
  77:nut_bolts.c   **** 
  78:nut_bolts.c   ****   // Convert integer into floating point.
  79:nut_bolts.c   ****   float fval;
  80:nut_bolts.c   ****   fval = (float)intval;
 159              		.loc 1 80 0
 160 006e 7046     		mov	r0, lr
 161              	.LVL25:
 162 0070 FFF7FEFF 		bl	__aeabi_ui2f
 163              	.LVL26:
 164 0074 0546     		mov	r5, r0
 165              	.LVL27:
  81:nut_bolts.c   **** 
  82:nut_bolts.c   ****   // Apply decimal. Should perform no more than two floating point multiplications for the
  83:nut_bolts.c   ****   // expected range of E0 to E-4.
  84:nut_bolts.c   ****   if (fval != 0) {
 166              		.loc 1 84 0
 167 0076 0021     		movs	r1, #0
 168 0078 FFF7FEFF 		bl	__aeabi_fcmpeq
 169              	.LVL28:
 170 007c 68B1     		cbz	r0, .L13
 171 007e 2CE0     		b	.L11
 172              	.L14:
  85:nut_bolts.c   ****     while (exp <= -2) {
  86:nut_bolts.c   ****       fval *= 0.01;
 173              		.loc 1 86 0
 174 0080 2846     		mov	r0, r5
 175 0082 FFF7FEFF 		bl	__aeabi_f2d
 176              	.LVL29:
 177 0086 1EA3     		adr	r3, .L23
 178 0088 D3E90023 		ldrd	r2, [r3]
 179 008c FFF7FEFF 		bl	__aeabi_dmul
 180              	.LVL30:
 181 0090 FFF7FEFF 		bl	__aeabi_d2f
 182              	.LVL31:
 183 0094 0546     		mov	r5, r0
 184              	.LVL32:
  87:nut_bolts.c   ****       exp += 2;
 185              		.loc 1 87 0
 186 0096 0236     		adds	r6, r6, #2
 187              	.LVL33:
 188 0098 F6B2     		uxtb	r6, r6
 189              	.LVL34:
 190              	.L13:
  85:nut_bolts.c   ****     while (exp <= -2) {
 191              		.loc 1 85 0
 192 009a 73B2     		sxtb	r3, r6
ARM GAS  C:\Users\Bart\AppData\Local\Temp\ccVZz0lh.s 			page 6


 193 009c B3F1FF3F 		cmp	r3, #-1
 194 00a0 EEDB     		blt	.L14
  88:nut_bolts.c   ****     }
  89:nut_bolts.c   ****     if (exp < 0) {
 195              		.loc 1 89 0
 196 00a2 16F0800F 		tst	r6, #128
 197 00a6 0BD0     		beq	.L15
  90:nut_bolts.c   ****       fval *= 0.1;
 198              		.loc 1 90 0
 199 00a8 2846     		mov	r0, r5
 200 00aa FFF7FEFF 		bl	__aeabi_f2d
 201              	.LVL35:
 202 00ae 16A3     		adr	r3, .L23+8
 203 00b0 D3E90023 		ldrd	r2, [r3]
 204 00b4 FFF7FEFF 		bl	__aeabi_dmul
 205              	.LVL36:
 206 00b8 FFF7FEFF 		bl	__aeabi_d2f
 207              	.LVL37:
 208 00bc 0546     		mov	r5, r0
 209              	.LVL38:
 210 00be 0CE0     		b	.L11
 211              	.LVL39:
 212              	.L15:
  91:nut_bolts.c   ****     } else if (exp > 0) {
 213              		.loc 1 91 0
 214 00c0 73B2     		sxtb	r3, r6
 215 00c2 002B     		cmp	r3, #0
 216 00c4 09DD     		ble	.L11
 217              	.L16:
  92:nut_bolts.c   ****       do {
  93:nut_bolts.c   ****         fval *= 10.0;
 218              		.loc 1 93 0 discriminator 1
 219 00c6 2846     		mov	r0, r5
 220 00c8 1149     		ldr	r1, .L23+16
 221 00ca FFF7FEFF 		bl	__aeabi_fmul
 222              	.LVL40:
 223 00ce 0546     		mov	r5, r0
 224              	.LVL41:
  94:nut_bolts.c   ****       } while (--exp > 0);
 225              		.loc 1 94 0 discriminator 1
 226 00d0 013E     		subs	r6, r6, #1
 227              	.LVL42:
 228 00d2 F6B2     		uxtb	r6, r6
 229              	.LVL43:
 230 00d4 73B2     		sxtb	r3, r6
 231 00d6 002B     		cmp	r3, #0
 232 00d8 F5DC     		bgt	.L16
 233              	.LVL44:
 234              	.L11:
  95:nut_bolts.c   ****     }
  96:nut_bolts.c   ****   }
  97:nut_bolts.c   **** 
  98:nut_bolts.c   ****   // Assign floating point value with correct sign.
  99:nut_bolts.c   ****   if (isnegative) {
 235              		.loc 1 99 0
 236 00da 27B1     		cbz	r7, .L17
 100:nut_bolts.c   ****     *float_ptr = -fval;
ARM GAS  C:\Users\Bart\AppData\Local\Temp\ccVZz0lh.s 			page 7


 237              		.loc 1 100 0
 238 00dc 05F10045 		add	r5, r5, #-2147483648
 239              	.LVL45:
 240 00e0 C9F80050 		str	r5, [r9]	@ float
 241 00e4 01E0     		b	.L18
 242              	.LVL46:
 243              	.L17:
 101:nut_bolts.c   ****   } else {
 102:nut_bolts.c   ****     *float_ptr = fval;
 244              		.loc 1 102 0
 245 00e6 C9F80050 		str	r5, [r9]	@ float
 246              	.LVL47:
 247              	.L18:
 103:nut_bolts.c   ****   }
 104:nut_bolts.c   **** 
 105:nut_bolts.c   ****   *char_counter = ptr - line - 1; // Set char_counter to next statement
 248              		.loc 1 105 0
 249 00ea CAEB0404 		rsb	r4, r10, r4
 250              	.LVL48:
 251 00ee 013C     		subs	r4, r4, #1
 252 00f0 88F80040 		strb	r4, [r8]
 106:nut_bolts.c   **** 
 107:nut_bolts.c   ****   return(true);
 253              		.loc 1 107 0
 254 00f4 0120     		movs	r0, #1
 255 00f6 BDE8F087 		pop	{r4, r5, r6, r7, r8, r9, r10, pc}
 256              	.LVL49:
 257              	.L20:
  76:nut_bolts.c   **** 
 258              		.loc 1 76 0
 259 00fa 0020     		movs	r0, #0
 260              	.LVL50:
 108:nut_bolts.c   **** }
 261              		.loc 1 108 0
 262 00fc BDE8F087 		pop	{r4, r5, r6, r7, r8, r9, r10, pc}
 263              	.LVL51:
 264              	.L24:
 265              		.align	3
 266              	.L23:
 267 0100 7B14AE47 		.word	1202590843
 268 0104 E17A843F 		.word	1065646817
 269 0108 9A999999 		.word	-1717986918
 270 010c 9999B93F 		.word	1069128089
 271 0110 00002041 		.word	1092616192
 272              		.cfi_endproc
 273              	.LFE63:
 274              		.size	read_float, .-read_float
 275              		.global	__aeabi_d2uiz
 276 0114 AFF30080 		.section	.text.delay_sec,"ax",%progbits
 277              		.align	2
 278              		.global	delay_sec
 279              		.thumb
 280              		.thumb_func
 281              		.type	delay_sec, %function
 282              	delay_sec:
 283              	.LFB64:
 109:nut_bolts.c   **** 
ARM GAS  C:\Users\Bart\AppData\Local\Temp\ccVZz0lh.s 			page 8


 110:nut_bolts.c   **** 
 111:nut_bolts.c   **** // Non-blocking delay function used for general operation and suspend features.
 112:nut_bolts.c   **** void delay_sec(float seconds, uint8_t mode)
 113:nut_bolts.c   **** {
 284              		.loc 1 113 0
 285              		.cfi_startproc
 286              		@ args = 0, pretend = 0, frame = 0
 287              		@ frame_needed = 0, uses_anonymous_args = 0
 288              	.LVL52:
 289 0000 38B5     		push	{r3, r4, r5, lr}
 290              		.cfi_def_cfa_offset 16
 291              		.cfi_offset 3, -16
 292              		.cfi_offset 4, -12
 293              		.cfi_offset 5, -8
 294              		.cfi_offset 14, -4
 295 0002 0D46     		mov	r5, r1
 114:nut_bolts.c   ****  	uint16_t i = ceil(1000/DWELL_TIME_STEP*seconds);
 296              		.loc 1 114 0
 297 0004 1049     		ldr	r1, .L32
 298              	.LVL53:
 299 0006 FFF7FEFF 		bl	__aeabi_fmul
 300              	.LVL54:
 301 000a FFF7FEFF 		bl	__aeabi_f2d
 302              	.LVL55:
 303 000e FFF7FEFF 		bl	ceil
 304              	.LVL56:
 305 0012 FFF7FEFF 		bl	__aeabi_d2uiz
 306              	.LVL57:
 307 0016 80B2     		uxth	r0, r0
 308              	.LVL58:
 115:nut_bolts.c   **** 	while (i-- > 0) {
 309              		.loc 1 115 0
 310 0018 11E0     		b	.L26
 311              	.LVL59:
 312              	.L30:
 116:nut_bolts.c   **** 		if (sys.abort) { return; }
 313              		.loc 1 116 0
 314 001a 0C4B     		ldr	r3, .L32+4
 315 001c 5B78     		ldrb	r3, [r3, #1]	@ zero_extendqisi2
 316 001e 93B9     		cbnz	r3, .L25
 117:nut_bolts.c   **** 		if (mode == DELAY_MODE_DWELL) {
 317              		.loc 1 117 0
 318 0020 15B9     		cbnz	r5, .L28
 118:nut_bolts.c   **** 			protocol_execute_realtime();
 319              		.loc 1 118 0
 320 0022 FFF7FEFF 		bl	protocol_execute_realtime
 321              	.LVL60:
 322 0026 06E0     		b	.L29
 323              	.L28:
 119:nut_bolts.c   **** 		} else { // DELAY_MODE_SYS_SUSPEND
 120:nut_bolts.c   **** 		  // Execute rt_system() only to avoid nesting suspend loops.
 121:nut_bolts.c   **** 		  protocol_exec_rt_system();
 324              		.loc 1 121 0
 325 0028 FFF7FEFF 		bl	protocol_exec_rt_system
 326              	.LVL61:
 122:nut_bolts.c   **** 		  if (sys.suspend & SUSPEND_RESTART_RETRACT) { return; } // Bail, if safety door reopens.
 327              		.loc 1 122 0
ARM GAS  C:\Users\Bart\AppData\Local\Temp\ccVZz0lh.s 			page 9


 328 002c 074B     		ldr	r3, .L32+4
 329 002e 9B78     		ldrb	r3, [r3, #2]	@ zero_extendqisi2
 330 0030 13F0020F 		tst	r3, #2
 331 0034 07D1     		bne	.L25
 332              	.L29:
 123:nut_bolts.c   **** 		}
 124:nut_bolts.c   **** 		delay_ms(DWELL_TIME_STEP); // Delay DWELL_TIME_STEP increment
 333              		.loc 1 124 0
 334 0036 3220     		movs	r0, #50
 335 0038 FFF7FEFF 		bl	CyDelay
 336              	.LVL62:
 115:nut_bolts.c   **** 		if (sys.abort) { return; }
 337              		.loc 1 115 0
 338 003c 2046     		mov	r0, r4
 339              	.LVL63:
 340              	.L26:
 341 003e 431E     		subs	r3, r0, #1
 342 0040 9CB2     		uxth	r4, r3
 343              	.LVL64:
 344 0042 0028     		cmp	r0, #0
 345 0044 E9D1     		bne	.L30
 346              	.L25:
 347 0046 38BD     		pop	{r3, r4, r5, pc}
 348              	.LVL65:
 349              	.L33:
 350              		.align	2
 351              	.L32:
 352 0048 0000A041 		.word	1101004800
 353 004c 00000000 		.word	sys
 354              		.cfi_endproc
 355              	.LFE64:
 356              		.size	delay_sec, .-delay_sec
 357              		.global	__aeabi_fadd
 358              		.section	.text.hypot_f,"ax",%progbits
 359              		.align	2
 360              		.global	hypot_f
 361              		.thumb
 362              		.thumb_func
 363              		.type	hypot_f, %function
 364              	hypot_f:
 365              	.LFB65:
 125:nut_bolts.c   **** 	}
 126:nut_bolts.c   **** }
 127:nut_bolts.c   **** 
 128:nut_bolts.c   **** 
 129:nut_bolts.c   **** 
 130:nut_bolts.c   **** 
 131:nut_bolts.c   **** 
 132:nut_bolts.c   **** // Simple hypotenuse computation function.
 133:nut_bolts.c   **** float hypot_f(float x, float y) { return(sqrt(x*x + y*y)); }
 366              		.loc 1 133 0
 367              		.cfi_startproc
 368              		@ args = 0, pretend = 0, frame = 0
 369              		@ frame_needed = 0, uses_anonymous_args = 0
 370              	.LVL66:
 371 0000 38B5     		push	{r3, r4, r5, lr}
 372              		.cfi_def_cfa_offset 16
ARM GAS  C:\Users\Bart\AppData\Local\Temp\ccVZz0lh.s 			page 10


 373              		.cfi_offset 3, -16
 374              		.cfi_offset 4, -12
 375              		.cfi_offset 5, -8
 376              		.cfi_offset 14, -4
 377 0002 0C46     		mov	r4, r1
 378              		.loc 1 133 0
 379 0004 0146     		mov	r1, r0
 380              	.LVL67:
 381 0006 FFF7FEFF 		bl	__aeabi_fmul
 382              	.LVL68:
 383 000a 0546     		mov	r5, r0
 384 000c 2046     		mov	r0, r4
 385 000e 2146     		mov	r1, r4
 386 0010 FFF7FEFF 		bl	__aeabi_fmul
 387              	.LVL69:
 388 0014 0146     		mov	r1, r0
 389 0016 2846     		mov	r0, r5
 390 0018 FFF7FEFF 		bl	__aeabi_fadd
 391              	.LVL70:
 392 001c 0446     		mov	r4, r0
 393              	.LVL71:
 394 001e 2046     		mov	r0, r4
 395 0020 FFF7FEFF 		bl	__aeabi_f2d
 396              	.LVL72:
 397 0024 FFF7FEFF 		bl	sqrt
 398              	.LVL73:
 399 0028 FFF7FEFF 		bl	__aeabi_d2f
 400              	.LVL74:
 401 002c 38BD     		pop	{r3, r4, r5, pc}
 402              		.cfi_endproc
 403              	.LFE65:
 404              		.size	hypot_f, .-hypot_f
 405              		.global	__aeabi_fdiv
 406 002e 00BF     		.section	.text.convert_delta_vector_to_unit_vector,"ax",%progbits
 407              		.align	2
 408              		.global	convert_delta_vector_to_unit_vector
 409              		.thumb
 410              		.thumb_func
 411              		.type	convert_delta_vector_to_unit_vector, %function
 412              	convert_delta_vector_to_unit_vector:
 413              	.LFB66:
 134:nut_bolts.c   **** 
 135:nut_bolts.c   **** 
 136:nut_bolts.c   **** float convert_delta_vector_to_unit_vector(float *vector)
 137:nut_bolts.c   **** {
 414              		.loc 1 137 0
 415              		.cfi_startproc
 416              		@ args = 0, pretend = 0, frame = 0
 417              		@ frame_needed = 0, uses_anonymous_args = 0
 418              	.LVL75:
 419 0000 F8B5     		push	{r3, r4, r5, r6, r7, lr}
 420              		.cfi_def_cfa_offset 24
 421              		.cfi_offset 3, -24
 422              		.cfi_offset 4, -20
 423              		.cfi_offset 5, -16
 424              		.cfi_offset 6, -12
 425              		.cfi_offset 7, -8
ARM GAS  C:\Users\Bart\AppData\Local\Temp\ccVZz0lh.s 			page 11


 426              		.cfi_offset 14, -4
 427 0002 0546     		mov	r5, r0
 428              	.LVL76:
 138:nut_bolts.c   ****   uint8_t idx;
 139:nut_bolts.c   ****   float magnitude = 0.0;
 429              		.loc 1 139 0
 430 0004 0027     		movs	r7, #0
 140:nut_bolts.c   ****   for (idx=0; idx<N_AXIS; idx++) {
 431              		.loc 1 140 0
 432 0006 0024     		movs	r4, #0
 433 0008 11E0     		b	.L37
 434              	.LVL77:
 435              	.L40:
 141:nut_bolts.c   ****     if (vector[idx] != 0.0) {
 436              		.loc 1 141 0
 437 000a 55F82460 		ldr	r6, [r5, r4, lsl #2]	@ float
 438 000e 3046     		mov	r0, r6
 439 0010 0021     		movs	r1, #0
 440 0012 FFF7FEFF 		bl	__aeabi_fcmpeq
 441              	.LVL78:
 442 0016 40B9     		cbnz	r0, .L38
 142:nut_bolts.c   ****       magnitude += vector[idx]*vector[idx];
 443              		.loc 1 142 0
 444 0018 3046     		mov	r0, r6
 445 001a 3146     		mov	r1, r6
 446 001c FFF7FEFF 		bl	__aeabi_fmul
 447              	.LVL79:
 448 0020 0146     		mov	r1, r0
 449 0022 3846     		mov	r0, r7
 450 0024 FFF7FEFF 		bl	__aeabi_fadd
 451              	.LVL80:
 452 0028 0746     		mov	r7, r0
 453              	.LVL81:
 454              	.L38:
 140:nut_bolts.c   ****   for (idx=0; idx<N_AXIS; idx++) {
 455              		.loc 1 140 0 discriminator 2
 456 002a 0134     		adds	r4, r4, #1
 457              	.LVL82:
 458 002c E4B2     		uxtb	r4, r4
 459              	.LVL83:
 460              	.L37:
 140:nut_bolts.c   ****   for (idx=0; idx<N_AXIS; idx++) {
 461              		.loc 1 140 0 is_stmt 0 discriminator 1
 462 002e 022C     		cmp	r4, #2
 463 0030 EBD9     		bls	.L40
 143:nut_bolts.c   ****     }
 144:nut_bolts.c   ****   }
 145:nut_bolts.c   ****   magnitude = sqrt(magnitude);
 464              		.loc 1 145 0 is_stmt 1
 465 0032 3846     		mov	r0, r7
 466 0034 FFF7FEFF 		bl	__aeabi_f2d
 467              	.LVL84:
 468 0038 FFF7FEFF 		bl	sqrt
 469              	.LVL85:
 470 003c FFF7FEFF 		bl	__aeabi_d2f
 471              	.LVL86:
 472 0040 0746     		mov	r7, r0
ARM GAS  C:\Users\Bart\AppData\Local\Temp\ccVZz0lh.s 			page 12


 473              	.LVL87:
 146:nut_bolts.c   ****   float inv_magnitude = 1.0/magnitude;
 474              		.loc 1 146 0
 475 0042 4FF07E50 		mov	r0, #1065353216
 476              	.LVL88:
 477 0046 3946     		mov	r1, r7
 478 0048 FFF7FEFF 		bl	__aeabi_fdiv
 479              	.LVL89:
 480 004c 0646     		mov	r6, r0
 481              	.LVL90:
 147:nut_bolts.c   ****   for (idx=0; idx<N_AXIS; idx++) { vector[idx] *= inv_magnitude; }
 482              		.loc 1 147 0
 483 004e 0024     		movs	r4, #0
 484 0050 08E0     		b	.L41
 485              	.LVL91:
 486              	.L42:
 487              		.loc 1 147 0 is_stmt 0 discriminator 3
 488 0052 55F82400 		ldr	r0, [r5, r4, lsl #2]	@ float
 489 0056 3146     		mov	r1, r6
 490 0058 FFF7FEFF 		bl	__aeabi_fmul
 491              	.LVL92:
 492 005c 45F82400 		str	r0, [r5, r4, lsl #2]	@ float
 493 0060 0134     		adds	r4, r4, #1
 494              	.LVL93:
 495 0062 E4B2     		uxtb	r4, r4
 496              	.LVL94:
 497              	.L41:
 498              		.loc 1 147 0 discriminator 1
 499 0064 022C     		cmp	r4, #2
 500 0066 F4D9     		bls	.L42
 148:nut_bolts.c   ****   return(magnitude);
 149:nut_bolts.c   **** }
 501              		.loc 1 149 0 is_stmt 1
 502 0068 3846     		mov	r0, r7
 503 006a F8BD     		pop	{r3, r4, r5, r6, r7, pc}
 504              		.cfi_endproc
 505              	.LFE66:
 506              		.size	convert_delta_vector_to_unit_vector, .-convert_delta_vector_to_unit_vector
 507              		.global	__aeabi_fcmpgt
 508              		.section	.text.limit_value_by_axis_maximum,"ax",%progbits
 509              		.align	2
 510              		.global	limit_value_by_axis_maximum
 511              		.thumb
 512              		.thumb_func
 513              		.type	limit_value_by_axis_maximum, %function
 514              	limit_value_by_axis_maximum:
 515              	.LFB67:
 150:nut_bolts.c   **** 
 151:nut_bolts.c   **** 
 152:nut_bolts.c   **** float limit_value_by_axis_maximum(float *max_value, float *unit_vec)
 153:nut_bolts.c   **** {
 516              		.loc 1 153 0
 517              		.cfi_startproc
 518              		@ args = 0, pretend = 0, frame = 0
 519              		@ frame_needed = 0, uses_anonymous_args = 0
 520              	.LVL95:
 521 0000 2DE9F041 		push	{r4, r5, r6, r7, r8, lr}
ARM GAS  C:\Users\Bart\AppData\Local\Temp\ccVZz0lh.s 			page 13


 522              		.cfi_def_cfa_offset 24
 523              		.cfi_offset 4, -24
 524              		.cfi_offset 5, -20
 525              		.cfi_offset 6, -16
 526              		.cfi_offset 7, -12
 527              		.cfi_offset 8, -8
 528              		.cfi_offset 14, -4
 529 0004 8046     		mov	r8, r0
 530 0006 0F46     		mov	r7, r1
 531              	.LVL96:
 154:nut_bolts.c   ****   uint8_t idx;
 155:nut_bolts.c   ****   float limit_value = SOME_LARGE_VALUE;
 532              		.loc 1 155 0
 533 0008 0E4E     		ldr	r6, .L55
 156:nut_bolts.c   ****   for (idx=0; idx<N_AXIS; idx++) {
 534              		.loc 1 156 0
 535 000a 0024     		movs	r4, #0
 536 000c 15E0     		b	.L46
 537              	.LVL97:
 538              	.L51:
 157:nut_bolts.c   ****     if (unit_vec[idx] != 0) {  // Avoid divide by zero.
 539              		.loc 1 157 0
 540 000e 57F82450 		ldr	r5, [r7, r4, lsl #2]	@ float
 541 0012 2846     		mov	r0, r5
 542 0014 0021     		movs	r1, #0
 543 0016 FFF7FEFF 		bl	__aeabi_fcmpeq
 544              	.LVL98:
 545 001a 60B9     		cbnz	r0, .L47
 158:nut_bolts.c   ****       limit_value = min(limit_value,fabs(max_value[idx]/unit_vec[idx]));
 546              		.loc 1 158 0
 547 001c 58F82400 		ldr	r0, [r8, r4, lsl #2]	@ float
 548 0020 2946     		mov	r1, r5
 549 0022 FFF7FEFF 		bl	__aeabi_fdiv
 550              	.LVL99:
 551 0026 20F00045 		bic	r5, r0, #-2147483648
 552 002a 2846     		mov	r0, r5
 553 002c 3146     		mov	r1, r6
 554 002e FFF7FEFF 		bl	__aeabi_fcmpgt
 555              	.LVL100:
 556 0032 00B9     		cbnz	r0, .L47
 557 0034 2E46     		mov	r6, r5
 558              	.LVL101:
 559              	.L47:
 156:nut_bolts.c   ****   for (idx=0; idx<N_AXIS; idx++) {
 560              		.loc 1 156 0 discriminator 2
 561 0036 0134     		adds	r4, r4, #1
 562              	.LVL102:
 563 0038 E4B2     		uxtb	r4, r4
 564              	.LVL103:
 565              	.L46:
 156:nut_bolts.c   ****   for (idx=0; idx<N_AXIS; idx++) {
 566              		.loc 1 156 0 is_stmt 0 discriminator 1
 567 003a 022C     		cmp	r4, #2
 568 003c E7D9     		bls	.L51
 159:nut_bolts.c   ****     }
 160:nut_bolts.c   ****   }
 161:nut_bolts.c   ****   return(limit_value);
ARM GAS  C:\Users\Bart\AppData\Local\Temp\ccVZz0lh.s 			page 14


 162:nut_bolts.c   **** }
 569              		.loc 1 162 0 is_stmt 1
 570 003e 3046     		mov	r0, r6
 571 0040 BDE8F081 		pop	{r4, r5, r6, r7, r8, pc}
 572              	.LVL104:
 573              	.L56:
 574              		.align	2
 575              	.L55:
 576 0044 9976967E 		.word	2123789977
 577              		.cfi_endproc
 578              	.LFE67:
 579              		.size	limit_value_by_axis_maximum, .-limit_value_by_axis_maximum
 580              		.comm	exec_lcd_status,1,1
 581              		.comm	sys_rt_exec_debug,1,1
 582              		.comm	sys_rt_exec_accessory_override,1,1
 583              		.comm	sys_rt_exec_motion_override,1,1
 584              		.comm	sys_rt_exec_alarm,1,1
 585              		.comm	sys_rt_exec_state,1,1
 586              		.comm	sys_probe_state,1,1
 587              		.comm	sys_probe_position,12,4
 588              		.comm	sys_position,12,4
 589              		.text
 590              	.Letext0:
 591              		.file 2 "d:\\program files (x86)\\cypress\\psoc creator\\4.0\\psoc creator\\import\\gnu\\arm\\4.9.
 592              		.file 3 "d:\\program files (x86)\\cypress\\psoc creator\\4.0\\psoc creator\\import\\gnu\\arm\\4.9.
 593              		.file 4 "Generated_Source\\PSoC5/cytypes.h"
 594              		.file 5 "system.h"
 595              		.file 6 "Generated_Source\\PSoC5/core_cm3.h"
 596              		.file 7 "lcd_report.h"
 597              		.file 8 "protocol.h"
 598              		.file 9 "Generated_Source\\PSoC5/CyLib.h"
 599              		.file 10 "d:\\program files (x86)\\cypress\\psoc creator\\4.0\\psoc creator\\import\\gnu\\arm\\4.9