ARM GAS  C:\Users\Bart\AppData\Local\Temp\ccqXVSEd.s 			page 1


   1              		.syntax unified
   2              		.cpu cortex-m3
   3              		.fpu softvfp
   4              		.eabi_attribute 20, 1
   5              		.eabi_attribute 21, 1
   6              		.eabi_attribute 23, 3
   7              		.eabi_attribute 24, 1
   8              		.eabi_attribute 25, 1
   9              		.eabi_attribute 26, 1
  10              		.eabi_attribute 30, 1
  11              		.eabi_attribute 34, 1
  12              		.eabi_attribute 18, 4
  13              		.thumb
  14              		.file	"planner.c"
  15              		.text
  16              	.Ltext0:
  17              		.cfi_sections	.debug_frame
  18              		.section	.text.plan_prev_block_index,"ax",%progbits
  19              		.align	2
  20              		.thumb
  21              		.thumb_func
  22              		.type	plan_prev_block_index, %function
  23              	plan_prev_block_index:
  24              	.LFB64:
  25              		.file 1 "planner.c"
   1:planner.c     **** /*
   2:planner.c     ****   planner.c - buffers movement commands and manages the acceleration profile plan
   3:planner.c     ****   Part of Grbl
   4:planner.c     **** 
   5:planner.c     ****   Copyright (c) 2011-2016 Sungeun K. Jeon for Gnea Research LLC
   6:planner.c     ****   Copyright (c) 2009-2011 Simen Svale Skogsrud
   7:planner.c     ****   Copyright (c) 2011 Jens Geisler
   8:planner.c     **** 
   9:planner.c     ****   Grbl is free software: you can redistribute it and/or modify
  10:planner.c     ****   it under the terms of the GNU General Public License as published by
  11:planner.c     ****   the Free Software Foundation, either version 3 of the License, or
  12:planner.c     ****   (at your option) any later version.
  13:planner.c     **** 
  14:planner.c     ****   Grbl is distributed in the hope that it will be useful,
  15:planner.c     ****   but WITHOUT ANY WARRANTY; without even the implied warranty of
  16:planner.c     ****   MERCHANTABILITY or FITNESS FOR A PARTICULAR PURPOSE.  See the
  17:planner.c     ****   GNU General Public License for more details.
  18:planner.c     **** 
  19:planner.c     ****   You should have received a copy of the GNU General Public License
  20:planner.c     ****   along with Grbl.  If not, see <http://www.gnu.org/licenses/>.
  21:planner.c     **** */
  22:planner.c     **** 
  23:planner.c     **** #include "grbl.h"
  24:planner.c     **** #include <stdlib.h> // PSoc Required for labs
  25:planner.c     **** 
  26:planner.c     **** 
  27:planner.c     **** static plan_block_t block_buffer[BLOCK_BUFFER_SIZE];  // A ring buffer for motion instructions
  28:planner.c     **** static uint8_t block_buffer_tail;     // Index of the block to process now
  29:planner.c     **** static uint8_t block_buffer_head;     // Index of the next block to be pushed
  30:planner.c     **** static uint8_t next_buffer_head;      // Index of the next buffer head
  31:planner.c     **** static uint8_t block_buffer_planned;  // Index of the optimally planned block
  32:planner.c     **** 
ARM GAS  C:\Users\Bart\AppData\Local\Temp\ccqXVSEd.s 			page 2


  33:planner.c     **** // Define planner variables
  34:planner.c     **** typedef struct {
  35:planner.c     ****   int32_t position[N_AXIS];          // The planner position of the tool in absolute steps. Kept se
  36:planner.c     ****                                      // from g-code position for movements requiring multiple line 
  37:planner.c     ****                                      // i.e. arcs, canned cycles, and backlash compensation.
  38:planner.c     ****   float previous_unit_vec[N_AXIS];   // Unit vector of previous path line segment
  39:planner.c     ****   float previous_nominal_speed;  // Nominal speed of previous path line segment
  40:planner.c     **** } planner_t;
  41:planner.c     **** static planner_t pl;
  42:planner.c     **** 
  43:planner.c     **** 
  44:planner.c     **** // Returns the index of the next block in the ring buffer. Also called by stepper segment buffer.
  45:planner.c     **** uint8_t plan_next_block_index(uint8_t block_index)
  46:planner.c     **** {
  47:planner.c     ****   block_index++;
  48:planner.c     ****   if (block_index == BLOCK_BUFFER_SIZE) { block_index = 0; }
  49:planner.c     ****   return(block_index);
  50:planner.c     **** }
  51:planner.c     **** 
  52:planner.c     **** 
  53:planner.c     **** // Returns the index of the previous block in the ring buffer
  54:planner.c     **** static uint8_t plan_prev_block_index(uint8_t block_index)
  55:planner.c     **** {
  26              		.loc 1 55 0
  27              		.cfi_startproc
  28              		@ args = 0, pretend = 0, frame = 0
  29              		@ frame_needed = 0, uses_anonymous_args = 0
  30              		@ link register save eliminated.
  31              	.LVL0:
  56:planner.c     ****   if (block_index == 0) { block_index = BLOCK_BUFFER_SIZE; }
  32              		.loc 1 56 0
  33 0000 0346     		mov	r3, r0
  34 0002 00B9     		cbnz	r0, .L2
  35 0004 1023     		movs	r3, #16
  36              	.L2:
  37              	.LVL1:
  57:planner.c     ****   block_index--;
  38              		.loc 1 57 0
  39 0006 581E     		subs	r0, r3, #1
  40              	.LVL2:
  58:planner.c     ****   return(block_index);
  59:planner.c     **** }
  41              		.loc 1 59 0
  42 0008 C0B2     		uxtb	r0, r0
  43 000a 7047     		bx	lr
  44              		.cfi_endproc
  45              	.LFE64:
  46              		.size	plan_prev_block_index, .-plan_prev_block_index
  47              		.global	__aeabi_fcmpgt
  48              		.global	__aeabi_fmul
  49              		.section	.text.plan_compute_profile_parameters,"ax",%progbits
  50              		.align	2
  51              		.thumb
  52              		.thumb_func
  53              		.type	plan_compute_profile_parameters, %function
  54              	plan_compute_profile_parameters:
  55              	.LFB74:
ARM GAS  C:\Users\Bart\AppData\Local\Temp\ccqXVSEd.s 			page 3


  60:planner.c     **** 
  61:planner.c     **** 
  62:planner.c     **** /*                            PLANNER SPEED DEFINITION
  63:planner.c     ****                                      +--------+   <- current->nominal_speed
  64:planner.c     ****                                     /          \
  65:planner.c     ****          current->entry_speed ->   +            \
  66:planner.c     ****                                    |             + <- next->entry_speed (aka exit speed)
  67:planner.c     ****                                    +-------------+
  68:planner.c     ****                                        time -->
  69:planner.c     **** 
  70:planner.c     ****   Recalculates the motion plan according to the following basic guidelines:
  71:planner.c     **** 
  72:planner.c     ****     1. Go over every feasible block sequentially in reverse order and calculate the junction speeds
  73:planner.c     ****         (i.e. current->entry_speed) such that:
  74:planner.c     ****       a. No junction speed exceeds the pre-computed maximum junction speed limit or nominal speeds 
  75:planner.c     ****          neighboring blocks.
  76:planner.c     ****       b. A block entry speed cannot exceed one reverse-computed from its exit speed (next->entry_sp
  77:planner.c     ****          with a maximum allowable deceleration over the block travel distance.
  78:planner.c     ****       c. The last (or newest appended) block is planned from a complete stop (an exit speed of zero
  79:planner.c     ****     2. Go over every block in chronological (forward) order and dial down junction speed values if
  80:planner.c     ****       a. The exit speed exceeds the one forward-computed from its entry speed with the maximum allo
  81:planner.c     ****          acceleration over the block travel distance.
  82:planner.c     **** 
  83:planner.c     ****   When these stages are complete, the planner will have maximized the velocity profiles throughout 
  84:planner.c     ****   of the planner blocks, where every block is operating at its maximum allowable acceleration limit
  85:planner.c     ****   other words, for all of the blocks in the planner, the plan is optimal and no further speed impro
  86:planner.c     ****   are possible. If a new block is added to the buffer, the plan is recomputed according to the said
  87:planner.c     ****   guidelines for a new optimal plan.
  88:planner.c     **** 
  89:planner.c     ****   To increase computational efficiency of these guidelines, a set of planner block pointers have be
  90:planner.c     ****   created to indicate stop-compute points for when the planner guidelines cannot logically make any
  91:planner.c     ****   changes or improvements to the plan when in normal operation and new blocks are streamed and adde
  92:planner.c     ****   planner buffer. For example, if a subset of sequential blocks in the planner have been planned an
  93:planner.c     ****   bracketed by junction velocities at their maximums (or by the first planner block as well), no ne
  94:planner.c     ****   added to the planner buffer will alter the velocity profiles within them. So we no longer have to
  95:planner.c     ****   them. Or, if a set of sequential blocks from the first block in the planner (or a optimal stop-co
  96:planner.c     ****   point) are all accelerating, they are all optimal and can not be altered by a new block added to 
  97:planner.c     ****   planner buffer, as this will only further increase the plan speed to chronological blocks until a
  98:planner.c     ****   junction velocity is reached. However, if the operational conditions of the plan changes from inf
  99:planner.c     ****   used feed holds or feedrate overrides, the stop-compute pointers will be reset and the entire pla
 100:planner.c     ****   recomputed as stated in the general guidelines.
 101:planner.c     **** 
 102:planner.c     ****   Planner buffer index mapping:
 103:planner.c     ****   - block_buffer_tail: Points to the beginning of the planner buffer. First to be executed or being
 104:planner.c     ****   - block_buffer_head: Points to the buffer block after the last block in the buffer. Used to indic
 105:planner.c     ****       the buffer is full or empty. As described for standard ring buffers, this block is always emp
 106:planner.c     ****   - next_buffer_head: Points to next planner buffer block after the buffer head block. When equal t
 107:planner.c     ****       buffer tail, this indicates the buffer is full.
 108:planner.c     ****   - block_buffer_planned: Points to the first buffer block after the last optimally planned block f
 109:planner.c     ****       streaming operating conditions. Use for planning optimizations by avoiding recomputing parts 
 110:planner.c     ****       planner buffer that don't change with the addition of a new block, as describe above. In addi
 111:planner.c     ****       this block can never be less than block_buffer_tail and will always be pushed forward and mai
 112:planner.c     ****       this requirement when encountered by the plan_discard_current_block() routine during a cycle.
 113:planner.c     **** 
 114:planner.c     ****   NOTE: Since the planner only computes on what's in the planner buffer, some motions with lots of 
 115:planner.c     ****   line segments, like G2/3 arcs or complex curves, may seem to move slow. This is because there sim
 116:planner.c     ****   enough combined distance traveled in the entire buffer to accelerate up to the nominal speed and 
ARM GAS  C:\Users\Bart\AppData\Local\Temp\ccqXVSEd.s 			page 4


 117:planner.c     ****   decelerate to a complete stop at the end of the buffer, as stated by the guidelines. If this happ
 118:planner.c     ****   becomes an annoyance, there are a few simple solutions: (1) Maximize the machine acceleration. Th
 119:planner.c     ****   will be able to compute higher velocity profiles within the same combined distance. (2) Maximize 
 120:planner.c     ****   motion(s) distance per block to a desired tolerance. The more combined distance the planner has t
 121:planner.c     ****   the faster it can go. (3) Maximize the planner buffer size. This also will increase the combined 
 122:planner.c     ****   for the planner to compute over. It also increases the number of computations the planner has to 
 123:planner.c     ****   to compute an optimal plan, so select carefully. The Arduino 328p memory is already maxed out, bu
 124:planner.c     ****   ARM versions should have enough memory and speed for look-ahead blocks numbering up to a hundred 
 125:planner.c     **** 
 126:planner.c     **** */
 127:planner.c     **** static void planner_recalculate()
 128:planner.c     **** {
 129:planner.c     ****   // Initialize block index to the last block in the planner buffer.
 130:planner.c     ****   uint8_t block_index = plan_prev_block_index(block_buffer_head);
 131:planner.c     **** 
 132:planner.c     ****   // Bail. Can't do anything with one only one plan-able block.
 133:planner.c     ****   if (block_index == block_buffer_planned) { return; }
 134:planner.c     **** 
 135:planner.c     ****   // Reverse Pass: Coarsely maximize all possible deceleration curves back-planning from the last
 136:planner.c     ****   // block in buffer. Cease planning when the last optimal planned or tail pointer is reached.
 137:planner.c     ****   // NOTE: Forward pass will later refine and correct the reverse pass to create an optimal plan.
 138:planner.c     ****   float entry_speed_sqr;
 139:planner.c     ****   plan_block_t *next;
 140:planner.c     ****   plan_block_t *current = &block_buffer[block_index];
 141:planner.c     **** 
 142:planner.c     ****   // Calculate maximum entry speed for last block in buffer, where the exit speed is always zero.
 143:planner.c     ****   current->entry_speed_sqr = min( current->max_entry_speed_sqr, 2*current->acceleration*current->mi
 144:planner.c     **** 
 145:planner.c     ****   block_index = plan_prev_block_index(block_index);
 146:planner.c     ****   if (block_index == block_buffer_planned) { // Only two plannable blocks in buffer. Reverse pass c
 147:planner.c     ****     // Check if the first block is the tail. If so, notify stepper to update its current parameters
 148:planner.c     ****     if (block_index == block_buffer_tail) { st_update_plan_block_parameters(); }
 149:planner.c     ****   } else { // Three or more plan-able blocks
 150:planner.c     ****     while (block_index != block_buffer_planned) {
 151:planner.c     ****       next = current;
 152:planner.c     ****       current = &block_buffer[block_index];
 153:planner.c     ****       block_index = plan_prev_block_index(block_index);
 154:planner.c     **** 
 155:planner.c     ****       // Check if next block is the tail block(=planned block). If so, update current stepper param
 156:planner.c     ****       if (block_index == block_buffer_tail) { st_update_plan_block_parameters(); }
 157:planner.c     **** 
 158:planner.c     ****       // Compute maximum entry speed decelerating over the current block from its exit speed.
 159:planner.c     ****       if (current->entry_speed_sqr != current->max_entry_speed_sqr) {
 160:planner.c     ****         entry_speed_sqr = next->entry_speed_sqr + 2*current->acceleration*current->millimeters;
 161:planner.c     ****         if (entry_speed_sqr < current->max_entry_speed_sqr) {
 162:planner.c     ****           current->entry_speed_sqr = entry_speed_sqr;
 163:planner.c     ****         } else {
 164:planner.c     ****           current->entry_speed_sqr = current->max_entry_speed_sqr;
 165:planner.c     ****         }
 166:planner.c     ****       }
 167:planner.c     ****     }
 168:planner.c     ****   }
 169:planner.c     **** 
 170:planner.c     ****   // Forward Pass: Forward plan the acceleration curve from the planned pointer onward.
 171:planner.c     ****   // Also scans for optimal plan breakpoints and appropriately updates the planned pointer.
 172:planner.c     ****   next = &block_buffer[block_buffer_planned]; // Begin at buffer planned pointer
 173:planner.c     ****   block_index = plan_next_block_index(block_buffer_planned);
ARM GAS  C:\Users\Bart\AppData\Local\Temp\ccqXVSEd.s 			page 5


 174:planner.c     ****   while (block_index != block_buffer_head) {
 175:planner.c     ****     current = next;
 176:planner.c     ****     next = &block_buffer[block_index];
 177:planner.c     **** 
 178:planner.c     ****     // Any acceleration detected in the forward pass automatically moves the optimal planned
 179:planner.c     ****     // pointer forward, since everything before this is all optimal. In other words, nothing
 180:planner.c     ****     // can improve the plan from the buffer tail to the planned pointer by logic.
 181:planner.c     ****     if (current->entry_speed_sqr < next->entry_speed_sqr) {
 182:planner.c     ****       entry_speed_sqr = current->entry_speed_sqr + 2*current->acceleration*current->millimeters;
 183:planner.c     ****       // If true, current block is full-acceleration and we can move the planned pointer forward.
 184:planner.c     ****       if (entry_speed_sqr < next->entry_speed_sqr) {
 185:planner.c     ****         next->entry_speed_sqr = entry_speed_sqr; // Always <= max_entry_speed_sqr. Backward pass se
 186:planner.c     ****         block_buffer_planned = block_index; // Set optimal plan pointer.
 187:planner.c     ****       }
 188:planner.c     ****     }
 189:planner.c     **** 
 190:planner.c     ****     // Any block set at its maximum entry speed also creates an optimal plan up to this
 191:planner.c     ****     // point in the buffer. When the plan is bracketed by either the beginning of the
 192:planner.c     ****     // buffer and a maximum entry speed or two maximum entry speeds, every block in between
 193:planner.c     ****     // cannot logically be further improved. Hence, we don't have to recompute them anymore.
 194:planner.c     ****     if (next->entry_speed_sqr == next->max_entry_speed_sqr) { block_buffer_planned = block_index; }
 195:planner.c     ****     block_index = plan_next_block_index( block_index );
 196:planner.c     ****   }
 197:planner.c     **** }
 198:planner.c     **** 
 199:planner.c     **** 
 200:planner.c     **** void plan_reset()
 201:planner.c     **** {
 202:planner.c     ****   memset(&pl, 0, sizeof(planner_t)); // Clear planner struct
 203:planner.c     ****   plan_reset_buffer();
 204:planner.c     **** }
 205:planner.c     **** 
 206:planner.c     **** 
 207:planner.c     **** void plan_reset_buffer()
 208:planner.c     **** {
 209:planner.c     ****   block_buffer_tail = 0;
 210:planner.c     ****   block_buffer_head = 0; // Empty = tail
 211:planner.c     ****   next_buffer_head = 1; // plan_next_block_index(block_buffer_head)
 212:planner.c     ****   block_buffer_planned = 0; // = block_buffer_tail;
 213:planner.c     **** }
 214:planner.c     **** 
 215:planner.c     **** 
 216:planner.c     **** void plan_discard_current_block()
 217:planner.c     **** {
 218:planner.c     ****   if (block_buffer_head != block_buffer_tail) { // Discard non-empty buffer.
 219:planner.c     ****     uint8_t block_index = plan_next_block_index( block_buffer_tail );
 220:planner.c     ****     // Push block_buffer_planned pointer, if encountered.
 221:planner.c     ****     if (block_buffer_tail == block_buffer_planned) { block_buffer_planned = block_index; }
 222:planner.c     ****     block_buffer_tail = block_index;
 223:planner.c     ****   }
 224:planner.c     **** }
 225:planner.c     **** 
 226:planner.c     **** 
 227:planner.c     **** // Returns address of planner buffer block used by system motions. Called by segment generator.
 228:planner.c     **** plan_block_t *plan_get_system_motion_block()
 229:planner.c     **** {
 230:planner.c     ****   return(&block_buffer[block_buffer_head]);
ARM GAS  C:\Users\Bart\AppData\Local\Temp\ccqXVSEd.s 			page 6


 231:planner.c     **** }
 232:planner.c     **** 
 233:planner.c     **** 
 234:planner.c     **** // Returns address of first planner block, if available. Called by various main program functions.
 235:planner.c     **** plan_block_t *plan_get_current_block()
 236:planner.c     **** {
 237:planner.c     ****   if (block_buffer_head == block_buffer_tail) { return(NULL); } // Buffer empty
 238:planner.c     ****   return(&block_buffer[block_buffer_tail]);
 239:planner.c     **** }
 240:planner.c     **** 
 241:planner.c     **** 
 242:planner.c     **** float plan_get_exec_block_exit_speed_sqr()
 243:planner.c     **** {
 244:planner.c     ****   uint8_t block_index = plan_next_block_index(block_buffer_tail);
 245:planner.c     ****   if (block_index == block_buffer_head) { return( 0.0 ); }
 246:planner.c     ****   return( block_buffer[block_index].entry_speed_sqr );
 247:planner.c     **** }
 248:planner.c     **** 
 249:planner.c     **** 
 250:planner.c     **** // Returns the availability status of the block ring buffer. True, if full.
 251:planner.c     **** uint8_t plan_check_full_buffer()
 252:planner.c     **** {
 253:planner.c     ****   if (block_buffer_tail == next_buffer_head) { return(true); }
 254:planner.c     ****   return(false);
 255:planner.c     **** }
 256:planner.c     **** 
 257:planner.c     **** 
 258:planner.c     **** // Computes and returns block nominal speed based on running condition and override values.
 259:planner.c     **** // NOTE: All system motion commands, such as homing/parking, are not subject to overrides.
 260:planner.c     **** float plan_compute_profile_nominal_speed(plan_block_t *block)
 261:planner.c     **** {
 262:planner.c     ****   float nominal_speed = block->programmed_rate;
 263:planner.c     ****   if (block->condition & PL_COND_FLAG_RAPID_MOTION) { nominal_speed *= (0.01*sys.r_override); }
 264:planner.c     ****   else {
 265:planner.c     ****     if (!(block->condition & PL_COND_FLAG_NO_FEED_OVERRIDE)) { nominal_speed *= (0.01*sys.f_overrid
 266:planner.c     ****     if (nominal_speed > block->rapid_rate) { nominal_speed = block->rapid_rate; }
 267:planner.c     ****   }
 268:planner.c     ****   if (nominal_speed > MINIMUM_FEED_RATE) { return(nominal_speed); }
 269:planner.c     ****   return(MINIMUM_FEED_RATE);
 270:planner.c     **** }
 271:planner.c     **** 
 272:planner.c     **** 
 273:planner.c     **** // Computes and updates the max entry speed (sqr) of the block, based on the minimum of the junctio
 274:planner.c     **** // previous and current nominal speeds and max junction speed.
 275:planner.c     **** static void plan_compute_profile_parameters(plan_block_t *block, float nominal_speed, float prev_no
 276:planner.c     **** {
  56              		.loc 1 276 0
  57              		.cfi_startproc
  58              		@ args = 0, pretend = 0, frame = 0
  59              		@ frame_needed = 0, uses_anonymous_args = 0
  60              	.LVL3:
  61 0000 70B5     		push	{r4, r5, r6, lr}
  62              		.cfi_def_cfa_offset 16
  63              		.cfi_offset 4, -16
  64              		.cfi_offset 5, -12
  65              		.cfi_offset 6, -8
  66              		.cfi_offset 14, -4
ARM GAS  C:\Users\Bart\AppData\Local\Temp\ccqXVSEd.s 			page 7


  67 0002 0446     		mov	r4, r0
  68 0004 0D46     		mov	r5, r1
  69 0006 1646     		mov	r6, r2
 277:planner.c     ****   // Compute the junction maximum entry based on the minimum of the junction speed and neighboring 
 278:planner.c     ****   if (nominal_speed > prev_nominal_speed) { block->max_entry_speed_sqr = prev_nominal_speed*prev_no
  70              		.loc 1 278 0
  71 0008 0846     		mov	r0, r1
  72              	.LVL4:
  73 000a 1146     		mov	r1, r2
  74              	.LVL5:
  75 000c FFF7FEFF 		bl	__aeabi_fcmpgt
  76              	.LVL6:
  77 0010 28B1     		cbz	r0, .L12
  78              		.loc 1 278 0 is_stmt 0 discriminator 1
  79 0012 3046     		mov	r0, r6
  80 0014 3146     		mov	r1, r6
  81 0016 FFF7FEFF 		bl	__aeabi_fmul
  82              	.LVL7:
  83 001a A061     		str	r0, [r4, #24]	@ float
  84 001c 04E0     		b	.L7
  85              	.L12:
 279:planner.c     ****   else { block->max_entry_speed_sqr = nominal_speed*nominal_speed; }
  86              		.loc 1 279 0 is_stmt 1
  87 001e 2846     		mov	r0, r5
  88 0020 2946     		mov	r1, r5
  89 0022 FFF7FEFF 		bl	__aeabi_fmul
  90              	.LVL8:
  91 0026 A061     		str	r0, [r4, #24]	@ float
  92              	.L7:
 280:planner.c     ****   if (block->max_entry_speed_sqr > block->max_junction_speed_sqr) { block->max_entry_speed_sqr = bl
  93              		.loc 1 280 0
  94 0028 656A     		ldr	r5, [r4, #36]	@ float
  95              	.LVL9:
  96 002a A069     		ldr	r0, [r4, #24]	@ float
  97 002c 2946     		mov	r1, r5
  98 002e FFF7FEFF 		bl	__aeabi_fcmpgt
  99              	.LVL10:
 100 0032 00B1     		cbz	r0, .L4
 101              		.loc 1 280 0 is_stmt 0 discriminator 1
 102 0034 A561     		str	r5, [r4, #24]	@ float
 103              	.L4:
 104 0036 70BD     		pop	{r4, r5, r6, pc}
 105              		.cfi_endproc
 106              	.LFE74:
 107              		.size	plan_compute_profile_parameters, .-plan_compute_profile_parameters
 108              		.section	.text.plan_next_block_index,"ax",%progbits
 109              		.align	2
 110              		.global	plan_next_block_index
 111              		.thumb
 112              		.thumb_func
 113              		.type	plan_next_block_index, %function
 114              	plan_next_block_index:
 115              	.LFB63:
  46:planner.c     ****   block_index++;
 116              		.loc 1 46 0 is_stmt 1
 117              		.cfi_startproc
 118              		@ args = 0, pretend = 0, frame = 0
ARM GAS  C:\Users\Bart\AppData\Local\Temp\ccqXVSEd.s 			page 8


 119              		@ frame_needed = 0, uses_anonymous_args = 0
 120              		@ link register save eliminated.
 121              	.LVL11:
  47:planner.c     ****   if (block_index == BLOCK_BUFFER_SIZE) { block_index = 0; }
 122              		.loc 1 47 0
 123 0000 0130     		adds	r0, r0, #1
 124              	.LVL12:
 125 0002 C0B2     		uxtb	r0, r0
 126              	.LVL13:
  48:planner.c     ****   return(block_index);
 127              		.loc 1 48 0
 128 0004 1028     		cmp	r0, #16
 129 0006 00D1     		bne	.L15
 130 0008 0020     		movs	r0, #0
 131              	.LVL14:
 132              	.L15:
  50:planner.c     **** 
 133              		.loc 1 50 0
 134 000a 7047     		bx	lr
 135              		.cfi_endproc
 136              	.LFE63:
 137              		.size	plan_next_block_index, .-plan_next_block_index
 138              		.global	__aeabi_fadd
 139              		.global	__aeabi_fcmplt
 140              		.global	__aeabi_fcmpeq
 141              		.section	.text.planner_recalculate,"ax",%progbits
 142              		.align	2
 143              		.thumb
 144              		.thumb_func
 145              		.type	planner_recalculate, %function
 146              	planner_recalculate:
 147              	.LFB65:
 128:planner.c     ****   // Initialize block index to the last block in the planner buffer.
 148              		.loc 1 128 0
 149              		.cfi_startproc
 150              		@ args = 0, pretend = 0, frame = 0
 151              		@ frame_needed = 0, uses_anonymous_args = 0
 152 0000 2DE9F843 		push	{r3, r4, r5, r6, r7, r8, r9, lr}
 153              		.cfi_def_cfa_offset 32
 154              		.cfi_offset 3, -32
 155              		.cfi_offset 4, -28
 156              		.cfi_offset 5, -24
 157              		.cfi_offset 6, -20
 158              		.cfi_offset 7, -16
 159              		.cfi_offset 8, -12
 160              		.cfi_offset 9, -8
 161              		.cfi_offset 14, -4
 130:planner.c     **** 
 162              		.loc 1 130 0
 163 0004 5E4C     		ldr	r4, .L44
 164 0006 2078     		ldrb	r0, [r4]	@ zero_extendqisi2
 165 0008 FFF7FEFF 		bl	plan_prev_block_index
 166              	.LVL15:
 167 000c 0546     		mov	r5, r0
 168              	.LVL16:
 133:planner.c     **** 
 169              		.loc 1 133 0
ARM GAS  C:\Users\Bart\AppData\Local\Temp\ccqXVSEd.s 			page 9


 170 000e 6678     		ldrb	r6, [r4, #1]	@ zero_extendqisi2
 171 0010 B042     		cmp	r0, r6
 172 0012 00F0B380 		beq	.L17
 140:planner.c     **** 
 173              		.loc 1 140 0
 174 0016 04F10408 		add	r8, r4, #4
 175 001a 3423     		movs	r3, #52
 176 001c 03FB00F3 		mul	r3, r3, r0
 177 0020 9844     		add	r8, r8, r3
 178              	.LVL17:
 143:planner.c     **** 
 179              		.loc 1 143 0
 180 0022 1C44     		add	r4, r4, r3
 181 0024 E769     		ldr	r7, [r4, #28]	@ float
 182 0026 206A     		ldr	r0, [r4, #32]	@ float
 183              	.LVL18:
 184 0028 0146     		mov	r1, r0
 185 002a FFF7FEFF 		bl	__aeabi_fadd
 186              	.LVL19:
 187 002e 616A     		ldr	r1, [r4, #36]	@ float
 188 0030 FFF7FEFF 		bl	__aeabi_fmul
 189              	.LVL20:
 190 0034 0446     		mov	r4, r0
 191 0036 3846     		mov	r0, r7
 192 0038 2146     		mov	r1, r4
 193 003a FFF7FEFF 		bl	__aeabi_fcmplt
 194              	.LVL21:
 195 003e 00B1     		cbz	r0, .L19
 196 0040 3C46     		mov	r4, r7
 197              	.L19:
 143:planner.c     **** 
 198              		.loc 1 143 0 is_stmt 0 discriminator 4
 199 0042 3423     		movs	r3, #52
 200 0044 4E4A     		ldr	r2, .L44
 201 0046 03FB0523 		mla	r3, r3, r5, r2
 202 004a 9C61     		str	r4, [r3, #24]	@ float
 145:planner.c     ****   if (block_index == block_buffer_planned) { // Only two plannable blocks in buffer. Reverse pass c
 203              		.loc 1 145 0 is_stmt 1 discriminator 4
 204 004c 2846     		mov	r0, r5
 205 004e FFF7FEFF 		bl	plan_prev_block_index
 206              	.LVL22:
 207 0052 0446     		mov	r4, r0
 208              	.LVL23:
 146:planner.c     ****     // Check if the first block is the tail. If so, notify stepper to update its current parameters
 209              		.loc 1 146 0 discriminator 4
 210 0054 8642     		cmp	r6, r0
 211 0056 47D1     		bne	.L21
 148:planner.c     ****   } else { // Three or more plan-able blocks
 212              		.loc 1 148 0
 213 0058 494B     		ldr	r3, .L44
 214 005a 93F84433 		ldrb	r3, [r3, #836]	@ zero_extendqisi2
 215 005e 9842     		cmp	r0, r3
 216 0060 46D1     		bne	.L22
 148:planner.c     ****   } else { // Three or more plan-able blocks
 217              		.loc 1 148 0 is_stmt 0 discriminator 1
 218 0062 FFF7FEFF 		bl	st_update_plan_block_parameters
 219              	.LVL24:
ARM GAS  C:\Users\Bart\AppData\Local\Temp\ccqXVSEd.s 			page 10


 220 0066 43E0     		b	.L22
 221              	.LVL25:
 222              	.L28:
 152:planner.c     ****       block_index = plan_prev_block_index(block_index);
 223              		.loc 1 152 0 is_stmt 1
 224 0068 2646     		mov	r6, r4
 225 006a 454F     		ldr	r7, .L44
 226 006c 3B1D     		adds	r3, r7, #4
 227 006e 3425     		movs	r5, #52
 228 0070 05FB0435 		mla	r5, r5, r4, r3
 229              	.LVL26:
 153:planner.c     **** 
 230              		.loc 1 153 0
 231 0074 2046     		mov	r0, r4
 232 0076 FFF7FEFF 		bl	plan_prev_block_index
 233              	.LVL27:
 234 007a 0446     		mov	r4, r0
 235              	.LVL28:
 156:planner.c     **** 
 236              		.loc 1 156 0
 237 007c 97F84433 		ldrb	r3, [r7, #836]	@ zero_extendqisi2
 238 0080 9842     		cmp	r0, r3
 239 0082 01D1     		bne	.L23
 156:planner.c     **** 
 240              		.loc 1 156 0 is_stmt 0 discriminator 1
 241 0084 FFF7FEFF 		bl	st_update_plan_block_parameters
 242              	.LVL29:
 243              	.L23:
 159:planner.c     ****         entry_speed_sqr = next->entry_speed_sqr + 2*current->acceleration*current->millimeters;
 244              		.loc 1 159 0 is_stmt 1
 245 0088 3423     		movs	r3, #52
 246 008a 3D4A     		ldr	r2, .L44
 247 008c 03FB0623 		mla	r3, r3, r6, r2
 248 0090 DF69     		ldr	r7, [r3, #28]	@ float
 249 0092 9869     		ldr	r0, [r3, #24]	@ float
 250 0094 3946     		mov	r1, r7
 251 0096 FFF7FEFF 		bl	__aeabi_fcmpeq
 252              	.LVL30:
 253 009a 20BB     		cbnz	r0, .L24
 160:planner.c     ****         if (entry_speed_sqr < current->max_entry_speed_sqr) {
 254              		.loc 1 160 0
 255 009c D8F81490 		ldr	r9, [r8, #20]	@ float
 256 00a0 3423     		movs	r3, #52
 257 00a2 374A     		ldr	r2, .L44
 258 00a4 03FB0628 		mla	r8, r3, r6, r2
 259              	.LVL31:
 260 00a8 D8F82000 		ldr	r0, [r8, #32]	@ float
 261 00ac 0146     		mov	r1, r0
 262 00ae FFF7FEFF 		bl	__aeabi_fadd
 263              	.LVL32:
 264 00b2 D8F82410 		ldr	r1, [r8, #36]	@ float
 265 00b6 FFF7FEFF 		bl	__aeabi_fmul
 266              	.LVL33:
 267 00ba 0146     		mov	r1, r0
 268 00bc 4846     		mov	r0, r9
 269 00be FFF7FEFF 		bl	__aeabi_fadd
 270              	.LVL34:
ARM GAS  C:\Users\Bart\AppData\Local\Temp\ccqXVSEd.s 			page 11


 271 00c2 8046     		mov	r8, r0
 272              	.LVL35:
 161:planner.c     ****           current->entry_speed_sqr = entry_speed_sqr;
 273              		.loc 1 161 0
 274 00c4 3846     		mov	r0, r7
 275              	.LVL36:
 276 00c6 4146     		mov	r1, r8
 277 00c8 FFF7FEFF 		bl	__aeabi_fcmpgt
 278              	.LVL37:
 279 00cc 30B1     		cbz	r0, .L42
 162:planner.c     ****         } else {
 280              		.loc 1 162 0
 281 00ce 3423     		movs	r3, #52
 282 00d0 2B4A     		ldr	r2, .L44
 283 00d2 03FB0626 		mla	r6, r3, r6, r2
 284 00d6 C6F81880 		str	r8, [r6, #24]	@ float
 285 00da 04E0     		b	.L24
 286              	.L42:
 164:planner.c     ****         }
 287              		.loc 1 164 0
 288 00dc 3422     		movs	r2, #52
 289 00de 284B     		ldr	r3, .L44
 290 00e0 02FB0636 		mla	r6, r2, r6, r3
 291 00e4 B761     		str	r7, [r6, #24]	@ float
 292              	.LVL38:
 293              	.L24:
 143:planner.c     **** 
 294              		.loc 1 143 0
 295 00e6 A846     		mov	r8, r5
 296              	.LVL39:
 297              	.L21:
 150:planner.c     ****       next = current;
 298              		.loc 1 150 0
 299 00e8 254B     		ldr	r3, .L44
 300 00ea 5B78     		ldrb	r3, [r3, #1]	@ zero_extendqisi2
 301 00ec 9C42     		cmp	r4, r3
 302 00ee BBD1     		bne	.L28
 303              	.LVL40:
 304              	.L22:
 172:planner.c     ****   block_index = plan_next_block_index(block_buffer_planned);
 305              		.loc 1 172 0
 306 00f0 234F     		ldr	r7, .L44
 307 00f2 7878     		ldrb	r0, [r7, #1]	@ zero_extendqisi2
 308 00f4 0437     		adds	r7, r7, #4
 309 00f6 3423     		movs	r3, #52
 310 00f8 03FB0077 		mla	r7, r3, r0, r7
 311              	.LVL41:
 173:planner.c     ****   while (block_index != block_buffer_head) {
 312              		.loc 1 173 0
 313 00fc FFF7FEFF 		bl	plan_next_block_index
 314              	.LVL42:
 315 0100 0446     		mov	r4, r0
 316              	.LVL43:
 174:planner.c     ****     current = next;
 317              		.loc 1 174 0
 318 0102 37E0     		b	.L29
 319              	.LVL44:
ARM GAS  C:\Users\Bart\AppData\Local\Temp\ccqXVSEd.s 			page 12


 320              	.L35:
 176:planner.c     **** 
 321              		.loc 1 176 0
 322 0104 2546     		mov	r5, r4
 323 0106 1E49     		ldr	r1, .L44
 324 0108 0E1D     		adds	r6, r1, #4
 325 010a 3422     		movs	r2, #52
 326 010c 02FB04F3 		mul	r3, r2, r4
 327 0110 1E44     		add	r6, r6, r3
 328              	.LVL45:
 181:planner.c     ****       entry_speed_sqr = current->entry_speed_sqr + 2*current->acceleration*current->millimeters;
 329              		.loc 1 181 0
 330 0112 D7F81480 		ldr	r8, [r7, #20]	@ float
 331 0116 0B44     		add	r3, r3, r1
 332 0118 D3F81890 		ldr	r9, [r3, #24]	@ float
 333 011c 4046     		mov	r0, r8
 334 011e 4946     		mov	r1, r9
 335 0120 FFF7FEFF 		bl	__aeabi_fcmplt
 336              	.LVL46:
 337 0124 B0B1     		cbz	r0, .L30
 182:planner.c     ****       // If true, current block is full-acceleration and we can move the planned pointer forward.
 338              		.loc 1 182 0
 339 0126 F869     		ldr	r0, [r7, #28]	@ float
 340 0128 0146     		mov	r1, r0
 341 012a FFF7FEFF 		bl	__aeabi_fadd
 342              	.LVL47:
 343 012e 396A     		ldr	r1, [r7, #32]	@ float
 344 0130 FFF7FEFF 		bl	__aeabi_fmul
 345              	.LVL48:
 346 0134 0146     		mov	r1, r0
 347 0136 4046     		mov	r0, r8
 348 0138 FFF7FEFF 		bl	__aeabi_fadd
 349              	.LVL49:
 350 013c 0746     		mov	r7, r0
 351              	.LVL50:
 184:planner.c     ****         next->entry_speed_sqr = entry_speed_sqr; // Always <= max_entry_speed_sqr. Backward pass se
 352              		.loc 1 184 0
 353 013e 4846     		mov	r0, r9
 354              	.LVL51:
 355 0140 3946     		mov	r1, r7
 356 0142 FFF7FEFF 		bl	__aeabi_fcmpgt
 357              	.LVL52:
 358 0146 28B1     		cbz	r0, .L30
 185:planner.c     ****         block_buffer_planned = block_index; // Set optimal plan pointer.
 359              		.loc 1 185 0
 360 0148 0D4A     		ldr	r2, .L44
 361 014a 3423     		movs	r3, #52
 362 014c 03FB0423 		mla	r3, r3, r4, r2
 363 0150 9F61     		str	r7, [r3, #24]	@ float
 186:planner.c     ****       }
 364              		.loc 1 186 0
 365 0152 5470     		strb	r4, [r2, #1]
 366              	.LVL53:
 367              	.L30:
 194:planner.c     ****     block_index = plan_next_block_index( block_index );
 368              		.loc 1 194 0
 369 0154 3422     		movs	r2, #52
ARM GAS  C:\Users\Bart\AppData\Local\Temp\ccqXVSEd.s 			page 13


 370 0156 0A4B     		ldr	r3, .L44
 371 0158 02FB0533 		mla	r3, r2, r5, r3
 372 015c 9869     		ldr	r0, [r3, #24]	@ float
 373 015e D969     		ldr	r1, [r3, #28]	@ float
 374 0160 FFF7FEFF 		bl	__aeabi_fcmpeq
 375              	.LVL54:
 376 0164 08B1     		cbz	r0, .L33
 194:planner.c     ****     block_index = plan_next_block_index( block_index );
 377              		.loc 1 194 0 is_stmt 0 discriminator 1
 378 0166 064B     		ldr	r3, .L44
 379 0168 5C70     		strb	r4, [r3, #1]
 380              	.L33:
 195:planner.c     ****   }
 381              		.loc 1 195 0 is_stmt 1
 382 016a 2046     		mov	r0, r4
 383 016c FFF7FEFF 		bl	plan_next_block_index
 384              	.LVL55:
 385 0170 0446     		mov	r4, r0
 386              	.LVL56:
 176:planner.c     **** 
 387              		.loc 1 176 0
 388 0172 3746     		mov	r7, r6
 389              	.LVL57:
 390              	.L29:
 174:planner.c     ****     current = next;
 391              		.loc 1 174 0
 392 0174 024B     		ldr	r3, .L44
 393 0176 1B78     		ldrb	r3, [r3]	@ zero_extendqisi2
 394 0178 9C42     		cmp	r4, r3
 395 017a C3D1     		bne	.L35
 396              	.LVL58:
 397              	.L17:
 398 017c BDE8F883 		pop	{r3, r4, r5, r6, r7, r8, r9, pc}
 399              	.L45:
 400              		.align	2
 401              	.L44:
 402 0180 00000000 		.word	.LANCHOR0
 403              		.cfi_endproc
 404              	.LFE65:
 405              		.size	planner_recalculate, .-planner_recalculate
 406              		.section	.text.plan_reset_buffer,"ax",%progbits
 407              		.align	2
 408              		.global	plan_reset_buffer
 409              		.thumb
 410              		.thumb_func
 411              		.type	plan_reset_buffer, %function
 412              	plan_reset_buffer:
 413              	.LFB67:
 208:planner.c     ****   block_buffer_tail = 0;
 414              		.loc 1 208 0
 415              		.cfi_startproc
 416              		@ args = 0, pretend = 0, frame = 0
 417              		@ frame_needed = 0, uses_anonymous_args = 0
 418              		@ link register save eliminated.
 209:planner.c     ****   block_buffer_head = 0; // Empty = tail
 419              		.loc 1 209 0
 420 0000 044B     		ldr	r3, .L47
ARM GAS  C:\Users\Bart\AppData\Local\Temp\ccqXVSEd.s 			page 14


 421 0002 0022     		movs	r2, #0
 422 0004 83F84423 		strb	r2, [r3, #836]
 210:planner.c     ****   next_buffer_head = 1; // plan_next_block_index(block_buffer_head)
 423              		.loc 1 210 0
 424 0008 1A70     		strb	r2, [r3]
 211:planner.c     ****   block_buffer_planned = 0; // = block_buffer_tail;
 425              		.loc 1 211 0
 426 000a 0121     		movs	r1, #1
 427 000c 83F84513 		strb	r1, [r3, #837]
 212:planner.c     **** }
 428              		.loc 1 212 0
 429 0010 5A70     		strb	r2, [r3, #1]
 430 0012 7047     		bx	lr
 431              	.L48:
 432              		.align	2
 433              	.L47:
 434 0014 00000000 		.word	.LANCHOR0
 435              		.cfi_endproc
 436              	.LFE67:
 437              		.size	plan_reset_buffer, .-plan_reset_buffer
 438              		.section	.text.plan_reset,"ax",%progbits
 439              		.align	2
 440              		.global	plan_reset
 441              		.thumb
 442              		.thumb_func
 443              		.type	plan_reset, %function
 444              	plan_reset:
 445              	.LFB66:
 201:planner.c     ****   memset(&pl, 0, sizeof(planner_t)); // Clear planner struct
 446              		.loc 1 201 0
 447              		.cfi_startproc
 448              		@ args = 0, pretend = 0, frame = 0
 449              		@ frame_needed = 0, uses_anonymous_args = 0
 450 0000 08B5     		push	{r3, lr}
 451              		.cfi_def_cfa_offset 8
 452              		.cfi_offset 3, -8
 453              		.cfi_offset 14, -4
 202:planner.c     ****   plan_reset_buffer();
 454              		.loc 1 202 0
 455 0002 094B     		ldr	r3, .L51
 456 0004 0022     		movs	r2, #0
 457 0006 C3F84823 		str	r2, [r3, #840]
 458 000a C3F84C23 		str	r2, [r3, #844]
 459 000e C3F85023 		str	r2, [r3, #848]
 460 0012 C3F85423 		str	r2, [r3, #852]
 461 0016 C3F85823 		str	r2, [r3, #856]
 462 001a C3F85C23 		str	r2, [r3, #860]
 463 001e C3F86023 		str	r2, [r3, #864]
 203:planner.c     **** }
 464              		.loc 1 203 0
 465 0022 FFF7FEFF 		bl	plan_reset_buffer
 466              	.LVL59:
 467 0026 08BD     		pop	{r3, pc}
 468              	.L52:
 469              		.align	2
 470              	.L51:
 471 0028 00000000 		.word	.LANCHOR0
ARM GAS  C:\Users\Bart\AppData\Local\Temp\ccqXVSEd.s 			page 15


 472              		.cfi_endproc
 473              	.LFE66:
 474              		.size	plan_reset, .-plan_reset
 475              		.section	.text.plan_discard_current_block,"ax",%progbits
 476              		.align	2
 477              		.global	plan_discard_current_block
 478              		.thumb
 479              		.thumb_func
 480              		.type	plan_discard_current_block, %function
 481              	plan_discard_current_block:
 482              	.LFB68:
 217:planner.c     ****   if (block_buffer_head != block_buffer_tail) { // Discard non-empty buffer.
 483              		.loc 1 217 0
 484              		.cfi_startproc
 485              		@ args = 0, pretend = 0, frame = 0
 486              		@ frame_needed = 0, uses_anonymous_args = 0
 487 0000 10B5     		push	{r4, lr}
 488              		.cfi_def_cfa_offset 8
 489              		.cfi_offset 4, -8
 490              		.cfi_offset 14, -4
 218:planner.c     ****     uint8_t block_index = plan_next_block_index( block_buffer_tail );
 491              		.loc 1 218 0
 492 0002 094B     		ldr	r3, .L57
 493 0004 1A78     		ldrb	r2, [r3]	@ zero_extendqisi2
 494 0006 93F84443 		ldrb	r4, [r3, #836]	@ zero_extendqisi2
 495 000a A242     		cmp	r2, r4
 496 000c 0BD0     		beq	.L53
 497              	.LBB2:
 219:planner.c     ****     // Push block_buffer_planned pointer, if encountered.
 498              		.loc 1 219 0
 499 000e 2046     		mov	r0, r4
 500 0010 FFF7FEFF 		bl	plan_next_block_index
 501              	.LVL60:
 221:planner.c     ****     block_buffer_tail = block_index;
 502              		.loc 1 221 0
 503 0014 044B     		ldr	r3, .L57
 504 0016 5B78     		ldrb	r3, [r3, #1]	@ zero_extendqisi2
 505 0018 9C42     		cmp	r4, r3
 506 001a 01D1     		bne	.L55
 221:planner.c     ****     block_buffer_tail = block_index;
 507              		.loc 1 221 0 is_stmt 0 discriminator 1
 508 001c 024B     		ldr	r3, .L57
 509 001e 5870     		strb	r0, [r3, #1]
 510              	.L55:
 222:planner.c     ****   }
 511              		.loc 1 222 0 is_stmt 1
 512 0020 014B     		ldr	r3, .L57
 513 0022 83F84403 		strb	r0, [r3, #836]
 514              	.LVL61:
 515              	.L53:
 516 0026 10BD     		pop	{r4, pc}
 517              	.L58:
 518              		.align	2
 519              	.L57:
 520 0028 00000000 		.word	.LANCHOR0
 521              	.LBE2:
 522              		.cfi_endproc
ARM GAS  C:\Users\Bart\AppData\Local\Temp\ccqXVSEd.s 			page 16


 523              	.LFE68:
 524              		.size	plan_discard_current_block, .-plan_discard_current_block
 525              		.section	.text.plan_get_system_motion_block,"ax",%progbits
 526              		.align	2
 527              		.global	plan_get_system_motion_block
 528              		.thumb
 529              		.thumb_func
 530              		.type	plan_get_system_motion_block, %function
 531              	plan_get_system_motion_block:
 532              	.LFB69:
 229:planner.c     ****   return(&block_buffer[block_buffer_head]);
 533              		.loc 1 229 0
 534              		.cfi_startproc
 535              		@ args = 0, pretend = 0, frame = 0
 536              		@ frame_needed = 0, uses_anonymous_args = 0
 537              		@ link register save eliminated.
 230:planner.c     **** }
 538              		.loc 1 230 0
 539 0000 034B     		ldr	r3, .L60
 540 0002 13F8042B 		ldrb	r2, [r3], #4	@ zero_extendqisi2
 231:planner.c     **** 
 541              		.loc 1 231 0
 542 0006 3420     		movs	r0, #52
 543 0008 00FB0230 		mla	r0, r0, r2, r3
 544 000c 7047     		bx	lr
 545              	.L61:
 546 000e 00BF     		.align	2
 547              	.L60:
 548 0010 00000000 		.word	.LANCHOR0
 549              		.cfi_endproc
 550              	.LFE69:
 551              		.size	plan_get_system_motion_block, .-plan_get_system_motion_block
 552              		.section	.text.plan_get_current_block,"ax",%progbits
 553              		.align	2
 554              		.global	plan_get_current_block
 555              		.thumb
 556              		.thumb_func
 557              		.type	plan_get_current_block, %function
 558              	plan_get_current_block:
 559              	.LFB70:
 236:planner.c     ****   if (block_buffer_head == block_buffer_tail) { return(NULL); } // Buffer empty
 560              		.loc 1 236 0
 561              		.cfi_startproc
 562              		@ args = 0, pretend = 0, frame = 0
 563              		@ frame_needed = 0, uses_anonymous_args = 0
 564              		@ link register save eliminated.
 237:planner.c     ****   return(&block_buffer[block_buffer_tail]);
 565              		.loc 1 237 0
 566 0000 064B     		ldr	r3, .L65
 567 0002 1A78     		ldrb	r2, [r3]	@ zero_extendqisi2
 568 0004 93F84433 		ldrb	r3, [r3, #836]	@ zero_extendqisi2
 569 0008 9A42     		cmp	r2, r3
 570 000a 04D0     		beq	.L64
 238:planner.c     **** }
 571              		.loc 1 238 0
 572 000c 3420     		movs	r0, #52
 573 000e 044A     		ldr	r2, .L65+4
ARM GAS  C:\Users\Bart\AppData\Local\Temp\ccqXVSEd.s 			page 17


 574 0010 00FB0320 		mla	r0, r0, r3, r2
 575 0014 7047     		bx	lr
 576              	.L64:
 237:planner.c     ****   return(&block_buffer[block_buffer_tail]);
 577              		.loc 1 237 0
 578 0016 0020     		movs	r0, #0
 239:planner.c     **** 
 579              		.loc 1 239 0
 580 0018 7047     		bx	lr
 581              	.L66:
 582 001a 00BF     		.align	2
 583              	.L65:
 584 001c 00000000 		.word	.LANCHOR0
 585 0020 04000000 		.word	.LANCHOR0+4
 586              		.cfi_endproc
 587              	.LFE70:
 588              		.size	plan_get_current_block, .-plan_get_current_block
 589              		.section	.text.plan_get_exec_block_exit_speed_sqr,"ax",%progbits
 590              		.align	2
 591              		.global	plan_get_exec_block_exit_speed_sqr
 592              		.thumb
 593              		.thumb_func
 594              		.type	plan_get_exec_block_exit_speed_sqr, %function
 595              	plan_get_exec_block_exit_speed_sqr:
 596              	.LFB71:
 243:planner.c     ****   uint8_t block_index = plan_next_block_index(block_buffer_tail);
 597              		.loc 1 243 0
 598              		.cfi_startproc
 599              		@ args = 0, pretend = 0, frame = 0
 600              		@ frame_needed = 0, uses_anonymous_args = 0
 601 0000 10B5     		push	{r4, lr}
 602              		.cfi_def_cfa_offset 8
 603              		.cfi_offset 4, -8
 604              		.cfi_offset 14, -4
 244:planner.c     ****   if (block_index == block_buffer_head) { return( 0.0 ); }
 605              		.loc 1 244 0
 606 0002 074C     		ldr	r4, .L71
 607 0004 94F84403 		ldrb	r0, [r4, #836]	@ zero_extendqisi2
 608 0008 FFF7FEFF 		bl	plan_next_block_index
 609              	.LVL62:
 245:planner.c     ****   return( block_buffer[block_index].entry_speed_sqr );
 610              		.loc 1 245 0
 611 000c 2378     		ldrb	r3, [r4]	@ zero_extendqisi2
 612 000e 9842     		cmp	r0, r3
 613 0010 04D0     		beq	.L69
 246:planner.c     **** }
 614              		.loc 1 246 0
 615 0012 3422     		movs	r2, #52
 616 0014 02FB0040 		mla	r0, r2, r0, r4
 617              	.LVL63:
 618 0018 8069     		ldr	r0, [r0, #24]	@ float
 619 001a 10BD     		pop	{r4, pc}
 620              	.LVL64:
 621              	.L69:
 245:planner.c     ****   return( block_buffer[block_index].entry_speed_sqr );
 622              		.loc 1 245 0
 623 001c 0020     		movs	r0, #0
ARM GAS  C:\Users\Bart\AppData\Local\Temp\ccqXVSEd.s 			page 18


 624              	.LVL65:
 247:planner.c     **** 
 625              		.loc 1 247 0
 626 001e 10BD     		pop	{r4, pc}
 627              	.L72:
 628              		.align	2
 629              	.L71:
 630 0020 00000000 		.word	.LANCHOR0
 631              		.cfi_endproc
 632              	.LFE71:
 633              		.size	plan_get_exec_block_exit_speed_sqr, .-plan_get_exec_block_exit_speed_sqr
 634              		.section	.text.plan_check_full_buffer,"ax",%progbits
 635              		.align	2
 636              		.global	plan_check_full_buffer
 637              		.thumb
 638              		.thumb_func
 639              		.type	plan_check_full_buffer, %function
 640              	plan_check_full_buffer:
 641              	.LFB72:
 252:planner.c     ****   if (block_buffer_tail == next_buffer_head) { return(true); }
 642              		.loc 1 252 0
 643              		.cfi_startproc
 644              		@ args = 0, pretend = 0, frame = 0
 645              		@ frame_needed = 0, uses_anonymous_args = 0
 646              		@ link register save eliminated.
 253:planner.c     ****   return(false);
 647              		.loc 1 253 0
 648 0000 054B     		ldr	r3, .L76
 649 0002 93F84423 		ldrb	r2, [r3, #836]	@ zero_extendqisi2
 650 0006 93F84533 		ldrb	r3, [r3, #837]	@ zero_extendqisi2
 651 000a 9A42     		cmp	r2, r3
 652 000c 01D1     		bne	.L75
 653 000e 0120     		movs	r0, #1
 654 0010 7047     		bx	lr
 655              	.L75:
 254:planner.c     **** }
 656              		.loc 1 254 0
 657 0012 0020     		movs	r0, #0
 255:planner.c     **** 
 658              		.loc 1 255 0
 659 0014 7047     		bx	lr
 660              	.L77:
 661 0016 00BF     		.align	2
 662              	.L76:
 663 0018 00000000 		.word	.LANCHOR0
 664              		.cfi_endproc
 665              	.LFE72:
 666              		.size	plan_check_full_buffer, .-plan_check_full_buffer
 667              		.global	__aeabi_i2d
 668              		.global	__aeabi_dmul
 669              		.global	__aeabi_f2d
 670              		.global	__aeabi_d2f
 671              		.section	.text.plan_compute_profile_nominal_speed,"ax",%progbits
 672              		.align	2
 673              		.global	plan_compute_profile_nominal_speed
 674              		.thumb
 675              		.thumb_func
ARM GAS  C:\Users\Bart\AppData\Local\Temp\ccqXVSEd.s 			page 19


 676              		.type	plan_compute_profile_nominal_speed, %function
 677              	plan_compute_profile_nominal_speed:
 678              	.LFB73:
 261:planner.c     ****   float nominal_speed = block->programmed_rate;
 679              		.loc 1 261 0
 680              		.cfi_startproc
 681              		@ args = 0, pretend = 0, frame = 0
 682              		@ frame_needed = 0, uses_anonymous_args = 0
 683              	.LVL66:
 684 0000 F8B5     		push	{r3, r4, r5, r6, r7, lr}
 685              		.cfi_def_cfa_offset 24
 686              		.cfi_offset 3, -24
 687              		.cfi_offset 4, -20
 688              		.cfi_offset 5, -16
 689              		.cfi_offset 6, -12
 690              		.cfi_offset 7, -8
 691              		.cfi_offset 14, -4
 692 0002 0446     		mov	r4, r0
 262:planner.c     ****   if (block->condition & PL_COND_FLAG_RAPID_MOTION) { nominal_speed *= (0.01*sys.r_override); }
 693              		.loc 1 262 0
 694 0004 C56A     		ldr	r5, [r0, #44]	@ float
 695              	.LVL67:
 263:planner.c     ****   else {
 696              		.loc 1 263 0
 697 0006 437C     		ldrb	r3, [r0, #17]	@ zero_extendqisi2
 698 0008 13F0010F 		tst	r3, #1
 699 000c 15D0     		beq	.L79
 263:planner.c     ****   else {
 700              		.loc 1 263 0 is_stmt 0 discriminator 1
 701 000e 224B     		ldr	r3, .L85+8
 702 0010 187A     		ldrb	r0, [r3, #8]	@ zero_extendqisi2
 703              	.LVL68:
 704 0012 FFF7FEFF 		bl	__aeabi_i2d
 705              	.LVL69:
 706 0016 1EA3     		adr	r3, .L85
 707 0018 D3E90023 		ldrd	r2, [r3]
 708 001c FFF7FEFF 		bl	__aeabi_dmul
 709              	.LVL70:
 710 0020 0646     		mov	r6, r0
 711 0022 0F46     		mov	r7, r1
 712 0024 2846     		mov	r0, r5
 713 0026 FFF7FEFF 		bl	__aeabi_f2d
 714              	.LVL71:
 715 002a 3246     		mov	r2, r6
 716 002c 3B46     		mov	r3, r7
 717 002e FFF7FEFF 		bl	__aeabi_dmul
 718              	.LVL72:
 719 0032 FFF7FEFF 		bl	__aeabi_d2f
 720              	.LVL73:
 721 0036 0446     		mov	r4, r0
 722              	.LVL74:
 723 0038 1EE0     		b	.L80
 724              	.LVL75:
 725              	.L79:
 265:planner.c     ****     if (nominal_speed > block->rapid_rate) { nominal_speed = block->rapid_rate; }
 726              		.loc 1 265 0 is_stmt 1
 727 003a 13F0040F 		tst	r3, #4
ARM GAS  C:\Users\Bart\AppData\Local\Temp\ccqXVSEd.s 			page 20


 728 003e 14D1     		bne	.L81
 265:planner.c     ****     if (nominal_speed > block->rapid_rate) { nominal_speed = block->rapid_rate; }
 729              		.loc 1 265 0 is_stmt 0 discriminator 1
 730 0040 154B     		ldr	r3, .L85+8
 731 0042 D879     		ldrb	r0, [r3, #7]	@ zero_extendqisi2
 732              	.LVL76:
 733 0044 FFF7FEFF 		bl	__aeabi_i2d
 734              	.LVL77:
 735 0048 11A3     		adr	r3, .L85
 736 004a D3E90023 		ldrd	r2, [r3]
 737 004e FFF7FEFF 		bl	__aeabi_dmul
 738              	.LVL78:
 739 0052 0646     		mov	r6, r0
 740 0054 0F46     		mov	r7, r1
 741 0056 2846     		mov	r0, r5
 742 0058 FFF7FEFF 		bl	__aeabi_f2d
 743              	.LVL79:
 744 005c 3246     		mov	r2, r6
 745 005e 3B46     		mov	r3, r7
 746 0060 FFF7FEFF 		bl	__aeabi_dmul
 747              	.LVL80:
 748 0064 FFF7FEFF 		bl	__aeabi_d2f
 749              	.LVL81:
 750 0068 0546     		mov	r5, r0
 751              	.LVL82:
 752              	.L81:
 266:planner.c     ****   }
 753              		.loc 1 266 0 is_stmt 1
 754 006a A46A     		ldr	r4, [r4, #40]	@ float
 755              	.LVL83:
 756 006c 2046     		mov	r0, r4
 757 006e 2946     		mov	r1, r5
 758 0070 FFF7FEFF 		bl	__aeabi_fcmplt
 759              	.LVL84:
 760 0074 00B9     		cbnz	r0, .L80
 761 0076 2C46     		mov	r4, r5
 762              	.LVL85:
 763              	.L80:
 268:planner.c     ****   return(MINIMUM_FEED_RATE);
 764              		.loc 1 268 0
 765 0078 2046     		mov	r0, r4
 766 007a 4FF07E51 		mov	r1, #1065353216
 767 007e FFF7FEFF 		bl	__aeabi_fcmpgt
 768              	.LVL86:
 769 0082 10B9     		cbnz	r0, .L83
 269:planner.c     **** }
 770              		.loc 1 269 0
 771 0084 4FF07E50 		mov	r0, #1065353216
 772 0088 F8BD     		pop	{r3, r4, r5, r6, r7, pc}
 773              	.LVL87:
 774              	.L83:
 268:planner.c     ****   return(MINIMUM_FEED_RATE);
 775              		.loc 1 268 0
 776 008a 2046     		mov	r0, r4
 270:planner.c     **** 
 777              		.loc 1 270 0
 778 008c F8BD     		pop	{r3, r4, r5, r6, r7, pc}
ARM GAS  C:\Users\Bart\AppData\Local\Temp\ccqXVSEd.s 			page 21


 779              	.LVL88:
 780              	.L86:
 781 008e 00BF     		.align	3
 782              	.L85:
 783 0090 7B14AE47 		.word	1202590843
 784 0094 E17A843F 		.word	1065646817
 785 0098 00000000 		.word	sys
 786              		.cfi_endproc
 787              	.LFE73:
 788              		.size	plan_compute_profile_nominal_speed, .-plan_compute_profile_nominal_speed
 789 009c AFF30080 		.section	.text.plan_update_velocity_profile_parameters,"ax",%progbits
 790              		.align	2
 791              		.global	plan_update_velocity_profile_parameters
 792              		.thumb
 793              		.thumb_func
 794              		.type	plan_update_velocity_profile_parameters, %function
 795              	plan_update_velocity_profile_parameters:
 796              	.LFB75:
 281:planner.c     **** }
 282:planner.c     **** 
 283:planner.c     **** 
 284:planner.c     **** // Re-calculates buffered motions profile parameters upon a motion-based override change.
 285:planner.c     **** void plan_update_velocity_profile_parameters()
 286:planner.c     **** {
 797              		.loc 1 286 0
 798              		.cfi_startproc
 799              		@ args = 0, pretend = 0, frame = 0
 800              		@ frame_needed = 0, uses_anonymous_args = 0
 801 0000 F8B5     		push	{r3, r4, r5, r6, r7, lr}
 802              		.cfi_def_cfa_offset 24
 803              		.cfi_offset 3, -24
 804              		.cfi_offset 4, -20
 805              		.cfi_offset 5, -16
 806              		.cfi_offset 6, -12
 807              		.cfi_offset 7, -8
 808              		.cfi_offset 14, -4
 287:planner.c     ****   uint8_t block_index = block_buffer_tail;
 809              		.loc 1 287 0
 810 0002 0F4B     		ldr	r3, .L91
 811 0004 93F84453 		ldrb	r5, [r3, #836]	@ zero_extendqisi2
 812              	.LVL89:
 288:planner.c     ****   plan_block_t *block;
 289:planner.c     ****   float nominal_speed;
 290:planner.c     ****   float prev_nominal_speed = SOME_LARGE_VALUE; // Set high for first block nominal speed calculatio
 813              		.loc 1 290 0
 814 0008 0E4F     		ldr	r7, .L91+4
 291:planner.c     ****   while (block_index != block_buffer_head) {
 815              		.loc 1 291 0
 816 000a 11E0     		b	.L88
 817              	.LVL90:
 818              	.L89:
 292:planner.c     ****     block = &block_buffer[block_index];
 819              		.loc 1 292 0
 820 000c 3423     		movs	r3, #52
 821 000e 0E4C     		ldr	r4, .L91+8
 822 0010 03FB0544 		mla	r4, r3, r5, r4
 823              	.LVL91:
ARM GAS  C:\Users\Bart\AppData\Local\Temp\ccqXVSEd.s 			page 22


 293:planner.c     ****     nominal_speed = plan_compute_profile_nominal_speed(block);
 824              		.loc 1 293 0
 825 0014 2046     		mov	r0, r4
 826 0016 FFF7FEFF 		bl	plan_compute_profile_nominal_speed
 827              	.LVL92:
 828 001a 0646     		mov	r6, r0
 829              	.LVL93:
 294:planner.c     ****     plan_compute_profile_parameters(block, nominal_speed, prev_nominal_speed);
 830              		.loc 1 294 0
 831 001c 2046     		mov	r0, r4
 832              	.LVL94:
 833 001e 3146     		mov	r1, r6
 834 0020 3A46     		mov	r2, r7
 835 0022 FFF7FEFF 		bl	plan_compute_profile_parameters
 836              	.LVL95:
 295:planner.c     ****     prev_nominal_speed = nominal_speed;
 296:planner.c     ****     block_index = plan_next_block_index(block_index);
 837              		.loc 1 296 0
 838 0026 2846     		mov	r0, r5
 839 0028 FFF7FEFF 		bl	plan_next_block_index
 840              	.LVL96:
 841 002c 0546     		mov	r5, r0
 842              	.LVL97:
 295:planner.c     ****     prev_nominal_speed = nominal_speed;
 843              		.loc 1 295 0
 844 002e 3746     		mov	r7, r6
 845              	.LVL98:
 846              	.L88:
 291:planner.c     ****     block = &block_buffer[block_index];
 847              		.loc 1 291 0
 848 0030 034B     		ldr	r3, .L91
 849 0032 1B78     		ldrb	r3, [r3]	@ zero_extendqisi2
 850 0034 9D42     		cmp	r5, r3
 851 0036 E9D1     		bne	.L89
 297:planner.c     ****   }
 298:planner.c     ****   pl.previous_nominal_speed = prev_nominal_speed; // Update prev nominal speed for next incoming bl
 852              		.loc 1 298 0
 853 0038 014B     		ldr	r3, .L91
 854 003a C3F86073 		str	r7, [r3, #864]	@ float
 855 003e F8BD     		pop	{r3, r4, r5, r6, r7, pc}
 856              	.LVL99:
 857              	.L92:
 858              		.align	2
 859              	.L91:
 860 0040 00000000 		.word	.LANCHOR0
 861 0044 9976967E 		.word	2123789977
 862 0048 04000000 		.word	.LANCHOR0+4
 863              		.cfi_endproc
 864              	.LFE75:
 865              		.size	plan_update_velocity_profile_parameters, .-plan_update_velocity_profile_parameters
 866              		.global	__aeabi_i2f
 867              		.global	__aeabi_fdiv
 868              		.global	__aeabi_fsub
 869              		.global	__aeabi_dcmpgt
 870              		.global	__aeabi_dcmplt
 871              		.global	__aeabi_dsub
 872              		.global	__aeabi_ddiv
ARM GAS  C:\Users\Bart\AppData\Local\Temp\ccqXVSEd.s 			page 23


 873              		.section	.text.plan_buffer_line,"ax",%progbits
 874              		.align	2
 875              		.global	plan_buffer_line
 876              		.thumb
 877              		.thumb_func
 878              		.type	plan_buffer_line, %function
 879              	plan_buffer_line:
 880              	.LFB76:
 299:planner.c     **** }
 300:planner.c     **** 
 301:planner.c     **** 
 302:planner.c     **** /* Add a new linear movement to the buffer. target[N_AXIS] is the signed, absolute target position
 303:planner.c     ****    in millimeters. Feed rate specifies the speed of the motion. If feed rate is inverted, the feed
 304:planner.c     ****    rate is taken to mean "frequency" and would complete the operation in 1/feed_rate minutes.
 305:planner.c     ****    All position data passed to the planner must be in terms of machine position to keep the planner
 306:planner.c     ****    independent of any coordinate system changes and offsets, which are handled by the g-code parser
 307:planner.c     ****    NOTE: Assumes buffer is available. Buffer checks are handled at a higher level by motion_control
 308:planner.c     ****    In other words, the buffer head is never equal to the buffer tail.  Also the feed rate input val
 309:planner.c     ****    is used in three ways: as a normal feed rate if invert_feed_rate is false, as inverse time if
 310:planner.c     ****    invert_feed_rate is true, or as seek/rapids rate if the feed_rate value is negative (and
 311:planner.c     ****    invert_feed_rate always false).
 312:planner.c     ****    The system motion condition tells the planner to plan a motion in the always unused block buffer
 313:planner.c     ****    head. It avoids changing the planner state and preserves the buffer to ensure subsequent gcode
 314:planner.c     ****    motions are still planned correctly, while the stepper module only points to the block buffer he
 315:planner.c     ****    to execute the special system motion. */
 316:planner.c     **** uint8_t plan_buffer_line(float *target, plan_line_data_t *pl_data)
 317:planner.c     **** {
 881              		.loc 1 317 0
 882              		.cfi_startproc
 883              		@ args = 0, pretend = 0, frame = 48
 884              		@ frame_needed = 0, uses_anonymous_args = 0
 885              	.LVL100:
 886 0000 2DE9F047 		push	{r4, r5, r6, r7, r8, r9, r10, lr}
 887              		.cfi_def_cfa_offset 32
 888              		.cfi_offset 4, -32
 889              		.cfi_offset 5, -28
 890              		.cfi_offset 6, -24
 891              		.cfi_offset 7, -20
 892              		.cfi_offset 8, -16
 893              		.cfi_offset 9, -12
 894              		.cfi_offset 10, -8
 895              		.cfi_offset 14, -4
 896 0004 8CB0     		sub	sp, sp, #48
 897              		.cfi_def_cfa_offset 80
 898 0006 8146     		mov	r9, r0
 899 0008 8A46     		mov	r10, r1
 318:planner.c     ****   // Prepare and initialize new block. Copy relevant pl_data for block execution.
 319:planner.c     ****   plan_block_t *block = &block_buffer[block_buffer_head];
 900              		.loc 1 319 0
 901 000a BB4E     		ldr	r6, .L123+16
 902 000c B046     		mov	r8, r6
 903 000e 18F8045B 		ldrb	r5, [r8], #4	@ zero_extendqisi2
 904 0012 3422     		movs	r2, #52
 905 0014 02FB05F4 		mul	r4, r2, r5
 906 0018 A044     		add	r8, r8, r4
 907              	.LVL101:
 320:planner.c     ****   memset(block,0,sizeof(plan_block_t)); // Zero all block values.
ARM GAS  C:\Users\Bart\AppData\Local\Temp\ccqXVSEd.s 			page 24


 908              		.loc 1 320 0
 909 001a 4046     		mov	r0, r8
 910              	.LVL102:
 911 001c 0021     		movs	r1, #0
 912              	.LVL103:
 913 001e FFF7FEFF 		bl	memset
 914              	.LVL104:
 321:planner.c     ****   block->condition = pl_data->condition;
 915              		.loc 1 321 0
 916 0022 9AF80830 		ldrb	r3, [r10, #8]	@ zero_extendqisi2
 917 0026 3444     		add	r4, r4, r6
 918 0028 6375     		strb	r3, [r4, #21]
 322:planner.c     ****   #ifdef VARIABLE_SPINDLE
 323:planner.c     ****     block->spindle_speed = pl_data->spindle_speed;
 919              		.loc 1 323 0
 920 002a DAF80420 		ldr	r2, [r10, #4]	@ float
 921 002e 6263     		str	r2, [r4, #52]	@ float
 324:planner.c     ****   #endif
 325:planner.c     ****   #ifdef USE_LINE_NUMBERS
 326:planner.c     ****     block->line_number = pl_data->line_number;
 327:planner.c     ****   #endif
 328:planner.c     **** 
 329:planner.c     ****   // Compute and store initial move distance data.
 330:planner.c     ****   int32_t target_steps[N_AXIS], position_steps[N_AXIS];
 331:planner.c     ****   float unit_vec[N_AXIS], delta_mm;
 332:planner.c     ****   uint8_t idx;
 333:planner.c     **** 
 334:planner.c     ****   // Copy position data based on type of motion being planned.
 335:planner.c     ****   if (block->condition & PL_COND_FLAG_SYSTEM_MOTION) { 
 922              		.loc 1 335 0
 923 0030 13F0020F 		tst	r3, #2
 924 0034 06D0     		beq	.L94
 336:planner.c     ****     #ifdef COREXY
 337:planner.c     ****       position_steps[X_AXIS] = system_convert_corexy_to_x_axis_steps(sys_position);
 338:planner.c     ****       position_steps[Y_AXIS] = system_convert_corexy_to_y_axis_steps(sys_position);
 339:planner.c     ****       position_steps[Z_AXIS] = sys_position[Z_AXIS];
 340:planner.c     ****     #else
 341:planner.c     ****       memcpy(position_steps, sys_position, sizeof(sys_position)); 
 925              		.loc 1 341 0
 926 0036 B14A     		ldr	r2, .L123+20
 927 0038 06AB     		add	r3, sp, #24
 928 003a 07CA     		ldmia	r2, {r0, r1, r2}
 929 003c 83E80700 		stmia	r3, {r0, r1, r2}
 930              	.L96:
 317:planner.c     ****   // Prepare and initialize new block. Copy relevant pl_data for block execution.
 931              		.loc 1 317 0 discriminator 1
 932 0040 0024     		movs	r4, #0
 933 0042 45E0     		b	.L95
 934              	.LVL105:
 935              	.L94:
 342:planner.c     ****     #endif
 343:planner.c     ****   } else { memcpy(position_steps, pl.position, sizeof(pl.position)); }
 936              		.loc 1 343 0
 937 0044 06AB     		add	r3, sp, #24
 938 0046 AE4A     		ldr	r2, .L123+24
 939 0048 07CA     		ldmia	r2, {r0, r1, r2}
 940 004a 83E80700 		stmia	r3, {r0, r1, r2}
ARM GAS  C:\Users\Bart\AppData\Local\Temp\ccqXVSEd.s 			page 25


 941 004e F7E7     		b	.L96
 942              	.LVL106:
 943              	.L99:
 344:planner.c     **** 
 345:planner.c     ****   #ifdef COREXY
 346:planner.c     ****     target_steps[A_MOTOR] = lround(target[A_MOTOR]*settings.steps_per_mm[A_MOTOR]);
 347:planner.c     ****     target_steps[B_MOTOR] = lround(target[B_MOTOR]*settings.steps_per_mm[B_MOTOR]);
 348:planner.c     ****     block->steps[A_MOTOR] = labs((target_steps[X_AXIS]-position_steps[X_AXIS]) + (target_steps[Y_AX
 349:planner.c     ****     block->steps[B_MOTOR] = labs((target_steps[X_AXIS]-position_steps[X_AXIS]) - (target_steps[Y_AX
 350:planner.c     ****   #endif
 351:planner.c     **** 
 352:planner.c     ****   for (idx=0; idx<N_AXIS; idx++) {
 353:planner.c     ****     // Calculate target position in absolute steps, number of steps for each axis, and determine ma
 354:planner.c     ****     // Also, compute individual axes distance for move and prep unit vector calculations.
 355:planner.c     ****     // NOTE: Computes true distance from converted step values.
 356:planner.c     ****     #ifdef COREXY
 357:planner.c     ****       if ( !(idx == A_MOTOR) && !(idx == B_MOTOR) ) {
 358:planner.c     ****         target_steps[idx] = lround(target[idx]*settings.steps_per_mm[idx]);
 359:planner.c     ****         block->steps[idx] = labs(target_steps[idx]-position_steps[idx]);
 360:planner.c     ****       }
 361:planner.c     ****       block->step_event_count = max(block->step_event_count, block->steps[idx]);
 362:planner.c     ****       if (idx == A_MOTOR) {
 363:planner.c     ****         delta_mm = (target_steps[X_AXIS]-position_steps[X_AXIS] + target_steps[Y_AXIS]-position_ste
 364:planner.c     ****       } else if (idx == B_MOTOR) {
 365:planner.c     ****         delta_mm = (target_steps[X_AXIS]-position_steps[X_AXIS] - target_steps[Y_AXIS]+position_ste
 366:planner.c     ****       } else {
 367:planner.c     ****         delta_mm = (target_steps[idx] - position_steps[idx])/settings.steps_per_mm[idx];
 368:planner.c     ****       }
 369:planner.c     ****     #else
 370:planner.c     ****       target_steps[idx] = lround(target[idx]*settings.steps_per_mm[idx]);
 944              		.loc 1 370 0
 945 0050 AC4F     		ldr	r7, .L123+28
 946 0052 59F82400 		ldr	r0, [r9, r4, lsl #2]	@ float
 947 0056 57F82410 		ldr	r1, [r7, r4, lsl #2]	@ float
 948 005a FFF7FEFF 		bl	__aeabi_fmul
 949              	.LVL107:
 950 005e FFF7FEFF 		bl	__aeabi_f2d
 951              	.LVL108:
 952 0062 FFF7FEFF 		bl	lround
 953              	.LVL109:
 954 0066 0CAB     		add	r3, sp, #48
 955 0068 03EB8406 		add	r6, r3, r4, lsl #2
 956 006c 46F80C0C 		str	r0, [r6, #-12]
 371:planner.c     ****       block->steps[idx] = labs(target_steps[idx]-position_steps[idx]);
 957              		.loc 1 371 0
 958 0070 56F8183C 		ldr	r3, [r6, #-24]
 959 0074 C01A     		subs	r0, r0, r3
 960 0076 80EAE072 		eor	r2, r0, r0, asr #31
 961 007a A2EBE072 		sub	r2, r2, r0, asr #31
 962 007e 9E49     		ldr	r1, .L123+16
 963 0080 05EB4503 		add	r3, r5, r5, lsl #1
 964 0084 05EB8303 		add	r3, r5, r3, lsl #2
 965 0088 2344     		add	r3, r3, r4
 966 008a 01EB8303 		add	r3, r1, r3, lsl #2
 967 008e 5A60     		str	r2, [r3, #4]
 372:planner.c     ****       block->step_event_count = max(block->step_event_count, block->steps[idx]);
 968              		.loc 1 372 0
ARM GAS  C:\Users\Bart\AppData\Local\Temp\ccqXVSEd.s 			page 26


 969 0090 3423     		movs	r3, #52
 970 0092 03FB0513 		mla	r3, r3, r5, r1
 971 0096 1969     		ldr	r1, [r3, #16]
 972 0098 8A42     		cmp	r2, r1
 973 009a 38BF     		it	cc
 974 009c 0A46     		movcc	r2, r1
 975 009e 1A61     		str	r2, [r3, #16]
 373:planner.c     ****       delta_mm = (target_steps[idx] - position_steps[idx])/settings.steps_per_mm[idx];
 976              		.loc 1 373 0
 977 00a0 FFF7FEFF 		bl	__aeabi_i2f
 978              	.LVL110:
 979 00a4 57F82410 		ldr	r1, [r7, r4, lsl #2]	@ float
 980 00a8 FFF7FEFF 		bl	__aeabi_fdiv
 981              	.LVL111:
 374:planner.c     **** 	  #endif
 375:planner.c     ****     unit_vec[idx] = delta_mm; // Store unit vector numerator
 982              		.loc 1 375 0
 983 00ac 46F8240C 		str	r0, [r6, #-36]	@ float
 376:planner.c     **** 
 377:planner.c     ****     // Set direction bits. Bit enabled always means direction is negative.
 378:planner.c     ****     if (delta_mm < 0.0 ) { block->direction_bits |= get_direction_pin_mask(idx); }
 984              		.loc 1 378 0
 985 00b0 0021     		movs	r1, #0
 986 00b2 FFF7FEFF 		bl	__aeabi_fcmplt
 987              	.LVL112:
 988 00b6 48B1     		cbz	r0, .L97
 989              		.loc 1 378 0 is_stmt 0 discriminator 1
 990 00b8 2046     		mov	r0, r4
 991 00ba FFF7FEFF 		bl	get_direction_pin_mask
 992              	.LVL113:
 993 00be 3423     		movs	r3, #52
 994 00c0 8D4A     		ldr	r2, .L123+16
 995 00c2 03FB0523 		mla	r3, r3, r5, r2
 996 00c6 1A7D     		ldrb	r2, [r3, #20]	@ zero_extendqisi2
 997 00c8 1043     		orrs	r0, r0, r2
 998 00ca 1875     		strb	r0, [r3, #20]
 999              	.L97:
 352:planner.c     ****     // Calculate target position in absolute steps, number of steps for each axis, and determine ma
 1000              		.loc 1 352 0 is_stmt 1 discriminator 2
 1001 00cc 0134     		adds	r4, r4, #1
 1002              	.LVL114:
 1003 00ce E4B2     		uxtb	r4, r4
 1004              	.LVL115:
 1005              	.L95:
 352:planner.c     ****     // Calculate target position in absolute steps, number of steps for each axis, and determine ma
 1006              		.loc 1 352 0 is_stmt 0 discriminator 1
 1007 00d0 022C     		cmp	r4, #2
 1008 00d2 BDD9     		bls	.L99
 379:planner.c     ****   }
 380:planner.c     **** 
 381:planner.c     ****   // Bail if this is a zero-length block. Highly unlikely to occur.
 382:planner.c     ****   if (block->step_event_count == 0) { return(PLAN_EMPTY_BLOCK); }
 1009              		.loc 1 382 0 is_stmt 1
 1010 00d4 3423     		movs	r3, #52
 1011 00d6 884A     		ldr	r2, .L123+16
 1012 00d8 03FB0523 		mla	r3, r3, r5, r2
 1013 00dc 1B69     		ldr	r3, [r3, #16]
ARM GAS  C:\Users\Bart\AppData\Local\Temp\ccqXVSEd.s 			page 27


 1014 00de 002B     		cmp	r3, #0
 1015 00e0 00F0F980 		beq	.L113
 383:planner.c     **** 
 384:planner.c     ****   // Calculate the unit vector of the line move and the block maximum feed rate and acceleration sc
 385:planner.c     ****   // down such that no individual axes maximum values are exceeded with respect to the line directi
 386:planner.c     ****   // NOTE: This calculation assumes all axes are orthogonal (Cartesian) and works with ABC-axes,
 387:planner.c     ****   // if they are also orthogonal/independent. Operates on the absolute value of the unit vector.
 388:planner.c     ****   block->millimeters = convert_delta_vector_to_unit_vector(unit_vec);
 1016              		.loc 1 388 0
 1017 00e4 03A8     		add	r0, sp, #12
 1018 00e6 FFF7FEFF 		bl	convert_delta_vector_to_unit_vector
 1019              	.LVL116:
 1020 00ea 3423     		movs	r3, #52
 1021 00ec 824C     		ldr	r4, .L123+16
 1022              	.LVL117:
 1023 00ee 03FB0544 		mla	r4, r3, r5, r4
 1024 00f2 6062     		str	r0, [r4, #36]	@ float
 389:planner.c     ****   block->acceleration = limit_value_by_axis_maximum(settings.acceleration, unit_vec);
 1025              		.loc 1 389 0
 1026 00f4 844E     		ldr	r6, .L123+32
 1027 00f6 3046     		mov	r0, r6
 1028 00f8 03A9     		add	r1, sp, #12
 1029 00fa FFF7FEFF 		bl	limit_value_by_axis_maximum
 1030              	.LVL118:
 1031 00fe 2062     		str	r0, [r4, #32]	@ float
 390:planner.c     ****   block->rapid_rate = limit_value_by_axis_maximum(settings.max_rate, unit_vec);
 1032              		.loc 1 390 0
 1033 0100 A6F10C00 		sub	r0, r6, #12
 1034 0104 03A9     		add	r1, sp, #12
 1035 0106 FFF7FEFF 		bl	limit_value_by_axis_maximum
 1036              	.LVL119:
 1037 010a E062     		str	r0, [r4, #44]	@ float
 391:planner.c     **** 
 392:planner.c     ****   // Store programmed rate.
 393:planner.c     ****   if (block->condition & PL_COND_FLAG_RAPID_MOTION) { block->programmed_rate = block->rapid_rate; }
 1038              		.loc 1 393 0
 1039 010c 647D     		ldrb	r4, [r4, #21]	@ zero_extendqisi2
 1040 010e 14F0010F 		tst	r4, #1
 1041 0112 05D0     		beq	.L101
 1042              		.loc 1 393 0 is_stmt 0 discriminator 1
 1043 0114 3423     		movs	r3, #52
 1044 0116 784A     		ldr	r2, .L123+16
 1045 0118 03FB0523 		mla	r3, r3, r5, r2
 1046 011c 1863     		str	r0, [r3, #48]	@ float
 1047 011e 12E0     		b	.L102
 1048              	.L101:
 394:planner.c     ****   else { 
 395:planner.c     ****     block->programmed_rate = pl_data->feed_rate;
 1049              		.loc 1 395 0 is_stmt 1
 1050 0120 DAF80000 		ldr	r0, [r10]	@ float
 1051 0124 3423     		movs	r3, #52
 1052 0126 744A     		ldr	r2, .L123+16
 1053 0128 03FB0523 		mla	r3, r3, r5, r2
 1054 012c 1863     		str	r0, [r3, #48]	@ float
 396:planner.c     ****     if (block->condition & PL_COND_FLAG_INVERSE_TIME) { block->programmed_rate *= block->millimeter
 1055              		.loc 1 396 0
 1056 012e 14F0080F 		tst	r4, #8
ARM GAS  C:\Users\Bart\AppData\Local\Temp\ccqXVSEd.s 			page 28


 1057 0132 08D0     		beq	.L102
 1058              		.loc 1 396 0 is_stmt 0 discriminator 1
 1059 0134 3423     		movs	r3, #52
 1060 0136 03FB0523 		mla	r3, r3, r5, r2
 1061 013a 03F12C06 		add	r6, r3, #44
 1062 013e 596A     		ldr	r1, [r3, #36]	@ float
 1063 0140 FFF7FEFF 		bl	__aeabi_fmul
 1064              	.LVL120:
 1065 0144 7060     		str	r0, [r6, #4]	@ float
 1066              	.L102:
 397:planner.c     ****   }
 398:planner.c     **** 
 399:planner.c     ****   // TODO: Need to check this method handling zero junction speeds when starting from rest.
 400:planner.c     ****   if ((block_buffer_head == block_buffer_tail) || (block->condition & PL_COND_FLAG_SYSTEM_MOTION)) 
 1067              		.loc 1 400 0 is_stmt 1
 1068 0146 6C4B     		ldr	r3, .L123+16
 1069 0148 1A78     		ldrb	r2, [r3]	@ zero_extendqisi2
 1070 014a 93F84433 		ldrb	r3, [r3, #836]	@ zero_extendqisi2
 1071 014e 9A42     		cmp	r2, r3
 1072 0150 02D0     		beq	.L103
 1073              		.loc 1 400 0 is_stmt 0 discriminator 1
 1074 0152 14F0020F 		tst	r4, #2
 1075 0156 23D0     		beq	.L114
 1076              	.L103:
 401:planner.c     **** 
 402:planner.c     ****     // Initialize block entry speed as zero. Assume it will be starting from rest. Planner will cor
 403:planner.c     ****     // If system motion, the system motion block always is assumed to start from rest and end at a 
 404:planner.c     ****     block->entry_speed_sqr = 0.0;
 1077              		.loc 1 404 0 is_stmt 1
 1078 0158 3423     		movs	r3, #52
 1079 015a 674A     		ldr	r2, .L123+16
 1080 015c 03FB0523 		mla	r3, r3, r5, r2
 1081 0160 0022     		movs	r2, #0
 1082 0162 9A61     		str	r2, [r3, #24]	@ float
 405:planner.c     ****     block->max_junction_speed_sqr = 0.0; // Starting from rest. Enforce start from zero velocity.
 1083              		.loc 1 405 0
 1084 0164 9A62     		str	r2, [r3, #40]	@ float
 1085 0166 89E0     		b	.L105
 1086              	.LVL121:
 1087              	.L106:
 1088              	.LBB3:
 406:planner.c     **** 
 407:planner.c     ****   } else {
 408:planner.c     ****     // Compute maximum allowable entry speed at junction by centripetal acceleration approximation.
 409:planner.c     ****     // Let a circle be tangent to both previous and current path line segments, where the junction
 410:planner.c     ****     // deviation is defined as the distance from the junction to the closest edge of the circle,
 411:planner.c     ****     // colinear with the circle center. The circular segment joining the two paths represents the
 412:planner.c     ****     // path of centripetal acceleration. Solve for max velocity based on max acceleration about the
 413:planner.c     ****     // radius of the circle, defined indirectly by junction deviation. This may be also viewed as
 414:planner.c     ****     // path width or max_jerk in the previous Grbl version. This approach does not actually deviate
 415:planner.c     ****     // from path, but used as a robust way to compute cornering speeds, as it takes into account th
 416:planner.c     ****     // nonlinearities of both the junction angle and junction velocity.
 417:planner.c     ****     //
 418:planner.c     ****     // NOTE: If the junction deviation value is finite, Grbl executes the motions in an exact path
 419:planner.c     ****     // mode (G61). If the junction deviation value is zero, Grbl will execute the motion in an exac
 420:planner.c     ****     // stop mode (G61.1) manner. In the future, if continuous mode (G64) is desired, the math here
 421:planner.c     ****     // is exactly the same. Instead of motioning all the way to junction point, the machine will
ARM GAS  C:\Users\Bart\AppData\Local\Temp\ccqXVSEd.s 			page 29


 422:planner.c     ****     // just follow the arc circle defined here. The Arduino doesn't have the CPU cycles to perform
 423:planner.c     ****     // a continuous mode path, but ARM-based microcontrollers most certainly do.
 424:planner.c     ****     //
 425:planner.c     ****     // NOTE: The max junction speed is a fixed value, since machine acceleration limits cannot be
 426:planner.c     ****     // changed dynamically during operation nor can the line move geometry. This must be kept in
 427:planner.c     ****     // memory in the event of a feedrate override changing the nominal speeds of blocks, which can
 428:planner.c     ****     // change the overall maximum entry speed conditions of all blocks.
 429:planner.c     **** 
 430:planner.c     ****     float junction_unit_vec[N_AXIS];
 431:planner.c     ****     float junction_cos_theta = 0.0;
 432:planner.c     ****     for (idx=0; idx<N_AXIS; idx++) {
 433:planner.c     ****       junction_cos_theta -= pl.previous_unit_vec[idx]*unit_vec[idx];
 1089              		.loc 1 433 0 discriminator 3
 1090 0168 634B     		ldr	r3, .L123+16
 1091 016a 03EB8403 		add	r3, r3, r4, lsl #2
 1092 016e D3F85473 		ldr	r7, [r3, #852]	@ float
 1093 0172 0CAB     		add	r3, sp, #48
 1094 0174 03EB8406 		add	r6, r3, r4, lsl #2
 1095 0178 56F824AC 		ldr	r10, [r6, #-36]	@ float
 1096 017c 3846     		mov	r0, r7
 1097 017e 5146     		mov	r1, r10
 1098 0180 FFF7FEFF 		bl	__aeabi_fmul
 1099              	.LVL122:
 1100 0184 0146     		mov	r1, r0
 1101 0186 4846     		mov	r0, r9
 1102 0188 FFF7FEFF 		bl	__aeabi_fsub
 1103              	.LVL123:
 1104 018c 8146     		mov	r9, r0
 1105              	.LVL124:
 434:planner.c     ****       junction_unit_vec[idx] = unit_vec[idx]-pl.previous_unit_vec[idx];
 1106              		.loc 1 434 0 discriminator 3
 1107 018e 5046     		mov	r0, r10
 1108              	.LVL125:
 1109 0190 3946     		mov	r1, r7
 1110 0192 FFF7FEFF 		bl	__aeabi_fsub
 1111              	.LVL126:
 1112 0196 46F8300C 		str	r0, [r6, #-48]	@ float
 432:planner.c     ****       junction_cos_theta -= pl.previous_unit_vec[idx]*unit_vec[idx];
 1113              		.loc 1 432 0 discriminator 3
 1114 019a 0134     		adds	r4, r4, #1
 1115              	.LVL127:
 1116 019c E4B2     		uxtb	r4, r4
 1117              	.LVL128:
 1118 019e 02E0     		b	.L104
 1119              	.LVL129:
 1120              	.L114:
 1121              	.LBE3:
 1122 01a0 4FF00009 		mov	r9, #0
 1123              	.LVL130:
 1124 01a4 0024     		movs	r4, #0
 1125              	.LVL131:
 1126              	.L104:
 1127              	.LBB5:
 432:planner.c     ****       junction_cos_theta -= pl.previous_unit_vec[idx]*unit_vec[idx];
 1128              		.loc 1 432 0 is_stmt 0 discriminator 1
 1129 01a6 022C     		cmp	r4, #2
 1130 01a8 DED9     		bls	.L106
ARM GAS  C:\Users\Bart\AppData\Local\Temp\ccqXVSEd.s 			page 30


 435:planner.c     ****     }
 436:planner.c     **** 
 437:planner.c     ****     // NOTE: Computed without any expensive trig, sin() or acos(), by trig half angle identity of c
 438:planner.c     ****     if (junction_cos_theta > 0.999999) {
 1131              		.loc 1 438 0 is_stmt 1
 1132 01aa 4846     		mov	r0, r9
 1133 01ac FFF7FEFF 		bl	__aeabi_f2d
 1134              	.LVL132:
 1135 01b0 0646     		mov	r6, r0
 1136 01b2 0F46     		mov	r7, r1
 1137 01b4 4CA3     		adr	r3, .L123
 1138 01b6 D3E90023 		ldrd	r2, [r3]
 1139 01ba FFF7FEFF 		bl	__aeabi_dcmpgt
 1140              	.LVL133:
 1141 01be 30B1     		cbz	r0, .L120
 439:planner.c     ****       //  For a 0 degree acute junction, just set minimum junction speed.
 440:planner.c     ****       block->max_junction_speed_sqr = MINIMUM_JUNCTION_SPEED*MINIMUM_JUNCTION_SPEED;
 1142              		.loc 1 440 0
 1143 01c0 3423     		movs	r3, #52
 1144 01c2 4D4A     		ldr	r2, .L123+16
 1145 01c4 03FB0523 		mla	r3, r3, r5, r2
 1146 01c8 0022     		movs	r2, #0
 1147 01ca 9A62     		str	r2, [r3, #40]	@ float
 1148 01cc 56E0     		b	.L105
 1149              	.L120:
 441:planner.c     ****     } else {
 442:planner.c     ****       if (junction_cos_theta < -0.999999) {
 1150              		.loc 1 442 0
 1151 01ce 3046     		mov	r0, r6
 1152 01d0 3946     		mov	r1, r7
 1153 01d2 47A3     		adr	r3, .L123+8
 1154 01d4 D3E90023 		ldrd	r2, [r3]
 1155 01d8 FFF7FEFF 		bl	__aeabi_dcmplt
 1156              	.LVL134:
 1157 01dc 30B1     		cbz	r0, .L121
 443:planner.c     ****         // Junction is a straight line or 180 degrees. Junction speed is infinite.
 444:planner.c     ****         block->max_junction_speed_sqr = SOME_LARGE_VALUE;
 1158              		.loc 1 444 0
 1159 01de 3423     		movs	r3, #52
 1160 01e0 454A     		ldr	r2, .L123+16
 1161 01e2 03FB0523 		mla	r3, r3, r5, r2
 1162 01e6 494A     		ldr	r2, .L123+36
 1163 01e8 9A62     		str	r2, [r3, #40]	@ float
 1164 01ea 47E0     		b	.L105
 1165              	.L121:
 1166              	.LBB4:
 445:planner.c     ****       } else {
 446:planner.c     ****         convert_delta_vector_to_unit_vector(junction_unit_vec);
 1167              		.loc 1 446 0
 1168 01ec 6846     		mov	r0, sp
 1169 01ee FFF7FEFF 		bl	convert_delta_vector_to_unit_vector
 1170              	.LVL135:
 447:planner.c     ****         float junction_acceleration = limit_value_by_axis_maximum(settings.acceleration, junction_u
 1171              		.loc 1 447 0
 1172 01f2 454C     		ldr	r4, .L123+32
 1173              	.LVL136:
 1174 01f4 2046     		mov	r0, r4
ARM GAS  C:\Users\Bart\AppData\Local\Temp\ccqXVSEd.s 			page 31


 1175 01f6 6946     		mov	r1, sp
 1176 01f8 FFF7FEFF 		bl	limit_value_by_axis_maximum
 1177              	.LVL137:
 1178 01fc 8146     		mov	r9, r0
 1179              	.LVL138:
 448:planner.c     ****         float sin_theta_d2 = sqrt(0.5*(1.0-junction_cos_theta)); // Trig half angle identity. Alway
 1180              		.loc 1 448 0
 1181 01fe 0020     		movs	r0, #0
 1182              	.LVL139:
 1183 0200 4349     		ldr	r1, .L123+40
 1184 0202 3246     		mov	r2, r6
 1185 0204 3B46     		mov	r3, r7
 1186 0206 FFF7FEFF 		bl	__aeabi_dsub
 1187              	.LVL140:
 1188 020a 0646     		mov	r6, r0
 1189 020c 0F46     		mov	r7, r1
 1190 020e 3046     		mov	r0, r6
 1191 0210 3946     		mov	r1, r7
 1192 0212 0022     		movs	r2, #0
 1193 0214 3F4B     		ldr	r3, .L123+44
 1194 0216 FFF7FEFF 		bl	__aeabi_dmul
 1195              	.LVL141:
 1196 021a FFF7FEFF 		bl	sqrt
 1197              	.LVL142:
 1198 021e FFF7FEFF 		bl	__aeabi_d2f
 1199              	.LVL143:
 1200 0222 0646     		mov	r6, r0
 1201              	.LVL144:
 449:planner.c     ****         block->max_junction_speed_sqr = max( MINIMUM_JUNCTION_SPEED*MINIMUM_JUNCTION_SPEED,
 1202              		.loc 1 449 0
 1203 0224 206A     		ldr	r0, [r4, #32]	@ float
 1204              	.LVL145:
 1205 0226 4946     		mov	r1, r9
 1206 0228 FFF7FEFF 		bl	__aeabi_fmul
 1207              	.LVL146:
 1208 022c 3146     		mov	r1, r6
 1209 022e FFF7FEFF 		bl	__aeabi_fmul
 1210              	.LVL147:
 1211 0232 0446     		mov	r4, r0
 1212 0234 3046     		mov	r0, r6
 1213 0236 FFF7FEFF 		bl	__aeabi_f2d
 1214              	.LVL148:
 1215 023a 0246     		mov	r2, r0
 1216 023c 0B46     		mov	r3, r1
 1217 023e 0020     		movs	r0, #0
 1218 0240 3349     		ldr	r1, .L123+40
 1219 0242 FFF7FEFF 		bl	__aeabi_dsub
 1220              	.LVL149:
 1221 0246 0646     		mov	r6, r0
 1222              	.LVL150:
 1223 0248 0F46     		mov	r7, r1
 1224 024a 2046     		mov	r0, r4
 1225 024c FFF7FEFF 		bl	__aeabi_f2d
 1226              	.LVL151:
 1227 0250 3246     		mov	r2, r6
 1228 0252 3B46     		mov	r3, r7
 1229 0254 FFF7FEFF 		bl	__aeabi_ddiv
ARM GAS  C:\Users\Bart\AppData\Local\Temp\ccqXVSEd.s 			page 32


 1230              	.LVL152:
 1231 0258 0646     		mov	r6, r0
 1232 025a 0F46     		mov	r7, r1
 1233 025c 0022     		movs	r2, #0
 1234 025e 0023     		movs	r3, #0
 1235 0260 FFF7FEFF 		bl	__aeabi_dcmplt
 1236              	.LVL153:
 1237 0264 20B9     		cbnz	r0, .L115
 1238              		.loc 1 449 0 is_stmt 0 discriminator 2
 1239 0266 3046     		mov	r0, r6
 1240 0268 3946     		mov	r1, r7
 1241 026a FFF7FEFF 		bl	__aeabi_d2f
 1242              	.LVL154:
 1243 026e 00E0     		b	.L112
 1244              	.L115:
 1245              		.loc 1 449 0
 1246 0270 0020     		movs	r0, #0
 1247              	.L112:
 1248              		.loc 1 449 0 discriminator 4
 1249 0272 3423     		movs	r3, #52
 1250 0274 204A     		ldr	r2, .L123+16
 1251 0276 03FB0523 		mla	r3, r3, r5, r2
 1252 027a 9862     		str	r0, [r3, #40]	@ float
 1253              	.LVL155:
 1254              	.L105:
 1255              	.LBE4:
 1256              	.LBE5:
 450:planner.c     ****                        (junction_acceleration * settings.junction_deviation * sin_theta_d2)/(1.0-si
 451:planner.c     ****       }
 452:planner.c     ****     }
 453:planner.c     ****   }
 454:planner.c     **** 
 455:planner.c     ****   // Block system motion from updating this data to ensure next g-code motion is computed correctly
 456:planner.c     ****   if (!(block->condition & PL_COND_FLAG_SYSTEM_MOTION)) {
 1257              		.loc 1 456 0 is_stmt 1
 1258 027c 3422     		movs	r2, #52
 1259 027e 1E4B     		ldr	r3, .L123+16
 1260 0280 02FB0535 		mla	r5, r2, r5, r3
 1261 0284 6B7D     		ldrb	r3, [r5, #21]	@ zero_extendqisi2
 1262 0286 13F0020F 		tst	r3, #2
 1263 028a 26D1     		bne	.L116
 1264              	.LBB6:
 457:planner.c     ****     float nominal_speed = plan_compute_profile_nominal_speed(block);
 1265              		.loc 1 457 0
 1266 028c 4046     		mov	r0, r8
 1267 028e FFF7FEFF 		bl	plan_compute_profile_nominal_speed
 1268              	.LVL156:
 1269 0292 0546     		mov	r5, r0
 1270              	.LVL157:
 458:planner.c     ****     plan_compute_profile_parameters(block, nominal_speed, pl.previous_nominal_speed);
 1271              		.loc 1 458 0
 1272 0294 184C     		ldr	r4, .L123+16
 1273 0296 4046     		mov	r0, r8
 1274              	.LVL158:
 1275 0298 2946     		mov	r1, r5
 1276 029a D4F86023 		ldr	r2, [r4, #864]	@ float
 1277 029e FFF7FEFF 		bl	plan_compute_profile_parameters
ARM GAS  C:\Users\Bart\AppData\Local\Temp\ccqXVSEd.s 			page 33


 1278              	.LVL159:
 459:planner.c     ****     pl.previous_nominal_speed = nominal_speed;
 1279              		.loc 1 459 0
 1280 02a2 C4F86053 		str	r5, [r4, #864]	@ float
 460:planner.c     **** 
 461:planner.c     ****     // Update previous path unit_vector and planner position.
 462:planner.c     ****     memcpy(pl.previous_unit_vec, unit_vec, sizeof(unit_vec)); // pl.previous_unit_vec[] = unit_vec[
 1281              		.loc 1 462 0
 1282 02a6 04F55573 		add	r3, r4, #852
 1283 02aa 03AA     		add	r2, sp, #12
 1284 02ac 07CA     		ldmia	r2, {r0, r1, r2}
 1285 02ae 83E80700 		stmia	r3, {r0, r1, r2}
 463:planner.c     ****     memcpy(pl.position, target_steps, sizeof(target_steps)); // pl.position[] = target_steps[]
 1286              		.loc 1 463 0
 1287 02b2 04F55273 		add	r3, r4, #840
 1288 02b6 0CAA     		add	r2, sp, #48
 1289 02b8 12E90700 		ldmdb	r2, {r0, r1, r2}
 1290 02bc 83E80700 		stmia	r3, {r0, r1, r2}
 464:planner.c     **** 
 465:planner.c     ****     // New block is all set. Update buffer head and next buffer head indices.
 466:planner.c     ****     block_buffer_head = next_buffer_head;
 1291              		.loc 1 466 0
 1292 02c0 94F84503 		ldrb	r0, [r4, #837]	@ zero_extendqisi2
 1293 02c4 2070     		strb	r0, [r4]
 467:planner.c     ****     next_buffer_head = plan_next_block_index(block_buffer_head);
 1294              		.loc 1 467 0
 1295 02c6 FFF7FEFF 		bl	plan_next_block_index
 1296              	.LVL160:
 1297 02ca 84F84503 		strb	r0, [r4, #837]
 468:planner.c     **** 
 469:planner.c     ****     // Finish up by recalculating the plan with the new block.
 470:planner.c     ****     planner_recalculate();
 1298              		.loc 1 470 0
 1299 02ce FFF7FEFF 		bl	planner_recalculate
 1300              	.LVL161:
 1301              	.LBE6:
 471:planner.c     ****   }
 472:planner.c     ****   return(PLAN_OK);
 1302              		.loc 1 472 0
 1303 02d2 0120     		movs	r0, #1
 1304 02d4 02E0     		b	.L100
 1305              	.LVL162:
 1306              	.L113:
 382:planner.c     **** 
 1307              		.loc 1 382 0
 1308 02d6 0020     		movs	r0, #0
 1309 02d8 00E0     		b	.L100
 1310              	.LVL163:
 1311              	.L116:
 1312              		.loc 1 472 0
 1313 02da 0120     		movs	r0, #1
 1314              	.L100:
 473:planner.c     **** }
 1315              		.loc 1 473 0
 1316 02dc 0CB0     		add	sp, sp, #48
 1317              		.cfi_def_cfa_offset 32
 1318              		@ sp needed
ARM GAS  C:\Users\Bart\AppData\Local\Temp\ccqXVSEd.s 			page 34


 1319 02de BDE8F087 		pop	{r4, r5, r6, r7, r8, r9, r10, pc}
 1320              	.LVL164:
 1321              	.L124:
 1322 02e2 00BFAFF3 		.align	3
 1322      0080
 1323              	.L123:
 1324 02e8 E90B21E7 		.word	-417264663
 1325 02ec FDFFEF3F 		.word	1072693245
 1326 02f0 E90B21E7 		.word	-417264663
 1327 02f4 FDFFEFBF 		.word	-1074790403
 1328 02f8 00000000 		.word	.LANCHOR0
 1329 02fc 00000000 		.word	sys_position
 1330 0300 48030000 		.word	.LANCHOR0+840
 1331 0304 00000000 		.word	settings
 1332 0308 18000000 		.word	settings+24
 1333 030c 9976967E 		.word	2123789977
 1334 0310 0000F03F 		.word	1072693248
 1335 0314 0000E03F 		.word	1071644672
 1336              		.cfi_endproc
 1337              	.LFE76:
 1338              		.size	plan_buffer_line, .-plan_buffer_line
 1339              		.section	.text.plan_sync_position,"ax",%progbits
 1340              		.align	2
 1341              		.global	plan_sync_position
 1342              		.thumb
 1343              		.thumb_func
 1344              		.type	plan_sync_position, %function
 1345              	plan_sync_position:
 1346              	.LFB77:
 474:planner.c     **** 
 475:planner.c     **** 
 476:planner.c     **** // Reset the planner position vectors. Called by the system abort/initialization routine.
 477:planner.c     **** void plan_sync_position()
 478:planner.c     **** {
 1347              		.loc 1 478 0
 1348              		.cfi_startproc
 1349              		@ args = 0, pretend = 0, frame = 0
 1350              		@ frame_needed = 0, uses_anonymous_args = 0
 1351              		@ link register save eliminated.
 1352              	.LVL165:
 479:planner.c     ****   // TODO: For motor configurations not in the same coordinate frame as the machine position,
 480:planner.c     ****   // this function needs to be updated to accomodate the difference.
 481:planner.c     ****   uint8_t idx;
 482:planner.c     ****   for (idx=0; idx<N_AXIS; idx++) {
 1353              		.loc 1 482 0
 1354 0000 0023     		movs	r3, #0
 1355 0002 09E0     		b	.L126
 1356              	.LVL166:
 1357              	.L127:
 483:planner.c     ****     #ifdef COREXY
 484:planner.c     ****       if (idx==X_AXIS) {
 485:planner.c     ****         pl.position[X_AXIS] = system_convert_corexy_to_x_axis_steps(sys_position);
 486:planner.c     ****       } else if (idx==Y_AXIS) {
 487:planner.c     ****         pl.position[Y_AXIS] = system_convert_corexy_to_y_axis_steps(sys_position);
 488:planner.c     ****       } else {
 489:planner.c     ****         pl.position[idx] = sys_position[idx];
 490:planner.c     ****       }
ARM GAS  C:\Users\Bart\AppData\Local\Temp\ccqXVSEd.s 			page 35


 491:planner.c     ****     #else
 492:planner.c     ****       pl.position[idx] = sys_position[idx];
 1358              		.loc 1 492 0 discriminator 3
 1359 0004 064A     		ldr	r2, .L128
 1360 0006 52F82310 		ldr	r1, [r2, r3, lsl #2]
 1361 000a 064A     		ldr	r2, .L128+4
 1362 000c 02EB8302 		add	r2, r2, r3, lsl #2
 1363 0010 C2F84813 		str	r1, [r2, #840]
 482:planner.c     ****     #ifdef COREXY
 1364              		.loc 1 482 0 discriminator 3
 1365 0014 0133     		adds	r3, r3, #1
 1366              	.LVL167:
 1367 0016 DBB2     		uxtb	r3, r3
 1368              	.LVL168:
 1369              	.L126:
 482:planner.c     ****     #ifdef COREXY
 1370              		.loc 1 482 0 is_stmt 0 discriminator 1
 1371 0018 022B     		cmp	r3, #2
 1372 001a F3D9     		bls	.L127
 493:planner.c     ****     #endif
 494:planner.c     ****   }
 495:planner.c     **** }
 1373              		.loc 1 495 0 is_stmt 1
 1374 001c 7047     		bx	lr
 1375              	.L129:
 1376 001e 00BF     		.align	2
 1377              	.L128:
 1378 0020 00000000 		.word	sys_position
 1379 0024 00000000 		.word	.LANCHOR0
 1380              		.cfi_endproc
 1381              	.LFE77:
 1382              		.size	plan_sync_position, .-plan_sync_position
 1383              		.section	.text.plan_get_block_buffer_available,"ax",%progbits
 1384              		.align	2
 1385              		.global	plan_get_block_buffer_available
 1386              		.thumb
 1387              		.thumb_func
 1388              		.type	plan_get_block_buffer_available, %function
 1389              	plan_get_block_buffer_available:
 1390              	.LFB78:
 496:planner.c     **** 
 497:planner.c     **** 
 498:planner.c     **** // Returns the number of available blocks are in the planner buffer.
 499:planner.c     **** uint8_t plan_get_block_buffer_available()
 500:planner.c     **** {
 1391              		.loc 1 500 0
 1392              		.cfi_startproc
 1393              		@ args = 0, pretend = 0, frame = 0
 1394              		@ frame_needed = 0, uses_anonymous_args = 0
 1395              		@ link register save eliminated.
 501:planner.c     ****   if (block_buffer_head >= block_buffer_tail) { return((BLOCK_BUFFER_SIZE-1)-(block_buffer_head-blo
 1396              		.loc 1 501 0
 1397 0000 064B     		ldr	r3, .L133
 1398 0002 1878     		ldrb	r0, [r3]	@ zero_extendqisi2
 1399 0004 93F84433 		ldrb	r3, [r3, #836]	@ zero_extendqisi2
 1400 0008 9842     		cmp	r0, r3
 1401 000a 03D3     		bcc	.L131
ARM GAS  C:\Users\Bart\AppData\Local\Temp\ccqXVSEd.s 			page 36


 1402              		.loc 1 501 0 is_stmt 0 discriminator 1
 1403 000c 181A     		subs	r0, r3, r0
 1404 000e 0F30     		adds	r0, r0, #15
 1405 0010 C0B2     		uxtb	r0, r0
 1406 0012 7047     		bx	lr
 1407              	.L131:
 502:planner.c     ****   return((block_buffer_tail-block_buffer_head-1));
 1408              		.loc 1 502 0 is_stmt 1
 1409 0014 181A     		subs	r0, r3, r0
 1410 0016 0138     		subs	r0, r0, #1
 1411 0018 C0B2     		uxtb	r0, r0
 503:planner.c     **** }
 1412              		.loc 1 503 0
 1413 001a 7047     		bx	lr
 1414              	.L134:
 1415              		.align	2
 1416              	.L133:
 1417 001c 00000000 		.word	.LANCHOR0
 1418              		.cfi_endproc
 1419              	.LFE78:
 1420              		.size	plan_get_block_buffer_available, .-plan_get_block_buffer_available
 1421              		.section	.text.plan_get_block_buffer_count,"ax",%progbits
 1422              		.align	2
 1423              		.global	plan_get_block_buffer_count
 1424              		.thumb
 1425              		.thumb_func
 1426              		.type	plan_get_block_buffer_count, %function
 1427              	plan_get_block_buffer_count:
 1428              	.LFB79:
 504:planner.c     **** 
 505:planner.c     **** 
 506:planner.c     **** // Returns the number of active blocks are in the planner buffer.
 507:planner.c     **** // NOTE: Deprecated. Not used unless classic status reports are enabled in config.h
 508:planner.c     **** uint8_t plan_get_block_buffer_count()
 509:planner.c     **** {
 1429              		.loc 1 509 0
 1430              		.cfi_startproc
 1431              		@ args = 0, pretend = 0, frame = 0
 1432              		@ frame_needed = 0, uses_anonymous_args = 0
 1433              		@ link register save eliminated.
 510:planner.c     ****   if (block_buffer_head >= block_buffer_tail) { return(block_buffer_head-block_buffer_tail); }
 1434              		.loc 1 510 0
 1435 0000 064A     		ldr	r2, .L138
 1436 0002 1378     		ldrb	r3, [r2]	@ zero_extendqisi2
 1437 0004 92F84403 		ldrb	r0, [r2, #836]	@ zero_extendqisi2
 1438 0008 8342     		cmp	r3, r0
 1439 000a 02D3     		bcc	.L136
 1440              		.loc 1 510 0 is_stmt 0 discriminator 1
 1441 000c 181A     		subs	r0, r3, r0
 1442 000e C0B2     		uxtb	r0, r0
 1443 0010 7047     		bx	lr
 1444              	.L136:
 511:planner.c     ****   return(BLOCK_BUFFER_SIZE - (block_buffer_tail-block_buffer_head));
 1445              		.loc 1 511 0 is_stmt 1
 1446 0012 181A     		subs	r0, r3, r0
 1447 0014 1030     		adds	r0, r0, #16
 1448 0016 C0B2     		uxtb	r0, r0
ARM GAS  C:\Users\Bart\AppData\Local\Temp\ccqXVSEd.s 			page 37


 512:planner.c     **** }
 1449              		.loc 1 512 0
 1450 0018 7047     		bx	lr
 1451              	.L139:
 1452 001a 00BF     		.align	2
 1453              	.L138:
 1454 001c 00000000 		.word	.LANCHOR0
 1455              		.cfi_endproc
 1456              	.LFE79:
 1457              		.size	plan_get_block_buffer_count, .-plan_get_block_buffer_count
 1458              		.section	.text.plan_cycle_reinitialize,"ax",%progbits
 1459              		.align	2
 1460              		.global	plan_cycle_reinitialize
 1461              		.thumb
 1462              		.thumb_func
 1463              		.type	plan_cycle_reinitialize, %function
 1464              	plan_cycle_reinitialize:
 1465              	.LFB80:
 513:planner.c     **** 
 514:planner.c     **** 
 515:planner.c     **** // Re-initialize buffer plan with a partially completed block, assumed to exist at the buffer tail.
 516:planner.c     **** // Called after a steppers have come to a complete stop for a feed hold and the cycle is stopped.
 517:planner.c     **** void plan_cycle_reinitialize()
 518:planner.c     **** {
 1466              		.loc 1 518 0
 1467              		.cfi_startproc
 1468              		@ args = 0, pretend = 0, frame = 0
 1469              		@ frame_needed = 0, uses_anonymous_args = 0
 1470 0000 08B5     		push	{r3, lr}
 1471              		.cfi_def_cfa_offset 8
 1472              		.cfi_offset 3, -8
 1473              		.cfi_offset 14, -4
 519:planner.c     ****   // Re-plan from a complete stop. Reset planner entry speeds and buffer planned pointer.
 520:planner.c     ****   st_update_plan_block_parameters();
 1474              		.loc 1 520 0
 1475 0002 FFF7FEFF 		bl	st_update_plan_block_parameters
 1476              	.LVL169:
 521:planner.c     ****   block_buffer_planned = block_buffer_tail;
 1477              		.loc 1 521 0
 1478 0006 034B     		ldr	r3, .L142
 1479 0008 93F84423 		ldrb	r2, [r3, #836]	@ zero_extendqisi2
 1480 000c 5A70     		strb	r2, [r3, #1]
 522:planner.c     ****   planner_recalculate();
 1481              		.loc 1 522 0
 1482 000e FFF7FEFF 		bl	planner_recalculate
 1483              	.LVL170:
 1484 0012 08BD     		pop	{r3, pc}
 1485              	.L143:
 1486              		.align	2
 1487              	.L142:
 1488 0014 00000000 		.word	.LANCHOR0
 1489              		.cfi_endproc
 1490              	.LFE80:
 1491              		.size	plan_cycle_reinitialize, .-plan_cycle_reinitialize
 1492              		.comm	exec_lcd_status,1,1
 1493              		.comm	sys_rt_exec_debug,1,1
 1494              		.comm	sys_rt_exec_accessory_override,1,1
ARM GAS  C:\Users\Bart\AppData\Local\Temp\ccqXVSEd.s 			page 38


 1495              		.comm	sys_rt_exec_motion_override,1,1
 1496              		.comm	sys_rt_exec_alarm,1,1
 1497              		.comm	sys_rt_exec_state,1,1
 1498              		.comm	sys_probe_state,1,1
 1499              		.comm	sys_probe_position,12,4
 1500              		.comm	sys_position,12,4
 1501              		.bss
 1502              		.align	2
 1503              		.set	.LANCHOR0,. + 0
 1504              		.type	block_buffer_head, %object
 1505              		.size	block_buffer_head, 1
 1506              	block_buffer_head:
 1507 0000 00       		.space	1
 1508              		.type	block_buffer_planned, %object
 1509              		.size	block_buffer_planned, 1
 1510              	block_buffer_planned:
 1511 0001 00       		.space	1
 1512 0002 0000     		.space	2
 1513              		.type	block_buffer, %object
 1514              		.size	block_buffer, 832
 1515              	block_buffer:
 1516 0004 00000000 		.space	832
 1516      00000000 
 1516      00000000 
 1516      00000000 
 1516      00000000 
 1517              		.type	block_buffer_tail, %object
 1518              		.size	block_buffer_tail, 1
 1519              	block_buffer_tail:
 1520 0344 00       		.space	1
 1521              		.type	next_buffer_head, %object
 1522              		.size	next_buffer_head, 1
 1523              	next_buffer_head:
 1524 0345 00       		.space	1
 1525 0346 0000     		.space	2
 1526              		.type	pl, %object
 1527              		.size	pl, 28
 1528              	pl:
 1529 0348 00000000 		.space	28
 1529      00000000 
 1529      00000000 
 1529      00000000 
 1529      00000000 
 1530              		.text
 1531              	.Letext0:
 1532              		.file 2 "d:\\program files (x86)\\cypress\\psoc creator\\4.0\\psoc creator\\import\\gnu\\arm\\4.9.
 1533              		.file 3 "d:\\program files (x86)\\cypress\\psoc creator\\4.0\\psoc creator\\import\\gnu\\arm\\4.9.
 1534              		.file 4 "settings.h"
 1535              		.file 5 "system.h"
 1536              		.file 6 "planner.h"
 1537              		.file 7 "Generated_Source\\PSoC5/core_cm3.h"
 1538              		.file 8 "lcd_report.h"
 1539              		.file 9 "nuts_bolts.h"
 1540              		.file 10 "d:\\program files (x86)\\cypress\\psoc creator\\4.0\\psoc creator\\import\\gnu\\arm\\4.9
 1541              		.file 11 "stepper.h"