ARM GAS  C:\Users\Bart\AppData\Local\Temp\cciD5iHp.s 			page 1


   1              		.syntax unified
   2              		.cpu cortex-m3
   3              		.fpu softvfp
   4              		.eabi_attribute 20, 1
   5              		.eabi_attribute 21, 1
   6              		.eabi_attribute 23, 3
   7              		.eabi_attribute 24, 1
   8              		.eabi_attribute 25, 1
   9              		.eabi_attribute 26, 1
  10              		.eabi_attribute 30, 1
  11              		.eabi_attribute 34, 1
  12              		.eabi_attribute 18, 4
  13              		.thumb
  14              		.file	"print.c"
  15              		.text
  16              	.Ltext0:
  17              		.cfi_sections	.debug_frame
  18              		.section	.text.printString,"ax",%progbits
  19              		.align	2
  20              		.global	printString
  21              		.thumb
  22              		.thumb_func
  23              		.type	printString, %function
  24              	printString:
  25              	.LFB63:
  26              		.file 1 "print.c"
   1:print.c       **** /*
   2:print.c       ****   print.c - Functions for formatting output strings
   3:print.c       ****   Part of Grbl
   4:print.c       **** 
   5:print.c       ****   Copyright (c) 2011-2015 Sungeun K. Jeon
   6:print.c       ****   Copyright (c) 2009-2011 Simen Svale Skogsrud
   7:print.c       ****   Updated For PSOC BJD 2017
   8:print.c       **** 
   9:print.c       ****   Grbl is free software: you can redistribute it and/or modify
  10:print.c       ****   it under the terms of the GNU General Public License as published by
  11:print.c       ****   the Free Software Foundation, either version 3 of the License, or
  12:print.c       ****   (at your option) any later version.
  13:print.c       **** 
  14:print.c       ****   Grbl is distributed in the hope that it will be useful,
  15:print.c       ****   but WITHOUT ANY WARRANTY; without even the implied warranty of
  16:print.c       ****   MERCHANTABILITY or FITNESS FOR A PARTICULAR PURPOSE.  See the
  17:print.c       ****   GNU General Public License for more details.
  18:print.c       **** 
  19:print.c       ****   You should have received a copy of the GNU General Public License
  20:print.c       ****   along with Grbl.  If not, see <http://www.gnu.org/licenses/>.
  21:print.c       **** */
  22:print.c       **** #include "grbl.h"
  23:print.c       **** 
  24:print.c       **** 
  25:print.c       **** 
  26:print.c       **** //PSOC Map these functions to PSoC
  27:print.c       **** void printString(const char *s)
  28:print.c       **** {
  27              		.loc 1 28 0
  28              		.cfi_startproc
  29              		@ args = 0, pretend = 0, frame = 0
ARM GAS  C:\Users\Bart\AppData\Local\Temp\cciD5iHp.s 			page 2


  30              		@ frame_needed = 0, uses_anonymous_args = 0
  31              	.LVL0:
  32 0000 08B5     		push	{r3, lr}
  33              		.cfi_def_cfa_offset 8
  34              		.cfi_offset 3, -8
  35              		.cfi_offset 14, -4
  29:print.c       ****   UART_PutString(s);
  36              		.loc 1 29 0
  37 0002 FFF7FEFF 		bl	UART_PutString
  38              	.LVL1:
  39 0006 08BD     		pop	{r3, pc}
  40              		.cfi_endproc
  41              	.LFE63:
  42              		.size	printString, .-printString
  43              		.section	.text.printPgmString,"ax",%progbits
  44              		.align	2
  45              		.global	printPgmString
  46              		.thumb
  47              		.thumb_func
  48              		.type	printPgmString, %function
  49              	printPgmString:
  50              	.LFB64:
  30:print.c       **** }
  31:print.c       **** 
  32:print.c       **** // Print a string stored in PGM-memory
  33:print.c       **** void printPgmString(const char *s)
  34:print.c       **** {
  51              		.loc 1 34 0
  52              		.cfi_startproc
  53              		@ args = 0, pretend = 0, frame = 0
  54              		@ frame_needed = 0, uses_anonymous_args = 0
  55              	.LVL2:
  56 0000 08B5     		push	{r3, lr}
  57              		.cfi_def_cfa_offset 8
  58              		.cfi_offset 3, -8
  59              		.cfi_offset 14, -4
  35:print.c       ****   UART_PutString(s);
  60              		.loc 1 35 0
  61 0002 FFF7FEFF 		bl	UART_PutString
  62              	.LVL3:
  63 0006 08BD     		pop	{r3, pc}
  64              		.cfi_endproc
  65              	.LFE64:
  66              		.size	printPgmString, .-printPgmString
  67              		.section	.text.print_uint8_base10,"ax",%progbits
  68              		.align	2
  69              		.global	print_uint8_base10
  70              		.thumb
  71              		.thumb_func
  72              		.type	print_uint8_base10, %function
  73              	print_uint8_base10:
  74              	.LFB65:
  36:print.c       **** }
  37:print.c       **** 
  38:print.c       **** // Prints an uint8 variable in base 10.
  39:print.c       **** void print_uint8_base10(uint8_t n)
  40:print.c       **** {
ARM GAS  C:\Users\Bart\AppData\Local\Temp\cciD5iHp.s 			page 3


  75              		.loc 1 40 0
  76              		.cfi_startproc
  77              		@ args = 0, pretend = 0, frame = 0
  78              		@ frame_needed = 0, uses_anonymous_args = 0
  79              	.LVL4:
  80 0000 38B5     		push	{r3, r4, r5, lr}
  81              		.cfi_def_cfa_offset 16
  82              		.cfi_offset 3, -16
  83              		.cfi_offset 4, -12
  84              		.cfi_offset 5, -8
  85              		.cfi_offset 14, -4
  86              	.LVL5:
  41:print.c       ****   uint8_t digit_a = 0;
  42:print.c       ****   uint8_t digit_b = 0;
  43:print.c       ****   if (n >= 100) { // 100-255
  87              		.loc 1 43 0
  88 0002 6328     		cmp	r0, #99
  89 0004 0BD9     		bls	.L10
  44:print.c       ****     digit_a = '0' + n % 10;
  90              		.loc 1 44 0
  91 0006 144B     		ldr	r3, .L13
  92 0008 A3FB0023 		umull	r2, r3, r3, r0
  93 000c DB08     		lsrs	r3, r3, #3
  94 000e 03EB8302 		add	r2, r3, r3, lsl #2
  95 0012 5200     		lsls	r2, r2, #1
  96 0014 801A     		subs	r0, r0, r2
  97              	.LVL6:
  98 0016 3030     		adds	r0, r0, #48
  99 0018 C4B2     		uxtb	r4, r0
 100              	.LVL7:
  45:print.c       ****     n /= 10;
 101              		.loc 1 45 0
 102 001a D8B2     		uxtb	r0, r3
 103              	.LVL8:
 104 001c 00E0     		b	.L6
 105              	.LVL9:
 106              	.L10:
  41:print.c       ****   uint8_t digit_a = 0;
 107              		.loc 1 41 0
 108 001e 0024     		movs	r4, #0
 109              	.LVL10:
 110              	.L6:
  46:print.c       ****   }
  47:print.c       ****   if (n >= 10) { // 10-99
 111              		.loc 1 47 0
 112 0020 0928     		cmp	r0, #9
 113 0022 0BD9     		bls	.L11
  48:print.c       ****     digit_b = '0' + n % 10;
 114              		.loc 1 48 0
 115 0024 0C4B     		ldr	r3, .L13
 116 0026 A3FB0023 		umull	r2, r3, r3, r0
 117 002a DB08     		lsrs	r3, r3, #3
 118 002c 03EB8302 		add	r2, r3, r3, lsl #2
 119 0030 5200     		lsls	r2, r2, #1
 120 0032 801A     		subs	r0, r0, r2
 121              	.LVL11:
 122 0034 3030     		adds	r0, r0, #48
ARM GAS  C:\Users\Bart\AppData\Local\Temp\cciD5iHp.s 			page 4


 123 0036 C5B2     		uxtb	r5, r0
 124              	.LVL12:
  49:print.c       ****     n /= 10;
 125              		.loc 1 49 0
 126 0038 D8B2     		uxtb	r0, r3
 127              	.LVL13:
 128 003a 00E0     		b	.L7
 129              	.LVL14:
 130              	.L11:
  42:print.c       ****   if (n >= 100) { // 100-255
 131              		.loc 1 42 0
 132 003c 0025     		movs	r5, #0
 133              	.LVL15:
 134              	.L7:
  50:print.c       ****   }
  51:print.c       ****   serial_write('0' + n);
 135              		.loc 1 51 0
 136 003e 3030     		adds	r0, r0, #48
 137              	.LVL16:
 138 0040 C0B2     		uxtb	r0, r0
 139 0042 FFF7FEFF 		bl	serial_write
 140              	.LVL17:
  52:print.c       ****   if (digit_b) { serial_write(digit_b); }
 141              		.loc 1 52 0
 142 0046 15B1     		cbz	r5, .L8
 143              		.loc 1 52 0 is_stmt 0 discriminator 1
 144 0048 2846     		mov	r0, r5
 145 004a FFF7FEFF 		bl	serial_write
 146              	.LVL18:
 147              	.L8:
  53:print.c       ****   if (digit_a) { serial_write(digit_a); }
 148              		.loc 1 53 0 is_stmt 1
 149 004e 14B1     		cbz	r4, .L5
 150              		.loc 1 53 0 is_stmt 0 discriminator 1
 151 0050 2046     		mov	r0, r4
 152 0052 FFF7FEFF 		bl	serial_write
 153              	.LVL19:
 154              	.L5:
 155 0056 38BD     		pop	{r3, r4, r5, pc}
 156              	.LVL20:
 157              	.L14:
 158              		.align	2
 159              	.L13:
 160 0058 CDCCCCCC 		.word	-858993459
 161              		.cfi_endproc
 162              	.LFE65:
 163              		.size	print_uint8_base10, .-print_uint8_base10
 164              		.section	.text.print_uint8_base2_ndigit,"ax",%progbits
 165              		.align	2
 166              		.global	print_uint8_base2_ndigit
 167              		.thumb
 168              		.thumb_func
 169              		.type	print_uint8_base2_ndigit, %function
 170              	print_uint8_base2_ndigit:
 171              	.LFB66:
  54:print.c       **** }
  55:print.c       **** 
ARM GAS  C:\Users\Bart\AppData\Local\Temp\cciD5iHp.s 			page 5


  56:print.c       **** 
  57:print.c       **** // Prints an uint8 variable in base 2 with desired number of desired digits.
  58:print.c       **** void print_uint8_base2_ndigit(uint8_t n, uint8_t digits) {
 172              		.loc 1 58 0 is_stmt 1
 173              		.cfi_startproc
 174              		@ args = 0, pretend = 0, frame = 0
 175              		@ frame_needed = 1, uses_anonymous_args = 0
 176              	.LVL21:
 177 0000 B0B5     		push	{r4, r5, r7, lr}
 178              		.cfi_def_cfa_offset 16
 179              		.cfi_offset 4, -16
 180              		.cfi_offset 5, -12
 181              		.cfi_offset 7, -8
 182              		.cfi_offset 14, -4
 183 0002 00AF     		add	r7, sp, #0
 184              		.cfi_def_cfa_register 7
 185              	.LVL22:
  59:print.c       ****   unsigned char buf[digits];
 186              		.loc 1 59 0
 187 0004 CB1D     		adds	r3, r1, #7
 188 0006 23F00703 		bic	r3, r3, #7
 189 000a ADEB030D 		sub	sp, sp, r3
 190 000e 6D46     		mov	r5, sp
 191              	.LVL23:
  60:print.c       ****   uint8_t i = 0;
 192              		.loc 1 60 0
 193 0010 0023     		movs	r3, #0
  61:print.c       **** 
  62:print.c       ****   for (; i < digits; i++) {
 194              		.loc 1 62 0
 195 0012 05E0     		b	.L16
 196              	.LVL24:
 197              	.L17:
  63:print.c       ****       buf[i] = n % 2 ;
 198              		.loc 1 63 0 discriminator 2
 199 0014 00F00102 		and	r2, r0, #1
 200 0018 EA54     		strb	r2, [r5, r3]
  64:print.c       ****       n /= 2;
 201              		.loc 1 64 0 discriminator 2
 202 001a 4008     		lsrs	r0, r0, #1
 203              	.LVL25:
  62:print.c       ****       buf[i] = n % 2 ;
 204              		.loc 1 62 0 discriminator 2
 205 001c 0133     		adds	r3, r3, #1
 206              	.LVL26:
 207 001e DBB2     		uxtb	r3, r3
 208              	.LVL27:
 209              	.L16:
  62:print.c       ****       buf[i] = n % 2 ;
 210              		.loc 1 62 0 is_stmt 0 discriminator 1
 211 0020 8B42     		cmp	r3, r1
 212 0022 F7D3     		bcc	.L17
 213 0024 06E0     		b	.L18
 214              	.LVL28:
 215              	.L19:
  65:print.c       ****   }
  66:print.c       **** 
ARM GAS  C:\Users\Bart\AppData\Local\Temp\cciD5iHp.s 			page 6


  67:print.c       ****   for (; i > 0; i--)
  68:print.c       ****       serial_write('0' + buf[i - 1]);
 216              		.loc 1 68 0 is_stmt 1 discriminator 2
 217 0026 5C1E     		subs	r4, r3, #1
 218 0028 285D     		ldrb	r0, [r5, r4]	@ zero_extendqisi2
 219 002a 3030     		adds	r0, r0, #48
 220 002c C0B2     		uxtb	r0, r0
 221 002e FFF7FEFF 		bl	serial_write
 222              	.LVL29:
  67:print.c       ****       serial_write('0' + buf[i - 1]);
 223              		.loc 1 67 0 discriminator 2
 224 0032 E3B2     		uxtb	r3, r4
 225              	.LVL30:
 226              	.L18:
  67:print.c       ****       serial_write('0' + buf[i - 1]);
 227              		.loc 1 67 0 is_stmt 0 discriminator 1
 228 0034 002B     		cmp	r3, #0
 229 0036 F6D1     		bne	.L19
  69:print.c       **** }
 230              		.loc 1 69 0 is_stmt 1
 231 0038 BD46     		mov	sp, r7
 232              		.cfi_def_cfa_register 13
 233              		@ sp needed
 234 003a B0BD     		pop	{r4, r5, r7, pc}
 235              		.cfi_endproc
 236              	.LFE66:
 237              		.size	print_uint8_base2_ndigit, .-print_uint8_base2_ndigit
 238              		.section	.text.print_uint32_base10,"ax",%progbits
 239              		.align	2
 240              		.global	print_uint32_base10
 241              		.thumb
 242              		.thumb_func
 243              		.type	print_uint32_base10, %function
 244              	print_uint32_base10:
 245              	.LFB67:
  70:print.c       **** 
  71:print.c       **** 
  72:print.c       **** void print_uint32_base10(uint32_t n)
  73:print.c       **** {
 246              		.loc 1 73 0
 247              		.cfi_startproc
 248              		@ args = 0, pretend = 0, frame = 16
 249              		@ frame_needed = 0, uses_anonymous_args = 0
 250              	.LVL31:
 251 0000 10B5     		push	{r4, lr}
 252              		.cfi_def_cfa_offset 8
 253              		.cfi_offset 4, -8
 254              		.cfi_offset 14, -4
 255 0002 84B0     		sub	sp, sp, #16
 256              		.cfi_def_cfa_offset 24
  74:print.c       ****   if (n == 0) {
 257              		.loc 1 74 0
 258 0004 A0B9     		cbnz	r0, .L27
  75:print.c       ****     serial_write('0');
 259              		.loc 1 75 0
 260 0006 3020     		movs	r0, #48
 261              	.LVL32:
ARM GAS  C:\Users\Bart\AppData\Local\Temp\cciD5iHp.s 			page 7


 262 0008 FFF7FEFF 		bl	serial_write
 263              	.LVL33:
 264 000c 21E0     		b	.L21
 265              	.LVL34:
 266              	.L24:
  76:print.c       ****     return;
  77:print.c       ****   }
  78:print.c       **** 
  79:print.c       ****   unsigned char buf[10];
  80:print.c       ****   uint8_t i = 0;
  81:print.c       **** 
  82:print.c       ****   while (n > 0) {
  83:print.c       ****     buf[i++] = n % 10;
 267              		.loc 1 83 0
 268 000e 501C     		adds	r0, r2, #1
 269              	.LVL35:
 270 0010 114B     		ldr	r3, .L29
 271 0012 A3FB0143 		umull	r4, r3, r3, r1
 272 0016 DB08     		lsrs	r3, r3, #3
 273 0018 1C46     		mov	r4, r3
 274 001a 03EB8303 		add	r3, r3, r3, lsl #2
 275 001e 5B00     		lsls	r3, r3, #1
 276 0020 CB1A     		subs	r3, r1, r3
 277 0022 04A9     		add	r1, sp, #16
 278              	.LVL36:
 279 0024 0A44     		add	r2, r2, r1
 280 0026 02F80C3C 		strb	r3, [r2, #-12]
  84:print.c       ****     n /= 10;
 281              		.loc 1 84 0
 282 002a 2146     		mov	r1, r4
 283              	.LVL37:
  83:print.c       ****     n /= 10;
 284              		.loc 1 83 0
 285 002c C2B2     		uxtb	r2, r0
 286 002e 01E0     		b	.L22
 287              	.LVL38:
 288              	.L27:
 289 0030 0146     		mov	r1, r0
 290 0032 0022     		movs	r2, #0
 291              	.LVL39:
 292              	.L22:
  82:print.c       ****     buf[i++] = n % 10;
 293              		.loc 1 82 0
 294 0034 0029     		cmp	r1, #0
 295 0036 EAD1     		bne	.L24
 296 0038 09E0     		b	.L25
 297              	.LVL40:
 298              	.L26:
  85:print.c       ****   }
  86:print.c       **** 
  87:print.c       ****   for (; i > 0; i--)
  88:print.c       ****     serial_write('0' + buf[i-1]);
 299              		.loc 1 88 0 discriminator 2
 300 003a 541E     		subs	r4, r2, #1
 301 003c 04AB     		add	r3, sp, #16
 302 003e 2344     		add	r3, r3, r4
 303 0040 13F80C0C 		ldrb	r0, [r3, #-12]	@ zero_extendqisi2
ARM GAS  C:\Users\Bart\AppData\Local\Temp\cciD5iHp.s 			page 8


 304 0044 3030     		adds	r0, r0, #48
 305 0046 C0B2     		uxtb	r0, r0
 306 0048 FFF7FEFF 		bl	serial_write
 307              	.LVL41:
  87:print.c       ****     serial_write('0' + buf[i-1]);
 308              		.loc 1 87 0 discriminator 2
 309 004c E2B2     		uxtb	r2, r4
 310              	.LVL42:
 311              	.L25:
  87:print.c       ****     serial_write('0' + buf[i-1]);
 312              		.loc 1 87 0 is_stmt 0 discriminator 1
 313 004e 002A     		cmp	r2, #0
 314 0050 F3D1     		bne	.L26
 315              	.LVL43:
 316              	.L21:
  89:print.c       **** }
 317              		.loc 1 89 0 is_stmt 1
 318 0052 04B0     		add	sp, sp, #16
 319              		.cfi_def_cfa_offset 8
 320              		@ sp needed
 321 0054 10BD     		pop	{r4, pc}
 322              	.L30:
 323 0056 00BF     		.align	2
 324              	.L29:
 325 0058 CDCCCCCC 		.word	-858993459
 326              		.cfi_endproc
 327              	.LFE67:
 328              		.size	print_uint32_base10, .-print_uint32_base10
 329              		.section	.text.printInteger,"ax",%progbits
 330              		.align	2
 331              		.global	printInteger
 332              		.thumb
 333              		.thumb_func
 334              		.type	printInteger, %function
 335              	printInteger:
 336              	.LFB68:
  90:print.c       **** 
  91:print.c       **** 
  92:print.c       **** void printInteger(long n)
  93:print.c       **** {
 337              		.loc 1 93 0
 338              		.cfi_startproc
 339              		@ args = 0, pretend = 0, frame = 0
 340              		@ frame_needed = 0, uses_anonymous_args = 0
 341              	.LVL44:
 342 0000 10B5     		push	{r4, lr}
 343              		.cfi_def_cfa_offset 8
 344              		.cfi_offset 4, -8
 345              		.cfi_offset 14, -4
  94:print.c       ****   if (n < 0) {
 346              		.loc 1 94 0
 347 0002 041E     		subs	r4, r0, #0
 348 0004 06DA     		bge	.L32
  95:print.c       ****     serial_write('-');
 349              		.loc 1 95 0
 350 0006 2D20     		movs	r0, #45
 351              	.LVL45:
ARM GAS  C:\Users\Bart\AppData\Local\Temp\cciD5iHp.s 			page 9


 352 0008 FFF7FEFF 		bl	serial_write
 353              	.LVL46:
  96:print.c       ****     print_uint32_base10(-n);
 354              		.loc 1 96 0
 355 000c 6042     		negs	r0, r4
 356 000e FFF7FEFF 		bl	print_uint32_base10
 357              	.LVL47:
 358 0012 10BD     		pop	{r4, pc}
 359              	.LVL48:
 360              	.L32:
  97:print.c       ****   } else {
  98:print.c       ****     print_uint32_base10(n);
 361              		.loc 1 98 0
 362 0014 2046     		mov	r0, r4
 363              	.LVL49:
 364 0016 FFF7FEFF 		bl	print_uint32_base10
 365              	.LVL50:
 366 001a 10BD     		pop	{r4, pc}
 367              		.cfi_endproc
 368              	.LFE68:
 369              		.size	printInteger, .-printInteger
 370              		.global	__aeabi_fcmplt
 371              		.global	__aeabi_fmul
 372              		.global	__aeabi_fadd
 373              		.global	__aeabi_f2iz
 374              		.section	.text.printFloat,"ax",%progbits
 375              		.align	2
 376              		.global	printFloat
 377              		.thumb
 378              		.thumb_func
 379              		.type	printFloat, %function
 380              	printFloat:
 381              	.LFB69:
  99:print.c       ****   }
 100:print.c       **** }
 101:print.c       **** 
 102:print.c       **** 
 103:print.c       **** // Convert float to string by immediately converting to a long integer, which contains
 104:print.c       **** // more digits than a float. Number of decimal places, which are tracked by a counter,
 105:print.c       **** // may be set by the user. The integer is then efficiently converted to a string.
 106:print.c       **** // NOTE: AVR '%' and '/' integer operations are very efficient. Bitshifting speed-up
 107:print.c       **** // techniques are actually just slightly slower. Found this out the hard way.
 108:print.c       **** void printFloat(float n, uint8_t decimal_places)
 109:print.c       **** {
 382              		.loc 1 109 0
 383              		.cfi_startproc
 384              		@ args = 0, pretend = 0, frame = 16
 385              		@ frame_needed = 0, uses_anonymous_args = 0
 386              	.LVL51:
 387 0000 70B5     		push	{r4, r5, r6, lr}
 388              		.cfi_def_cfa_offset 16
 389              		.cfi_offset 4, -16
 390              		.cfi_offset 5, -12
 391              		.cfi_offset 6, -8
 392              		.cfi_offset 14, -4
 393 0002 84B0     		sub	sp, sp, #16
 394              		.cfi_def_cfa_offset 32
ARM GAS  C:\Users\Bart\AppData\Local\Temp\cciD5iHp.s 			page 10


 395 0004 0646     		mov	r6, r0
 396 0006 0D46     		mov	r5, r1
 110:print.c       ****   if (n < 0) {
 397              		.loc 1 110 0
 398 0008 0021     		movs	r1, #0
 399              	.LVL52:
 400 000a FFF7FEFF 		bl	__aeabi_fcmplt
 401              	.LVL53:
 402 000e 20B1     		cbz	r0, .L36
 111:print.c       ****     serial_write('-');
 403              		.loc 1 111 0
 404 0010 2D20     		movs	r0, #45
 405 0012 FFF7FEFF 		bl	serial_write
 406              	.LVL54:
 112:print.c       ****     n = -n;
 407              		.loc 1 112 0
 408 0016 06F10046 		add	r6, r6, #-2147483648
 409              	.LVL55:
 410              	.L36:
 113:print.c       ****   }
 114:print.c       **** 
 115:print.c       ****   uint8_t decimals = decimal_places;
 411              		.loc 1 115 0
 412 001a 2C46     		mov	r4, r5
 116:print.c       ****   while (decimals >= 2) { // Quickly convert values expected to be E0 to E-4.
 413              		.loc 1 116 0
 414 001c 06E0     		b	.L38
 415              	.LVL56:
 416              	.L39:
 117:print.c       ****     n *= 100;
 417              		.loc 1 117 0
 418 001e 3046     		mov	r0, r6
 419 0020 2649     		ldr	r1, .L51
 420 0022 FFF7FEFF 		bl	__aeabi_fmul
 421              	.LVL57:
 422 0026 0646     		mov	r6, r0
 423              	.LVL58:
 118:print.c       ****     decimals -= 2;
 424              		.loc 1 118 0
 425 0028 023C     		subs	r4, r4, #2
 426              	.LVL59:
 427 002a E4B2     		uxtb	r4, r4
 428              	.LVL60:
 429              	.L38:
 116:print.c       ****   while (decimals >= 2) { // Quickly convert values expected to be E0 to E-4.
 430              		.loc 1 116 0
 431 002c 012C     		cmp	r4, #1
 432 002e F6D8     		bhi	.L39
 119:print.c       ****   }
 120:print.c       ****   if (decimals) { n *= 10; }
 433              		.loc 1 120 0
 434 0030 24B1     		cbz	r4, .L40
 435              		.loc 1 120 0 is_stmt 0 discriminator 1
 436 0032 3046     		mov	r0, r6
 437 0034 2249     		ldr	r1, .L51+4
 438 0036 FFF7FEFF 		bl	__aeabi_fmul
 439              	.LVL61:
ARM GAS  C:\Users\Bart\AppData\Local\Temp\cciD5iHp.s 			page 11


 440 003a 0646     		mov	r6, r0
 441              	.LVL62:
 442              	.L40:
 121:print.c       ****   n += 0.5; // Add rounding factor. Ensures carryover through entire value.
 443              		.loc 1 121 0 is_stmt 1
 444 003c 3046     		mov	r0, r6
 445 003e 4FF07C51 		mov	r1, #1056964608
 446 0042 FFF7FEFF 		bl	__aeabi_fadd
 447              	.LVL63:
 122:print.c       **** 
 123:print.c       ****   // Generate digits backwards and store in string.
 124:print.c       ****   unsigned char buf[13];
 125:print.c       ****   uint8_t i = 0;
 126:print.c       ****   uint32_t a = (long)n;
 448              		.loc 1 126 0
 449 0046 FFF7FEFF 		bl	__aeabi_f2iz
 450              	.LVL64:
 125:print.c       ****   uint32_t a = (long)n;
 451              		.loc 1 125 0
 452 004a 0024     		movs	r4, #0
 453              	.LVL65:
 127:print.c       ****   while(a > 0) {
 454              		.loc 1 127 0
 455 004c 10E0     		b	.L41
 456              	.LVL66:
 457              	.L42:
 128:print.c       ****     buf[i++] = (a % 10) + '0'; // Get digit
 458              		.loc 1 128 0
 459 004e 621C     		adds	r2, r4, #1
 460              	.LVL67:
 461 0050 1C4B     		ldr	r3, .L51+8
 462 0052 A3FB0013 		umull	r1, r3, r3, r0
 463 0056 DB08     		lsrs	r3, r3, #3
 464 0058 1946     		mov	r1, r3
 465 005a 03EB8303 		add	r3, r3, r3, lsl #2
 466 005e 5B00     		lsls	r3, r3, #1
 467 0060 C31A     		subs	r3, r0, r3
 468 0062 04A8     		add	r0, sp, #16
 469              	.LVL68:
 470 0064 0444     		add	r4, r4, r0
 471 0066 3033     		adds	r3, r3, #48
 472 0068 04F8103C 		strb	r3, [r4, #-16]
 129:print.c       ****     a /= 10;
 473              		.loc 1 129 0
 474 006c 0846     		mov	r0, r1
 475              	.LVL69:
 128:print.c       ****     buf[i++] = (a % 10) + '0'; // Get digit
 476              		.loc 1 128 0
 477 006e D4B2     		uxtb	r4, r2
 478              	.LVL70:
 479              	.L41:
 127:print.c       ****   while(a > 0) {
 480              		.loc 1 127 0
 481 0070 0028     		cmp	r0, #0
 482 0072 ECD1     		bne	.L42
 483 0074 06E0     		b	.L43
 484              	.L44:
ARM GAS  C:\Users\Bart\AppData\Local\Temp\cciD5iHp.s 			page 12


 130:print.c       ****   }
 131:print.c       ****   while (i < decimal_places) {
 132:print.c       ****      buf[i++] = '0'; // Fill in zeros to decimal point for (n < 1)
 485              		.loc 1 132 0
 486 0076 631C     		adds	r3, r4, #1
 487              	.LVL71:
 488 0078 04AA     		add	r2, sp, #16
 489 007a 1444     		add	r4, r4, r2
 490 007c 3022     		movs	r2, #48
 491 007e 04F8102C 		strb	r2, [r4, #-16]
 492 0082 DCB2     		uxtb	r4, r3
 493              	.LVL72:
 494              	.L43:
 131:print.c       ****      buf[i++] = '0'; // Fill in zeros to decimal point for (n < 1)
 495              		.loc 1 131 0
 496 0084 AC42     		cmp	r4, r5
 497 0086 F6D3     		bcc	.L44
 133:print.c       ****   }
 134:print.c       ****   if (i == decimal_places) { // Fill in leading zero, if needed.
 498              		.loc 1 134 0
 499 0088 14D1     		bne	.L46
 135:print.c       ****     buf[i++] = '0';
 500              		.loc 1 135 0
 501 008a 631C     		adds	r3, r4, #1
 502              	.LVL73:
 503 008c 04AA     		add	r2, sp, #16
 504 008e 1444     		add	r4, r4, r2
 505 0090 3022     		movs	r2, #48
 506 0092 04F8102C 		strb	r2, [r4, #-16]
 507 0096 DCB2     		uxtb	r4, r3
 508 0098 0CE0     		b	.L46
 509              	.LVL74:
 510              	.L48:
 136:print.c       ****   }
 137:print.c       **** 
 138:print.c       ****   // Print the generated string.
 139:print.c       ****   for (; i > 0; i--) {
 140:print.c       ****     if (i == decimal_places) { serial_write('.'); } // Insert decimal point in right place.
 511              		.loc 1 140 0
 512 009a AC42     		cmp	r4, r5
 513 009c 02D1     		bne	.L47
 514              		.loc 1 140 0 is_stmt 0 discriminator 1
 515 009e 2E20     		movs	r0, #46
 516 00a0 FFF7FEFF 		bl	serial_write
 517              	.LVL75:
 518              	.L47:
 141:print.c       ****     serial_write(buf[i-1]);
 519              		.loc 1 141 0 is_stmt 1
 520 00a4 013C     		subs	r4, r4, #1
 521              	.LVL76:
 522 00a6 04AB     		add	r3, sp, #16
 523 00a8 2344     		add	r3, r3, r4
 524 00aa 13F8100C 		ldrb	r0, [r3, #-16]	@ zero_extendqisi2
 525 00ae FFF7FEFF 		bl	serial_write
 526              	.LVL77:
 139:print.c       ****     if (i == decimal_places) { serial_write('.'); } // Insert decimal point in right place.
 527              		.loc 1 139 0
ARM GAS  C:\Users\Bart\AppData\Local\Temp\cciD5iHp.s 			page 13


 528 00b2 E4B2     		uxtb	r4, r4
 529              	.LVL78:
 530              	.L46:
 139:print.c       ****     if (i == decimal_places) { serial_write('.'); } // Insert decimal point in right place.
 531              		.loc 1 139 0 is_stmt 0 discriminator 1
 532 00b4 002C     		cmp	r4, #0
 533 00b6 F0D1     		bne	.L48
 142:print.c       ****   }
 143:print.c       **** }
 534              		.loc 1 143 0 is_stmt 1
 535 00b8 04B0     		add	sp, sp, #16
 536              		.cfi_def_cfa_offset 16
 537              		@ sp needed
 538 00ba 70BD     		pop	{r4, r5, r6, pc}
 539              	.LVL79:
 540              	.L52:
 541              		.align	2
 542              	.L51:
 543 00bc 0000C842 		.word	1120403456
 544 00c0 00002041 		.word	1092616192
 545 00c4 CDCCCCCC 		.word	-858993459
 546              		.cfi_endproc
 547              	.LFE69:
 548              		.size	printFloat, .-printFloat
 549              		.global	__aeabi_f2d
 550              		.global	__aeabi_dmul
 551              		.global	__aeabi_d2f
 552              		.section	.text.printFloat_CoordValue,"ax",%progbits
 553              		.align	2
 554              		.global	printFloat_CoordValue
 555              		.thumb
 556              		.thumb_func
 557              		.type	printFloat_CoordValue, %function
 558              	printFloat_CoordValue:
 559              	.LFB70:
 144:print.c       **** 
 145:print.c       **** 
 146:print.c       **** // Floating value printing handlers for special variables types used in Grbl and are defined
 147:print.c       **** // in the config.h.
 148:print.c       **** //  - CoordValue: Handles all position or coordinate values in inches or mm reporting.
 149:print.c       **** //  - RateValue: Handles feed rate and current velocity in inches or mm reporting.
 150:print.c       **** void printFloat_CoordValue(float n) {
 560              		.loc 1 150 0
 561              		.cfi_startproc
 562              		@ args = 0, pretend = 0, frame = 0
 563              		@ frame_needed = 0, uses_anonymous_args = 0
 564              	.LVL80:
 565 0000 08B5     		push	{r3, lr}
 566              		.cfi_def_cfa_offset 8
 567              		.cfi_offset 3, -8
 568              		.cfi_offset 14, -4
 151:print.c       ****   if (bit_istrue(settings.flags,BITFLAG_REPORT_INCHES)) {
 569              		.loc 1 151 0
 570 0002 0D4B     		ldr	r3, .L57+8
 571 0004 93F84830 		ldrb	r3, [r3, #72]	@ zero_extendqisi2
 572 0008 13F0010F 		tst	r3, #1
 573 000c 0CD0     		beq	.L54
ARM GAS  C:\Users\Bart\AppData\Local\Temp\cciD5iHp.s 			page 14


 152:print.c       ****     printFloat(n*INCH_PER_MM,N_DECIMAL_COORDVALUE_INCH);
 574              		.loc 1 152 0
 575 000e FFF7FEFF 		bl	__aeabi_f2d
 576              	.LVL81:
 577 0012 07A3     		adr	r3, .L57
 578 0014 D3E90023 		ldrd	r2, [r3]
 579 0018 FFF7FEFF 		bl	__aeabi_dmul
 580              	.LVL82:
 581 001c FFF7FEFF 		bl	__aeabi_d2f
 582              	.LVL83:
 583 0020 0421     		movs	r1, #4
 584 0022 FFF7FEFF 		bl	printFloat
 585              	.LVL84:
 586 0026 08BD     		pop	{r3, pc}
 587              	.LVL85:
 588              	.L54:
 153:print.c       ****   } else {
 154:print.c       ****     printFloat(n,N_DECIMAL_COORDVALUE_MM);
 589              		.loc 1 154 0
 590 0028 0321     		movs	r1, #3
 591 002a FFF7FEFF 		bl	printFloat
 592              	.LVL86:
 593 002e 08BD     		pop	{r3, pc}
 594              	.L58:
 595              		.align	3
 596              	.L57:
 597 0030 6568E157 		.word	1474390117
 598 0034 5128A43F 		.word	1067722833
 599 0038 00000000 		.word	settings
 600              		.cfi_endproc
 601              	.LFE70:
 602              		.size	printFloat_CoordValue, .-printFloat_CoordValue
 603 003c AFF30080 		.section	.text.printFloat_RateValue,"ax",%progbits
 604              		.align	2
 605              		.global	printFloat_RateValue
 606              		.thumb
 607              		.thumb_func
 608              		.type	printFloat_RateValue, %function
 609              	printFloat_RateValue:
 610              	.LFB71:
 155:print.c       ****   }
 156:print.c       **** }
 157:print.c       **** 
 158:print.c       **** void printFloat_RateValue(float n) {
 611              		.loc 1 158 0
 612              		.cfi_startproc
 613              		@ args = 0, pretend = 0, frame = 0
 614              		@ frame_needed = 0, uses_anonymous_args = 0
 615              	.LVL87:
 616 0000 08B5     		push	{r3, lr}
 617              		.cfi_def_cfa_offset 8
 618              		.cfi_offset 3, -8
 619              		.cfi_offset 14, -4
 159:print.c       ****   if (bit_istrue(settings.flags,BITFLAG_REPORT_INCHES)) {
 620              		.loc 1 159 0
 621 0002 0D4B     		ldr	r3, .L63+8
 622 0004 93F84830 		ldrb	r3, [r3, #72]	@ zero_extendqisi2
ARM GAS  C:\Users\Bart\AppData\Local\Temp\cciD5iHp.s 			page 15


 623 0008 13F0010F 		tst	r3, #1
 624 000c 0CD0     		beq	.L60
 160:print.c       ****     printFloat(n*INCH_PER_MM,N_DECIMAL_RATEVALUE_INCH);
 625              		.loc 1 160 0
 626 000e FFF7FEFF 		bl	__aeabi_f2d
 627              	.LVL88:
 628 0012 07A3     		adr	r3, .L63
 629 0014 D3E90023 		ldrd	r2, [r3]
 630 0018 FFF7FEFF 		bl	__aeabi_dmul
 631              	.LVL89:
 632 001c FFF7FEFF 		bl	__aeabi_d2f
 633              	.LVL90:
 634 0020 0121     		movs	r1, #1
 635 0022 FFF7FEFF 		bl	printFloat
 636              	.LVL91:
 637 0026 08BD     		pop	{r3, pc}
 638              	.LVL92:
 639              	.L60:
 161:print.c       ****   } else {
 162:print.c       ****     printFloat(n,N_DECIMAL_RATEVALUE_MM);
 640              		.loc 1 162 0
 641 0028 0021     		movs	r1, #0
 642 002a FFF7FEFF 		bl	printFloat
 643              	.LVL93:
 644 002e 08BD     		pop	{r3, pc}
 645              	.L64:
 646              		.align	3
 647              	.L63:
 648 0030 6568E157 		.word	1474390117
 649 0034 5128A43F 		.word	1067722833
 650 0038 00000000 		.word	settings
 651              		.cfi_endproc
 652              	.LFE71:
 653              		.size	printFloat_RateValue, .-printFloat_RateValue
 654              		.comm	exec_lcd_status,1,1
 655              		.comm	sys_rt_exec_debug,1,1
 656              		.comm	sys_rt_exec_accessory_override,1,1
 657              		.comm	sys_rt_exec_motion_override,1,1
 658              		.comm	sys_rt_exec_alarm,1,1
 659              		.comm	sys_rt_exec_state,1,1
 660              		.comm	sys_probe_state,1,1
 661              		.comm	sys_probe_position,12,4
 662              		.comm	sys_position,12,4
 663 003c AFF30080 		.text
 664              	.Letext0:
 665              		.file 2 "d:\\program files (x86)\\cypress\\psoc creator\\4.0\\psoc creator\\import\\gnu\\arm\\4.9.
 666              		.file 3 "d:\\program files (x86)\\cypress\\psoc creator\\4.0\\psoc creator\\import\\gnu\\arm\\4.9.
 667              		.file 4 "Generated_Source\\PSoC5/cytypes.h"
 668              		.file 5 "settings.h"
 669              		.file 6 "Generated_Source\\PSoC5/core_cm3.h"
 670              		.file 7 "system.h"
 671              		.file 8 "lcd_report.h"
 672              		.file 9 "Generated_Source\\PSoC5/UART.h"
 673              		.file 10 "serial.h"