ARM GAS  C:\Users\Bart\AppData\Local\Temp\ccSJqX2v.s 			page 1


   1              		.syntax unified
   2              		.cpu cortex-m3
   3              		.fpu softvfp
   4              		.eabi_attribute 20, 1
   5              		.eabi_attribute 21, 1
   6              		.eabi_attribute 23, 3
   7              		.eabi_attribute 24, 1
   8              		.eabi_attribute 25, 1
   9              		.eabi_attribute 26, 1
  10              		.eabi_attribute 30, 1
  11              		.eabi_attribute 34, 1
  12              		.eabi_attribute 18, 4
  13              		.thumb
  14              		.file	"probe.c"
  15              		.text
  16              	.Ltext0:
  17              		.cfi_sections	.debug_frame
  18              		.section	.text.probe_init,"ax",%progbits
  19              		.align	2
  20              		.global	probe_init
  21              		.thumb
  22              		.thumb_func
  23              		.type	probe_init, %function
  24              	probe_init:
  25              	.LFB63:
  26              		.file 1 "probe.c"
   1:probe.c       **** /*
   2:probe.c       ****   probe.c - code pertaining to probing methods
   3:probe.c       ****   Part of Grbl
   4:probe.c       **** 
   5:probe.c       ****   Copyright (c) 2014-2016 Sungeun K. Jeon for Gnea Research LLC
   6:probe.c       **** 
   7:probe.c       ****   Grbl is free software: you can redistribute it and/or modify
   8:probe.c       ****   it under the terms of the GNU General Public License as published by
   9:probe.c       ****   the Free Software Foundation, either version 3 of the License, or
  10:probe.c       ****   (at your option) any later version.
  11:probe.c       **** 
  12:probe.c       ****   Grbl is distributed in the hope that it will be useful,
  13:probe.c       ****   but WITHOUT ANY WARRANTY; without even the implied warranty of
  14:probe.c       ****   MERCHANTABILITY or FITNESS FOR A PARTICULAR PURPOSE.  See the
  15:probe.c       ****   GNU General Public License for more details.
  16:probe.c       **** 
  17:probe.c       ****   You should have received a copy of the GNU General Public License
  18:probe.c       ****   along with Grbl.  If not, see <http://www.gnu.org/licenses/>.
  19:probe.c       **** */
  20:probe.c       **** 
  21:probe.c       **** #include "grbl.h"
  22:probe.c       **** 
  23:probe.c       **** 
  24:probe.c       **** // Inverts the probe pin state depending on user settings and probing cycle mode.
  25:probe.c       **** uint8_t probe_invert_mask;
  26:probe.c       **** 
  27:probe.c       **** 
  28:probe.c       **** // Probe pin initialization routine.
  29:probe.c       **** // PSoC not required, but leave in for compatibility.
  30:probe.c       **** void probe_init()
  31:probe.c       **** {
ARM GAS  C:\Users\Bart\AppData\Local\Temp\ccSJqX2v.s 			page 2


  27              		.loc 1 31 0
  28              		.cfi_startproc
  29              		@ args = 0, pretend = 0, frame = 0
  30              		@ frame_needed = 0, uses_anonymous_args = 0
  31              		@ link register save eliminated.
  32 0000 7047     		bx	lr
  33              		.cfi_endproc
  34              	.LFE63:
  35              		.size	probe_init, .-probe_init
  36 0002 00BF     		.section	.text.probe_configure_invert_mask,"ax",%progbits
  37              		.align	2
  38              		.global	probe_configure_invert_mask
  39              		.thumb
  40              		.thumb_func
  41              		.type	probe_configure_invert_mask, %function
  42              	probe_configure_invert_mask:
  43              	.LFB64:
  32:probe.c       ****  
  33:probe.c       **** }
  34:probe.c       **** 
  35:probe.c       **** 
  36:probe.c       **** // Called by probe_init() and the mc_probe() routines. Sets up the probe pin invert mask to
  37:probe.c       **** // appropriately set the pin logic according to setting for normal-high/normal-low operation
  38:probe.c       **** // and the probing cycle modes for toward-workpiece/away-from-workpiece.
  39:probe.c       **** void probe_configure_invert_mask(uint8_t is_probe_away)
  40:probe.c       **** {
  44              		.loc 1 40 0
  45              		.cfi_startproc
  46              		@ args = 0, pretend = 0, frame = 0
  47              		@ frame_needed = 0, uses_anonymous_args = 0
  48              		@ link register save eliminated.
  49              	.LVL0:
  50 0000 7047     		bx	lr
  51              		.cfi_endproc
  52              	.LFE64:
  53              		.size	probe_configure_invert_mask, .-probe_configure_invert_mask
  54 0002 00BF     		.section	.text.probe_get_state,"ax",%progbits
  55              		.align	2
  56              		.global	probe_get_state
  57              		.thumb
  58              		.thumb_func
  59              		.type	probe_get_state, %function
  60              	probe_get_state:
  61              	.LFB65:
  41:probe.c       ****  // PSoC Not required
  42:probe.c       **** }
  43:probe.c       **** 
  44:probe.c       **** 
  45:probe.c       **** // Returns the probe pin state. Triggered = true. Called by gcode parser and probe state monitor.
  46:probe.c       **** // PSoC Rewrite
  47:probe.c       **** uint8_t probe_get_state() { return Status_Probe_Read(); }
  62              		.loc 1 47 0
  63              		.cfi_startproc
  64              		@ args = 0, pretend = 0, frame = 0
  65              		@ frame_needed = 0, uses_anonymous_args = 0
  66              		.loc 1 47 0
  67 0000 08B5     		push	{r3, lr}
ARM GAS  C:\Users\Bart\AppData\Local\Temp\ccSJqX2v.s 			page 3


  68              		.cfi_def_cfa_offset 8
  69              		.cfi_offset 3, -8
  70              		.cfi_offset 14, -4
  71              		.loc 1 47 0
  72 0002 FFF7FEFF 		bl	Status_Probe_Read
  73              	.LVL1:
  74 0006 08BD     		pop	{r3, pc}
  75              		.cfi_endproc
  76              	.LFE65:
  77              		.size	probe_get_state, .-probe_get_state
  78              		.section	.text.probe_state_monitor,"ax",%progbits
  79              		.align	2
  80              		.global	probe_state_monitor
  81              		.thumb
  82              		.thumb_func
  83              		.type	probe_state_monitor, %function
  84              	probe_state_monitor:
  85              	.LFB66:
  48:probe.c       **** 
  49:probe.c       **** 
  50:probe.c       **** // Monitors probe pin state and records the system position when detected. Called by the
  51:probe.c       **** // stepper ISR per ISR tick.
  52:probe.c       **** // NOTE: This function must be extremely efficient as to not bog down the stepper ISR.
  53:probe.c       **** void probe_state_monitor()
  54:probe.c       **** {
  86              		.loc 1 54 0
  87              		.cfi_startproc
  88              		@ args = 0, pretend = 0, frame = 0
  89              		@ frame_needed = 0, uses_anonymous_args = 0
  90 0000 08B5     		push	{r3, lr}
  91              		.cfi_def_cfa_offset 8
  92              		.cfi_offset 3, -8
  93              		.cfi_offset 14, -4
  55:probe.c       ****   if (probe_get_state()) {
  94              		.loc 1 55 0
  95 0002 FFF7FEFF 		bl	probe_get_state
  96              	.LVL2:
  97 0006 60B1     		cbz	r0, .L5
  56:probe.c       ****     sys_probe_state = PROBE_OFF;
  98              		.loc 1 56 0
  99 0008 0022     		movs	r2, #0
 100 000a 064B     		ldr	r3, .L8
 101 000c 1A70     		strb	r2, [r3]
  57:probe.c       ****     memcpy(sys_probe_position, sys_position, sizeof(sys_position));
 102              		.loc 1 57 0
 103 000e 064B     		ldr	r3, .L8+4
 104 0010 064A     		ldr	r2, .L8+8
 105 0012 07CA     		ldmia	r2, {r0, r1, r2}
 106 0014 83E80700 		stmia	r3, {r0, r1, r2}
  58:probe.c       ****     bit_true(sys_rt_exec_state, EXEC_MOTION_CANCEL);
 107              		.loc 1 58 0
 108 0018 054A     		ldr	r2, .L8+12
 109 001a 1378     		ldrb	r3, [r2]	@ zero_extendqisi2
 110 001c 43F04003 		orr	r3, r3, #64
 111 0020 1370     		strb	r3, [r2]
 112              	.L5:
 113 0022 08BD     		pop	{r3, pc}
ARM GAS  C:\Users\Bart\AppData\Local\Temp\ccSJqX2v.s 			page 4


 114              	.L9:
 115              		.align	2
 116              	.L8:
 117 0024 00000000 		.word	sys_probe_state
 118 0028 00000000 		.word	sys_probe_position
 119 002c 00000000 		.word	sys_position
 120 0030 00000000 		.word	sys_rt_exec_state
 121              		.cfi_endproc
 122              	.LFE66:
 123              		.size	probe_state_monitor, .-probe_state_monitor
 124              		.comm	probe_invert_mask,1,1
 125              		.comm	exec_lcd_status,1,1
 126              		.comm	sys_rt_exec_debug,1,1
 127              		.comm	sys_rt_exec_accessory_override,1,1
 128              		.comm	sys_rt_exec_motion_override,1,1
 129              		.comm	sys_rt_exec_alarm,1,1
 130              		.comm	sys_rt_exec_state,1,1
 131              		.comm	sys_probe_state,1,1
 132              		.comm	sys_probe_position,12,4
 133              		.comm	sys_position,12,4
 134              		.text
 135              	.Letext0:
 136              		.file 2 "d:\\program files (x86)\\cypress\\psoc creator\\4.0\\psoc creator\\import\\gnu\\arm\\4.9.
 137              		.file 3 "d:\\program files (x86)\\cypress\\psoc creator\\4.0\\psoc creator\\import\\gnu\\arm\\4.9.
 138              		.file 4 "Generated_Source\\PSoC5/cytypes.h"
 139              		.file 5 "Generated_Source\\PSoC5/core_cm3.h"
 140              		.file 6 "system.h"
 141              		.file 7 "lcd_report.h"
 142              		.file 8 "Generated_Source\\PSoC5/Status_Probe.h"