ARM GAS  C:\Users\Bart\AppData\Local\Temp\ccmDaNpC.s 			page 1


   1              		.syntax unified
   2              		.cpu cortex-m3
   3              		.fpu softvfp
   4              		.eabi_attribute 20, 1
   5              		.eabi_attribute 21, 1
   6              		.eabi_attribute 23, 3
   7              		.eabi_attribute 24, 1
   8              		.eabi_attribute 25, 1
   9              		.eabi_attribute 26, 1
  10              		.eabi_attribute 30, 1
  11              		.eabi_attribute 34, 1
  12              		.eabi_attribute 18, 4
  13              		.thumb
  14              		.file	"protocol.c"
  15              		.text
  16              	.Ltext0:
  17              		.cfi_sections	.debug_frame
  18              		.section	.text.protocol_auto_cycle_start,"ax",%progbits
  19              		.align	2
  20              		.global	protocol_auto_cycle_start
  21              		.thumb
  22              		.thumb_func
  23              		.type	protocol_auto_cycle_start, %function
  24              	protocol_auto_cycle_start:
  25              	.LFB65:
  26              		.file 1 "protocol.c"
   1:protocol.c    **** /*
   2:protocol.c    ****   protocol.c - controls Grbl execution protocol and procedures
   3:protocol.c    ****   Part of Grbl
   4:protocol.c    **** 
   5:protocol.c    ****   Copyright (c) 2011-2016 Sungeun K. Jeon for Gnea Research LLC
   6:protocol.c    ****   Copyright (c) 2009-2011 Simen Svale Skogsrud
   7:protocol.c    **** 
   8:protocol.c    ****   Grbl is free software: you can redistribute it and/or modify
   9:protocol.c    ****   it under the terms of the GNU General Public License as published by
  10:protocol.c    ****   the Free Software Foundation, either version 3 of the License, or
  11:protocol.c    ****   (at your option) any later version.
  12:protocol.c    **** 
  13:protocol.c    ****   Grbl is distributed in the hope that it will be useful,
  14:protocol.c    ****   but WITHOUT ANY WARRANTY; without even the implied warranty of
  15:protocol.c    ****   MERCHANTABILITY or FITNESS FOR A PARTICULAR PURPOSE.  See the
  16:protocol.c    ****   GNU General Public License for more details.
  17:protocol.c    **** 
  18:protocol.c    ****   You should have received a copy of the GNU General Public License
  19:protocol.c    ****   along with Grbl.  If not, see <http://www.gnu.org/licenses/>.
  20:protocol.c    **** */
  21:protocol.c    **** 
  22:protocol.c    **** #include "grbl.h"
  23:protocol.c    **** 
  24:protocol.c    **** // Define line flags. Includes comment type tracking and line overflow detection.
  25:protocol.c    **** #define LINE_FLAG_OVERFLOW bit(0)
  26:protocol.c    **** #define LINE_FLAG_COMMENT_PARENTHESES bit(1)
  27:protocol.c    **** #define LINE_FLAG_COMMENT_SEMICOLON bit(2)
  28:protocol.c    **** 
  29:protocol.c    **** 
  30:protocol.c    **** static char line[LINE_BUFFER_SIZE]; // Line to be executed. Zero-terminated.
  31:protocol.c    **** 
ARM GAS  C:\Users\Bart\AppData\Local\Temp\ccmDaNpC.s 			page 2


  32:protocol.c    **** static void protocol_exec_rt_suspend();
  33:protocol.c    **** 
  34:protocol.c    **** 
  35:protocol.c    **** /*
  36:protocol.c    ****   GRBL PRIMARY LOOP:
  37:protocol.c    **** */
  38:protocol.c    **** void protocol_main_loop()
  39:protocol.c    **** {
  40:protocol.c    ****   // Perform some machine checks to make sure everything is good to go.
  41:protocol.c    ****   #ifdef CHECK_LIMITS_AT_INIT
  42:protocol.c    ****     if (bit_istrue(settings.flags, BITFLAG_HARD_LIMIT_ENABLE)) {
  43:protocol.c    ****       if (limits_get_state()) {
  44:protocol.c    ****         sys.state = STATE_ALARM; // Ensure alarm state is active.
  45:protocol.c    ****         report_feedback_message(MESSAGE_CHECK_LIMITS);
  46:protocol.c    ****       }
  47:protocol.c    ****     }
  48:protocol.c    ****   #endif
  49:protocol.c    ****   // Check for and report alarm state after a reset, error, or an initial power up.
  50:protocol.c    ****   // NOTE: Sleep mode disables the stepper drivers and position can't be guaranteed.
  51:protocol.c    ****   // Re-initialize the sleep state as an ALARM mode to ensure user homes or acknowledges.
  52:protocol.c    ****   if (sys.state & (STATE_ALARM | STATE_SLEEP)) {
  53:protocol.c    ****     report_feedback_message(MESSAGE_ALARM_LOCK);
  54:protocol.c    ****     sys.state = STATE_ALARM; // Ensure alarm state is set.
  55:protocol.c    ****   } else {
  56:protocol.c    ****     // Check if the safety door is open.
  57:protocol.c    ****     sys.state = STATE_IDLE;
  58:protocol.c    ****     if (system_check_safety_door_ajar()) {
  59:protocol.c    ****       bit_true(sys_rt_exec_state, EXEC_SAFETY_DOOR);
  60:protocol.c    ****       protocol_execute_realtime(); // Enter safety door mode. Should return as IDLE state.
  61:protocol.c    ****     }
  62:protocol.c    ****     // All systems go!
  63:protocol.c    ****     system_execute_startup(line); // Execute startup script.
  64:protocol.c    ****   }
  65:protocol.c    **** 
  66:protocol.c    ****   // ---------------------------------------------------------------------------------
  67:protocol.c    ****   // Primary loop! Upon a system abort, this exits back to main() to reset the system.
  68:protocol.c    ****   // This is also where Grbl idles while waiting for something to do.
  69:protocol.c    ****   // ---------------------------------------------------------------------------------
  70:protocol.c    **** 
  71:protocol.c    ****   uint8_t line_flags = 0;
  72:protocol.c    ****   uint8_t char_counter = 0;
  73:protocol.c    ****   uint8_t c;
  74:protocol.c    ****   for (;;) {
  75:protocol.c    **** 
  76:protocol.c    ****     // Process one line of incoming serial data, as the data becomes available. Performs an
  77:protocol.c    ****     // initial filtering by removing spaces and comments and capitalizing all letters.
  78:protocol.c    ****     while((c = serial_read()) != SERIAL_NO_DATA) {
  79:protocol.c    ****       if ((c == '\n') || (c == '\r')) { // End of line reached
  80:protocol.c    **** 
  81:protocol.c    ****         protocol_execute_realtime(); // Runtime command check point.
  82:protocol.c    ****         if (sys.abort) { return; } // Bail to calling function upon system abort
  83:protocol.c    **** 
  84:protocol.c    ****         line[char_counter] = 0; // Set string termination character.
  85:protocol.c    ****         #ifdef REPORT_ECHO_LINE_RECEIVED
  86:protocol.c    ****           report_echo_line_received(line);
  87:protocol.c    ****         #endif
  88:protocol.c    **** 
ARM GAS  C:\Users\Bart\AppData\Local\Temp\ccmDaNpC.s 			page 3


  89:protocol.c    ****         // Direct and execute one line of formatted input, and report status of execution.
  90:protocol.c    ****         if (line_flags & LINE_FLAG_OVERFLOW) {
  91:protocol.c    ****           // Report line overflow error.
  92:protocol.c    ****           report_status_message(STATUS_OVERFLOW);
  93:protocol.c    ****         } else if (line[0] == 0) {
  94:protocol.c    ****           // Empty or comment line. For syncing purposes.
  95:protocol.c    ****           report_status_message(STATUS_OK);
  96:protocol.c    ****         } else if (line[0] == '$') {
  97:protocol.c    ****           // Grbl '$' system command
  98:protocol.c    ****           report_status_message(system_execute_line(line));
  99:protocol.c    ****         } else if (sys.state & (STATE_ALARM | STATE_JOG)) {
 100:protocol.c    ****           // Everything else is gcode. Block if in alarm or jog mode.
 101:protocol.c    ****           report_status_message(STATUS_SYSTEM_GC_LOCK);
 102:protocol.c    ****         } else {
 103:protocol.c    ****           // Parse and execute g-code block.
 104:protocol.c    ****           report_status_message(gc_execute_line(line));
 105:protocol.c    ****         }
 106:protocol.c    **** 
 107:protocol.c    ****         // Reset tracking data for next line.
 108:protocol.c    ****         line_flags = 0;
 109:protocol.c    ****         char_counter = 0;
 110:protocol.c    **** 
 111:protocol.c    ****       } else {
 112:protocol.c    **** 
 113:protocol.c    ****         if (line_flags) {
 114:protocol.c    ****           // Throw away all (except EOL) comment characters and overflow characters.
 115:protocol.c    ****           if (c == ')') {
 116:protocol.c    ****             // End of '()' comment. Resume line allowed.
 117:protocol.c    ****             if (line_flags & LINE_FLAG_COMMENT_PARENTHESES) { line_flags &= ~(LINE_FLAG_COMMENT_PAR
 118:protocol.c    ****           }
 119:protocol.c    ****         } else {
 120:protocol.c    ****           if (c <= ' ') {
 121:protocol.c    ****             // Throw away whitepace and control characters
 122:protocol.c    ****           } else if (c == '/') {
 123:protocol.c    ****             // Block delete NOT SUPPORTED. Ignore character.
 124:protocol.c    ****             // NOTE: If supported, would simply need to check the system if block delete is enabled
 125:protocol.c    ****           } else if (c == '(') {
 126:protocol.c    ****             // Enable comments flag and ignore all characters until ')' or EOL.
 127:protocol.c    ****             // NOTE: This doesn't follow the NIST definition exactly, but is good enough for now.
 128:protocol.c    ****             // In the future, we could simply remove the items within the comments, but retain the
 129:protocol.c    ****             // comment control characters, so that the g-code parser can error-check it.
 130:protocol.c    ****             line_flags |= LINE_FLAG_COMMENT_PARENTHESES;
 131:protocol.c    ****           } else if (c == ';') {
 132:protocol.c    ****             // NOTE: ';' comment to EOL is a LinuxCNC definition. Not NIST.
 133:protocol.c    ****             line_flags |= LINE_FLAG_COMMENT_SEMICOLON;
 134:protocol.c    ****           // TODO: Install '%' feature
 135:protocol.c    ****           // } else if (c == '%') {
 136:protocol.c    ****             // Program start-end percent sign NOT SUPPORTED.
 137:protocol.c    ****             // NOTE: This maybe installed to tell Grbl when a program is running vs manual input,
 138:protocol.c    ****             // where, during a program, the system auto-cycle start will continue to execute
 139:protocol.c    ****             // everything until the next '%' sign. This will help fix resuming issues with certain
 140:protocol.c    ****             // functions that empty the planner buffer to execute its task on-time.
 141:protocol.c    ****           } else if (char_counter >= (LINE_BUFFER_SIZE-1)) {
 142:protocol.c    ****             // Detect line buffer overflow and set flag.
 143:protocol.c    ****             line_flags |= LINE_FLAG_OVERFLOW;
 144:protocol.c    ****           } else if (c >= 'a' && c <= 'z') { // Upcase lowercase
 145:protocol.c    ****             line[char_counter++] = c-'a'+'A';
ARM GAS  C:\Users\Bart\AppData\Local\Temp\ccmDaNpC.s 			page 4


 146:protocol.c    ****           } else {
 147:protocol.c    ****             line[char_counter++] = c;
 148:protocol.c    ****           }
 149:protocol.c    ****         }
 150:protocol.c    **** 
 151:protocol.c    ****       }
 152:protocol.c    ****       
 153:protocol.c    ****        // Execute and LCD print status PSoc
 154:protocol.c    ****     if (exec_lcd_status) { 
 155:protocol.c    ****       lcd_report_realtime(); 
 156:protocol.c    ****       exec_lcd_status = false;
 157:protocol.c    ****       //printPgmString(PSTR("LCD\r\n"));
 158:protocol.c    ****     }
 159:protocol.c    ****       
 160:protocol.c    ****     }
 161:protocol.c    **** 
 162:protocol.c    ****     // If there are no more characters in the serial read buffer to be processed and executed,
 163:protocol.c    ****     // this indicates that g-code streaming has either filled the planner buffer or has
 164:protocol.c    ****     // completed. In either case, auto-cycle start, if enabled, any queued moves.
 165:protocol.c    ****     protocol_auto_cycle_start();
 166:protocol.c    **** 
 167:protocol.c    ****     protocol_execute_realtime();  // Runtime command check point.
 168:protocol.c    ****     if (sys.abort) { return; } // Bail to main() program loop to reset system.
 169:protocol.c    ****   }
 170:protocol.c    **** 
 171:protocol.c    ****   return; /* Never reached */
 172:protocol.c    **** }
 173:protocol.c    **** 
 174:protocol.c    **** 
 175:protocol.c    **** // Block until all buffered steps are executed or in a cycle state. Works with feed hold
 176:protocol.c    **** // during a synchronize call, if it should happen. Also, waits for clean cycle end.
 177:protocol.c    **** void protocol_buffer_synchronize()
 178:protocol.c    **** {
 179:protocol.c    ****   // If system is queued, ensure cycle resumes if the auto start flag is present.
 180:protocol.c    ****   protocol_auto_cycle_start();
 181:protocol.c    ****   do {
 182:protocol.c    ****     protocol_execute_realtime();   // Check and execute run-time commands
 183:protocol.c    ****     if (sys.abort) { return; } // Check for system abort
 184:protocol.c    ****   } while (plan_get_current_block() || (sys.state == STATE_CYCLE));
 185:protocol.c    **** }
 186:protocol.c    **** 
 187:protocol.c    **** 
 188:protocol.c    **** // Auto-cycle start triggers when there is a motion ready to execute and if the main program is not
 189:protocol.c    **** // actively parsing commands.
 190:protocol.c    **** // NOTE: This function is called from the main loop, buffer sync, and mc_line() only and executes
 191:protocol.c    **** // when one of these conditions exist respectively: There are no more blocks sent (i.e. streaming
 192:protocol.c    **** // is finished, single commands), a command that needs to wait for the motions in the buffer to
 193:protocol.c    **** // execute calls a buffer sync, or the planner buffer is full and ready to go.
 194:protocol.c    **** void protocol_auto_cycle_start()
 195:protocol.c    **** {
  27              		.loc 1 195 0
  28              		.cfi_startproc
  29              		@ args = 0, pretend = 0, frame = 0
  30              		@ frame_needed = 0, uses_anonymous_args = 0
  31 0000 08B5     		push	{r3, lr}
  32              		.cfi_def_cfa_offset 8
  33              		.cfi_offset 3, -8
ARM GAS  C:\Users\Bart\AppData\Local\Temp\ccmDaNpC.s 			page 5


  34              		.cfi_offset 14, -4
 196:protocol.c    ****   if (plan_get_current_block() != NULL) { // Check if there are any blocks in the buffer.
  35              		.loc 1 196 0
  36 0002 FFF7FEFF 		bl	plan_get_current_block
  37              	.LVL0:
  38 0006 10B1     		cbz	r0, .L1
 197:protocol.c    ****     system_set_exec_state_flag(EXEC_CYCLE_START); // If so, execute them!
  39              		.loc 1 197 0
  40 0008 0220     		movs	r0, #2
  41 000a FFF7FEFF 		bl	system_set_exec_state_flag
  42              	.LVL1:
  43              	.L1:
  44 000e 08BD     		pop	{r3, pc}
  45              		.cfi_endproc
  46              	.LFE65:
  47              		.size	protocol_auto_cycle_start, .-protocol_auto_cycle_start
  48              		.section	.text.protocol_exec_rt_system,"ax",%progbits
  49              		.align	2
  50              		.global	protocol_exec_rt_system
  51              		.thumb
  52              		.thumb_func
  53              		.type	protocol_exec_rt_system, %function
  54              	protocol_exec_rt_system:
  55              	.LFB67:
 198:protocol.c    ****   }
 199:protocol.c    **** }
 200:protocol.c    **** 
 201:protocol.c    **** 
 202:protocol.c    **** // This function is the general interface to Grbl's real-time command execution system. It is calle
 203:protocol.c    **** // from various check points in the main program, primarily where there may be a while loop waiting
 204:protocol.c    **** // for a buffer to clear space or any point where the execution time from the last check point may
 205:protocol.c    **** // be more than a fraction of a second. This is a way to execute realtime commands asynchronously
 206:protocol.c    **** // (aka multitasking) with grbl's g-code parsing and planning functions. This function also serves
 207:protocol.c    **** // as an interface for the interrupts to set the system realtime flags, where only the main program
 208:protocol.c    **** // handles them, removing the need to define more computationally-expensive volatile variables. Thi
 209:protocol.c    **** // also provides a controlled way to execute certain tasks without having two or more instances of
 210:protocol.c    **** // the same task, such as the planner recalculating the buffer upon a feedhold or overrides.
 211:protocol.c    **** // NOTE: The sys_rt_exec_state variable flags are set by any process, step or serial interrupts, pi
 212:protocol.c    **** // limit switches, or the main program.
 213:protocol.c    **** void protocol_execute_realtime()
 214:protocol.c    **** {
 215:protocol.c    ****   protocol_exec_rt_system();
 216:protocol.c    ****   if (sys.suspend) { protocol_exec_rt_suspend(); }
 217:protocol.c    ****   
 218:protocol.c    ****    // Execute and LCD print status PSoc
 219:protocol.c    ****     if (exec_lcd_status) { 
 220:protocol.c    ****       lcd_report_realtime(); 
 221:protocol.c    ****       exec_lcd_status = false;
 222:protocol.c    ****     }
 223:protocol.c    ****   
 224:protocol.c    **** }
 225:protocol.c    **** 
 226:protocol.c    **** 
 227:protocol.c    **** // Executes run-time commands, when required. This function primarily operates as Grbl's state
 228:protocol.c    **** // machine and controls the various real-time features Grbl has to offer.
 229:protocol.c    **** // NOTE: Do not alter this unless you know exactly what you are doing!
 230:protocol.c    **** void protocol_exec_rt_system()
ARM GAS  C:\Users\Bart\AppData\Local\Temp\ccmDaNpC.s 			page 6


 231:protocol.c    **** {
  56              		.loc 1 231 0
  57              		.cfi_startproc
  58              		@ args = 0, pretend = 0, frame = 0
  59              		@ frame_needed = 0, uses_anonymous_args = 0
  60 0000 10B5     		push	{r4, lr}
  61              		.cfi_def_cfa_offset 8
  62              		.cfi_offset 4, -8
  63              		.cfi_offset 14, -4
 232:protocol.c    ****   uint8_t rt_exec; // Temp variable to avoid calling volatile multiple times.
 233:protocol.c    ****   rt_exec = sys_rt_exec_alarm; // Copy volatile sys_rt_exec_alarm.
  64              		.loc 1 233 0
  65 0002 A14B     		ldr	r3, .L63
  66 0004 1B78     		ldrb	r3, [r3]	@ zero_extendqisi2
  67              	.LVL2:
 234:protocol.c    ****   if (rt_exec) { // Enter only if any bit flag is true
  68              		.loc 1 234 0
  69 0006 03F0FF04 		and	r4, r3, #255
  70 000a B3B1     		cbz	r3, .L5
 235:protocol.c    ****     // System alarm. Everything has shutdown by something that has gone severely wrong. Report
 236:protocol.c    ****     // the source of the error to the user. If critical, Grbl disables by entering an infinite
 237:protocol.c    ****     // loop until system reset/abort.
 238:protocol.c    ****     sys.state = STATE_ALARM; // Set system alarm state
  71              		.loc 1 238 0
  72 000c 0122     		movs	r2, #1
  73 000e 9F4B     		ldr	r3, .L63+4
  74              	.LVL3:
  75 0010 1A70     		strb	r2, [r3]
 239:protocol.c    ****     report_alarm_message(rt_exec);
  76              		.loc 1 239 0
  77 0012 60B2     		sxtb	r0, r4
  78 0014 FFF7FEFF 		bl	report_alarm_message
  79              	.LVL4:
 240:protocol.c    ****     // Halt everything upon a critical event flag. Currently hard and soft limits flag this.
 241:protocol.c    ****     if ((rt_exec == EXEC_ALARM_HARD_LIMIT) || (rt_exec == EXEC_ALARM_SOFT_LIMIT)) {
  80              		.loc 1 241 0
  81 0018 013C     		subs	r4, r4, #1
  82 001a E4B2     		uxtb	r4, r4
  83 001c 012C     		cmp	r4, #1
  84 001e 0AD8     		bhi	.L6
 242:protocol.c    ****       report_feedback_message(MESSAGE_CRITICAL_EVENT);
  85              		.loc 1 242 0
  86 0020 0120     		movs	r0, #1
  87 0022 FFF7FEFF 		bl	report_feedback_message
  88              	.LVL5:
 243:protocol.c    ****       system_clear_exec_state_flag(EXEC_RESET); // Disable any existing reset
  89              		.loc 1 243 0
  90 0026 1020     		movs	r0, #16
  91 0028 FFF7FEFF 		bl	system_clear_exec_state_flag
  92              	.LVL6:
  93              	.L7:
 244:protocol.c    ****       do {
 245:protocol.c    ****         // Block everything, except reset and status reports, until user issues reset or power
 246:protocol.c    ****         // cycles. Hard limits typically occur while unattended or not paying attention. Gives
 247:protocol.c    ****         // the user and a GUI time to do what is needed before resetting, like killing the
 248:protocol.c    ****         // incoming stream. The same could be said about soft limits. While the position is not
 249:protocol.c    ****         // lost, continued streaming could cause a serious crash if by chance it gets executed.
ARM GAS  C:\Users\Bart\AppData\Local\Temp\ccmDaNpC.s 			page 7


 250:protocol.c    ****       } while (bit_isfalse(sys_rt_exec_state,EXEC_RESET));
  94              		.loc 1 250 0 discriminator 1
  95 002c 984B     		ldr	r3, .L63+8
  96 002e 1B78     		ldrb	r3, [r3]	@ zero_extendqisi2
  97 0030 13F0100F 		tst	r3, #16
  98 0034 FAD0     		beq	.L7
  99              	.L6:
 251:protocol.c    ****     }
 252:protocol.c    ****     system_clear_exec_alarm(); // Clear alarm
 100              		.loc 1 252 0
 101 0036 FFF7FEFF 		bl	system_clear_exec_alarm
 102              	.LVL7:
 103              	.L5:
 253:protocol.c    ****   }
 254:protocol.c    **** 
 255:protocol.c    ****   rt_exec = sys_rt_exec_state; // Copy volatile sys_rt_exec_state.
 104              		.loc 1 255 0
 105 003a 954B     		ldr	r3, .L63+8
 106 003c 1B78     		ldrb	r3, [r3]	@ zero_extendqisi2
 107              	.LVL8:
 256:protocol.c    ****   if (rt_exec) {
 108              		.loc 1 256 0
 109 003e 03F0FF04 		and	r4, r3, #255
 110 0042 002B     		cmp	r3, #0
 111 0044 00F01181 		beq	.L8
 257:protocol.c    **** 
 258:protocol.c    ****     // Execute system abort.
 259:protocol.c    ****     if (rt_exec & EXEC_RESET) {
 112              		.loc 1 259 0
 113 0048 14F0100F 		tst	r4, #16
 114 004c 03D0     		beq	.L9
 260:protocol.c    ****       sys.abort = true;  // Only place this is set true.
 115              		.loc 1 260 0
 116 004e 0122     		movs	r2, #1
 117 0050 8E4B     		ldr	r3, .L63+4
 118              	.LVL9:
 119 0052 5A70     		strb	r2, [r3, #1]
 261:protocol.c    ****       return; // Nothing else to do but exit.
 120              		.loc 1 261 0
 121 0054 10BD     		pop	{r4, pc}
 122              	.LVL10:
 123              	.L9:
 262:protocol.c    ****     }
 263:protocol.c    **** 
 264:protocol.c    ****     // Execute and serial print status
 265:protocol.c    ****     if (rt_exec & EXEC_STATUS_REPORT) {
 124              		.loc 1 265 0
 125 0056 14F0010F 		tst	r4, #1
 126 005a 04D0     		beq	.L11
 266:protocol.c    ****       report_realtime_status();
 127              		.loc 1 266 0
 128 005c FFF7FEFF 		bl	report_realtime_status
 129              	.LVL11:
 267:protocol.c    ****       system_clear_exec_state_flag(EXEC_STATUS_REPORT);
 130              		.loc 1 267 0
 131 0060 0120     		movs	r0, #1
 132 0062 FFF7FEFF 		bl	system_clear_exec_state_flag
ARM GAS  C:\Users\Bart\AppData\Local\Temp\ccmDaNpC.s 			page 8


 133              	.LVL12:
 134              	.L11:
 268:protocol.c    ****     }
 269:protocol.c    ****     
 270:protocol.c    ****     
 271:protocol.c    **** 
 272:protocol.c    ****     // NOTE: Once hold is initiated, the system immediately enters a suspend state to block all
 273:protocol.c    ****     // main program processes until either reset or resumed. This ensures a hold completes safely.
 274:protocol.c    ****     if (rt_exec & (EXEC_MOTION_CANCEL | EXEC_FEED_HOLD | EXEC_SAFETY_DOOR | EXEC_SLEEP)) {
 135              		.loc 1 274 0
 136 0066 14F0E80F 		tst	r4, #232
 137 006a 6AD0     		beq	.L12
 275:protocol.c    **** 
 276:protocol.c    ****       // State check for allowable states for hold methods.
 277:protocol.c    ****       if (!(sys.state & (STATE_ALARM | STATE_CHECK_MODE))) {
 138              		.loc 1 277 0
 139 006c 874B     		ldr	r3, .L63+4
 140 006e 1B78     		ldrb	r3, [r3]	@ zero_extendqisi2
 141 0070 13F0030F 		tst	r3, #3
 142 0074 53D1     		bne	.L13
 278:protocol.c    ****       
 279:protocol.c    ****         // If in CYCLE or JOG states, immediately initiate a motion HOLD.
 280:protocol.c    ****         if (sys.state & (STATE_CYCLE | STATE_JOG)) {
 143              		.loc 1 280 0
 144 0076 13F0280F 		tst	r3, #40
 145 007a 14D0     		beq	.L14
 281:protocol.c    ****           if (!(sys.suspend & (SUSPEND_MOTION_CANCEL | SUSPEND_JOG_CANCEL))) { // Block, if already
 146              		.loc 1 281 0
 147 007c 834B     		ldr	r3, .L63+4
 148 007e 9B78     		ldrb	r3, [r3, #2]	@ zero_extendqisi2
 149 0080 13F0C00F 		tst	r3, #192
 150 0084 0FD1     		bne	.L14
 282:protocol.c    ****             st_update_plan_block_parameters(); // Notify stepper module to recompute for hold decel
 151              		.loc 1 282 0
 152 0086 FFF7FEFF 		bl	st_update_plan_block_parameters
 153              	.LVL13:
 283:protocol.c    ****             sys.step_control = STEP_CONTROL_EXECUTE_HOLD; // Initiate suspend state with active fla
 154              		.loc 1 283 0
 155 008a 804B     		ldr	r3, .L63+4
 156 008c 0222     		movs	r2, #2
 157 008e 1A71     		strb	r2, [r3, #4]
 284:protocol.c    ****             if (sys.state == STATE_JOG) { // Jog cancelled upon any hold event, except for sleeping
 158              		.loc 1 284 0
 159 0090 1B78     		ldrb	r3, [r3]	@ zero_extendqisi2
 160 0092 202B     		cmp	r3, #32
 161 0094 07D1     		bne	.L14
 285:protocol.c    ****               if (!(rt_exec & EXEC_SLEEP)) { sys.suspend |= SUSPEND_JOG_CANCEL; } 
 162              		.loc 1 285 0
 163 0096 14F0800F 		tst	r4, #128
 164 009a 04D1     		bne	.L14
 165              		.loc 1 285 0 is_stmt 0 discriminator 1
 166 009c 7B4A     		ldr	r2, .L63+4
 167 009e 9378     		ldrb	r3, [r2, #2]	@ zero_extendqisi2
 168 00a0 63F07F03 		orn	r3, r3, #127
 169 00a4 9370     		strb	r3, [r2, #2]
 170              	.L14:
 286:protocol.c    ****             }
ARM GAS  C:\Users\Bart\AppData\Local\Temp\ccmDaNpC.s 			page 9


 287:protocol.c    ****           }
 288:protocol.c    ****         }
 289:protocol.c    ****         // If IDLE, Grbl is not in motion. Simply indicate suspend state and hold is complete.
 290:protocol.c    ****         if (sys.state == STATE_IDLE) { sys.suspend = SUSPEND_HOLD_COMPLETE; }
 171              		.loc 1 290 0 is_stmt 1
 172 00a6 794B     		ldr	r3, .L63+4
 173 00a8 1B78     		ldrb	r3, [r3]	@ zero_extendqisi2
 174 00aa 13B9     		cbnz	r3, .L15
 175              		.loc 1 290 0 is_stmt 0 discriminator 1
 176 00ac 0121     		movs	r1, #1
 177 00ae 774A     		ldr	r2, .L63+4
 178 00b0 9170     		strb	r1, [r2, #2]
 179              	.L15:
 291:protocol.c    **** 
 292:protocol.c    ****         // Execute and flag a motion cancel with deceleration and return to idle. Used primarily by
 293:protocol.c    ****         // to halt and cancel the remainder of the motion.
 294:protocol.c    ****         if (rt_exec & EXEC_MOTION_CANCEL) {
 180              		.loc 1 294 0 is_stmt 1
 181 00b2 14F0400F 		tst	r4, #64
 182 00b6 07D0     		beq	.L16
 295:protocol.c    ****           // MOTION_CANCEL only occurs during a CYCLE, but a HOLD and SAFETY_DOOR may been initiate
 296:protocol.c    ****           // to hold the CYCLE. Motion cancel is valid for a single planner block motion only, whil
 297:protocol.c    ****           // will handle and clear multiple planner block motions.
 298:protocol.c    ****           if (!(sys.state & STATE_JOG)) { sys.suspend |= SUSPEND_MOTION_CANCEL; } // NOTE: State is
 183              		.loc 1 298 0
 184 00b8 13F0200F 		tst	r3, #32
 185 00bc 04D1     		bne	.L16
 186              		.loc 1 298 0 is_stmt 0 discriminator 1
 187 00be 7349     		ldr	r1, .L63+4
 188 00c0 8A78     		ldrb	r2, [r1, #2]	@ zero_extendqisi2
 189 00c2 42F04002 		orr	r2, r2, #64
 190 00c6 8A70     		strb	r2, [r1, #2]
 191              	.L16:
 299:protocol.c    ****         }
 300:protocol.c    **** 
 301:protocol.c    ****         // Execute a feed hold with deceleration, if required. Then, suspend system.
 302:protocol.c    ****         if (rt_exec & EXEC_FEED_HOLD) {
 192              		.loc 1 302 0 is_stmt 1
 193 00c8 14F0080F 		tst	r4, #8
 194 00cc 05D0     		beq	.L17
 303:protocol.c    ****           // Block SAFETY_DOOR, JOG, and SLEEP states from changing to HOLD state.
 304:protocol.c    ****           if (!(sys.state & (STATE_SAFETY_DOOR | STATE_JOG | STATE_SLEEP))) { sys.state = STATE_HOL
 195              		.loc 1 304 0
 196 00ce 13F0E00F 		tst	r3, #224
 197 00d2 02D1     		bne	.L17
 198              		.loc 1 304 0 is_stmt 0 discriminator 1
 199 00d4 1022     		movs	r2, #16
 200 00d6 6D4B     		ldr	r3, .L63+4
 201 00d8 1A70     		strb	r2, [r3]
 202              	.L17:
 305:protocol.c    ****         }
 306:protocol.c    **** 
 307:protocol.c    ****         // Execute a safety door stop with a feed hold and disable spindle/coolant.
 308:protocol.c    ****         // NOTE: Safety door differs from feed holds by stopping everything no matter state, disabl
 309:protocol.c    ****         // devices (spindle/coolant), and blocks resuming until switch is re-engaged.
 310:protocol.c    ****         if (rt_exec & EXEC_SAFETY_DOOR) {
 203              		.loc 1 310 0 is_stmt 1
ARM GAS  C:\Users\Bart\AppData\Local\Temp\ccmDaNpC.s 			page 10


 204 00da 14F0200F 		tst	r4, #32
 205 00de 1ED0     		beq	.L13
 311:protocol.c    ****           report_feedback_message(MESSAGE_SAFETY_DOOR_AJAR);
 206              		.loc 1 311 0
 207 00e0 0620     		movs	r0, #6
 208 00e2 FFF7FEFF 		bl	report_feedback_message
 209              	.LVL14:
 312:protocol.c    ****           // If jogging, block safety door methods until jog cancel is complete. Just flag that it 
 313:protocol.c    ****           if (!(sys.suspend & SUSPEND_JOG_CANCEL)) {
 210              		.loc 1 313 0
 211 00e6 694B     		ldr	r3, .L63+4
 212 00e8 9B78     		ldrb	r3, [r3, #2]	@ zero_extendqisi2
 213 00ea 13F0800F 		tst	r3, #128
 214 00ee 11D1     		bne	.L18
 314:protocol.c    ****             // Check if the safety re-opened during a restore parking motion only. Ignore if
 315:protocol.c    ****             // already retracting, parked or in sleep state.
 316:protocol.c    ****             if (sys.state == STATE_SAFETY_DOOR) {
 215              		.loc 1 316 0
 216 00f0 664A     		ldr	r2, .L63+4
 217 00f2 1278     		ldrb	r2, [r2]	@ zero_extendqisi2
 218 00f4 402A     		cmp	r2, #64
 219 00f6 08D1     		bne	.L19
 317:protocol.c    ****               if (sys.suspend & SUSPEND_INITIATE_RESTORE) { // Actively restoring
 220              		.loc 1 317 0
 221 00f8 13F0080F 		tst	r3, #8
 222 00fc 05D0     		beq	.L19
 318:protocol.c    ****                 #ifdef PARKING_ENABLE
 319:protocol.c    ****                   // Set hold and reset appropriate control flags to restart parking sequence.
 320:protocol.c    ****                   if (sys.step_control & STEP_CONTROL_EXECUTE_SYS_MOTION) {
 321:protocol.c    ****                     st_update_plan_block_parameters(); // Notify stepper module to recompute for ho
 322:protocol.c    ****                     sys.step_control = (STEP_CONTROL_EXECUTE_HOLD | STEP_CONTROL_EXECUTE_SYS_MOTION
 323:protocol.c    ****                     sys.suspend &= ~(SUSPEND_HOLD_COMPLETE);
 324:protocol.c    ****                   } // else NO_MOTION is active.
 325:protocol.c    ****                 #endif
 326:protocol.c    ****                 sys.suspend &= ~(SUSPEND_RETRACT_COMPLETE | SUSPEND_INITIATE_RESTORE | SUSPEND_REST
 223              		.loc 1 326 0
 224 00fe 03F0E303 		and	r3, r3, #227
 327:protocol.c    ****                 sys.suspend |= SUSPEND_RESTART_RETRACT;
 225              		.loc 1 327 0
 226 0102 43F00203 		orr	r3, r3, #2
 227 0106 6149     		ldr	r1, .L63+4
 228 0108 8B70     		strb	r3, [r1, #2]
 229              	.L19:
 328:protocol.c    ****               }
 329:protocol.c    ****             }
 330:protocol.c    ****             if (sys.state != STATE_SLEEP) { sys.state = STATE_SAFETY_DOOR; }
 230              		.loc 1 330 0
 231 010a 802A     		cmp	r2, #128
 232 010c 02D0     		beq	.L18
 233              		.loc 1 330 0 is_stmt 0 discriminator 1
 234 010e 4022     		movs	r2, #64
 235 0110 5E4B     		ldr	r3, .L63+4
 236 0112 1A70     		strb	r2, [r3]
 237              	.L18:
 331:protocol.c    ****           }
 332:protocol.c    ****           // NOTE: This flag doesn't change when the door closes, unlike sys.state. Ensures any par
 333:protocol.c    ****           // are executed if the door switch closes and the state returns to HOLD.
ARM GAS  C:\Users\Bart\AppData\Local\Temp\ccmDaNpC.s 			page 11


 334:protocol.c    ****           sys.suspend |= SUSPEND_SAFETY_DOOR_AJAR;
 238              		.loc 1 334 0 is_stmt 1
 239 0114 5D4A     		ldr	r2, .L63+4
 240 0116 9378     		ldrb	r3, [r2, #2]	@ zero_extendqisi2
 241 0118 43F02003 		orr	r3, r3, #32
 242 011c 9370     		strb	r3, [r2, #2]
 243              	.L13:
 335:protocol.c    ****         }
 336:protocol.c    ****         
 337:protocol.c    ****       }
 338:protocol.c    **** 
 339:protocol.c    ****       if (rt_exec & EXEC_SLEEP) {
 244              		.loc 1 339 0
 245 011e 14F0800F 		tst	r4, #128
 246 0122 0BD0     		beq	.L20
 340:protocol.c    ****         if (sys.state == STATE_ALARM) { sys.suspend |= (SUSPEND_RETRACT_COMPLETE|SUSPEND_HOLD_COMPL
 247              		.loc 1 340 0
 248 0124 594B     		ldr	r3, .L63+4
 249 0126 1B78     		ldrb	r3, [r3]	@ zero_extendqisi2
 250 0128 012B     		cmp	r3, #1
 251 012a 04D1     		bne	.L21
 252              		.loc 1 340 0 is_stmt 0 discriminator 1
 253 012c 574A     		ldr	r2, .L63+4
 254 012e 9378     		ldrb	r3, [r2, #2]	@ zero_extendqisi2
 255 0130 43F00503 		orr	r3, r3, #5
 256 0134 9370     		strb	r3, [r2, #2]
 257              	.L21:
 341:protocol.c    ****         sys.state = STATE_SLEEP; 
 258              		.loc 1 341 0 is_stmt 1
 259 0136 8022     		movs	r2, #128
 260 0138 544B     		ldr	r3, .L63+4
 261 013a 1A70     		strb	r2, [r3]
 262              	.L20:
 342:protocol.c    ****       }
 343:protocol.c    **** 
 344:protocol.c    ****       system_clear_exec_state_flag((EXEC_MOTION_CANCEL | EXEC_FEED_HOLD | EXEC_SAFETY_DOOR | EXEC_S
 263              		.loc 1 344 0
 264 013c E820     		movs	r0, #232
 265 013e FFF7FEFF 		bl	system_clear_exec_state_flag
 266              	.LVL15:
 267              	.L12:
 345:protocol.c    ****     }
 346:protocol.c    **** 
 347:protocol.c    ****     // Execute a cycle start by starting the stepper interrupt to begin executing the blocks in que
 348:protocol.c    ****     if (rt_exec & EXEC_CYCLE_START) {
 268              		.loc 1 348 0
 269 0142 14F0020F 		tst	r4, #2
 270 0146 4AD0     		beq	.L22
 349:protocol.c    ****       // Block if called at same time as the hold commands: feed hold, motion cancel, and safety do
 350:protocol.c    ****       // Ensures auto-cycle-start doesn't resume a hold without an explicit user-input.
 351:protocol.c    ****       if (!(rt_exec & (EXEC_FEED_HOLD | EXEC_MOTION_CANCEL | EXEC_SAFETY_DOOR))) {
 271              		.loc 1 351 0
 272 0148 14F0680F 		tst	r4, #104
 273 014c 44D1     		bne	.L23
 352:protocol.c    ****         // Resume door state when parking motion has retracted and door has been closed.
 353:protocol.c    ****         if ((sys.state == STATE_SAFETY_DOOR) && !(sys.suspend & SUSPEND_SAFETY_DOOR_AJAR)) {
 274              		.loc 1 353 0
ARM GAS  C:\Users\Bart\AppData\Local\Temp\ccmDaNpC.s 			page 12


 275 014e 4F4B     		ldr	r3, .L63+4
 276 0150 1B78     		ldrb	r3, [r3]	@ zero_extendqisi2
 277 0152 402B     		cmp	r3, #64
 278 0154 12D1     		bne	.L24
 279              		.loc 1 353 0 is_stmt 0 discriminator 1
 280 0156 4D4B     		ldr	r3, .L63+4
 281 0158 9B78     		ldrb	r3, [r3, #2]	@ zero_extendqisi2
 282 015a 13F0200F 		tst	r3, #32
 283 015e 0DD1     		bne	.L24
 354:protocol.c    ****           if (sys.suspend & SUSPEND_RESTORE_COMPLETE) {
 284              		.loc 1 354 0 is_stmt 1
 285 0160 13F0100F 		tst	r3, #16
 286 0164 03D0     		beq	.L25
 355:protocol.c    ****             sys.state = STATE_IDLE; // Set to IDLE to immediately resume the cycle.
 287              		.loc 1 355 0
 288 0166 0022     		movs	r2, #0
 289 0168 484B     		ldr	r3, .L63+4
 290 016a 1A70     		strb	r2, [r3]
 291 016c 06E0     		b	.L24
 292              	.L25:
 356:protocol.c    ****           } else if (sys.suspend & SUSPEND_RETRACT_COMPLETE) {
 293              		.loc 1 356 0
 294 016e 13F0040F 		tst	r3, #4
 295 0172 03D0     		beq	.L24
 357:protocol.c    ****             // Flag to re-energize powered components and restore original position, if disabled by
 358:protocol.c    ****             // NOTE: For a safety door to resume, the switch must be closed, as indicated by HOLD s
 359:protocol.c    ****             // the retraction execution is complete, which implies the initial feed hold is not act
 360:protocol.c    ****             // restore normal operation, the restore procedures must be initiated by the following 
 361:protocol.c    ****             // they are complete, it will call CYCLE_START automatically to resume and exit the sus
 362:protocol.c    ****             sys.suspend |= SUSPEND_INITIATE_RESTORE;
 296              		.loc 1 362 0
 297 0174 43F00803 		orr	r3, r3, #8
 298 0178 444A     		ldr	r2, .L63+4
 299 017a 9370     		strb	r3, [r2, #2]
 300              	.L24:
 363:protocol.c    ****           }
 364:protocol.c    ****         }
 365:protocol.c    ****         // Cycle start only when IDLE or when a hold is complete and ready to resume.
 366:protocol.c    ****         if ((sys.state == STATE_IDLE) || ((sys.state & STATE_HOLD) && (sys.suspend & SUSPEND_HOLD_C
 301              		.loc 1 366 0
 302 017c 434B     		ldr	r3, .L63+4
 303 017e 1B78     		ldrb	r3, [r3]	@ zero_extendqisi2
 304 0180 3BB1     		cbz	r3, .L26
 305              		.loc 1 366 0 is_stmt 0 discriminator 1
 306 0182 13F0100F 		tst	r3, #16
 307 0186 27D0     		beq	.L23
 308              		.loc 1 366 0 discriminator 2
 309 0188 404A     		ldr	r2, .L63+4
 310 018a 9278     		ldrb	r2, [r2, #2]	@ zero_extendqisi2
 311 018c 12F0010F 		tst	r2, #1
 312 0190 22D0     		beq	.L23
 313              	.L26:
 367:protocol.c    ****           if (sys.state == STATE_HOLD && sys.spindle_stop_ovr) {
 314              		.loc 1 367 0 is_stmt 1
 315 0192 102B     		cmp	r3, #16
 316 0194 07D1     		bne	.L27
 317              		.loc 1 367 0 is_stmt 0 discriminator 1
ARM GAS  C:\Users\Bart\AppData\Local\Temp\ccmDaNpC.s 			page 13


 318 0196 3D4B     		ldr	r3, .L63+4
 319 0198 9B7A     		ldrb	r3, [r3, #10]	@ zero_extendqisi2
 320 019a 23B1     		cbz	r3, .L27
 368:protocol.c    ****             sys.spindle_stop_ovr |= SPINDLE_STOP_OVR_RESTORE_CYCLE; // Set to restore in suspend ro
 321              		.loc 1 368 0 is_stmt 1
 322 019c 43F00803 		orr	r3, r3, #8
 323 01a0 3A4A     		ldr	r2, .L63+4
 324 01a2 9372     		strb	r3, [r2, #10]
 325 01a4 18E0     		b	.L23
 326              	.L27:
 369:protocol.c    ****           } else {
 370:protocol.c    ****             // Start cycle only if queued motions exist in planner buffer and the motion is not can
 371:protocol.c    ****             sys.step_control = STEP_CONTROL_NORMAL_OP; // Restore step control to normal operation
 327              		.loc 1 371 0
 328 01a6 0022     		movs	r2, #0
 329 01a8 384B     		ldr	r3, .L63+4
 330 01aa 1A71     		strb	r2, [r3, #4]
 372:protocol.c    ****             if (plan_get_current_block() && bit_isfalse(sys.suspend,SUSPEND_MOTION_CANCEL)) {
 331              		.loc 1 372 0
 332 01ac FFF7FEFF 		bl	plan_get_current_block
 333              	.LVL16:
 334 01b0 70B1     		cbz	r0, .L28
 335              		.loc 1 372 0 is_stmt 0 discriminator 1
 336 01b2 364B     		ldr	r3, .L63+4
 337 01b4 9B78     		ldrb	r3, [r3, #2]	@ zero_extendqisi2
 338 01b6 13F0400F 		tst	r3, #64
 339 01ba 09D1     		bne	.L28
 373:protocol.c    ****               sys.suspend = SUSPEND_DISABLE; // Break suspend state.
 340              		.loc 1 373 0 is_stmt 1
 341 01bc 334B     		ldr	r3, .L63+4
 342 01be 0022     		movs	r2, #0
 343 01c0 9A70     		strb	r2, [r3, #2]
 374:protocol.c    ****               sys.state = STATE_CYCLE;
 344              		.loc 1 374 0
 345 01c2 0822     		movs	r2, #8
 346 01c4 1A70     		strb	r2, [r3]
 375:protocol.c    ****               st_prep_buffer(); // Initialize step segment buffer before beginning cycle.
 347              		.loc 1 375 0
 348 01c6 FFF7FEFF 		bl	st_prep_buffer
 349              	.LVL17:
 376:protocol.c    ****               st_wake_up();
 350              		.loc 1 376 0
 351 01ca FFF7FEFF 		bl	st_wake_up
 352              	.LVL18:
 353 01ce 03E0     		b	.L23
 354              	.L28:
 377:protocol.c    ****             } else { // Otherwise, do nothing. Set and resume IDLE state.
 378:protocol.c    ****               sys.suspend = SUSPEND_DISABLE; // Break suspend state.
 355              		.loc 1 378 0
 356 01d0 2E4B     		ldr	r3, .L63+4
 357 01d2 0022     		movs	r2, #0
 358 01d4 9A70     		strb	r2, [r3, #2]
 379:protocol.c    ****               sys.state = STATE_IDLE;
 359              		.loc 1 379 0
 360 01d6 1A70     		strb	r2, [r3]
 361              	.L23:
 380:protocol.c    ****             }
ARM GAS  C:\Users\Bart\AppData\Local\Temp\ccmDaNpC.s 			page 14


 381:protocol.c    ****           }
 382:protocol.c    ****         }
 383:protocol.c    ****       }
 384:protocol.c    ****       system_clear_exec_state_flag(EXEC_CYCLE_START);
 362              		.loc 1 384 0
 363 01d8 0220     		movs	r0, #2
 364 01da FFF7FEFF 		bl	system_clear_exec_state_flag
 365              	.LVL19:
 366              	.L22:
 385:protocol.c    ****     }
 386:protocol.c    **** 
 387:protocol.c    ****     if (rt_exec & EXEC_CYCLE_STOP) {
 367              		.loc 1 387 0
 368 01de 14F0040F 		tst	r4, #4
 369 01e2 42D0     		beq	.L8
 388:protocol.c    ****       // Reinitializes the cycle plan and stepper system after a feed hold for a resume. Called by
 389:protocol.c    ****       // realtime command execution in the main program, ensuring that the planner re-plans safely.
 390:protocol.c    ****       // NOTE: Bresenham algorithm variables are still maintained through both the planner and step
 391:protocol.c    ****       // cycle reinitializations. The stepper path should continue exactly as if nothing has happen
 392:protocol.c    ****       // NOTE: EXEC_CYCLE_STOP is set by the stepper subsystem when a cycle or feed hold completes.
 393:protocol.c    ****       if ((sys.state & (STATE_HOLD|STATE_SAFETY_DOOR|STATE_SLEEP)) && !(sys.soft_limit) && !(sys.su
 370              		.loc 1 393 0
 371 01e4 294B     		ldr	r3, .L63+4
 372 01e6 1B78     		ldrb	r3, [r3]	@ zero_extendqisi2
 373 01e8 13F0D00F 		tst	r3, #208
 374 01ec 18D0     		beq	.L29
 375              		.loc 1 393 0 is_stmt 0 discriminator 1
 376 01ee 274B     		ldr	r3, .L63+4
 377 01f0 DB78     		ldrb	r3, [r3, #3]	@ zero_extendqisi2
 378 01f2 ABB9     		cbnz	r3, .L29
 379              		.loc 1 393 0 discriminator 2
 380 01f4 254B     		ldr	r3, .L63+4
 381 01f6 93F90230 		ldrsb	r3, [r3, #2]
 382 01fa 002B     		cmp	r3, #0
 383 01fc 10DB     		blt	.L29
 394:protocol.c    ****         // Hold complete. Set to indicate ready to resume.  Remain in HOLD or DOOR states until use
 395:protocol.c    ****         // has issued a resume command or reset.
 396:protocol.c    ****         plan_cycle_reinitialize();
 384              		.loc 1 396 0 is_stmt 1
 385 01fe FFF7FEFF 		bl	plan_cycle_reinitialize
 386              	.LVL20:
 397:protocol.c    ****         if (sys.step_control & STEP_CONTROL_EXECUTE_HOLD) { sys.suspend |= SUSPEND_HOLD_COMPLETE; }
 387              		.loc 1 397 0
 388 0202 224B     		ldr	r3, .L63+4
 389 0204 1B79     		ldrb	r3, [r3, #4]	@ zero_extendqisi2
 390 0206 13F0020F 		tst	r3, #2
 391 020a 04D0     		beq	.L30
 392              		.loc 1 397 0 is_stmt 0 discriminator 1
 393 020c 1F49     		ldr	r1, .L63+4
 394 020e 8A78     		ldrb	r2, [r1, #2]	@ zero_extendqisi2
 395 0210 42F00102 		orr	r2, r2, #1
 396 0214 8A70     		strb	r2, [r1, #2]
 397              	.L30:
 398:protocol.c    ****         bit_false(sys.step_control,(STEP_CONTROL_EXECUTE_HOLD | STEP_CONTROL_EXECUTE_SYS_MOTION));
 398              		.loc 1 398 0 is_stmt 1
 399 0216 23F00603 		bic	r3, r3, #6
 400 021a 1C4A     		ldr	r2, .L63+4
ARM GAS  C:\Users\Bart\AppData\Local\Temp\ccmDaNpC.s 			page 15


 401 021c 1371     		strb	r3, [r2, #4]
 402 021e 21E0     		b	.L31
 403              	.L29:
 399:protocol.c    ****       } else {
 400:protocol.c    ****         // Motion complete. Includes CYCLE/JOG/HOMING states and jog cancel/motion cancel/soft limi
 401:protocol.c    ****         // NOTE: Motion and jog cancel both immediately return to idle after the hold completes.
 402:protocol.c    ****         if (sys.suspend & SUSPEND_JOG_CANCEL) {   // For jog cancel, flush buffers and sync positio
 404              		.loc 1 402 0
 405 0220 1A4B     		ldr	r3, .L63+4
 406 0222 93F90230 		ldrsb	r3, [r3, #2]
 407 0226 002B     		cmp	r3, #0
 408 0228 0ADA     		bge	.L32
 403:protocol.c    ****           sys.step_control = STEP_CONTROL_NORMAL_OP;
 409              		.loc 1 403 0
 410 022a 0022     		movs	r2, #0
 411 022c 174B     		ldr	r3, .L63+4
 412 022e 1A71     		strb	r2, [r3, #4]
 404:protocol.c    ****           plan_reset();
 413              		.loc 1 404 0
 414 0230 FFF7FEFF 		bl	plan_reset
 415              	.LVL21:
 405:protocol.c    ****           st_reset();
 416              		.loc 1 405 0
 417 0234 FFF7FEFF 		bl	st_reset
 418              	.LVL22:
 406:protocol.c    ****           gc_sync_position();
 419              		.loc 1 406 0
 420 0238 FFF7FEFF 		bl	gc_sync_position
 421              	.LVL23:
 407:protocol.c    ****           plan_sync_position();
 422              		.loc 1 407 0
 423 023c FFF7FEFF 		bl	plan_sync_position
 424              	.LVL24:
 425              	.L32:
 408:protocol.c    ****         }
 409:protocol.c    ****         if (sys.suspend & SUSPEND_SAFETY_DOOR_AJAR) { // Only occurs when safety door opens during 
 426              		.loc 1 409 0
 427 0240 124B     		ldr	r3, .L63+4
 428 0242 9B78     		ldrb	r3, [r3, #2]	@ zero_extendqisi2
 429 0244 13F0200F 		tst	r3, #32
 430 0248 08D0     		beq	.L33
 410:protocol.c    ****           sys.suspend &= ~(SUSPEND_JOG_CANCEL);
 431              		.loc 1 410 0
 432 024a 03F07F03 		and	r3, r3, #127
 433 024e 0F4A     		ldr	r2, .L63+4
 411:protocol.c    ****           sys.suspend |= SUSPEND_HOLD_COMPLETE;
 434              		.loc 1 411 0
 435 0250 43F00103 		orr	r3, r3, #1
 436 0254 9370     		strb	r3, [r2, #2]
 412:protocol.c    ****           sys.state = STATE_SAFETY_DOOR;
 437              		.loc 1 412 0
 438 0256 4023     		movs	r3, #64
 439 0258 1370     		strb	r3, [r2]
 440 025a 03E0     		b	.L31
 441              	.L33:
 413:protocol.c    ****         } else {
 414:protocol.c    ****           sys.suspend = SUSPEND_DISABLE;
ARM GAS  C:\Users\Bart\AppData\Local\Temp\ccmDaNpC.s 			page 16


 442              		.loc 1 414 0
 443 025c 0B4B     		ldr	r3, .L63+4
 444 025e 0022     		movs	r2, #0
 445 0260 9A70     		strb	r2, [r3, #2]
 415:protocol.c    ****           sys.state = STATE_IDLE;
 446              		.loc 1 415 0
 447 0262 1A70     		strb	r2, [r3]
 448              	.L31:
 416:protocol.c    ****         }
 417:protocol.c    ****       }
 418:protocol.c    ****       system_clear_exec_state_flag(EXEC_CYCLE_STOP);
 449              		.loc 1 418 0
 450 0264 0420     		movs	r0, #4
 451 0266 FFF7FEFF 		bl	system_clear_exec_state_flag
 452              	.LVL25:
 453              	.L8:
 419:protocol.c    ****     }
 420:protocol.c    ****   }
 421:protocol.c    **** 
 422:protocol.c    ****   // Execute overrides.
 423:protocol.c    ****   rt_exec = sys_rt_exec_motion_override; // Copy volatile sys_rt_exec_motion_override
 454              		.loc 1 423 0
 455 026a 0A4B     		ldr	r3, .L63+12
 456 026c 1B78     		ldrb	r3, [r3]	@ zero_extendqisi2
 457              	.LVL26:
 424:protocol.c    ****   if (rt_exec) {
 458              		.loc 1 424 0
 459 026e 03F0FF04 		and	r4, r3, #255
 460 0272 002B     		cmp	r3, #0
 461 0274 48D0     		beq	.L34
 462              	.LBB2:
 425:protocol.c    ****     system_clear_exec_motion_overrides(); // Clear all motion override flags.
 463              		.loc 1 425 0
 464 0276 FFF7FEFF 		bl	system_clear_exec_motion_overrides
 465              	.LVL27:
 426:protocol.c    **** 
 427:protocol.c    ****     uint8_t new_f_override =  sys.f_override;
 466              		.loc 1 427 0
 467 027a 044B     		ldr	r3, .L63+4
 468 027c DA79     		ldrb	r2, [r3, #7]	@ zero_extendqisi2
 469              	.LVL28:
 428:protocol.c    ****     if (rt_exec & EXEC_FEED_OVR_RESET) { new_f_override = DEFAULT_FEED_OVERRIDE; }
 470              		.loc 1 428 0
 471 027e 14F0010F 		tst	r4, #1
 472 0282 09D1     		bne	.L57
 427:protocol.c    ****     if (rt_exec & EXEC_FEED_OVR_RESET) { new_f_override = DEFAULT_FEED_OVERRIDE; }
 473              		.loc 1 427 0
 474 0284 1346     		mov	r3, r2
 475 0286 08E0     		b	.L35
 476              	.L64:
 477              		.align	2
 478              	.L63:
 479 0288 00000000 		.word	sys_rt_exec_alarm
 480 028c 00000000 		.word	sys
 481 0290 00000000 		.word	sys_rt_exec_state
 482 0294 00000000 		.word	sys_rt_exec_motion_override
 483              	.L57:
ARM GAS  C:\Users\Bart\AppData\Local\Temp\ccmDaNpC.s 			page 17


 484              		.loc 1 428 0
 485 0298 6423     		movs	r3, #100
 486              	.L35:
 487              	.LVL29:
 429:protocol.c    ****     if (rt_exec & EXEC_FEED_OVR_COARSE_PLUS) { new_f_override += FEED_OVERRIDE_COARSE_INCREMENT; }
 488              		.loc 1 429 0
 489 029a 14F0020F 		tst	r4, #2
 490 029e 01D0     		beq	.L36
 491              		.loc 1 429 0 is_stmt 0 discriminator 1
 492 02a0 0A33     		adds	r3, r3, #10
 493              	.LVL30:
 494 02a2 DBB2     		uxtb	r3, r3
 495              	.LVL31:
 496              	.L36:
 430:protocol.c    ****     if (rt_exec & EXEC_FEED_OVR_COARSE_MINUS) { new_f_override -= FEED_OVERRIDE_COARSE_INCREMENT; }
 497              		.loc 1 430 0 is_stmt 1
 498 02a4 14F0040F 		tst	r4, #4
 499 02a8 01D0     		beq	.L37
 500              		.loc 1 430 0 is_stmt 0 discriminator 1
 501 02aa 0A3B     		subs	r3, r3, #10
 502              	.LVL32:
 503 02ac DBB2     		uxtb	r3, r3
 504              	.LVL33:
 505              	.L37:
 431:protocol.c    ****     if (rt_exec & EXEC_FEED_OVR_FINE_PLUS) { new_f_override += FEED_OVERRIDE_FINE_INCREMENT; }
 506              		.loc 1 431 0 is_stmt 1
 507 02ae 14F0080F 		tst	r4, #8
 508 02b2 01D0     		beq	.L38
 509              		.loc 1 431 0 is_stmt 0 discriminator 1
 510 02b4 0133     		adds	r3, r3, #1
 511              	.LVL34:
 512 02b6 DBB2     		uxtb	r3, r3
 513              	.LVL35:
 514              	.L38:
 432:protocol.c    ****     if (rt_exec & EXEC_FEED_OVR_FINE_MINUS) { new_f_override -= FEED_OVERRIDE_FINE_INCREMENT; }
 515              		.loc 1 432 0 is_stmt 1
 516 02b8 14F0100F 		tst	r4, #16
 517 02bc 01D0     		beq	.L39
 518              		.loc 1 432 0 is_stmt 0 discriminator 1
 519 02be 013B     		subs	r3, r3, #1
 520              	.LVL36:
 521 02c0 DBB2     		uxtb	r3, r3
 522              	.LVL37:
 523              	.L39:
 433:protocol.c    ****     new_f_override = min(new_f_override,MAX_FEED_RATE_OVERRIDE);
 434:protocol.c    ****     new_f_override = max(new_f_override,MIN_FEED_RATE_OVERRIDE);
 524              		.loc 1 434 0 is_stmt 1
 525 02c2 C82B     		cmp	r3, #200
 526 02c4 28BF     		it	cs
 527 02c6 C823     		movcs	r3, #200
 528              	.LVL38:
 529 02c8 0A2B     		cmp	r3, #10
 530 02ca 38BF     		it	cc
 531 02cc 0A23     		movcc	r3, #10
 532              	.LVL39:
 435:protocol.c    **** 
 436:protocol.c    ****     uint8_t new_r_override = sys.r_override;
ARM GAS  C:\Users\Bart\AppData\Local\Temp\ccmDaNpC.s 			page 18


 533              		.loc 1 436 0
 534 02ce 4849     		ldr	r1, .L65
 535 02d0 087A     		ldrb	r0, [r1, #8]	@ zero_extendqisi2
 536              	.LVL40:
 437:protocol.c    ****     if (rt_exec & EXEC_RAPID_OVR_RESET) { new_r_override = DEFAULT_RAPID_OVERRIDE; }
 537              		.loc 1 437 0
 538 02d2 14F0200F 		tst	r4, #32
 539 02d6 01D1     		bne	.L58
 436:protocol.c    ****     if (rt_exec & EXEC_RAPID_OVR_RESET) { new_r_override = DEFAULT_RAPID_OVERRIDE; }
 540              		.loc 1 436 0
 541 02d8 0146     		mov	r1, r0
 542 02da 00E0     		b	.L40
 543              	.L58:
 544              		.loc 1 437 0
 545 02dc 6421     		movs	r1, #100
 546              	.L40:
 547              	.LVL41:
 438:protocol.c    ****     if (rt_exec & EXEC_RAPID_OVR_MEDIUM) { new_r_override = RAPID_OVERRIDE_MEDIUM; }
 548              		.loc 1 438 0
 549 02de 14F0400F 		tst	r4, #64
 550 02e2 00D0     		beq	.L41
 551 02e4 3221     		movs	r1, #50
 552              	.LVL42:
 553              	.L41:
 439:protocol.c    ****     if (rt_exec & EXEC_RAPID_OVR_LOW) { new_r_override = RAPID_OVERRIDE_LOW; }
 554              		.loc 1 439 0
 555 02e6 14F0800F 		tst	r4, #128
 556 02ea 00D0     		beq	.L42
 557 02ec 1921     		movs	r1, #25
 558              	.LVL43:
 559              	.L42:
 440:protocol.c    **** 
 441:protocol.c    ****     if ((new_f_override != sys.f_override) || (new_r_override != sys.r_override)) {
 560              		.loc 1 441 0
 561 02ee 9A42     		cmp	r2, r3
 562 02f0 01D1     		bne	.L43
 563              		.loc 1 441 0 is_stmt 0 discriminator 1
 564 02f2 8142     		cmp	r1, r0
 565 02f4 08D0     		beq	.L34
 566              	.L43:
 442:protocol.c    ****       sys.f_override = new_f_override;
 567              		.loc 1 442 0 is_stmt 1
 568 02f6 3E4A     		ldr	r2, .L65
 569 02f8 D371     		strb	r3, [r2, #7]
 443:protocol.c    ****       sys.r_override = new_r_override;
 570              		.loc 1 443 0
 571 02fa 1172     		strb	r1, [r2, #8]
 444:protocol.c    ****       sys.report_ovr_counter = 0; // Set to report change immediately
 572              		.loc 1 444 0
 573 02fc 0023     		movs	r3, #0
 574              	.LVL44:
 575 02fe D372     		strb	r3, [r2, #11]
 445:protocol.c    ****       plan_update_velocity_profile_parameters();
 576              		.loc 1 445 0
 577 0300 FFF7FEFF 		bl	plan_update_velocity_profile_parameters
 578              	.LVL45:
 446:protocol.c    ****       plan_cycle_reinitialize();
ARM GAS  C:\Users\Bart\AppData\Local\Temp\ccmDaNpC.s 			page 19


 579              		.loc 1 446 0
 580 0304 FFF7FEFF 		bl	plan_cycle_reinitialize
 581              	.LVL46:
 582              	.L34:
 583              	.LBE2:
 447:protocol.c    ****     }
 448:protocol.c    ****   }
 449:protocol.c    **** 
 450:protocol.c    ****   rt_exec = sys_rt_exec_accessory_override;
 584              		.loc 1 450 0
 585 0308 3A4B     		ldr	r3, .L65+4
 586 030a 1B78     		ldrb	r3, [r3]	@ zero_extendqisi2
 587              	.LVL47:
 451:protocol.c    ****   if (rt_exec) {
 588              		.loc 1 451 0
 589 030c 03F0FF04 		and	r4, r3, #255
 590 0310 002B     		cmp	r3, #0
 591 0312 5AD0     		beq	.L44
 592              	.LBB3:
 452:protocol.c    ****     system_clear_exec_accessory_overrides(); // Clear all accessory override flags.
 593              		.loc 1 452 0
 594 0314 FFF7FEFF 		bl	system_clear_exec_accessory_overrides
 595              	.LVL48:
 453:protocol.c    **** 
 454:protocol.c    ****     // NOTE: Unlike motion overrides, spindle overrides do not require a planner reinitialization.
 455:protocol.c    ****     uint8_t last_s_override =  sys.spindle_speed_ovr;
 596              		.loc 1 455 0
 597 0318 354B     		ldr	r3, .L65
 598 031a 5A7A     		ldrb	r2, [r3, #9]	@ zero_extendqisi2
 599              	.LVL49:
 456:protocol.c    ****     if (rt_exec & EXEC_SPINDLE_OVR_RESET) { last_s_override = DEFAULT_SPINDLE_SPEED_OVERRIDE; }
 600              		.loc 1 456 0
 601 031c 14F0010F 		tst	r4, #1
 602 0320 01D1     		bne	.L61
 455:protocol.c    ****     if (rt_exec & EXEC_SPINDLE_OVR_RESET) { last_s_override = DEFAULT_SPINDLE_SPEED_OVERRIDE; }
 603              		.loc 1 455 0
 604 0322 1346     		mov	r3, r2
 605 0324 00E0     		b	.L45
 606              	.L61:
 607              		.loc 1 456 0
 608 0326 6423     		movs	r3, #100
 609              	.L45:
 610              	.LVL50:
 457:protocol.c    ****     if (rt_exec & EXEC_SPINDLE_OVR_COARSE_PLUS) { last_s_override += SPINDLE_OVERRIDE_COARSE_INCREM
 611              		.loc 1 457 0
 612 0328 14F0020F 		tst	r4, #2
 613 032c 01D0     		beq	.L46
 614              		.loc 1 457 0 is_stmt 0 discriminator 1
 615 032e 0A33     		adds	r3, r3, #10
 616              	.LVL51:
 617 0330 DBB2     		uxtb	r3, r3
 618              	.LVL52:
 619              	.L46:
 458:protocol.c    ****     if (rt_exec & EXEC_SPINDLE_OVR_COARSE_MINUS) { last_s_override -= SPINDLE_OVERRIDE_COARSE_INCRE
 620              		.loc 1 458 0 is_stmt 1
 621 0332 14F0040F 		tst	r4, #4
 622 0336 01D0     		beq	.L47
ARM GAS  C:\Users\Bart\AppData\Local\Temp\ccmDaNpC.s 			page 20


 623              		.loc 1 458 0 is_stmt 0 discriminator 1
 624 0338 0A3B     		subs	r3, r3, #10
 625              	.LVL53:
 626 033a DBB2     		uxtb	r3, r3
 627              	.LVL54:
 628              	.L47:
 459:protocol.c    ****     if (rt_exec & EXEC_SPINDLE_OVR_FINE_PLUS) { last_s_override += SPINDLE_OVERRIDE_FINE_INCREMENT;
 629              		.loc 1 459 0 is_stmt 1
 630 033c 14F0080F 		tst	r4, #8
 631 0340 01D0     		beq	.L48
 632              		.loc 1 459 0 is_stmt 0 discriminator 1
 633 0342 0133     		adds	r3, r3, #1
 634              	.LVL55:
 635 0344 DBB2     		uxtb	r3, r3
 636              	.LVL56:
 637              	.L48:
 460:protocol.c    ****     if (rt_exec & EXEC_SPINDLE_OVR_FINE_MINUS) { last_s_override -= SPINDLE_OVERRIDE_FINE_INCREMENT
 638              		.loc 1 460 0 is_stmt 1
 639 0346 14F0100F 		tst	r4, #16
 640 034a 01D0     		beq	.L49
 641              		.loc 1 460 0 is_stmt 0 discriminator 1
 642 034c 013B     		subs	r3, r3, #1
 643              	.LVL57:
 644 034e DBB2     		uxtb	r3, r3
 645              	.LVL58:
 646              	.L49:
 461:protocol.c    ****     last_s_override = min(last_s_override,MAX_SPINDLE_SPEED_OVERRIDE);
 462:protocol.c    ****     last_s_override = max(last_s_override,MIN_SPINDLE_SPEED_OVERRIDE);
 647              		.loc 1 462 0 is_stmt 1
 648 0350 C82B     		cmp	r3, #200
 649 0352 28BF     		it	cs
 650 0354 C823     		movcs	r3, #200
 651              	.LVL59:
 652 0356 0A2B     		cmp	r3, #10
 653 0358 38BF     		it	cc
 654 035a 0A23     		movcc	r3, #10
 655              	.LVL60:
 463:protocol.c    **** 
 464:protocol.c    ****     if (last_s_override != sys.spindle_speed_ovr) {
 656              		.loc 1 464 0
 657 035c 9A42     		cmp	r2, r3
 658 035e 07D0     		beq	.L50
 465:protocol.c    ****       bit_true(sys.step_control, STEP_CONTROL_UPDATE_SPINDLE_PWM);
 659              		.loc 1 465 0
 660 0360 234A     		ldr	r2, .L65
 661 0362 1179     		ldrb	r1, [r2, #4]	@ zero_extendqisi2
 662 0364 41F00801 		orr	r1, r1, #8
 663 0368 1171     		strb	r1, [r2, #4]
 466:protocol.c    ****       sys.spindle_speed_ovr = last_s_override;
 664              		.loc 1 466 0
 665 036a 5372     		strb	r3, [r2, #9]
 467:protocol.c    ****       sys.report_ovr_counter = 0; // Set to report change immediately
 666              		.loc 1 467 0
 667 036c 0023     		movs	r3, #0
 668              	.LVL61:
 669 036e D372     		strb	r3, [r2, #11]
 670              	.LVL62:
ARM GAS  C:\Users\Bart\AppData\Local\Temp\ccmDaNpC.s 			page 21


 671              	.L50:
 468:protocol.c    ****     }
 469:protocol.c    **** 
 470:protocol.c    ****     if (rt_exec & EXEC_SPINDLE_OVR_STOP) {
 672              		.loc 1 470 0
 673 0370 14F0200F 		tst	r4, #32
 674 0374 11D0     		beq	.L51
 471:protocol.c    ****       // Spindle stop override allowed only while in HOLD state.
 472:protocol.c    ****       // NOTE: Report counters are set in spindle_set_state() when spindle stop is executed.
 473:protocol.c    ****       if (sys.state == STATE_HOLD) {
 675              		.loc 1 473 0
 676 0376 1E4B     		ldr	r3, .L65
 677 0378 1B78     		ldrb	r3, [r3]	@ zero_extendqisi2
 678 037a 102B     		cmp	r3, #16
 679 037c 0DD1     		bne	.L51
 474:protocol.c    ****         if (!(sys.spindle_stop_ovr)) { sys.spindle_stop_ovr = SPINDLE_STOP_OVR_INITIATE; }
 680              		.loc 1 474 0
 681 037e 1C4B     		ldr	r3, .L65
 682 0380 9B7A     		ldrb	r3, [r3, #10]	@ zero_extendqisi2
 683 0382 1BB9     		cbnz	r3, .L52
 684              		.loc 1 474 0 is_stmt 0 discriminator 1
 685 0384 0222     		movs	r2, #2
 686 0386 1A4B     		ldr	r3, .L65
 687 0388 9A72     		strb	r2, [r3, #10]
 688 038a 06E0     		b	.L51
 689              	.L52:
 475:protocol.c    ****         else if (sys.spindle_stop_ovr & SPINDLE_STOP_OVR_ENABLED) { sys.spindle_stop_ovr |= SPINDLE
 690              		.loc 1 475 0 is_stmt 1
 691 038c 13F0010F 		tst	r3, #1
 692 0390 03D0     		beq	.L51
 693              		.loc 1 475 0 is_stmt 0 discriminator 1
 694 0392 43F00403 		orr	r3, r3, #4
 695 0396 164A     		ldr	r2, .L65
 696 0398 9372     		strb	r3, [r2, #10]
 697              	.L51:
 476:protocol.c    ****       }
 477:protocol.c    ****     }
 478:protocol.c    **** 
 479:protocol.c    ****     // NOTE: Since coolant state always performs a planner sync whenever it changes, the current
 480:protocol.c    ****     // run state can be determined by checking the parser state.
 481:protocol.c    ****     if (rt_exec & (EXEC_COOLANT_FLOOD_OVR_TOGGLE | EXEC_COOLANT_MIST_OVR_TOGGLE)) {
 698              		.loc 1 481 0 is_stmt 1
 699 039a 14F0C00F 		tst	r4, #192
 700 039e 14D0     		beq	.L44
 482:protocol.c    ****       if ((sys.state == STATE_IDLE) || (sys.state & (STATE_CYCLE | STATE_HOLD))) {
 701              		.loc 1 482 0
 702 03a0 134B     		ldr	r3, .L65
 703 03a2 1B78     		ldrb	r3, [r3]	@ zero_extendqisi2
 704 03a4 13B1     		cbz	r3, .L53
 705              		.loc 1 482 0 is_stmt 0 discriminator 1
 706 03a6 13F0180F 		tst	r3, #24
 707 03aa 0ED0     		beq	.L44
 708              	.L53:
 709              	.LBB4:
 483:protocol.c    ****         uint8_t coolant_state = gc_state.modal.coolant;
 710              		.loc 1 483 0 is_stmt 1
 711 03ac 124B     		ldr	r3, .L65+8
ARM GAS  C:\Users\Bart\AppData\Local\Temp\ccmDaNpC.s 			page 22


 712 03ae 1C7A     		ldrb	r4, [r3, #8]	@ zero_extendqisi2
 713              	.LVL63:
 484:protocol.c    ****         #ifdef ENABLE_M7
 485:protocol.c    ****           if (rt_exec & EXEC_COOLANT_MIST_OVR_TOGGLE) {
 486:protocol.c    ****             if (coolant_state & COOLANT_MIST_ENABLE) { bit_false(coolant_state,COOLANT_MIST_ENABLE)
 487:protocol.c    ****             else { coolant_state |= COOLANT_MIST_ENABLE; }
 488:protocol.c    ****           }
 489:protocol.c    ****           if (rt_exec & EXEC_COOLANT_FLOOD_OVR_TOGGLE) {
 490:protocol.c    ****             if (coolant_state & COOLANT_FLOOD_ENABLE) { bit_false(coolant_state,COOLANT_FLOOD_ENABL
 491:protocol.c    ****             else { coolant_state |= COOLANT_FLOOD_ENABLE; }
 492:protocol.c    ****           }
 493:protocol.c    ****         #else
 494:protocol.c    ****           if (coolant_state & COOLANT_FLOOD_ENABLE) { bit_false(coolant_state,COOLANT_FLOOD_ENABLE)
 714              		.loc 1 494 0
 715 03b0 14F0400F 		tst	r4, #64
 716 03b4 02D0     		beq	.L54
 717              		.loc 1 494 0 is_stmt 0 discriminator 1
 718 03b6 04F0BF04 		and	r4, r4, #191
 719              	.LVL64:
 720 03ba 01E0     		b	.L55
 721              	.L54:
 495:protocol.c    ****           else { coolant_state |= COOLANT_FLOOD_ENABLE; }
 722              		.loc 1 495 0 is_stmt 1
 723 03bc 44F04004 		orr	r4, r4, #64
 724              	.LVL65:
 725              	.L55:
 496:protocol.c    ****         #endif
 497:protocol.c    ****         coolant_set_state(coolant_state); // Report counter set in coolant_set_state().
 726              		.loc 1 497 0
 727 03c0 2046     		mov	r0, r4
 728 03c2 FFF7FEFF 		bl	coolant_set_state
 729              	.LVL66:
 498:protocol.c    ****         gc_state.modal.coolant = coolant_state;
 730              		.loc 1 498 0
 731 03c6 0C4B     		ldr	r3, .L65+8
 732 03c8 1C72     		strb	r4, [r3, #8]
 733              	.LVL67:
 734              	.L44:
 735              	.LBE4:
 736              	.LBE3:
 499:protocol.c    ****       }
 500:protocol.c    ****     }
 501:protocol.c    ****     
 502:protocol.c    ****    
 503:protocol.c    ****     
 504:protocol.c    ****   }
 505:protocol.c    **** 
 506:protocol.c    ****   #ifdef DEBUG
 507:protocol.c    ****     if (sys_rt_exec_debug) {
 737              		.loc 1 507 0
 738 03ca 0C4B     		ldr	r3, .L65+12
 739 03cc 1B78     		ldrb	r3, [r3]	@ zero_extendqisi2
 740 03ce 13F0FF0F 		tst	r3, #255
 741 03d2 04D0     		beq	.L56
 508:protocol.c    ****       report_realtime_debug();
 742              		.loc 1 508 0
 743 03d4 FFF7FEFF 		bl	report_realtime_debug
ARM GAS  C:\Users\Bart\AppData\Local\Temp\ccmDaNpC.s 			page 23


 744              	.LVL68:
 509:protocol.c    ****       sys_rt_exec_debug = 0;
 745              		.loc 1 509 0
 746 03d8 0022     		movs	r2, #0
 747 03da 084B     		ldr	r3, .L65+12
 748 03dc 1A70     		strb	r2, [r3]
 749              	.L56:
 510:protocol.c    ****     }
 511:protocol.c    ****   #endif
 512:protocol.c    **** 
 513:protocol.c    ****   // Reload step segment buffer
 514:protocol.c    ****   if (sys.state & (STATE_CYCLE | STATE_HOLD | STATE_SAFETY_DOOR | STATE_HOMING | STATE_SLEEP| STATE
 750              		.loc 1 514 0
 751 03de 044B     		ldr	r3, .L65
 752 03e0 1B78     		ldrb	r3, [r3]	@ zero_extendqisi2
 753 03e2 13F0FC0F 		tst	r3, #252
 754 03e6 01D0     		beq	.L4
 515:protocol.c    ****     st_prep_buffer();
 755              		.loc 1 515 0
 756 03e8 FFF7FEFF 		bl	st_prep_buffer
 757              	.LVL69:
 758              	.L4:
 759 03ec 10BD     		pop	{r4, pc}
 760              	.L66:
 761 03ee 00BF     		.align	2
 762              	.L65:
 763 03f0 00000000 		.word	sys
 764 03f4 00000000 		.word	sys_rt_exec_accessory_override
 765 03f8 00000000 		.word	gc_state
 766 03fc 00000000 		.word	sys_rt_exec_debug
 767              		.cfi_endproc
 768              	.LFE67:
 769              		.size	protocol_exec_rt_system, .-protocol_exec_rt_system
 770              		.section	.text.protocol_exec_rt_suspend,"ax",%progbits
 771              		.align	2
 772              		.thumb
 773              		.thumb_func
 774              		.type	protocol_exec_rt_suspend, %function
 775              	protocol_exec_rt_suspend:
 776              	.LFB68:
 516:protocol.c    ****   }
 517:protocol.c    **** 
 518:protocol.c    **** }
 519:protocol.c    **** 
 520:protocol.c    **** 
 521:protocol.c    **** // Handles Grbl system suspend procedures, such as feed hold, safety door, and parking motion.
 522:protocol.c    **** // The system will enter this loop, create local variables for suspend tasks, and return to
 523:protocol.c    **** // whatever function that invoked the suspend, such that Grbl resumes normal operation.
 524:protocol.c    **** // This function is written in a way to promote custom parking motions. Simply use this as a
 525:protocol.c    **** // template
 526:protocol.c    **** static void protocol_exec_rt_suspend()
 527:protocol.c    **** {
 777              		.loc 1 527 0
 778              		.cfi_startproc
 779              		@ args = 0, pretend = 0, frame = 0
 780              		@ frame_needed = 0, uses_anonymous_args = 0
 781 0000 F8B5     		push	{r3, r4, r5, r6, r7, lr}
ARM GAS  C:\Users\Bart\AppData\Local\Temp\ccmDaNpC.s 			page 24


 782              		.cfi_def_cfa_offset 24
 783              		.cfi_offset 3, -24
 784              		.cfi_offset 4, -20
 785              		.cfi_offset 5, -16
 786              		.cfi_offset 6, -12
 787              		.cfi_offset 7, -8
 788              		.cfi_offset 14, -4
 528:protocol.c    ****   #ifdef PARKING_ENABLE
 529:protocol.c    ****     // Declare and initialize parking local variables
 530:protocol.c    ****     float restore_target[N_AXIS];
 531:protocol.c    ****     float parking_target[N_AXIS];
 532:protocol.c    ****     float retract_waypoint = PARKING_PULLOUT_INCREMENT;
 533:protocol.c    ****     plan_line_data_t plan_data;
 534:protocol.c    ****     plan_line_data_t *pl_data = &plan_data;
 535:protocol.c    ****     memset(pl_data,0,sizeof(plan_line_data_t));
 536:protocol.c    ****     pl_data->condition = (PL_COND_FLAG_SYSTEM_MOTION|PL_COND_FLAG_NO_FEED_OVERRIDE);
 537:protocol.c    ****     #ifdef USE_LINE_NUMBERS
 538:protocol.c    ****       pl_data->line_number = PARKING_MOTION_LINE_NUMBER;
 539:protocol.c    ****     #endif
 540:protocol.c    ****   #endif
 541:protocol.c    **** 
 542:protocol.c    ****   plan_block_t *block = plan_get_current_block();
 789              		.loc 1 542 0
 790 0002 FFF7FEFF 		bl	plan_get_current_block
 791              	.LVL70:
 543:protocol.c    ****   uint8_t restore_condition;
 544:protocol.c    ****   #ifdef VARIABLE_SPINDLE
 545:protocol.c    ****     float restore_spindle_speed;
 546:protocol.c    ****     if (block == NULL) {
 792              		.loc 1 546 0
 793 0006 28B9     		cbnz	r0, .L68
 547:protocol.c    ****       restore_condition = (gc_state.modal.spindle | gc_state.modal.coolant);
 794              		.loc 1 547 0
 795 0008 734B     		ldr	r3, .L91
 796 000a 5C7A     		ldrb	r4, [r3, #9]	@ zero_extendqisi2
 797 000c 1A7A     		ldrb	r2, [r3, #8]	@ zero_extendqisi2
 798 000e 1443     		orrs	r4, r4, r2
 799              	.LVL71:
 548:protocol.c    ****       restore_spindle_speed = gc_state.spindle_speed;
 800              		.loc 1 548 0
 801 0010 DD68     		ldr	r5, [r3, #12]	@ float
 802              	.LVL72:
 803 0012 01E0     		b	.L69
 804              	.LVL73:
 805              	.L68:
 549:protocol.c    ****     } else {
 550:protocol.c    ****       restore_condition = block->condition;
 806              		.loc 1 550 0
 807 0014 447C     		ldrb	r4, [r0, #17]	@ zero_extendqisi2
 808              	.LVL74:
 551:protocol.c    ****       restore_spindle_speed = block->spindle_speed;
 809              		.loc 1 551 0
 810 0016 056B     		ldr	r5, [r0, #48]	@ float
 811              	.LVL75:
 812              	.L69:
 552:protocol.c    ****     }
 553:protocol.c    ****     #ifdef DISABLE_LASER_DURING_HOLD
ARM GAS  C:\Users\Bart\AppData\Local\Temp\ccmDaNpC.s 			page 25


 554:protocol.c    ****       if (bit_istrue(settings.flags,BITFLAG_LASER_MODE)) { 
 813              		.loc 1 554 0
 814 0018 704B     		ldr	r3, .L91+4
 815 001a 93F84830 		ldrb	r3, [r3, #72]	@ zero_extendqisi2
 816 001e 13F0020F 		tst	r3, #2
 817 0022 00F0D380 		beq	.L71
 555:protocol.c    ****         system_set_exec_accessory_override_flag(EXEC_SPINDLE_OVR_STOP);
 818              		.loc 1 555 0
 819 0026 2020     		movs	r0, #32
 820              	.LVL76:
 821 0028 FFF7FEFF 		bl	system_set_exec_accessory_override_flag
 822              	.LVL77:
 823 002c CEE0     		b	.L71
 824              	.L89:
 556:protocol.c    ****       }
 557:protocol.c    ****     #endif
 558:protocol.c    ****   #else
 559:protocol.c    ****     if (block == NULL) { restore_condition = (gc_state.modal.spindle | gc_state.modal.coolant); }
 560:protocol.c    ****     else { restore_condition = block->condition; }
 561:protocol.c    ****   #endif
 562:protocol.c    **** 
 563:protocol.c    ****   while (sys.suspend) {
 564:protocol.c    **** 
 565:protocol.c    ****     if (sys.abort) { return; }
 825              		.loc 1 565 0
 826 002e 6C4A     		ldr	r2, .L91+8
 827 0030 5278     		ldrb	r2, [r2, #1]	@ zero_extendqisi2
 828 0032 002A     		cmp	r2, #0
 829 0034 40F0CF80 		bne	.L67
 566:protocol.c    **** 
 567:protocol.c    ****     // Block until initial hold is complete and the machine has stopped motion.
 568:protocol.c    ****     if (sys.suspend & SUSPEND_HOLD_COMPLETE) {
 830              		.loc 1 568 0
 831 0038 13F0010F 		tst	r3, #1
 832 003c 00F0C480 		beq	.L73
 569:protocol.c    **** 
 570:protocol.c    ****       // Parking manager. Handles de/re-energizing, switch state checks, and parking motions for 
 571:protocol.c    ****       // the safety door and sleep states.
 572:protocol.c    ****       if (sys.state & (STATE_SAFETY_DOOR | STATE_SLEEP)) {
 833              		.loc 1 572 0
 834 0040 674A     		ldr	r2, .L91+8
 835 0042 1278     		ldrb	r2, [r2]	@ zero_extendqisi2
 836 0044 12F0C00F 		tst	r2, #192
 837 0048 73D0     		beq	.L74
 573:protocol.c    ****       
 574:protocol.c    ****         // Handles retraction motions and de-energizing.
 575:protocol.c    ****         if (bit_isfalse(sys.suspend,SUSPEND_RETRACT_COMPLETE)) {
 838              		.loc 1 575 0
 839 004a 13F0040F 		tst	r3, #4
 840 004e 10D1     		bne	.L75
 576:protocol.c    **** 
 577:protocol.c    ****           // Ensure any prior spindle stop override is disabled at start of safety door routine.
 578:protocol.c    ****           sys.spindle_stop_ovr = SPINDLE_STOP_OVR_DISABLED;
 841              		.loc 1 578 0
 842 0050 634E     		ldr	r6, .L91+8
 843 0052 0027     		movs	r7, #0
 844 0054 B772     		strb	r7, [r6, #10]
ARM GAS  C:\Users\Bart\AppData\Local\Temp\ccmDaNpC.s 			page 26


 579:protocol.c    **** 
 580:protocol.c    ****           #ifndef PARKING_ENABLE
 581:protocol.c    **** 
 582:protocol.c    ****             spindle_set_state(SPINDLE_DISABLE,0.0); // De-energize
 845              		.loc 1 582 0
 846 0056 3846     		mov	r0, r7
 847 0058 0021     		movs	r1, #0
 848 005a FFF7FEFF 		bl	spindle_set_state
 849              	.LVL78:
 583:protocol.c    ****             coolant_set_state(COOLANT_DISABLE);     // De-energize
 850              		.loc 1 583 0
 851 005e 3846     		mov	r0, r7
 852 0060 FFF7FEFF 		bl	coolant_set_state
 853              	.LVL79:
 584:protocol.c    **** 
 585:protocol.c    ****           #else
 586:protocol.c    **** 					
 587:protocol.c    ****             // Get current position and store restore location and spindle retract waypoint.
 588:protocol.c    ****             system_convert_array_steps_to_mpos(parking_target,sys_position);
 589:protocol.c    ****             if (bit_isfalse(sys.suspend,SUSPEND_RESTART_RETRACT)) {
 590:protocol.c    ****               memcpy(restore_target,parking_target,sizeof(parking_target));
 591:protocol.c    ****               retract_waypoint += restore_target[PARKING_AXIS];
 592:protocol.c    ****               retract_waypoint = min(retract_waypoint,PARKING_TARGET);
 593:protocol.c    ****             }
 594:protocol.c    **** 
 595:protocol.c    ****             // Execute slow pull-out parking retract motion. Parking requires homing enabled, the
 596:protocol.c    ****             // current location not exceeding the parking target location, and laser mode disabled.
 597:protocol.c    ****             // NOTE: State is will remain DOOR, until the de-energizing and retract is complete.
 598:protocol.c    ****             if ((bit_istrue(settings.flags,BITFLAG_HOMING_ENABLE)) &&
 599:protocol.c    ****                             (parking_target[PARKING_AXIS] < PARKING_TARGET) &&
 600:protocol.c    ****                             bit_isfalse(settings.flags,BITFLAG_LASER_MODE)) {
 601:protocol.c    **** 
 602:protocol.c    ****               // Retract spindle by pullout distance. Ensure retraction motion moves away from
 603:protocol.c    ****               // the workpiece and waypoint motion doesn't exceed the parking target location.
 604:protocol.c    ****               if (parking_target[PARKING_AXIS] < retract_waypoint) {
 605:protocol.c    ****                 parking_target[PARKING_AXIS] = retract_waypoint;
 606:protocol.c    ****                 pl_data->feed_rate = PARKING_PULLOUT_RATE;
 607:protocol.c    ****                 pl_data->condition |= (restore_condition & PL_COND_ACCESSORY_MASK); // Retain acces
 608:protocol.c    ****                 pl_data->spindle_speed = restore_spindle_speed;
 609:protocol.c    ****                 mc_parking_motion(parking_target, pl_data);
 610:protocol.c    ****               }
 611:protocol.c    **** 
 612:protocol.c    ****               // NOTE: Clear accessory state after retract and after an aborted restore motion.
 613:protocol.c    ****               pl_data->condition = (PL_COND_FLAG_SYSTEM_MOTION|PL_COND_FLAG_NO_FEED_OVERRIDE);
 614:protocol.c    ****               pl_data->spindle_speed = 0.0;
 615:protocol.c    ****               spindle_set_state(SPINDLE_DISABLE,0.0); // De-energize
 616:protocol.c    ****               coolant_set_state(COOLANT_DISABLE); // De-energize
 617:protocol.c    **** 
 618:protocol.c    ****               // Execute fast parking retract motion to parking target location.
 619:protocol.c    ****               if (parking_target[PARKING_AXIS] < PARKING_TARGET) {
 620:protocol.c    ****                 parking_target[PARKING_AXIS] = PARKING_TARGET;
 621:protocol.c    ****                 pl_data->feed_rate = PARKING_RATE;
 622:protocol.c    ****                 mc_parking_motion(parking_target, pl_data);
 623:protocol.c    ****               }
 624:protocol.c    **** 
 625:protocol.c    ****             } else {
 626:protocol.c    **** 
ARM GAS  C:\Users\Bart\AppData\Local\Temp\ccmDaNpC.s 			page 27


 627:protocol.c    ****               // Parking motion not possible. Just disable the spindle and coolant.
 628:protocol.c    ****               // NOTE: Laser mode does not start a parking motion to ensure the laser stops immedia
 629:protocol.c    ****               spindle_set_state(SPINDLE_DISABLE,0.0); // De-energize
 630:protocol.c    ****               coolant_set_state(COOLANT_DISABLE);     // De-energize
 631:protocol.c    **** 
 632:protocol.c    ****             }
 633:protocol.c    **** 
 634:protocol.c    ****           #endif
 635:protocol.c    **** 
 636:protocol.c    ****           sys.suspend &= ~(SUSPEND_RESTART_RETRACT);
 854              		.loc 1 636 0
 855 0064 B378     		ldrb	r3, [r6, #2]	@ zero_extendqisi2
 856 0066 03F0FD03 		and	r3, r3, #253
 637:protocol.c    ****           sys.suspend |= SUSPEND_RETRACT_COMPLETE;
 857              		.loc 1 637 0
 858 006a 43F00403 		orr	r3, r3, #4
 859 006e B370     		strb	r3, [r6, #2]
 860 0070 AAE0     		b	.L73
 861              	.L75:
 638:protocol.c    **** 
 639:protocol.c    ****         } else {
 640:protocol.c    **** 
 641:protocol.c    ****           
 642:protocol.c    ****           if (sys.state == STATE_SLEEP) {
 862              		.loc 1 642 0
 863 0072 802A     		cmp	r2, #128
 864 0074 13D1     		bne	.L76
 643:protocol.c    ****             report_feedback_message(MESSAGE_SLEEP_MODE);
 865              		.loc 1 643 0
 866 0076 0B20     		movs	r0, #11
 867 0078 FFF7FEFF 		bl	report_feedback_message
 868              	.LVL80:
 644:protocol.c    ****             // Spindle and coolant should already be stopped, but do it again just to be sure.
 645:protocol.c    ****             spindle_set_state(SPINDLE_DISABLE,0.0); // De-energize
 869              		.loc 1 645 0
 870 007c 0020     		movs	r0, #0
 871 007e 0021     		movs	r1, #0
 872 0080 FFF7FEFF 		bl	spindle_set_state
 873              	.LVL81:
 646:protocol.c    ****             coolant_set_state(COOLANT_DISABLE); // De-energize
 874              		.loc 1 646 0
 875 0084 0020     		movs	r0, #0
 876 0086 FFF7FEFF 		bl	coolant_set_state
 877              	.LVL82:
 647:protocol.c    ****             st_go_idle(); // Disable steppers
 878              		.loc 1 647 0
 879 008a FFF7FEFF 		bl	st_go_idle
 880              	.LVL83:
 648:protocol.c    ****             while (!(sys.abort)) { protocol_exec_rt_system(); } // Do nothing until reset.
 881              		.loc 1 648 0
 882 008e 01E0     		b	.L77
 883              	.L78:
 884              		.loc 1 648 0 is_stmt 0 discriminator 2
 885 0090 FFF7FEFF 		bl	protocol_exec_rt_system
 886              	.LVL84:
 887              	.L77:
 888              		.loc 1 648 0 discriminator 1
ARM GAS  C:\Users\Bart\AppData\Local\Temp\ccmDaNpC.s 			page 28


 889 0094 524B     		ldr	r3, .L91+8
 890 0096 5B78     		ldrb	r3, [r3, #1]	@ zero_extendqisi2
 891 0098 002B     		cmp	r3, #0
 892 009a F9D0     		beq	.L78
 893 009c F8BD     		pop	{r3, r4, r5, r6, r7, pc}
 894              	.LVL85:
 895              	.L76:
 649:protocol.c    ****             return; // Abort received. Return to re-initialize.
 650:protocol.c    ****           }    
 651:protocol.c    ****           
 652:protocol.c    ****           // Allows resuming from parking/safety door. Actively checks if safety door is closed and
 653:protocol.c    ****           if (sys.state == STATE_SAFETY_DOOR) {
 896              		.loc 1 653 0 is_stmt 1
 897 009e 402A     		cmp	r2, #64
 898 00a0 07D1     		bne	.L79
 654:protocol.c    ****             if (!(system_check_safety_door_ajar())) {
 899              		.loc 1 654 0
 900 00a2 FFF7FEFF 		bl	system_check_safety_door_ajar
 901              	.LVL86:
 902 00a6 20B9     		cbnz	r0, .L79
 655:protocol.c    ****               sys.suspend &= ~(SUSPEND_SAFETY_DOOR_AJAR); // Reset door ajar flag to denote ready t
 903              		.loc 1 655 0
 904 00a8 4D4A     		ldr	r2, .L91+8
 905 00aa 9378     		ldrb	r3, [r2, #2]	@ zero_extendqisi2
 906 00ac 23F02003 		bic	r3, r3, #32
 907 00b0 9370     		strb	r3, [r2, #2]
 908              	.L79:
 656:protocol.c    ****             }
 657:protocol.c    ****           }
 658:protocol.c    **** 
 659:protocol.c    ****           // Handles parking restore and safety door resume.
 660:protocol.c    ****           if (sys.suspend & SUSPEND_INITIATE_RESTORE) {
 909              		.loc 1 660 0
 910 00b2 4B4B     		ldr	r3, .L91+8
 911 00b4 9B78     		ldrb	r3, [r3, #2]	@ zero_extendqisi2
 912 00b6 13F0080F 		tst	r3, #8
 913 00ba 00F08580 		beq	.L73
 661:protocol.c    **** 
 662:protocol.c    ****             #ifdef PARKING_ENABLE
 663:protocol.c    ****               // Execute fast restore motion to the pull-out position. Parking requires homing enab
 664:protocol.c    ****               // NOTE: State is will remain DOOR, until the de-energizing and retract is complete.
 665:protocol.c    ****               if ((settings.flags & (BITFLAG_HOMING_ENABLE|BITFLAG_LASER_MODE)) == BITFLAG_HOMING_E
 666:protocol.c    ****                 // Check to ensure the motion doesn't move below pull-out position.
 667:protocol.c    ****                 if (parking_target[PARKING_AXIS] <= PARKING_TARGET) {
 668:protocol.c    ****                   parking_target[PARKING_AXIS] = retract_waypoint;
 669:protocol.c    ****                   pl_data->feed_rate = PARKING_RATE;
 670:protocol.c    ****                   mc_parking_motion(parking_target, pl_data);
 671:protocol.c    ****                 }
 672:protocol.c    ****               }
 673:protocol.c    ****             #endif
 674:protocol.c    **** 
 675:protocol.c    ****             // Delayed Tasks: Restart spindle and coolant, delay to power-up, then resume cycle.
 676:protocol.c    ****             if (gc_state.modal.spindle != SPINDLE_DISABLE) {
 914              		.loc 1 676 0
 915 00be 464A     		ldr	r2, .L91
 916 00c0 527A     		ldrb	r2, [r2, #9]	@ zero_extendqisi2
 917 00c2 C2B1     		cbz	r2, .L80
ARM GAS  C:\Users\Bart\AppData\Local\Temp\ccmDaNpC.s 			page 29


 677:protocol.c    ****               // Block if safety door re-opened during prior restore actions.
 678:protocol.c    ****               if (bit_isfalse(sys.suspend,SUSPEND_RESTART_RETRACT)) {
 918              		.loc 1 678 0
 919 00c4 13F0020F 		tst	r3, #2
 920 00c8 15D1     		bne	.L80
 679:protocol.c    ****                 if (bit_istrue(settings.flags,BITFLAG_LASER_MODE)) {
 921              		.loc 1 679 0
 922 00ca 444B     		ldr	r3, .L91+4
 923 00cc 93F84830 		ldrb	r3, [r3, #72]	@ zero_extendqisi2
 924 00d0 13F0020F 		tst	r3, #2
 925 00d4 05D0     		beq	.L81
 680:protocol.c    ****                   // When in laser mode, ignore spindle spin-up delay. Set to turn on laser when cy
 681:protocol.c    ****                   bit_true(sys.step_control, STEP_CONTROL_UPDATE_SPINDLE_PWM);
 926              		.loc 1 681 0
 927 00d6 424A     		ldr	r2, .L91+8
 928 00d8 1379     		ldrb	r3, [r2, #4]	@ zero_extendqisi2
 929 00da 43F00803 		orr	r3, r3, #8
 930 00de 1371     		strb	r3, [r2, #4]
 931 00e0 09E0     		b	.L80
 932              	.L81:
 682:protocol.c    ****                 } else {
 683:protocol.c    ****                   spindle_set_state((restore_condition & (PL_COND_FLAG_SPINDLE_CW | PL_COND_FLAG_SP
 933              		.loc 1 683 0
 934 00e2 04F03000 		and	r0, r4, #48
 935 00e6 2946     		mov	r1, r5
 936 00e8 FFF7FEFF 		bl	spindle_set_state
 937              	.LVL87:
 684:protocol.c    ****                   delay_sec(SAFETY_DOOR_SPINDLE_DELAY, DELAY_MODE_SYS_SUSPEND);
 938              		.loc 1 684 0
 939 00ec 4FF08140 		mov	r0, #1082130432
 940 00f0 0121     		movs	r1, #1
 941 00f2 FFF7FEFF 		bl	delay_sec
 942              	.LVL88:
 943              	.L80:
 685:protocol.c    ****                 }
 686:protocol.c    ****               }
 687:protocol.c    ****             }
 688:protocol.c    ****             if (gc_state.modal.coolant != COOLANT_DISABLE) {
 944              		.loc 1 688 0
 945 00f6 384B     		ldr	r3, .L91
 946 00f8 1B7A     		ldrb	r3, [r3, #8]	@ zero_extendqisi2
 947 00fa 6BB1     		cbz	r3, .L82
 689:protocol.c    ****               // Block if safety door re-opened during prior restore actions.
 690:protocol.c    ****               if (bit_isfalse(sys.suspend,SUSPEND_RESTART_RETRACT)) {
 948              		.loc 1 690 0
 949 00fc 384B     		ldr	r3, .L91+8
 950 00fe 9B78     		ldrb	r3, [r3, #2]	@ zero_extendqisi2
 951 0100 13F0020F 		tst	r3, #2
 952 0104 08D1     		bne	.L82
 691:protocol.c    ****                 // NOTE: Laser mode will honor this delay. An exhaust system is often controlled by
 692:protocol.c    ****                 coolant_set_state((restore_condition & (PL_COND_FLAG_COOLANT_FLOOD | PL_COND_FLAG_C
 953              		.loc 1 692 0
 954 0106 04F04000 		and	r0, r4, #64
 955 010a FFF7FEFF 		bl	coolant_set_state
 956              	.LVL89:
 693:protocol.c    ****                 delay_sec(SAFETY_DOOR_COOLANT_DELAY, DELAY_MODE_SYS_SUSPEND);
 957              		.loc 1 693 0
ARM GAS  C:\Users\Bart\AppData\Local\Temp\ccmDaNpC.s 			page 30


 958 010e 4FF07E50 		mov	r0, #1065353216
 959 0112 0121     		movs	r1, #1
 960 0114 FFF7FEFF 		bl	delay_sec
 961              	.LVL90:
 962              	.L82:
 694:protocol.c    ****               }
 695:protocol.c    ****             }
 696:protocol.c    **** 
 697:protocol.c    ****             #ifdef PARKING_ENABLE
 698:protocol.c    ****               // Execute slow plunge motion from pull-out position to resume position.
 699:protocol.c    ****               if ((settings.flags & (BITFLAG_HOMING_ENABLE|BITFLAG_LASER_MODE)) == BITFLAG_HOMING_E
 700:protocol.c    ****                 // Block if safety door re-opened during prior restore actions.
 701:protocol.c    ****                 if (bit_isfalse(sys.suspend,SUSPEND_RESTART_RETRACT)) {
 702:protocol.c    ****                   // Regardless if the retract parking motion was a valid/safe motion or not, the
 703:protocol.c    ****                   // restore parking motion should logically be valid, either by returning to the
 704:protocol.c    ****                   // original position through valid machine space or by not moving at all.
 705:protocol.c    ****                   pl_data->feed_rate = PARKING_PULLOUT_RATE;
 706:protocol.c    **** 									pl_data->condition |= (restore_condition & PL_COND_ACCESSORY_MASK); // Restore accessory s
 707:protocol.c    **** 									pl_data->spindle_speed = restore_spindle_speed;
 708:protocol.c    ****                   mc_parking_motion(restore_target, pl_data);
 709:protocol.c    ****                 }
 710:protocol.c    ****               }
 711:protocol.c    ****             #endif
 712:protocol.c    **** 
 713:protocol.c    ****             if (bit_isfalse(sys.suspend,SUSPEND_RESTART_RETRACT)) {
 963              		.loc 1 713 0
 964 0118 314B     		ldr	r3, .L91+8
 965 011a 9B78     		ldrb	r3, [r3, #2]	@ zero_extendqisi2
 966 011c 13F0020F 		tst	r3, #2
 967 0120 52D1     		bne	.L73
 714:protocol.c    ****               sys.suspend |= SUSPEND_RESTORE_COMPLETE;
 968              		.loc 1 714 0
 969 0122 43F01003 		orr	r3, r3, #16
 970 0126 2E4A     		ldr	r2, .L91+8
 971 0128 9370     		strb	r3, [r2, #2]
 715:protocol.c    ****               system_set_exec_state_flag(EXEC_CYCLE_START); // Set to resume program.
 972              		.loc 1 715 0
 973 012a 0220     		movs	r0, #2
 974 012c FFF7FEFF 		bl	system_set_exec_state_flag
 975              	.LVL91:
 976 0130 4AE0     		b	.L73
 977              	.L74:
 716:protocol.c    ****             }
 717:protocol.c    ****           }
 718:protocol.c    **** 
 719:protocol.c    ****         }
 720:protocol.c    **** 
 721:protocol.c    **** 
 722:protocol.c    ****       } else {
 723:protocol.c    **** 
 724:protocol.c    ****         // Feed hold manager. Controls spindle stop override states.
 725:protocol.c    ****         // NOTE: Hold ensured as completed by condition check at the beginning of suspend routine.
 726:protocol.c    ****         if (sys.spindle_stop_ovr) {
 978              		.loc 1 726 0
 979 0132 2B4B     		ldr	r3, .L91+8
 980 0134 9B7A     		ldrb	r3, [r3, #10]	@ zero_extendqisi2
 981 0136 002B     		cmp	r3, #0
ARM GAS  C:\Users\Bart\AppData\Local\Temp\ccmDaNpC.s 			page 31


 982 0138 37D0     		beq	.L83
 727:protocol.c    ****           // Handles beginning of spindle stop
 728:protocol.c    ****           if (sys.spindle_stop_ovr & SPINDLE_STOP_OVR_INITIATE) {
 983              		.loc 1 728 0
 984 013a 13F0020F 		tst	r3, #2
 985 013e 0ED0     		beq	.L84
 729:protocol.c    ****             if (gc_state.modal.spindle != SPINDLE_DISABLE) {
 986              		.loc 1 729 0
 987 0140 254B     		ldr	r3, .L91
 988 0142 5B7A     		ldrb	r3, [r3, #9]	@ zero_extendqisi2
 989 0144 3BB1     		cbz	r3, .L85
 730:protocol.c    ****               spindle_set_state(SPINDLE_DISABLE,0.0); // De-energize
 990              		.loc 1 730 0
 991 0146 0020     		movs	r0, #0
 992 0148 0021     		movs	r1, #0
 993 014a FFF7FEFF 		bl	spindle_set_state
 994              	.LVL92:
 731:protocol.c    ****               sys.spindle_stop_ovr = SPINDLE_STOP_OVR_ENABLED; // Set stop override state to enable
 995              		.loc 1 731 0
 996 014e 0122     		movs	r2, #1
 997 0150 234B     		ldr	r3, .L91+8
 998 0152 9A72     		strb	r2, [r3, #10]
 999 0154 38E0     		b	.L73
 1000              	.L85:
 732:protocol.c    ****             } else {
 733:protocol.c    ****               sys.spindle_stop_ovr = SPINDLE_STOP_OVR_DISABLED; // Clear stop override state
 1001              		.loc 1 733 0
 1002 0156 0022     		movs	r2, #0
 1003 0158 214B     		ldr	r3, .L91+8
 1004 015a 9A72     		strb	r2, [r3, #10]
 1005 015c 34E0     		b	.L73
 1006              	.L84:
 734:protocol.c    ****             }
 735:protocol.c    ****           // Handles restoring of spindle state
 736:protocol.c    ****           } else if (sys.spindle_stop_ovr & (SPINDLE_STOP_OVR_RESTORE | SPINDLE_STOP_OVR_RESTORE_CY
 1007              		.loc 1 736 0
 1008 015e 13F00C0F 		tst	r3, #12
 1009 0162 31D0     		beq	.L73
 737:protocol.c    ****             if (gc_state.modal.spindle != SPINDLE_DISABLE) {
 1010              		.loc 1 737 0
 1011 0164 1C4B     		ldr	r3, .L91
 1012 0166 5B7A     		ldrb	r3, [r3, #9]	@ zero_extendqisi2
 1013 0168 9BB1     		cbz	r3, .L86
 738:protocol.c    ****               report_feedback_message(MESSAGE_SPINDLE_RESTORE);
 1014              		.loc 1 738 0
 1015 016a 0A20     		movs	r0, #10
 1016 016c FFF7FEFF 		bl	report_feedback_message
 1017              	.LVL93:
 739:protocol.c    ****               if (bit_istrue(settings.flags,BITFLAG_LASER_MODE)) {
 1018              		.loc 1 739 0
 1019 0170 1A4B     		ldr	r3, .L91+4
 1020 0172 93F84830 		ldrb	r3, [r3, #72]	@ zero_extendqisi2
 1021 0176 13F0020F 		tst	r3, #2
 1022 017a 05D0     		beq	.L87
 740:protocol.c    ****                 // When in laser mode, ignore spindle spin-up delay. Set to turn on laser when cycl
 741:protocol.c    ****                 bit_true(sys.step_control, STEP_CONTROL_UPDATE_SPINDLE_PWM);
 1023              		.loc 1 741 0
ARM GAS  C:\Users\Bart\AppData\Local\Temp\ccmDaNpC.s 			page 32


 1024 017c 184A     		ldr	r2, .L91+8
 1025 017e 1379     		ldrb	r3, [r2, #4]	@ zero_extendqisi2
 1026 0180 43F00803 		orr	r3, r3, #8
 1027 0184 1371     		strb	r3, [r2, #4]
 1028 0186 04E0     		b	.L86
 1029              	.L87:
 742:protocol.c    ****               } else {
 743:protocol.c    ****                 spindle_set_state((restore_condition & (PL_COND_FLAG_SPINDLE_CW | PL_COND_FLAG_SPIN
 1030              		.loc 1 743 0
 1031 0188 04F03000 		and	r0, r4, #48
 1032 018c 2946     		mov	r1, r5
 1033 018e FFF7FEFF 		bl	spindle_set_state
 1034              	.LVL94:
 1035              	.L86:
 744:protocol.c    ****               }
 745:protocol.c    ****             }
 746:protocol.c    ****             if (sys.spindle_stop_ovr & SPINDLE_STOP_OVR_RESTORE_CYCLE) {
 1036              		.loc 1 746 0
 1037 0192 134B     		ldr	r3, .L91+8
 1038 0194 9B7A     		ldrb	r3, [r3, #10]	@ zero_extendqisi2
 1039 0196 13F0080F 		tst	r3, #8
 1040 019a 02D0     		beq	.L88
 747:protocol.c    ****               system_set_exec_state_flag(EXEC_CYCLE_START);  // Set to resume program.
 1041              		.loc 1 747 0
 1042 019c 0220     		movs	r0, #2
 1043 019e FFF7FEFF 		bl	system_set_exec_state_flag
 1044              	.LVL95:
 1045              	.L88:
 748:protocol.c    ****             }
 749:protocol.c    ****             sys.spindle_stop_ovr = SPINDLE_STOP_OVR_DISABLED; // Clear stop override state
 1046              		.loc 1 749 0
 1047 01a2 0022     		movs	r2, #0
 1048 01a4 0E4B     		ldr	r3, .L91+8
 1049 01a6 9A72     		strb	r2, [r3, #10]
 1050 01a8 0EE0     		b	.L73
 1051              	.L83:
 750:protocol.c    ****           }
 751:protocol.c    ****         } else {
 752:protocol.c    ****           // Handles spindle state during hold. NOTE: Spindle speed overrides may be altered during
 753:protocol.c    ****           // NOTE: STEP_CONTROL_UPDATE_SPINDLE_PWM is automatically reset upon resume in step gener
 754:protocol.c    ****           if (bit_istrue(sys.step_control, STEP_CONTROL_UPDATE_SPINDLE_PWM)) {
 1052              		.loc 1 754 0
 1053 01aa 0D4B     		ldr	r3, .L91+8
 1054 01ac 1B79     		ldrb	r3, [r3, #4]	@ zero_extendqisi2
 1055 01ae 13F0080F 		tst	r3, #8
 1056 01b2 09D0     		beq	.L73
 755:protocol.c    ****             spindle_set_state((restore_condition & (PL_COND_FLAG_SPINDLE_CW | PL_COND_FLAG_SPINDLE_
 1057              		.loc 1 755 0
 1058 01b4 04F03000 		and	r0, r4, #48
 1059 01b8 2946     		mov	r1, r5
 1060 01ba FFF7FEFF 		bl	spindle_set_state
 1061              	.LVL96:
 756:protocol.c    ****             bit_false(sys.step_control, STEP_CONTROL_UPDATE_SPINDLE_PWM);
 1062              		.loc 1 756 0
 1063 01be 084A     		ldr	r2, .L91+8
 1064 01c0 1379     		ldrb	r3, [r2, #4]	@ zero_extendqisi2
 1065 01c2 23F00803 		bic	r3, r3, #8
ARM GAS  C:\Users\Bart\AppData\Local\Temp\ccmDaNpC.s 			page 33


 1066 01c6 1371     		strb	r3, [r2, #4]
 1067              	.L73:
 757:protocol.c    ****           }
 758:protocol.c    ****         }
 759:protocol.c    **** 
 760:protocol.c    ****       }
 761:protocol.c    ****     }
 762:protocol.c    **** 
 763:protocol.c    ****     protocol_exec_rt_system();
 1068              		.loc 1 763 0
 1069 01c8 FFF7FEFF 		bl	protocol_exec_rt_system
 1070              	.LVL97:
 1071              	.L71:
 563:protocol.c    **** 
 1072              		.loc 1 563 0
 1073 01cc 044B     		ldr	r3, .L91+8
 1074 01ce 9B78     		ldrb	r3, [r3, #2]	@ zero_extendqisi2
 1075 01d0 002B     		cmp	r3, #0
 1076 01d2 7FF42CAF 		bne	.L89
 1077              	.L67:
 1078 01d6 F8BD     		pop	{r3, r4, r5, r6, r7, pc}
 1079              	.LVL98:
 1080              	.L92:
 1081              		.align	2
 1082              	.L91:
 1083 01d8 00000000 		.word	gc_state
 1084 01dc 00000000 		.word	settings
 1085 01e0 00000000 		.word	sys
 1086              		.cfi_endproc
 1087              	.LFE68:
 1088              		.size	protocol_exec_rt_suspend, .-protocol_exec_rt_suspend
 1089              		.section	.text.protocol_execute_realtime,"ax",%progbits
 1090              		.align	2
 1091              		.global	protocol_execute_realtime
 1092              		.thumb
 1093              		.thumb_func
 1094              		.type	protocol_execute_realtime, %function
 1095              	protocol_execute_realtime:
 1096              	.LFB66:
 214:protocol.c    ****   protocol_exec_rt_system();
 1097              		.loc 1 214 0
 1098              		.cfi_startproc
 1099              		@ args = 0, pretend = 0, frame = 0
 1100              		@ frame_needed = 0, uses_anonymous_args = 0
 1101 0000 08B5     		push	{r3, lr}
 1102              		.cfi_def_cfa_offset 8
 1103              		.cfi_offset 3, -8
 1104              		.cfi_offset 14, -4
 215:protocol.c    ****   if (sys.suspend) { protocol_exec_rt_suspend(); }
 1105              		.loc 1 215 0
 1106 0002 FFF7FEFF 		bl	protocol_exec_rt_system
 1107              	.LVL99:
 216:protocol.c    ****   
 1108              		.loc 1 216 0
 1109 0006 074B     		ldr	r3, .L97
 1110 0008 9B78     		ldrb	r3, [r3, #2]	@ zero_extendqisi2
 1111 000a 0BB1     		cbz	r3, .L94
ARM GAS  C:\Users\Bart\AppData\Local\Temp\ccmDaNpC.s 			page 34


 216:protocol.c    ****   
 1112              		.loc 1 216 0 is_stmt 0 discriminator 1
 1113 000c FFF7FEFF 		bl	protocol_exec_rt_suspend
 1114              	.LVL100:
 1115              	.L94:
 219:protocol.c    ****       lcd_report_realtime(); 
 1116              		.loc 1 219 0 is_stmt 1
 1117 0010 054B     		ldr	r3, .L97+4
 1118 0012 1B78     		ldrb	r3, [r3]	@ zero_extendqisi2
 1119 0014 23B1     		cbz	r3, .L93
 220:protocol.c    ****       exec_lcd_status = false;
 1120              		.loc 1 220 0
 1121 0016 FFF7FEFF 		bl	lcd_report_realtime
 1122              	.LVL101:
 221:protocol.c    ****     }
 1123              		.loc 1 221 0
 1124 001a 0022     		movs	r2, #0
 1125 001c 024B     		ldr	r3, .L97+4
 1126 001e 1A70     		strb	r2, [r3]
 1127              	.L93:
 1128 0020 08BD     		pop	{r3, pc}
 1129              	.L98:
 1130 0022 00BF     		.align	2
 1131              	.L97:
 1132 0024 00000000 		.word	sys
 1133 0028 00000000 		.word	exec_lcd_status
 1134              		.cfi_endproc
 1135              	.LFE66:
 1136              		.size	protocol_execute_realtime, .-protocol_execute_realtime
 1137              		.section	.text.protocol_main_loop,"ax",%progbits
 1138              		.align	2
 1139              		.global	protocol_main_loop
 1140              		.thumb
 1141              		.thumb_func
 1142              		.type	protocol_main_loop, %function
 1143              	protocol_main_loop:
 1144              	.LFB63:
  39:protocol.c    ****   // Perform some machine checks to make sure everything is good to go.
 1145              		.loc 1 39 0
 1146              		.cfi_startproc
 1147              		@ args = 0, pretend = 0, frame = 0
 1148              		@ frame_needed = 0, uses_anonymous_args = 0
 1149 0000 38B5     		push	{r3, r4, r5, lr}
 1150              		.cfi_def_cfa_offset 16
 1151              		.cfi_offset 3, -16
 1152              		.cfi_offset 4, -12
 1153              		.cfi_offset 5, -8
 1154              		.cfi_offset 14, -4
  42:protocol.c    ****       if (limits_get_state()) {
 1155              		.loc 1 42 0
 1156 0002 554B     		ldr	r3, .L121
 1157 0004 93F84830 		ldrb	r3, [r3, #72]	@ zero_extendqisi2
 1158 0008 13F0080F 		tst	r3, #8
 1159 000c 08D0     		beq	.L100
  43:protocol.c    ****         sys.state = STATE_ALARM; // Ensure alarm state is active.
 1160              		.loc 1 43 0
 1161 000e FFF7FEFF 		bl	limits_get_state
ARM GAS  C:\Users\Bart\AppData\Local\Temp\ccmDaNpC.s 			page 35


 1162              	.LVL102:
 1163 0012 28B1     		cbz	r0, .L100
  44:protocol.c    ****         report_feedback_message(MESSAGE_CHECK_LIMITS);
 1164              		.loc 1 44 0
 1165 0014 0122     		movs	r2, #1
 1166 0016 514B     		ldr	r3, .L121+4
 1167 0018 1A70     		strb	r2, [r3]
  45:protocol.c    ****       }
 1168              		.loc 1 45 0
 1169 001a 0720     		movs	r0, #7
 1170 001c FFF7FEFF 		bl	report_feedback_message
 1171              	.LVL103:
 1172              	.L100:
  52:protocol.c    ****     report_feedback_message(MESSAGE_ALARM_LOCK);
 1173              		.loc 1 52 0
 1174 0020 4E4B     		ldr	r3, .L121+4
 1175 0022 1B78     		ldrb	r3, [r3]	@ zero_extendqisi2
 1176 0024 13F0810F 		tst	r3, #129
 1177 0028 08D0     		beq	.L101
  53:protocol.c    ****     sys.state = STATE_ALARM; // Ensure alarm state is set.
 1178              		.loc 1 53 0
 1179 002a 0220     		movs	r0, #2
 1180 002c FFF7FEFF 		bl	report_feedback_message
 1181              	.LVL104:
  54:protocol.c    ****   } else {
 1182              		.loc 1 54 0
 1183 0030 0122     		movs	r2, #1
 1184 0032 4A4B     		ldr	r3, .L121+4
 1185 0034 1A70     		strb	r2, [r3]
 1186              	.L104:
 108:protocol.c    ****         char_counter = 0;
 1187              		.loc 1 108 0
 1188 0036 0025     		movs	r5, #0
 1189 0038 2C46     		mov	r4, r5
 1190 003a 7FE0     		b	.L102
 1191              	.L101:
  57:protocol.c    ****     if (system_check_safety_door_ajar()) {
 1192              		.loc 1 57 0
 1193 003c 0022     		movs	r2, #0
 1194 003e 474B     		ldr	r3, .L121+4
 1195 0040 1A70     		strb	r2, [r3]
  58:protocol.c    ****       bit_true(sys_rt_exec_state, EXEC_SAFETY_DOOR);
 1196              		.loc 1 58 0
 1197 0042 FFF7FEFF 		bl	system_check_safety_door_ajar
 1198              	.LVL105:
 1199 0046 30B1     		cbz	r0, .L103
  59:protocol.c    ****       protocol_execute_realtime(); // Enter safety door mode. Should return as IDLE state.
 1200              		.loc 1 59 0
 1201 0048 454A     		ldr	r2, .L121+8
 1202 004a 1378     		ldrb	r3, [r2]	@ zero_extendqisi2
 1203 004c 43F02003 		orr	r3, r3, #32
 1204 0050 1370     		strb	r3, [r2]
  60:protocol.c    ****     }
 1205              		.loc 1 60 0
 1206 0052 FFF7FEFF 		bl	protocol_execute_realtime
 1207              	.LVL106:
 1208              	.L103:
ARM GAS  C:\Users\Bart\AppData\Local\Temp\ccmDaNpC.s 			page 36


  63:protocol.c    ****   }
 1209              		.loc 1 63 0
 1210 0056 4348     		ldr	r0, .L121+12
 1211 0058 FFF7FEFF 		bl	system_execute_startup
 1212              	.LVL107:
 1213 005c EBE7     		b	.L104
 1214              	.LVL108:
 1215              	.L119:
  79:protocol.c    **** 
 1216              		.loc 1 79 0
 1217 005e 0A28     		cmp	r0, #10
 1218 0060 01D0     		beq	.L105
  79:protocol.c    **** 
 1219              		.loc 1 79 0 is_stmt 0 discriminator 1
 1220 0062 0D28     		cmp	r0, #13
 1221 0064 37D1     		bne	.L106
 1222              	.L105:
  81:protocol.c    ****         if (sys.abort) { return; } // Bail to calling function upon system abort
 1223              		.loc 1 81 0 is_stmt 1
 1224 0066 FFF7FEFF 		bl	protocol_execute_realtime
 1225              	.LVL109:
  82:protocol.c    **** 
 1226              		.loc 1 82 0
 1227 006a 3C4B     		ldr	r3, .L121+4
 1228 006c 5B78     		ldrb	r3, [r3, #1]	@ zero_extendqisi2
 1229 006e 002B     		cmp	r3, #0
 1230 0070 70D1     		bne	.L99
  84:protocol.c    ****         #ifdef REPORT_ECHO_LINE_RECEIVED
 1231              		.loc 1 84 0
 1232 0072 0022     		movs	r2, #0
 1233 0074 3B4B     		ldr	r3, .L121+12
 1234 0076 5A55     		strb	r2, [r3, r5]
  90:protocol.c    ****           // Report line overflow error.
 1235              		.loc 1 90 0
 1236 0078 14F0010F 		tst	r4, #1
 1237 007c 05D0     		beq	.L108
  92:protocol.c    ****         } else if (line[0] == 0) {
 1238              		.loc 1 92 0
 1239 007e 0B20     		movs	r0, #11
 1240 0080 FFF7FEFF 		bl	report_status_message
 1241              	.LVL110:
 109:protocol.c    **** 
 1242              		.loc 1 109 0
 1243 0084 0025     		movs	r5, #0
 1244              	.LVL111:
 108:protocol.c    ****         char_counter = 0;
 1245              		.loc 1 108 0
 1246 0086 2C46     		mov	r4, r5
 1247              	.LVL112:
 1248 0088 50E0     		b	.L109
 1249              	.LVL113:
 1250              	.L108:
  93:protocol.c    ****           // Empty or comment line. For syncing purposes.
 1251              		.loc 1 93 0
 1252 008a 364B     		ldr	r3, .L121+12
 1253 008c 1B78     		ldrb	r3, [r3]	@ zero_extendqisi2
 1254 008e 2BB9     		cbnz	r3, .L110
ARM GAS  C:\Users\Bart\AppData\Local\Temp\ccmDaNpC.s 			page 37


  95:protocol.c    ****         } else if (line[0] == '$') {
 1255              		.loc 1 95 0
 1256 0090 0020     		movs	r0, #0
 1257 0092 FFF7FEFF 		bl	report_status_message
 1258              	.LVL114:
 109:protocol.c    **** 
 1259              		.loc 1 109 0
 1260 0096 0025     		movs	r5, #0
 1261              	.LVL115:
 108:protocol.c    ****         char_counter = 0;
 1262              		.loc 1 108 0
 1263 0098 2C46     		mov	r4, r5
 1264              	.LVL116:
 1265 009a 47E0     		b	.L109
 1266              	.LVL117:
 1267              	.L110:
  96:protocol.c    ****           // Grbl '$' system command
 1268              		.loc 1 96 0
 1269 009c 242B     		cmp	r3, #36
 1270 009e 07D1     		bne	.L111
  98:protocol.c    ****         } else if (sys.state & (STATE_ALARM | STATE_JOG)) {
 1271              		.loc 1 98 0
 1272 00a0 3048     		ldr	r0, .L121+12
 1273 00a2 FFF7FEFF 		bl	system_execute_line
 1274              	.LVL118:
 1275 00a6 FFF7FEFF 		bl	report_status_message
 1276              	.LVL119:
 109:protocol.c    **** 
 1277              		.loc 1 109 0
 1278 00aa 0025     		movs	r5, #0
 1279              	.LVL120:
 108:protocol.c    ****         char_counter = 0;
 1280              		.loc 1 108 0
 1281 00ac 2C46     		mov	r4, r5
 1282              	.LVL121:
 1283 00ae 3DE0     		b	.L109
 1284              	.LVL122:
 1285              	.L111:
  99:protocol.c    ****           // Everything else is gcode. Block if in alarm or jog mode.
 1286              		.loc 1 99 0
 1287 00b0 2A4B     		ldr	r3, .L121+4
 1288 00b2 1B78     		ldrb	r3, [r3]	@ zero_extendqisi2
 1289 00b4 13F0210F 		tst	r3, #33
 1290 00b8 05D0     		beq	.L112
 101:protocol.c    ****         } else {
 1291              		.loc 1 101 0
 1292 00ba 0920     		movs	r0, #9
 1293 00bc FFF7FEFF 		bl	report_status_message
 1294              	.LVL123:
 109:protocol.c    **** 
 1295              		.loc 1 109 0
 1296 00c0 0025     		movs	r5, #0
 1297              	.LVL124:
 108:protocol.c    ****         char_counter = 0;
 1298              		.loc 1 108 0
 1299 00c2 2C46     		mov	r4, r5
 1300              	.LVL125:
ARM GAS  C:\Users\Bart\AppData\Local\Temp\ccmDaNpC.s 			page 38


 1301 00c4 32E0     		b	.L109
 1302              	.LVL126:
 1303              	.L112:
 104:protocol.c    ****         }
 1304              		.loc 1 104 0
 1305 00c6 2748     		ldr	r0, .L121+12
 1306 00c8 FFF7FEFF 		bl	gc_execute_line
 1307              	.LVL127:
 1308 00cc FFF7FEFF 		bl	report_status_message
 1309              	.LVL128:
 109:protocol.c    **** 
 1310              		.loc 1 109 0
 1311 00d0 0025     		movs	r5, #0
 1312              	.LVL129:
 108:protocol.c    ****         char_counter = 0;
 1313              		.loc 1 108 0
 1314 00d2 2C46     		mov	r4, r5
 1315              	.LVL130:
 1316 00d4 2AE0     		b	.L109
 1317              	.LVL131:
 1318              	.L106:
 113:protocol.c    ****           // Throw away all (except EOL) comment characters and overflow characters.
 1319              		.loc 1 113 0
 1320 00d6 3CB1     		cbz	r4, .L113
 115:protocol.c    ****             // End of '()' comment. Resume line allowed.
 1321              		.loc 1 115 0
 1322 00d8 2928     		cmp	r0, #41
 1323 00da 27D1     		bne	.L109
 117:protocol.c    ****           }
 1324              		.loc 1 117 0
 1325 00dc 14F0020F 		tst	r4, #2
 1326 00e0 24D0     		beq	.L109
 117:protocol.c    ****           }
 1327              		.loc 1 117 0 is_stmt 0 discriminator 1
 1328 00e2 04F0FD04 		and	r4, r4, #253
 1329              	.LVL132:
 1330 00e6 21E0     		b	.L109
 1331              	.L113:
 120:protocol.c    ****             // Throw away whitepace and control characters
 1332              		.loc 1 120 0 is_stmt 1
 1333 00e8 2028     		cmp	r0, #32
 1334 00ea 1FD9     		bls	.L109
 122:protocol.c    ****             // Block delete NOT SUPPORTED. Ignore character.
 1335              		.loc 1 122 0
 1336 00ec 2F28     		cmp	r0, #47
 1337 00ee 1DD0     		beq	.L109
 125:protocol.c    ****             // Enable comments flag and ignore all characters until ')' or EOL.
 1338              		.loc 1 125 0
 1339 00f0 2828     		cmp	r0, #40
 1340 00f2 02D1     		bne	.L114
 130:protocol.c    ****           } else if (c == ';') {
 1341              		.loc 1 130 0
 1342 00f4 44F00204 		orr	r4, r4, #2
 1343              	.LVL133:
 1344 00f8 18E0     		b	.L109
 1345              	.L114:
 131:protocol.c    ****             // NOTE: ';' comment to EOL is a LinuxCNC definition. Not NIST.
ARM GAS  C:\Users\Bart\AppData\Local\Temp\ccmDaNpC.s 			page 39


 1346              		.loc 1 131 0
 1347 00fa 3B28     		cmp	r0, #59
 1348 00fc 02D1     		bne	.L115
 133:protocol.c    ****           // TODO: Install '%' feature
 1349              		.loc 1 133 0
 1350 00fe 44F00404 		orr	r4, r4, #4
 1351              	.LVL134:
 1352 0102 13E0     		b	.L109
 1353              	.L115:
 141:protocol.c    ****             // Detect line buffer overflow and set flag.
 1354              		.loc 1 141 0
 1355 0104 4E2D     		cmp	r5, #78
 1356 0106 02D9     		bls	.L116
 143:protocol.c    ****           } else if (c >= 'a' && c <= 'z') { // Upcase lowercase
 1357              		.loc 1 143 0
 1358 0108 44F00104 		orr	r4, r4, #1
 1359              	.LVL135:
 1360 010c 0EE0     		b	.L109
 1361              	.L116:
 144:protocol.c    ****             line[char_counter++] = c-'a'+'A';
 1362              		.loc 1 144 0
 1363 010e A0F16103 		sub	r3, r0, #97
 1364 0112 DBB2     		uxtb	r3, r3
 1365 0114 192B     		cmp	r3, #25
 1366 0116 05D8     		bhi	.L117
 145:protocol.c    ****           } else {
 1367              		.loc 1 145 0
 1368 0118 6B1C     		adds	r3, r5, #1
 1369              	.LVL136:
 1370 011a 2038     		subs	r0, r0, #32
 1371              	.LVL137:
 1372 011c 114A     		ldr	r2, .L121+12
 1373 011e 5055     		strb	r0, [r2, r5]
 1374 0120 DDB2     		uxtb	r5, r3
 1375 0122 03E0     		b	.L109
 1376              	.LVL138:
 1377              	.L117:
 147:protocol.c    ****           }
 1378              		.loc 1 147 0
 1379 0124 6B1C     		adds	r3, r5, #1
 1380              	.LVL139:
 1381 0126 0F4A     		ldr	r2, .L121+12
 1382 0128 5055     		strb	r0, [r2, r5]
 1383 012a DDB2     		uxtb	r5, r3
 1384              	.LVL140:
 1385              	.L109:
 154:protocol.c    ****       lcd_report_realtime(); 
 1386              		.loc 1 154 0
 1387 012c 0E4B     		ldr	r3, .L121+16
 1388 012e 1B78     		ldrb	r3, [r3]	@ zero_extendqisi2
 1389 0130 23B1     		cbz	r3, .L102
 155:protocol.c    ****       exec_lcd_status = false;
 1390              		.loc 1 155 0
 1391 0132 FFF7FEFF 		bl	lcd_report_realtime
 1392              	.LVL141:
 156:protocol.c    ****       //printPgmString(PSTR("LCD\r\n"));
 1393              		.loc 1 156 0
ARM GAS  C:\Users\Bart\AppData\Local\Temp\ccmDaNpC.s 			page 40


 1394 0136 0022     		movs	r2, #0
 1395 0138 0B4B     		ldr	r3, .L121+16
 1396 013a 1A70     		strb	r2, [r3]
 1397              	.LVL142:
 1398              	.L102:
  78:protocol.c    ****       if ((c == '\n') || (c == '\r')) { // End of line reached
 1399              		.loc 1 78 0
 1400 013c FFF7FEFF 		bl	serial_read
 1401              	.LVL143:
 1402 0140 FF28     		cmp	r0, #255
 1403 0142 8CD1     		bne	.L119
 165:protocol.c    **** 
 1404              		.loc 1 165 0
 1405 0144 FFF7FEFF 		bl	protocol_auto_cycle_start
 1406              	.LVL144:
 167:protocol.c    ****     if (sys.abort) { return; } // Bail to main() program loop to reset system.
 1407              		.loc 1 167 0
 1408 0148 FFF7FEFF 		bl	protocol_execute_realtime
 1409              	.LVL145:
 168:protocol.c    ****   }
 1410              		.loc 1 168 0
 1411 014c 034B     		ldr	r3, .L121+4
 1412 014e 5B78     		ldrb	r3, [r3, #1]	@ zero_extendqisi2
 1413 0150 002B     		cmp	r3, #0
 1414 0152 F3D0     		beq	.L102
 1415              	.L99:
 1416 0154 38BD     		pop	{r3, r4, r5, pc}
 1417              	.LVL146:
 1418              	.L122:
 1419 0156 00BF     		.align	2
 1420              	.L121:
 1421 0158 00000000 		.word	settings
 1422 015c 00000000 		.word	sys
 1423 0160 00000000 		.word	sys_rt_exec_state
 1424 0164 00000000 		.word	.LANCHOR0
 1425 0168 00000000 		.word	exec_lcd_status
 1426              		.cfi_endproc
 1427              	.LFE63:
 1428              		.size	protocol_main_loop, .-protocol_main_loop
 1429              		.section	.text.protocol_buffer_synchronize,"ax",%progbits
 1430              		.align	2
 1431              		.global	protocol_buffer_synchronize
 1432              		.thumb
 1433              		.thumb_func
 1434              		.type	protocol_buffer_synchronize, %function
 1435              	protocol_buffer_synchronize:
 1436              	.LFB64:
 178:protocol.c    ****   // If system is queued, ensure cycle resumes if the auto start flag is present.
 1437              		.loc 1 178 0
 1438              		.cfi_startproc
 1439              		@ args = 0, pretend = 0, frame = 0
 1440              		@ frame_needed = 0, uses_anonymous_args = 0
 1441 0000 08B5     		push	{r3, lr}
 1442              		.cfi_def_cfa_offset 8
 1443              		.cfi_offset 3, -8
 1444              		.cfi_offset 14, -4
 180:protocol.c    ****   do {
ARM GAS  C:\Users\Bart\AppData\Local\Temp\ccmDaNpC.s 			page 41


 1445              		.loc 1 180 0
 1446 0002 FFF7FEFF 		bl	protocol_auto_cycle_start
 1447              	.LVL147:
 1448              	.L125:
 182:protocol.c    ****     if (sys.abort) { return; } // Check for system abort
 1449              		.loc 1 182 0
 1450 0006 FFF7FEFF 		bl	protocol_execute_realtime
 1451              	.LVL148:
 183:protocol.c    ****   } while (plan_get_current_block() || (sys.state == STATE_CYCLE));
 1452              		.loc 1 183 0
 1453 000a 064B     		ldr	r3, .L127
 1454 000c 5B78     		ldrb	r3, [r3, #1]	@ zero_extendqisi2
 1455 000e 3BB9     		cbnz	r3, .L123
 184:protocol.c    **** }
 1456              		.loc 1 184 0
 1457 0010 FFF7FEFF 		bl	plan_get_current_block
 1458              	.LVL149:
 1459 0014 0028     		cmp	r0, #0
 1460 0016 F6D1     		bne	.L125
 184:protocol.c    **** }
 1461              		.loc 1 184 0 is_stmt 0 discriminator 1
 1462 0018 024B     		ldr	r3, .L127
 1463 001a 1B78     		ldrb	r3, [r3]	@ zero_extendqisi2
 1464 001c 082B     		cmp	r3, #8
 1465 001e F2D0     		beq	.L125
 1466              	.L123:
 1467 0020 08BD     		pop	{r3, pc}
 1468              	.L128:
 1469 0022 00BF     		.align	2
 1470              	.L127:
 1471 0024 00000000 		.word	sys
 1472              		.cfi_endproc
 1473              	.LFE64:
 1474              		.size	protocol_buffer_synchronize, .-protocol_buffer_synchronize
 1475              		.comm	exec_lcd_status,1,1
 1476              		.comm	sys_rt_exec_debug,1,1
 1477              		.comm	sys_rt_exec_accessory_override,1,1
 1478              		.comm	sys_rt_exec_motion_override,1,1
 1479              		.comm	sys_rt_exec_alarm,1,1
 1480              		.comm	sys_rt_exec_state,1,1
 1481              		.comm	sys_probe_state,1,1
 1482              		.comm	sys_probe_position,12,4
 1483              		.comm	sys_position,12,4
 1484              		.bss
 1485              		.align	2
 1486              		.set	.LANCHOR0,. + 0
 1487              		.type	line, %object
 1488              		.size	line, 80
 1489              	line:
 1490 0000 00000000 		.space	80
 1490      00000000 
 1490      00000000 
 1490      00000000 
 1490      00000000 
 1491              		.text
 1492              	.Letext0:
 1493              		.file 2 "d:\\program files (x86)\\cypress\\psoc creator\\4.0\\psoc creator\\import\\gnu\\arm\\4.9.
ARM GAS  C:\Users\Bart\AppData\Local\Temp\ccmDaNpC.s 			page 42


 1494              		.file 3 "d:\\program files (x86)\\cypress\\psoc creator\\4.0\\psoc creator\\import\\gnu\\arm\\4.9.
 1495              		.file 4 "settings.h"
 1496              		.file 5 "system.h"
 1497              		.file 6 "planner.h"
 1498              		.file 7 "gcode.h"
 1499              		.file 8 "Generated_Source\\PSoC5/core_cm3.h"
 1500              		.file 9 "lcd_report.h"
 1501              		.file 10 "coolant_control.h"
 1502              		.file 11 "report.h"
 1503              		.file 12 "stepper.h"
 1504              		.file 13 "spindle_control.h"
 1505              		.file 14 "nuts_bolts.h"
 1506              		.file 15 "./limits.h"
 1507              		.file 16 "serial.h"