ARM GAS  C:\Users\Bart\AppData\Local\Temp\ccA6XIgw.s 			page 1


   1              		.syntax unified
   2              		.cpu cortex-m3
   3              		.fpu softvfp
   4              		.eabi_attribute 20, 1
   5              		.eabi_attribute 21, 1
   6              		.eabi_attribute 23, 3
   7              		.eabi_attribute 24, 1
   8              		.eabi_attribute 25, 1
   9              		.eabi_attribute 26, 1
  10              		.eabi_attribute 30, 1
  11              		.eabi_attribute 34, 1
  12              		.eabi_attribute 18, 4
  13              		.thumb
  14              		.file	"PWM_Spindle_PM.c"
  15              		.text
  16              	.Ltext0:
  17              		.cfi_sections	.debug_frame
  18              		.section	.text.PWM_Spindle_SaveConfig,"ax",%progbits
  19              		.align	2
  20              		.global	PWM_Spindle_SaveConfig
  21              		.thumb
  22              		.thumb_func
  23              		.type	PWM_Spindle_SaveConfig, %function
  24              	PWM_Spindle_SaveConfig:
  25              	.LFB0:
  26              		.file 1 "Generated_Source\\PSoC5\\PWM_Spindle_PM.c"
   1:Generated_Source\PSoC5/PWM_Spindle_PM.c **** /*******************************************************************************
   2:Generated_Source\PSoC5/PWM_Spindle_PM.c **** * File Name: PWM_Spindle_PM.c
   3:Generated_Source\PSoC5/PWM_Spindle_PM.c **** * Version 3.30
   4:Generated_Source\PSoC5/PWM_Spindle_PM.c **** *
   5:Generated_Source\PSoC5/PWM_Spindle_PM.c **** * Description:
   6:Generated_Source\PSoC5/PWM_Spindle_PM.c **** *  This file provides the power management source code to API for the
   7:Generated_Source\PSoC5/PWM_Spindle_PM.c **** *  PWM.
   8:Generated_Source\PSoC5/PWM_Spindle_PM.c **** *
   9:Generated_Source\PSoC5/PWM_Spindle_PM.c **** * Note:
  10:Generated_Source\PSoC5/PWM_Spindle_PM.c **** *
  11:Generated_Source\PSoC5/PWM_Spindle_PM.c **** ********************************************************************************
  12:Generated_Source\PSoC5/PWM_Spindle_PM.c **** * Copyright 2008-2014, Cypress Semiconductor Corporation.  All rights reserved.
  13:Generated_Source\PSoC5/PWM_Spindle_PM.c **** * You may use this file only in accordance with the license, terms, conditions,
  14:Generated_Source\PSoC5/PWM_Spindle_PM.c **** * disclaimers, and limitations in the end user license agreement accompanying
  15:Generated_Source\PSoC5/PWM_Spindle_PM.c **** * the software package with which this file was provided.
  16:Generated_Source\PSoC5/PWM_Spindle_PM.c **** *******************************************************************************/
  17:Generated_Source\PSoC5/PWM_Spindle_PM.c **** 
  18:Generated_Source\PSoC5/PWM_Spindle_PM.c **** #include "PWM_Spindle.h"
  19:Generated_Source\PSoC5/PWM_Spindle_PM.c **** 
  20:Generated_Source\PSoC5/PWM_Spindle_PM.c **** static PWM_Spindle_backupStruct PWM_Spindle_backup;
  21:Generated_Source\PSoC5/PWM_Spindle_PM.c **** 
  22:Generated_Source\PSoC5/PWM_Spindle_PM.c **** 
  23:Generated_Source\PSoC5/PWM_Spindle_PM.c **** /*******************************************************************************
  24:Generated_Source\PSoC5/PWM_Spindle_PM.c **** * Function Name: PWM_Spindle_SaveConfig
  25:Generated_Source\PSoC5/PWM_Spindle_PM.c **** ********************************************************************************
  26:Generated_Source\PSoC5/PWM_Spindle_PM.c **** *
  27:Generated_Source\PSoC5/PWM_Spindle_PM.c **** * Summary:
  28:Generated_Source\PSoC5/PWM_Spindle_PM.c **** *  Saves the current user configuration of the component.
  29:Generated_Source\PSoC5/PWM_Spindle_PM.c **** *
  30:Generated_Source\PSoC5/PWM_Spindle_PM.c **** * Parameters:
  31:Generated_Source\PSoC5/PWM_Spindle_PM.c **** *  None
ARM GAS  C:\Users\Bart\AppData\Local\Temp\ccA6XIgw.s 			page 2


  32:Generated_Source\PSoC5/PWM_Spindle_PM.c **** *
  33:Generated_Source\PSoC5/PWM_Spindle_PM.c **** * Return:
  34:Generated_Source\PSoC5/PWM_Spindle_PM.c **** *  None
  35:Generated_Source\PSoC5/PWM_Spindle_PM.c **** *
  36:Generated_Source\PSoC5/PWM_Spindle_PM.c **** * Global variables:
  37:Generated_Source\PSoC5/PWM_Spindle_PM.c **** *  PWM_Spindle_backup:  Variables of this global structure are modified to
  38:Generated_Source\PSoC5/PWM_Spindle_PM.c **** *  store the values of non retention configuration registers when Sleep() API is
  39:Generated_Source\PSoC5/PWM_Spindle_PM.c **** *  called.
  40:Generated_Source\PSoC5/PWM_Spindle_PM.c **** *
  41:Generated_Source\PSoC5/PWM_Spindle_PM.c **** *******************************************************************************/
  42:Generated_Source\PSoC5/PWM_Spindle_PM.c **** void PWM_Spindle_SaveConfig(void) 
  43:Generated_Source\PSoC5/PWM_Spindle_PM.c **** {
  27              		.loc 1 43 0
  28              		.cfi_startproc
  29              		@ args = 0, pretend = 0, frame = 0
  30              		@ frame_needed = 0, uses_anonymous_args = 0
  31              		@ link register save eliminated.
  32 0000 7047     		bx	lr
  33              		.cfi_endproc
  34              	.LFE0:
  35              		.size	PWM_Spindle_SaveConfig, .-PWM_Spindle_SaveConfig
  36 0002 00BF     		.section	.text.PWM_Spindle_RestoreConfig,"ax",%progbits
  37              		.align	2
  38              		.global	PWM_Spindle_RestoreConfig
  39              		.thumb
  40              		.thumb_func
  41              		.type	PWM_Spindle_RestoreConfig, %function
  42              	PWM_Spindle_RestoreConfig:
  43              	.LFB1:
  44:Generated_Source\PSoC5/PWM_Spindle_PM.c **** 
  45:Generated_Source\PSoC5/PWM_Spindle_PM.c ****     #if(!PWM_Spindle_UsingFixedFunction)
  46:Generated_Source\PSoC5/PWM_Spindle_PM.c ****         #if(!PWM_Spindle_PWMModeIsCenterAligned)
  47:Generated_Source\PSoC5/PWM_Spindle_PM.c ****             PWM_Spindle_backup.PWMPeriod = PWM_Spindle_ReadPeriod();
  48:Generated_Source\PSoC5/PWM_Spindle_PM.c ****         #endif /* (!PWM_Spindle_PWMModeIsCenterAligned) */
  49:Generated_Source\PSoC5/PWM_Spindle_PM.c ****         PWM_Spindle_backup.PWMUdb = PWM_Spindle_ReadCounter();
  50:Generated_Source\PSoC5/PWM_Spindle_PM.c ****         #if (PWM_Spindle_UseStatus)
  51:Generated_Source\PSoC5/PWM_Spindle_PM.c ****             PWM_Spindle_backup.InterruptMaskValue = PWM_Spindle_STATUS_MASK;
  52:Generated_Source\PSoC5/PWM_Spindle_PM.c ****         #endif /* (PWM_Spindle_UseStatus) */
  53:Generated_Source\PSoC5/PWM_Spindle_PM.c **** 
  54:Generated_Source\PSoC5/PWM_Spindle_PM.c ****         #if(PWM_Spindle_DeadBandMode == PWM_Spindle__B_PWM__DBM_256_CLOCKS || \
  55:Generated_Source\PSoC5/PWM_Spindle_PM.c ****             PWM_Spindle_DeadBandMode == PWM_Spindle__B_PWM__DBM_2_4_CLOCKS)
  56:Generated_Source\PSoC5/PWM_Spindle_PM.c ****             PWM_Spindle_backup.PWMdeadBandValue = PWM_Spindle_ReadDeadTime();
  57:Generated_Source\PSoC5/PWM_Spindle_PM.c ****         #endif /*  deadband count is either 2-4 clocks or 256 clocks */
  58:Generated_Source\PSoC5/PWM_Spindle_PM.c **** 
  59:Generated_Source\PSoC5/PWM_Spindle_PM.c ****         #if(PWM_Spindle_KillModeMinTime)
  60:Generated_Source\PSoC5/PWM_Spindle_PM.c ****              PWM_Spindle_backup.PWMKillCounterPeriod = PWM_Spindle_ReadKillTime();
  61:Generated_Source\PSoC5/PWM_Spindle_PM.c ****         #endif /* (PWM_Spindle_KillModeMinTime) */
  62:Generated_Source\PSoC5/PWM_Spindle_PM.c **** 
  63:Generated_Source\PSoC5/PWM_Spindle_PM.c ****         #if(PWM_Spindle_UseControl)
  64:Generated_Source\PSoC5/PWM_Spindle_PM.c ****             PWM_Spindle_backup.PWMControlRegister = PWM_Spindle_ReadControlRegister();
  65:Generated_Source\PSoC5/PWM_Spindle_PM.c ****         #endif /* (PWM_Spindle_UseControl) */
  66:Generated_Source\PSoC5/PWM_Spindle_PM.c ****     #endif  /* (!PWM_Spindle_UsingFixedFunction) */
  67:Generated_Source\PSoC5/PWM_Spindle_PM.c **** }
  68:Generated_Source\PSoC5/PWM_Spindle_PM.c **** 
  69:Generated_Source\PSoC5/PWM_Spindle_PM.c **** 
  70:Generated_Source\PSoC5/PWM_Spindle_PM.c **** /*******************************************************************************
  71:Generated_Source\PSoC5/PWM_Spindle_PM.c **** * Function Name: PWM_Spindle_RestoreConfig
ARM GAS  C:\Users\Bart\AppData\Local\Temp\ccA6XIgw.s 			page 3


  72:Generated_Source\PSoC5/PWM_Spindle_PM.c **** ********************************************************************************
  73:Generated_Source\PSoC5/PWM_Spindle_PM.c **** *
  74:Generated_Source\PSoC5/PWM_Spindle_PM.c **** * Summary:
  75:Generated_Source\PSoC5/PWM_Spindle_PM.c **** *  Restores the current user configuration of the component.
  76:Generated_Source\PSoC5/PWM_Spindle_PM.c **** *
  77:Generated_Source\PSoC5/PWM_Spindle_PM.c **** * Parameters:
  78:Generated_Source\PSoC5/PWM_Spindle_PM.c **** *  None
  79:Generated_Source\PSoC5/PWM_Spindle_PM.c **** *
  80:Generated_Source\PSoC5/PWM_Spindle_PM.c **** * Return:
  81:Generated_Source\PSoC5/PWM_Spindle_PM.c **** *  None
  82:Generated_Source\PSoC5/PWM_Spindle_PM.c **** *
  83:Generated_Source\PSoC5/PWM_Spindle_PM.c **** * Global variables:
  84:Generated_Source\PSoC5/PWM_Spindle_PM.c **** *  PWM_Spindle_backup:  Variables of this global structure are used to
  85:Generated_Source\PSoC5/PWM_Spindle_PM.c **** *  restore the values of non retention registers on wakeup from sleep mode.
  86:Generated_Source\PSoC5/PWM_Spindle_PM.c **** *
  87:Generated_Source\PSoC5/PWM_Spindle_PM.c **** *******************************************************************************/
  88:Generated_Source\PSoC5/PWM_Spindle_PM.c **** void PWM_Spindle_RestoreConfig(void) 
  89:Generated_Source\PSoC5/PWM_Spindle_PM.c **** {
  44              		.loc 1 89 0
  45              		.cfi_startproc
  46              		@ args = 0, pretend = 0, frame = 0
  47              		@ frame_needed = 0, uses_anonymous_args = 0
  48              		@ link register save eliminated.
  49 0000 7047     		bx	lr
  50              		.cfi_endproc
  51              	.LFE1:
  52              		.size	PWM_Spindle_RestoreConfig, .-PWM_Spindle_RestoreConfig
  53 0002 00BF     		.section	.text.PWM_Spindle_Sleep,"ax",%progbits
  54              		.align	2
  55              		.global	PWM_Spindle_Sleep
  56              		.thumb
  57              		.thumb_func
  58              		.type	PWM_Spindle_Sleep, %function
  59              	PWM_Spindle_Sleep:
  60              	.LFB2:
  90:Generated_Source\PSoC5/PWM_Spindle_PM.c ****         #if(!PWM_Spindle_UsingFixedFunction)
  91:Generated_Source\PSoC5/PWM_Spindle_PM.c ****             #if(!PWM_Spindle_PWMModeIsCenterAligned)
  92:Generated_Source\PSoC5/PWM_Spindle_PM.c ****                 PWM_Spindle_WritePeriod(PWM_Spindle_backup.PWMPeriod);
  93:Generated_Source\PSoC5/PWM_Spindle_PM.c ****             #endif /* (!PWM_Spindle_PWMModeIsCenterAligned) */
  94:Generated_Source\PSoC5/PWM_Spindle_PM.c **** 
  95:Generated_Source\PSoC5/PWM_Spindle_PM.c ****             PWM_Spindle_WriteCounter(PWM_Spindle_backup.PWMUdb);
  96:Generated_Source\PSoC5/PWM_Spindle_PM.c **** 
  97:Generated_Source\PSoC5/PWM_Spindle_PM.c ****             #if (PWM_Spindle_UseStatus)
  98:Generated_Source\PSoC5/PWM_Spindle_PM.c ****                 PWM_Spindle_STATUS_MASK = PWM_Spindle_backup.InterruptMaskValue;
  99:Generated_Source\PSoC5/PWM_Spindle_PM.c ****             #endif /* (PWM_Spindle_UseStatus) */
 100:Generated_Source\PSoC5/PWM_Spindle_PM.c **** 
 101:Generated_Source\PSoC5/PWM_Spindle_PM.c ****             #if(PWM_Spindle_DeadBandMode == PWM_Spindle__B_PWM__DBM_256_CLOCKS || \
 102:Generated_Source\PSoC5/PWM_Spindle_PM.c ****                 PWM_Spindle_DeadBandMode == PWM_Spindle__B_PWM__DBM_2_4_CLOCKS)
 103:Generated_Source\PSoC5/PWM_Spindle_PM.c ****                 PWM_Spindle_WriteDeadTime(PWM_Spindle_backup.PWMdeadBandValue);
 104:Generated_Source\PSoC5/PWM_Spindle_PM.c ****             #endif /* deadband count is either 2-4 clocks or 256 clocks */
 105:Generated_Source\PSoC5/PWM_Spindle_PM.c **** 
 106:Generated_Source\PSoC5/PWM_Spindle_PM.c ****             #if(PWM_Spindle_KillModeMinTime)
 107:Generated_Source\PSoC5/PWM_Spindle_PM.c ****                 PWM_Spindle_WriteKillTime(PWM_Spindle_backup.PWMKillCounterPeriod);
 108:Generated_Source\PSoC5/PWM_Spindle_PM.c ****             #endif /* (PWM_Spindle_KillModeMinTime) */
 109:Generated_Source\PSoC5/PWM_Spindle_PM.c **** 
 110:Generated_Source\PSoC5/PWM_Spindle_PM.c ****             #if(PWM_Spindle_UseControl)
 111:Generated_Source\PSoC5/PWM_Spindle_PM.c ****                 PWM_Spindle_WriteControlRegister(PWM_Spindle_backup.PWMControlRegister);
ARM GAS  C:\Users\Bart\AppData\Local\Temp\ccA6XIgw.s 			page 4


 112:Generated_Source\PSoC5/PWM_Spindle_PM.c ****             #endif /* (PWM_Spindle_UseControl) */
 113:Generated_Source\PSoC5/PWM_Spindle_PM.c ****         #endif  /* (!PWM_Spindle_UsingFixedFunction) */
 114:Generated_Source\PSoC5/PWM_Spindle_PM.c ****     }
 115:Generated_Source\PSoC5/PWM_Spindle_PM.c **** 
 116:Generated_Source\PSoC5/PWM_Spindle_PM.c **** 
 117:Generated_Source\PSoC5/PWM_Spindle_PM.c **** /*******************************************************************************
 118:Generated_Source\PSoC5/PWM_Spindle_PM.c **** * Function Name: PWM_Spindle_Sleep
 119:Generated_Source\PSoC5/PWM_Spindle_PM.c **** ********************************************************************************
 120:Generated_Source\PSoC5/PWM_Spindle_PM.c **** *
 121:Generated_Source\PSoC5/PWM_Spindle_PM.c **** * Summary:
 122:Generated_Source\PSoC5/PWM_Spindle_PM.c **** *  Disables block's operation and saves the user configuration. Should be called
 123:Generated_Source\PSoC5/PWM_Spindle_PM.c **** *  just prior to entering sleep.
 124:Generated_Source\PSoC5/PWM_Spindle_PM.c **** *
 125:Generated_Source\PSoC5/PWM_Spindle_PM.c **** * Parameters:
 126:Generated_Source\PSoC5/PWM_Spindle_PM.c **** *  None
 127:Generated_Source\PSoC5/PWM_Spindle_PM.c **** *
 128:Generated_Source\PSoC5/PWM_Spindle_PM.c **** * Return:
 129:Generated_Source\PSoC5/PWM_Spindle_PM.c **** *  None
 130:Generated_Source\PSoC5/PWM_Spindle_PM.c **** *
 131:Generated_Source\PSoC5/PWM_Spindle_PM.c **** * Global variables:
 132:Generated_Source\PSoC5/PWM_Spindle_PM.c **** *  PWM_Spindle_backup.PWMEnableState:  Is modified depending on the enable
 133:Generated_Source\PSoC5/PWM_Spindle_PM.c **** *  state of the block before entering sleep mode.
 134:Generated_Source\PSoC5/PWM_Spindle_PM.c **** *
 135:Generated_Source\PSoC5/PWM_Spindle_PM.c **** *******************************************************************************/
 136:Generated_Source\PSoC5/PWM_Spindle_PM.c **** void PWM_Spindle_Sleep(void) 
 137:Generated_Source\PSoC5/PWM_Spindle_PM.c **** {
  61              		.loc 1 137 0
  62              		.cfi_startproc
  63              		@ args = 0, pretend = 0, frame = 0
  64              		@ frame_needed = 0, uses_anonymous_args = 0
  65              		.loc 1 137 0
  66 0000 08B5     		push	{r3, lr}
  67              		.cfi_def_cfa_offset 8
  68              		.cfi_offset 3, -8
  69              		.cfi_offset 14, -4
 138:Generated_Source\PSoC5/PWM_Spindle_PM.c ****     #if(PWM_Spindle_UseControl)
 139:Generated_Source\PSoC5/PWM_Spindle_PM.c ****         if(PWM_Spindle_CTRL_ENABLE == (PWM_Spindle_CONTROL & PWM_Spindle_CTRL_ENABLE))
  70              		.loc 1 139 0
  71 0002 074B     		ldr	r3, .L7
  72 0004 1B78     		ldrb	r3, [r3]	@ zero_extendqisi2
  73 0006 13F0010F 		tst	r3, #1
  74 000a 03D0     		beq	.L4
 140:Generated_Source\PSoC5/PWM_Spindle_PM.c ****         {
 141:Generated_Source\PSoC5/PWM_Spindle_PM.c ****             /*Component is enabled */
 142:Generated_Source\PSoC5/PWM_Spindle_PM.c ****             PWM_Spindle_backup.PWMEnableState = 1u;
  75              		.loc 1 142 0
  76 000c 0122     		movs	r2, #1
  77 000e 054B     		ldr	r3, .L7+4
  78 0010 1A70     		strb	r2, [r3]
  79 0012 02E0     		b	.L5
  80              	.L4:
 143:Generated_Source\PSoC5/PWM_Spindle_PM.c ****         }
 144:Generated_Source\PSoC5/PWM_Spindle_PM.c ****         else
 145:Generated_Source\PSoC5/PWM_Spindle_PM.c ****         {
 146:Generated_Source\PSoC5/PWM_Spindle_PM.c ****             /* Component is disabled */
 147:Generated_Source\PSoC5/PWM_Spindle_PM.c ****             PWM_Spindle_backup.PWMEnableState = 0u;
  81              		.loc 1 147 0
ARM GAS  C:\Users\Bart\AppData\Local\Temp\ccA6XIgw.s 			page 5


  82 0014 0022     		movs	r2, #0
  83 0016 034B     		ldr	r3, .L7+4
  84 0018 1A70     		strb	r2, [r3]
  85              	.L5:
 148:Generated_Source\PSoC5/PWM_Spindle_PM.c ****         }
 149:Generated_Source\PSoC5/PWM_Spindle_PM.c ****     #endif /* (PWM_Spindle_UseControl) */
 150:Generated_Source\PSoC5/PWM_Spindle_PM.c **** 
 151:Generated_Source\PSoC5/PWM_Spindle_PM.c ****     /* Stop component */
 152:Generated_Source\PSoC5/PWM_Spindle_PM.c ****     PWM_Spindle_Stop();
  86              		.loc 1 152 0
  87 001a FFF7FEFF 		bl	PWM_Spindle_Stop
  88              	.LVL0:
  89 001e 08BD     		pop	{r3, pc}
  90              	.L8:
  91              		.align	2
  92              	.L7:
  93 0020 004F0040 		.word	1073762048
  94 0024 00000000 		.word	.LANCHOR0
  95              		.cfi_endproc
  96              	.LFE2:
  97              		.size	PWM_Spindle_Sleep, .-PWM_Spindle_Sleep
  98              		.section	.text.PWM_Spindle_Wakeup,"ax",%progbits
  99              		.align	2
 100              		.global	PWM_Spindle_Wakeup
 101              		.thumb
 102              		.thumb_func
 103              		.type	PWM_Spindle_Wakeup, %function
 104              	PWM_Spindle_Wakeup:
 105              	.LFB3:
 153:Generated_Source\PSoC5/PWM_Spindle_PM.c **** 
 154:Generated_Source\PSoC5/PWM_Spindle_PM.c ****     /* Save registers configuration */
 155:Generated_Source\PSoC5/PWM_Spindle_PM.c ****     PWM_Spindle_SaveConfig();
 156:Generated_Source\PSoC5/PWM_Spindle_PM.c **** }
 157:Generated_Source\PSoC5/PWM_Spindle_PM.c **** 
 158:Generated_Source\PSoC5/PWM_Spindle_PM.c **** 
 159:Generated_Source\PSoC5/PWM_Spindle_PM.c **** /*******************************************************************************
 160:Generated_Source\PSoC5/PWM_Spindle_PM.c **** * Function Name: PWM_Spindle_Wakeup
 161:Generated_Source\PSoC5/PWM_Spindle_PM.c **** ********************************************************************************
 162:Generated_Source\PSoC5/PWM_Spindle_PM.c **** *
 163:Generated_Source\PSoC5/PWM_Spindle_PM.c **** * Summary:
 164:Generated_Source\PSoC5/PWM_Spindle_PM.c **** *  Restores and enables the user configuration. Should be called just after
 165:Generated_Source\PSoC5/PWM_Spindle_PM.c **** *  awaking from sleep.
 166:Generated_Source\PSoC5/PWM_Spindle_PM.c **** *
 167:Generated_Source\PSoC5/PWM_Spindle_PM.c **** * Parameters:
 168:Generated_Source\PSoC5/PWM_Spindle_PM.c **** *  None
 169:Generated_Source\PSoC5/PWM_Spindle_PM.c **** *
 170:Generated_Source\PSoC5/PWM_Spindle_PM.c **** * Return:
 171:Generated_Source\PSoC5/PWM_Spindle_PM.c **** *  None
 172:Generated_Source\PSoC5/PWM_Spindle_PM.c **** *
 173:Generated_Source\PSoC5/PWM_Spindle_PM.c **** * Global variables:
 174:Generated_Source\PSoC5/PWM_Spindle_PM.c **** *  PWM_Spindle_backup.pwmEnable:  Is used to restore the enable state of
 175:Generated_Source\PSoC5/PWM_Spindle_PM.c **** *  block on wakeup from sleep mode.
 176:Generated_Source\PSoC5/PWM_Spindle_PM.c **** *
 177:Generated_Source\PSoC5/PWM_Spindle_PM.c **** *******************************************************************************/
 178:Generated_Source\PSoC5/PWM_Spindle_PM.c **** void PWM_Spindle_Wakeup(void) 
 179:Generated_Source\PSoC5/PWM_Spindle_PM.c **** {
 106              		.loc 1 179 0
ARM GAS  C:\Users\Bart\AppData\Local\Temp\ccA6XIgw.s 			page 6


 107              		.cfi_startproc
 108              		@ args = 0, pretend = 0, frame = 0
 109              		@ frame_needed = 0, uses_anonymous_args = 0
 110 0000 08B5     		push	{r3, lr}
 111              		.cfi_def_cfa_offset 8
 112              		.cfi_offset 3, -8
 113              		.cfi_offset 14, -4
 180:Generated_Source\PSoC5/PWM_Spindle_PM.c ****      /* Restore registers values */
 181:Generated_Source\PSoC5/PWM_Spindle_PM.c ****     PWM_Spindle_RestoreConfig();
 182:Generated_Source\PSoC5/PWM_Spindle_PM.c **** 
 183:Generated_Source\PSoC5/PWM_Spindle_PM.c ****     if(PWM_Spindle_backup.PWMEnableState != 0u)
 114              		.loc 1 183 0
 115 0002 034B     		ldr	r3, .L12
 116 0004 1B78     		ldrb	r3, [r3]	@ zero_extendqisi2
 117 0006 0BB1     		cbz	r3, .L9
 184:Generated_Source\PSoC5/PWM_Spindle_PM.c ****     {
 185:Generated_Source\PSoC5/PWM_Spindle_PM.c ****         /* Enable component's operation */
 186:Generated_Source\PSoC5/PWM_Spindle_PM.c ****         PWM_Spindle_Enable();
 118              		.loc 1 186 0
 119 0008 FFF7FEFF 		bl	PWM_Spindle_Enable
 120              	.LVL1:
 121              	.L9:
 122 000c 08BD     		pop	{r3, pc}
 123              	.L13:
 124 000e 00BF     		.align	2
 125              	.L12:
 126 0010 00000000 		.word	.LANCHOR0
 127              		.cfi_endproc
 128              	.LFE3:
 129              		.size	PWM_Spindle_Wakeup, .-PWM_Spindle_Wakeup
 130              		.bss
 131              		.align	2
 132              		.set	.LANCHOR0,. + 0
 133              		.type	PWM_Spindle_backup, %object
 134              		.size	PWM_Spindle_backup, 1
 135              	PWM_Spindle_backup:
 136 0000 00       		.space	1
 137 0001 000000   		.text
 138              	.Letext0:
 139              		.file 2 "Generated_Source\\PSoC5\\cytypes.h"
 140              		.file 3 "Generated_Source\\PSoC5\\PWM_Spindle.h"