ARM GAS  C:\Users\Bart\AppData\Local\Temp\cc1pq1Pp.s 			page 1


   1              		.syntax unified
   2              		.cpu cortex-m3
   3              		.fpu softvfp
   4              		.eabi_attribute 20, 1
   5              		.eabi_attribute 21, 1
   6              		.eabi_attribute 23, 3
   7              		.eabi_attribute 24, 1
   8              		.eabi_attribute 25, 1
   9              		.eabi_attribute 26, 1
  10              		.eabi_attribute 30, 1
  11              		.eabi_attribute 34, 1
  12              		.eabi_attribute 18, 4
  13              		.thumb
  14              		.file	"QuadDec_PM.c"
  15              		.text
  16              	.Ltext0:
  17              		.cfi_sections	.debug_frame
  18              		.section	.text.QuadDec_SaveConfig,"ax",%progbits
  19              		.align	2
  20              		.global	QuadDec_SaveConfig
  21              		.thumb
  22              		.thumb_func
  23              		.type	QuadDec_SaveConfig, %function
  24              	QuadDec_SaveConfig:
  25              	.LFB0:
  26              		.file 1 "Generated_Source\\PSoC5\\QuadDec_PM.c"
   1:Generated_Source\PSoC5/QuadDec_PM.c **** /*******************************************************************************
   2:Generated_Source\PSoC5/QuadDec_PM.c **** * File Name: QuadDec_PM.c
   3:Generated_Source\PSoC5/QuadDec_PM.c **** * Version 3.0
   4:Generated_Source\PSoC5/QuadDec_PM.c **** *
   5:Generated_Source\PSoC5/QuadDec_PM.c **** * Description:
   6:Generated_Source\PSoC5/QuadDec_PM.c **** *  This file contains the setup, control and status commands to support 
   7:Generated_Source\PSoC5/QuadDec_PM.c **** *  component operations in low power mode.  
   8:Generated_Source\PSoC5/QuadDec_PM.c **** *
   9:Generated_Source\PSoC5/QuadDec_PM.c **** * Note:
  10:Generated_Source\PSoC5/QuadDec_PM.c **** *  None.
  11:Generated_Source\PSoC5/QuadDec_PM.c **** *
  12:Generated_Source\PSoC5/QuadDec_PM.c **** ********************************************************************************
  13:Generated_Source\PSoC5/QuadDec_PM.c **** * Copyright 2008-2014, Cypress Semiconductor Corporation.  All rights reserved.
  14:Generated_Source\PSoC5/QuadDec_PM.c **** * You may use this file only in accordance with the license, terms, conditions,
  15:Generated_Source\PSoC5/QuadDec_PM.c **** * disclaimers, and limitations in the end user license agreement accompanying
  16:Generated_Source\PSoC5/QuadDec_PM.c **** * the software package with which this file was provided.
  17:Generated_Source\PSoC5/QuadDec_PM.c **** *******************************************************************************/
  18:Generated_Source\PSoC5/QuadDec_PM.c **** 
  19:Generated_Source\PSoC5/QuadDec_PM.c **** #include "QuadDec.h"
  20:Generated_Source\PSoC5/QuadDec_PM.c **** 
  21:Generated_Source\PSoC5/QuadDec_PM.c **** static QuadDec_BACKUP_STRUCT QuadDec_backup = {0u};
  22:Generated_Source\PSoC5/QuadDec_PM.c **** 
  23:Generated_Source\PSoC5/QuadDec_PM.c **** 
  24:Generated_Source\PSoC5/QuadDec_PM.c **** /*******************************************************************************
  25:Generated_Source\PSoC5/QuadDec_PM.c **** * Function Name: QuadDec_SaveConfig
  26:Generated_Source\PSoC5/QuadDec_PM.c **** ********************************************************************************
  27:Generated_Source\PSoC5/QuadDec_PM.c **** * Summary:
  28:Generated_Source\PSoC5/QuadDec_PM.c **** *  Saves the current user configuration of the component.
  29:Generated_Source\PSoC5/QuadDec_PM.c **** *
  30:Generated_Source\PSoC5/QuadDec_PM.c **** * Parameters:
  31:Generated_Source\PSoC5/QuadDec_PM.c **** *  None.
ARM GAS  C:\Users\Bart\AppData\Local\Temp\cc1pq1Pp.s 			page 2


  32:Generated_Source\PSoC5/QuadDec_PM.c **** *
  33:Generated_Source\PSoC5/QuadDec_PM.c **** * Return:
  34:Generated_Source\PSoC5/QuadDec_PM.c **** *  None.
  35:Generated_Source\PSoC5/QuadDec_PM.c **** *
  36:Generated_Source\PSoC5/QuadDec_PM.c **** *******************************************************************************/
  37:Generated_Source\PSoC5/QuadDec_PM.c **** void QuadDec_SaveConfig(void) 
  38:Generated_Source\PSoC5/QuadDec_PM.c **** {
  27              		.loc 1 38 0
  28              		.cfi_startproc
  29              		@ args = 0, pretend = 0, frame = 0
  30              		@ frame_needed = 0, uses_anonymous_args = 0
  31 0000 08B5     		push	{r3, lr}
  32              		.cfi_def_cfa_offset 8
  33              		.cfi_offset 3, -8
  34              		.cfi_offset 14, -4
  39:Generated_Source\PSoC5/QuadDec_PM.c ****     #if (QuadDec_COUNTER_SIZE == QuadDec_COUNTER_SIZE_8_BIT)
  40:Generated_Source\PSoC5/QuadDec_PM.c ****         QuadDec_Cnt8_SaveConfig();
  41:Generated_Source\PSoC5/QuadDec_PM.c ****     #else 
  42:Generated_Source\PSoC5/QuadDec_PM.c ****         /* (QuadDec_COUNTER_SIZE == QuadDec_COUNTER_SIZE_16_BIT) || 
  43:Generated_Source\PSoC5/QuadDec_PM.c ****          * (QuadDec_COUNTER_SIZE == QuadDec_COUNTER_SIZE_32_BIT)
  44:Generated_Source\PSoC5/QuadDec_PM.c ****          */
  45:Generated_Source\PSoC5/QuadDec_PM.c ****         QuadDec_Cnt16_SaveConfig();
  35              		.loc 1 45 0
  36 0002 FFF7FEFF 		bl	QuadDec_Cnt16_SaveConfig
  37              	.LVL0:
  38 0006 08BD     		pop	{r3, pc}
  39              		.cfi_endproc
  40              	.LFE0:
  41              		.size	QuadDec_SaveConfig, .-QuadDec_SaveConfig
  42              		.section	.text.QuadDec_RestoreConfig,"ax",%progbits
  43              		.align	2
  44              		.global	QuadDec_RestoreConfig
  45              		.thumb
  46              		.thumb_func
  47              		.type	QuadDec_RestoreConfig, %function
  48              	QuadDec_RestoreConfig:
  49              	.LFB1:
  46:Generated_Source\PSoC5/QuadDec_PM.c ****     #endif /* (QuadDec_COUNTER_SIZE == QuadDec_COUNTER_SIZE_8_BIT) */
  47:Generated_Source\PSoC5/QuadDec_PM.c **** }
  48:Generated_Source\PSoC5/QuadDec_PM.c **** 
  49:Generated_Source\PSoC5/QuadDec_PM.c **** 
  50:Generated_Source\PSoC5/QuadDec_PM.c **** /*******************************************************************************
  51:Generated_Source\PSoC5/QuadDec_PM.c **** * Function Name: QuadDec_RestoreConfig
  52:Generated_Source\PSoC5/QuadDec_PM.c **** ********************************************************************************
  53:Generated_Source\PSoC5/QuadDec_PM.c **** * Summary:
  54:Generated_Source\PSoC5/QuadDec_PM.c **** *  Restores the current user configuration of the component.
  55:Generated_Source\PSoC5/QuadDec_PM.c **** *
  56:Generated_Source\PSoC5/QuadDec_PM.c **** * Parameters:
  57:Generated_Source\PSoC5/QuadDec_PM.c **** *  None.
  58:Generated_Source\PSoC5/QuadDec_PM.c **** *
  59:Generated_Source\PSoC5/QuadDec_PM.c **** * Return:
  60:Generated_Source\PSoC5/QuadDec_PM.c **** *  None.
  61:Generated_Source\PSoC5/QuadDec_PM.c **** *
  62:Generated_Source\PSoC5/QuadDec_PM.c **** *******************************************************************************/
  63:Generated_Source\PSoC5/QuadDec_PM.c **** void QuadDec_RestoreConfig(void) 
  64:Generated_Source\PSoC5/QuadDec_PM.c **** {
  50              		.loc 1 64 0
ARM GAS  C:\Users\Bart\AppData\Local\Temp\cc1pq1Pp.s 			page 3


  51              		.cfi_startproc
  52              		@ args = 0, pretend = 0, frame = 0
  53              		@ frame_needed = 0, uses_anonymous_args = 0
  54 0000 08B5     		push	{r3, lr}
  55              		.cfi_def_cfa_offset 8
  56              		.cfi_offset 3, -8
  57              		.cfi_offset 14, -4
  65:Generated_Source\PSoC5/QuadDec_PM.c ****     #if (QuadDec_COUNTER_SIZE == QuadDec_COUNTER_SIZE_8_BIT)
  66:Generated_Source\PSoC5/QuadDec_PM.c ****         QuadDec_Cnt8_RestoreConfig();
  67:Generated_Source\PSoC5/QuadDec_PM.c ****     #else 
  68:Generated_Source\PSoC5/QuadDec_PM.c ****         /* (QuadDec_COUNTER_SIZE == QuadDec_COUNTER_SIZE_16_BIT) || 
  69:Generated_Source\PSoC5/QuadDec_PM.c ****          * (QuadDec_COUNTER_SIZE == QuadDec_COUNTER_SIZE_32_BIT) 
  70:Generated_Source\PSoC5/QuadDec_PM.c ****          */
  71:Generated_Source\PSoC5/QuadDec_PM.c ****         QuadDec_Cnt16_RestoreConfig();
  58              		.loc 1 71 0
  59 0002 FFF7FEFF 		bl	QuadDec_Cnt16_RestoreConfig
  60              	.LVL1:
  61 0006 08BD     		pop	{r3, pc}
  62              		.cfi_endproc
  63              	.LFE1:
  64              		.size	QuadDec_RestoreConfig, .-QuadDec_RestoreConfig
  65              		.section	.text.QuadDec_Sleep,"ax",%progbits
  66              		.align	2
  67              		.global	QuadDec_Sleep
  68              		.thumb
  69              		.thumb_func
  70              		.type	QuadDec_Sleep, %function
  71              	QuadDec_Sleep:
  72              	.LFB2:
  72:Generated_Source\PSoC5/QuadDec_PM.c ****     #endif /* (QuadDec_COUNTER_SIZE == QuadDec_COUNTER_SIZE_8_BIT) */
  73:Generated_Source\PSoC5/QuadDec_PM.c **** }
  74:Generated_Source\PSoC5/QuadDec_PM.c **** 
  75:Generated_Source\PSoC5/QuadDec_PM.c **** 
  76:Generated_Source\PSoC5/QuadDec_PM.c **** /*******************************************************************************
  77:Generated_Source\PSoC5/QuadDec_PM.c **** * Function Name: QuadDec_Sleep
  78:Generated_Source\PSoC5/QuadDec_PM.c **** ********************************************************************************
  79:Generated_Source\PSoC5/QuadDec_PM.c **** * 
  80:Generated_Source\PSoC5/QuadDec_PM.c **** * Summary:
  81:Generated_Source\PSoC5/QuadDec_PM.c **** *  Prepare Quadrature Decoder Component goes to sleep.
  82:Generated_Source\PSoC5/QuadDec_PM.c **** *
  83:Generated_Source\PSoC5/QuadDec_PM.c **** * Parameters:
  84:Generated_Source\PSoC5/QuadDec_PM.c **** *  None.
  85:Generated_Source\PSoC5/QuadDec_PM.c **** *
  86:Generated_Source\PSoC5/QuadDec_PM.c **** * Return:
  87:Generated_Source\PSoC5/QuadDec_PM.c **** *  None.
  88:Generated_Source\PSoC5/QuadDec_PM.c **** *
  89:Generated_Source\PSoC5/QuadDec_PM.c **** * Global Variables:
  90:Generated_Source\PSoC5/QuadDec_PM.c **** *  QuadDec_backup - modified when non-retention registers are saved.
  91:Generated_Source\PSoC5/QuadDec_PM.c **** *
  92:Generated_Source\PSoC5/QuadDec_PM.c **** * Reentrant:
  93:Generated_Source\PSoC5/QuadDec_PM.c **** *  No.
  94:Generated_Source\PSoC5/QuadDec_PM.c **** *
  95:Generated_Source\PSoC5/QuadDec_PM.c **** *******************************************************************************/
  96:Generated_Source\PSoC5/QuadDec_PM.c **** void QuadDec_Sleep(void) 
  97:Generated_Source\PSoC5/QuadDec_PM.c **** {
  73              		.loc 1 97 0
  74              		.cfi_startproc
ARM GAS  C:\Users\Bart\AppData\Local\Temp\cc1pq1Pp.s 			page 4


  75              		@ args = 0, pretend = 0, frame = 0
  76              		@ frame_needed = 0, uses_anonymous_args = 0
  77 0000 08B5     		push	{r3, lr}
  78              		.cfi_def_cfa_offset 8
  79              		.cfi_offset 3, -8
  80              		.cfi_offset 14, -4
  98:Generated_Source\PSoC5/QuadDec_PM.c ****     if (0u != (QuadDec_SR_AUX_CONTROL & QuadDec_INTERRUPTS_ENABLE))
  81              		.loc 1 98 0
  82 0002 084B     		ldr	r3, .L9
  83 0004 1B78     		ldrb	r3, [r3]	@ zero_extendqisi2
  84 0006 13F0100F 		tst	r3, #16
  85 000a 03D0     		beq	.L6
  99:Generated_Source\PSoC5/QuadDec_PM.c ****     {
 100:Generated_Source\PSoC5/QuadDec_PM.c ****         QuadDec_backup.enableState = 1u;
  86              		.loc 1 100 0
  87 000c 0122     		movs	r2, #1
  88 000e 064B     		ldr	r3, .L9+4
  89 0010 1A70     		strb	r2, [r3]
  90 0012 02E0     		b	.L7
  91              	.L6:
 101:Generated_Source\PSoC5/QuadDec_PM.c ****     }
 102:Generated_Source\PSoC5/QuadDec_PM.c ****     else /* The Quadrature Decoder Component is disabled */
 103:Generated_Source\PSoC5/QuadDec_PM.c ****     {
 104:Generated_Source\PSoC5/QuadDec_PM.c ****         QuadDec_backup.enableState = 0u;
  92              		.loc 1 104 0
  93 0014 0022     		movs	r2, #0
  94 0016 044B     		ldr	r3, .L9+4
  95 0018 1A70     		strb	r2, [r3]
  96              	.L7:
 105:Generated_Source\PSoC5/QuadDec_PM.c ****     }
 106:Generated_Source\PSoC5/QuadDec_PM.c **** 
 107:Generated_Source\PSoC5/QuadDec_PM.c ****     QuadDec_Stop();
  97              		.loc 1 107 0
  98 001a FFF7FEFF 		bl	QuadDec_Stop
  99              	.LVL2:
 108:Generated_Source\PSoC5/QuadDec_PM.c ****     QuadDec_SaveConfig();
 100              		.loc 1 108 0
 101 001e FFF7FEFF 		bl	QuadDec_SaveConfig
 102              	.LVL3:
 103 0022 08BD     		pop	{r3, pc}
 104              	.L10:
 105              		.align	2
 106              	.L9:
 107 0024 99640040 		.word	1073767577
 108 0028 00000000 		.word	.LANCHOR0
 109              		.cfi_endproc
 110              	.LFE2:
 111              		.size	QuadDec_Sleep, .-QuadDec_Sleep
 112              		.section	.text.QuadDec_Wakeup,"ax",%progbits
 113              		.align	2
 114              		.global	QuadDec_Wakeup
 115              		.thumb
 116              		.thumb_func
 117              		.type	QuadDec_Wakeup, %function
 118              	QuadDec_Wakeup:
 119              	.LFB3:
 109:Generated_Source\PSoC5/QuadDec_PM.c **** }
ARM GAS  C:\Users\Bart\AppData\Local\Temp\cc1pq1Pp.s 			page 5


 110:Generated_Source\PSoC5/QuadDec_PM.c **** 
 111:Generated_Source\PSoC5/QuadDec_PM.c **** 
 112:Generated_Source\PSoC5/QuadDec_PM.c **** /*******************************************************************************
 113:Generated_Source\PSoC5/QuadDec_PM.c **** * Function Name: QuadDec_Wakeup
 114:Generated_Source\PSoC5/QuadDec_PM.c **** ********************************************************************************
 115:Generated_Source\PSoC5/QuadDec_PM.c **** *
 116:Generated_Source\PSoC5/QuadDec_PM.c **** * Summary:
 117:Generated_Source\PSoC5/QuadDec_PM.c **** *  Prepare Quadrature Decoder Component to wake up.
 118:Generated_Source\PSoC5/QuadDec_PM.c **** *
 119:Generated_Source\PSoC5/QuadDec_PM.c **** * Parameters:
 120:Generated_Source\PSoC5/QuadDec_PM.c **** *  None.
 121:Generated_Source\PSoC5/QuadDec_PM.c **** *
 122:Generated_Source\PSoC5/QuadDec_PM.c **** * Return:
 123:Generated_Source\PSoC5/QuadDec_PM.c **** *  None.
 124:Generated_Source\PSoC5/QuadDec_PM.c **** *
 125:Generated_Source\PSoC5/QuadDec_PM.c **** * Global Variables:
 126:Generated_Source\PSoC5/QuadDec_PM.c **** *  QuadDec_backup - used when non-retention registers are restored.
 127:Generated_Source\PSoC5/QuadDec_PM.c **** *
 128:Generated_Source\PSoC5/QuadDec_PM.c **** *******************************************************************************/
 129:Generated_Source\PSoC5/QuadDec_PM.c **** void QuadDec_Wakeup(void) 
 130:Generated_Source\PSoC5/QuadDec_PM.c **** {
 120              		.loc 1 130 0
 121              		.cfi_startproc
 122              		@ args = 0, pretend = 0, frame = 0
 123              		@ frame_needed = 0, uses_anonymous_args = 0
 124 0000 08B5     		push	{r3, lr}
 125              		.cfi_def_cfa_offset 8
 126              		.cfi_offset 3, -8
 127              		.cfi_offset 14, -4
 131:Generated_Source\PSoC5/QuadDec_PM.c ****     QuadDec_RestoreConfig();
 128              		.loc 1 131 0
 129 0002 FFF7FEFF 		bl	QuadDec_RestoreConfig
 130              	.LVL4:
 132:Generated_Source\PSoC5/QuadDec_PM.c **** 
 133:Generated_Source\PSoC5/QuadDec_PM.c ****     if (QuadDec_backup.enableState != 0u)
 131              		.loc 1 133 0
 132 0006 044B     		ldr	r3, .L14
 133 0008 1B78     		ldrb	r3, [r3]	@ zero_extendqisi2
 134 000a 1BB1     		cbz	r3, .L11
 134:Generated_Source\PSoC5/QuadDec_PM.c ****     {
 135:Generated_Source\PSoC5/QuadDec_PM.c ****         #if (QuadDec_COUNTER_SIZE == QuadDec_COUNTER_SIZE_8_BIT)
 136:Generated_Source\PSoC5/QuadDec_PM.c ****             QuadDec_Cnt8_Enable();
 137:Generated_Source\PSoC5/QuadDec_PM.c ****         #else 
 138:Generated_Source\PSoC5/QuadDec_PM.c ****             /* (QuadDec_COUNTER_SIZE == QuadDec_COUNTER_SIZE_16_BIT) || 
 139:Generated_Source\PSoC5/QuadDec_PM.c ****             *  (QuadDec_COUNTER_SIZE == QuadDec_COUNTER_SIZE_32_BIT) 
 140:Generated_Source\PSoC5/QuadDec_PM.c ****             */
 141:Generated_Source\PSoC5/QuadDec_PM.c ****             QuadDec_Cnt16_Enable();
 135              		.loc 1 141 0
 136 000c FFF7FEFF 		bl	QuadDec_Cnt16_Enable
 137              	.LVL5:
 142:Generated_Source\PSoC5/QuadDec_PM.c ****         #endif /* (QuadDec_COUNTER_SIZE == QuadDec_COUNTER_SIZE_8_BIT) */
 143:Generated_Source\PSoC5/QuadDec_PM.c **** 
 144:Generated_Source\PSoC5/QuadDec_PM.c ****         /* Enable component's operation */
 145:Generated_Source\PSoC5/QuadDec_PM.c ****         QuadDec_Enable();
 138              		.loc 1 145 0
 139 0010 FFF7FEFF 		bl	QuadDec_Enable
 140              	.LVL6:
ARM GAS  C:\Users\Bart\AppData\Local\Temp\cc1pq1Pp.s 			page 6


 141              	.L11:
 142 0014 08BD     		pop	{r3, pc}
 143              	.L15:
 144 0016 00BF     		.align	2
 145              	.L14:
 146 0018 00000000 		.word	.LANCHOR0
 147              		.cfi_endproc
 148              	.LFE3:
 149              		.size	QuadDec_Wakeup, .-QuadDec_Wakeup
 150              		.bss
 151              		.align	2
 152              		.set	.LANCHOR0,. + 0
 153              		.type	QuadDec_backup, %object
 154              		.size	QuadDec_backup, 1
 155              	QuadDec_backup:
 156 0000 00       		.space	1
 157 0001 000000   		.text
 158              	.Letext0:
 159              		.file 2 "Generated_Source\\PSoC5\\cytypes.h"
 160              		.file 3 "Generated_Source\\PSoC5\\QuadDec.h"
 161              		.file 4 "Generated_Source\\PSoC5\\QuadDec_Cnt16.h"