ARM GAS  C:\Users\Bart\AppData\Local\Temp\cc159kjl.s 			page 1


   1              		.syntax unified
   2              		.cpu cortex-m3
   3              		.fpu softvfp
   4              		.eabi_attribute 20, 1
   5              		.eabi_attribute 21, 1
   6              		.eabi_attribute 23, 3
   7              		.eabi_attribute 24, 1
   8              		.eabi_attribute 25, 1
   9              		.eabi_attribute 26, 1
  10              		.eabi_attribute 30, 1
  11              		.eabi_attribute 34, 1
  12              		.eabi_attribute 18, 4
  13              		.thumb
  14              		.file	"QuadDec.c"
  15              		.text
  16              	.Ltext0:
  17              		.cfi_sections	.debug_frame
  18              		.section	.text.QuadDec_Init,"ax",%progbits
  19              		.align	2
  20              		.global	QuadDec_Init
  21              		.thumb
  22              		.thumb_func
  23              		.type	QuadDec_Init, %function
  24              	QuadDec_Init:
  25              	.LFB0:
  26              		.file 1 "Generated_Source\\PSoC5\\QuadDec.c"
   1:Generated_Source\PSoC5/QuadDec.c **** /*******************************************************************************
   2:Generated_Source\PSoC5/QuadDec.c **** * File Name: QuadDec.c  
   3:Generated_Source\PSoC5/QuadDec.c **** * Version 3.0
   4:Generated_Source\PSoC5/QuadDec.c **** *
   5:Generated_Source\PSoC5/QuadDec.c **** * Description:
   6:Generated_Source\PSoC5/QuadDec.c **** *  This file provides the source code to the API for the Quadrature Decoder
   7:Generated_Source\PSoC5/QuadDec.c **** *  component.
   8:Generated_Source\PSoC5/QuadDec.c **** *
   9:Generated_Source\PSoC5/QuadDec.c **** * Note:
  10:Generated_Source\PSoC5/QuadDec.c **** *  None.
  11:Generated_Source\PSoC5/QuadDec.c **** *   
  12:Generated_Source\PSoC5/QuadDec.c **** ********************************************************************************
  13:Generated_Source\PSoC5/QuadDec.c **** * Copyright 2008-2014, Cypress Semiconductor Corporation.  All rights reserved.
  14:Generated_Source\PSoC5/QuadDec.c **** * You may use this file only in accordance with the license, terms, conditions, 
  15:Generated_Source\PSoC5/QuadDec.c **** * disclaimers, and limitations in the end user license agreement accompanying 
  16:Generated_Source\PSoC5/QuadDec.c **** * the software package with which this file was provided.
  17:Generated_Source\PSoC5/QuadDec.c **** *******************************************************************************/
  18:Generated_Source\PSoC5/QuadDec.c **** 
  19:Generated_Source\PSoC5/QuadDec.c **** #include "QuadDec.h"
  20:Generated_Source\PSoC5/QuadDec.c **** 
  21:Generated_Source\PSoC5/QuadDec.c **** #if (QuadDec_COUNTER_SIZE == QuadDec_COUNTER_SIZE_32_BIT)
  22:Generated_Source\PSoC5/QuadDec.c ****     #include "QuadDec_PVT.h"
  23:Generated_Source\PSoC5/QuadDec.c **** #endif /* QuadDec_COUNTER_SIZE == QuadDec_COUNTER_SIZE_32_BIT */
  24:Generated_Source\PSoC5/QuadDec.c **** 
  25:Generated_Source\PSoC5/QuadDec.c **** uint8 QuadDec_initVar = 0u;
  26:Generated_Source\PSoC5/QuadDec.c **** 
  27:Generated_Source\PSoC5/QuadDec.c **** 
  28:Generated_Source\PSoC5/QuadDec.c **** /*******************************************************************************
  29:Generated_Source\PSoC5/QuadDec.c **** * Function Name: QuadDec_Init
  30:Generated_Source\PSoC5/QuadDec.c **** ********************************************************************************
  31:Generated_Source\PSoC5/QuadDec.c **** *
ARM GAS  C:\Users\Bart\AppData\Local\Temp\cc159kjl.s 			page 2


  32:Generated_Source\PSoC5/QuadDec.c **** * Summary:
  33:Generated_Source\PSoC5/QuadDec.c **** *  Inits/Restores default QuadDec configuration provided with customizer.
  34:Generated_Source\PSoC5/QuadDec.c **** *
  35:Generated_Source\PSoC5/QuadDec.c **** * Parameters:
  36:Generated_Source\PSoC5/QuadDec.c **** *  None.
  37:Generated_Source\PSoC5/QuadDec.c **** *
  38:Generated_Source\PSoC5/QuadDec.c **** * Return:
  39:Generated_Source\PSoC5/QuadDec.c **** *  None.
  40:Generated_Source\PSoC5/QuadDec.c **** *
  41:Generated_Source\PSoC5/QuadDec.c **** *******************************************************************************/
  42:Generated_Source\PSoC5/QuadDec.c **** void QuadDec_Init(void) 
  43:Generated_Source\PSoC5/QuadDec.c **** {
  27              		.loc 1 43 0
  28              		.cfi_startproc
  29              		@ args = 0, pretend = 0, frame = 0
  30              		@ frame_needed = 0, uses_anonymous_args = 0
  31              		@ link register save eliminated.
  32 0000 7047     		bx	lr
  33              		.cfi_endproc
  34              	.LFE0:
  35              		.size	QuadDec_Init, .-QuadDec_Init
  36 0002 00BF     		.section	.text.QuadDec_Stop,"ax",%progbits
  37              		.align	2
  38              		.global	QuadDec_Stop
  39              		.thumb
  40              		.thumb_func
  41              		.type	QuadDec_Stop, %function
  42              	QuadDec_Stop:
  43              	.LFB3:
  44:Generated_Source\PSoC5/QuadDec.c ****     #if (QuadDec_COUNTER_SIZE == QuadDec_COUNTER_SIZE_32_BIT)
  45:Generated_Source\PSoC5/QuadDec.c ****         /* Disable Interrupt. */
  46:Generated_Source\PSoC5/QuadDec.c ****         CyIntDisable(QuadDec_ISR_NUMBER);
  47:Generated_Source\PSoC5/QuadDec.c ****         /* Set the ISR to point to the QuadDec_isr Interrupt. */
  48:Generated_Source\PSoC5/QuadDec.c ****         (void) CyIntSetVector(QuadDec_ISR_NUMBER, & QuadDec_ISR);
  49:Generated_Source\PSoC5/QuadDec.c ****         /* Set the priority. */
  50:Generated_Source\PSoC5/QuadDec.c ****         CyIntSetPriority(QuadDec_ISR_NUMBER, QuadDec_ISR_PRIORITY);
  51:Generated_Source\PSoC5/QuadDec.c ****     #endif /* QuadDec_COUNTER_SIZE == QuadDec_COUNTER_SIZE_32_BIT */
  52:Generated_Source\PSoC5/QuadDec.c **** }
  53:Generated_Source\PSoC5/QuadDec.c **** 
  54:Generated_Source\PSoC5/QuadDec.c **** 
  55:Generated_Source\PSoC5/QuadDec.c **** /*******************************************************************************
  56:Generated_Source\PSoC5/QuadDec.c **** * Function Name: QuadDec_Enable
  57:Generated_Source\PSoC5/QuadDec.c **** ********************************************************************************
  58:Generated_Source\PSoC5/QuadDec.c **** *
  59:Generated_Source\PSoC5/QuadDec.c **** * Summary:
  60:Generated_Source\PSoC5/QuadDec.c **** *  This function enable interrupts from Component and also enable Component's
  61:Generated_Source\PSoC5/QuadDec.c **** *  ISR in case of 32-bit counter.
  62:Generated_Source\PSoC5/QuadDec.c **** *
  63:Generated_Source\PSoC5/QuadDec.c **** * Parameters:
  64:Generated_Source\PSoC5/QuadDec.c **** *  None.
  65:Generated_Source\PSoC5/QuadDec.c **** *
  66:Generated_Source\PSoC5/QuadDec.c **** * Return:
  67:Generated_Source\PSoC5/QuadDec.c **** *  None.
  68:Generated_Source\PSoC5/QuadDec.c **** *
  69:Generated_Source\PSoC5/QuadDec.c **** *******************************************************************************/
  70:Generated_Source\PSoC5/QuadDec.c **** void QuadDec_Enable(void) 
  71:Generated_Source\PSoC5/QuadDec.c **** {
ARM GAS  C:\Users\Bart\AppData\Local\Temp\cc159kjl.s 			page 3


  72:Generated_Source\PSoC5/QuadDec.c ****     uint8 enableInterrupts;
  73:Generated_Source\PSoC5/QuadDec.c **** 
  74:Generated_Source\PSoC5/QuadDec.c ****     QuadDec_SetInterruptMask(QuadDec_INIT_INT_MASK);
  75:Generated_Source\PSoC5/QuadDec.c **** 
  76:Generated_Source\PSoC5/QuadDec.c ****     /* Clear pending interrupts. */
  77:Generated_Source\PSoC5/QuadDec.c ****     (void) QuadDec_GetEvents();
  78:Generated_Source\PSoC5/QuadDec.c ****     
  79:Generated_Source\PSoC5/QuadDec.c ****     enableInterrupts = CyEnterCriticalSection();
  80:Generated_Source\PSoC5/QuadDec.c **** 
  81:Generated_Source\PSoC5/QuadDec.c ****     /* Enable interrupts from Statusi register */
  82:Generated_Source\PSoC5/QuadDec.c ****     QuadDec_SR_AUX_CONTROL |= QuadDec_INTERRUPTS_ENABLE;
  83:Generated_Source\PSoC5/QuadDec.c **** 
  84:Generated_Source\PSoC5/QuadDec.c ****     CyExitCriticalSection(enableInterrupts);        
  85:Generated_Source\PSoC5/QuadDec.c **** 
  86:Generated_Source\PSoC5/QuadDec.c ****     #if (QuadDec_COUNTER_SIZE == QuadDec_COUNTER_SIZE_32_BIT)
  87:Generated_Source\PSoC5/QuadDec.c ****         /* Enable Component interrupts */
  88:Generated_Source\PSoC5/QuadDec.c ****         CyIntEnable(QuadDec_ISR_NUMBER);
  89:Generated_Source\PSoC5/QuadDec.c ****     #endif /* QuadDec_COUNTER_SIZE == QuadDec_COUNTER_SIZE_32_BIT */
  90:Generated_Source\PSoC5/QuadDec.c **** }
  91:Generated_Source\PSoC5/QuadDec.c **** 
  92:Generated_Source\PSoC5/QuadDec.c **** 
  93:Generated_Source\PSoC5/QuadDec.c **** /*******************************************************************************
  94:Generated_Source\PSoC5/QuadDec.c **** * Function Name: QuadDec_Start
  95:Generated_Source\PSoC5/QuadDec.c **** ********************************************************************************
  96:Generated_Source\PSoC5/QuadDec.c **** *
  97:Generated_Source\PSoC5/QuadDec.c **** * Summary:
  98:Generated_Source\PSoC5/QuadDec.c **** *  Initializes UDBs and other relevant hardware.
  99:Generated_Source\PSoC5/QuadDec.c **** *  Resets counter, enables or disables all relevant interrupts.
 100:Generated_Source\PSoC5/QuadDec.c **** *  Starts monitoring the inputs and counting.
 101:Generated_Source\PSoC5/QuadDec.c **** *
 102:Generated_Source\PSoC5/QuadDec.c **** * Parameters:
 103:Generated_Source\PSoC5/QuadDec.c **** *  None.
 104:Generated_Source\PSoC5/QuadDec.c **** *
 105:Generated_Source\PSoC5/QuadDec.c **** * Return:
 106:Generated_Source\PSoC5/QuadDec.c **** *  None.
 107:Generated_Source\PSoC5/QuadDec.c **** *
 108:Generated_Source\PSoC5/QuadDec.c **** * Global variables:
 109:Generated_Source\PSoC5/QuadDec.c **** *  QuadDec_initVar - used to check initial configuration, modified on
 110:Generated_Source\PSoC5/QuadDec.c **** *  first function call.
 111:Generated_Source\PSoC5/QuadDec.c **** *
 112:Generated_Source\PSoC5/QuadDec.c **** * Reentrant:
 113:Generated_Source\PSoC5/QuadDec.c **** *  No.
 114:Generated_Source\PSoC5/QuadDec.c **** *
 115:Generated_Source\PSoC5/QuadDec.c **** *******************************************************************************/
 116:Generated_Source\PSoC5/QuadDec.c **** void QuadDec_Start(void) 
 117:Generated_Source\PSoC5/QuadDec.c **** {
 118:Generated_Source\PSoC5/QuadDec.c ****     #if (QuadDec_COUNTER_SIZE == QuadDec_COUNTER_SIZE_8_BIT)
 119:Generated_Source\PSoC5/QuadDec.c ****         QuadDec_Cnt8_Start();
 120:Generated_Source\PSoC5/QuadDec.c ****         QuadDec_Cnt8_WriteCounter(QuadDec_COUNTER_INIT_VALUE);
 121:Generated_Source\PSoC5/QuadDec.c ****     #else
 122:Generated_Source\PSoC5/QuadDec.c ****         /* (QuadDec_COUNTER_SIZE == QuadDec_COUNTER_SIZE_16_BIT) || 
 123:Generated_Source\PSoC5/QuadDec.c ****         *  (QuadDec_COUNTER_SIZE == QuadDec_COUNTER_SIZE_32_BIT) 
 124:Generated_Source\PSoC5/QuadDec.c ****         */
 125:Generated_Source\PSoC5/QuadDec.c ****         QuadDec_Cnt16_Start();
 126:Generated_Source\PSoC5/QuadDec.c ****         QuadDec_Cnt16_WriteCounter(QuadDec_COUNTER_INIT_VALUE);
 127:Generated_Source\PSoC5/QuadDec.c ****     #endif /* QuadDec_COUNTER_SIZE == QuadDec_COUNTER_SIZE_8_BIT */
 128:Generated_Source\PSoC5/QuadDec.c ****     
ARM GAS  C:\Users\Bart\AppData\Local\Temp\cc159kjl.s 			page 4


 129:Generated_Source\PSoC5/QuadDec.c ****     #if (QuadDec_COUNTER_SIZE == QuadDec_COUNTER_SIZE_32_BIT)        
 130:Generated_Source\PSoC5/QuadDec.c ****        QuadDec_count32SoftPart = 0;
 131:Generated_Source\PSoC5/QuadDec.c ****     #endif /* QuadDec_COUNTER_SIZE == QuadDec_COUNTER_SIZE_32_BIT */
 132:Generated_Source\PSoC5/QuadDec.c **** 
 133:Generated_Source\PSoC5/QuadDec.c ****     if (QuadDec_initVar == 0u)
 134:Generated_Source\PSoC5/QuadDec.c ****     {
 135:Generated_Source\PSoC5/QuadDec.c ****         QuadDec_Init();
 136:Generated_Source\PSoC5/QuadDec.c ****         QuadDec_initVar = 1u;
 137:Generated_Source\PSoC5/QuadDec.c ****     }
 138:Generated_Source\PSoC5/QuadDec.c **** 
 139:Generated_Source\PSoC5/QuadDec.c ****     QuadDec_Enable();
 140:Generated_Source\PSoC5/QuadDec.c **** }
 141:Generated_Source\PSoC5/QuadDec.c **** 
 142:Generated_Source\PSoC5/QuadDec.c **** 
 143:Generated_Source\PSoC5/QuadDec.c **** /*******************************************************************************
 144:Generated_Source\PSoC5/QuadDec.c **** * Function Name: QuadDec_Stop
 145:Generated_Source\PSoC5/QuadDec.c **** ********************************************************************************
 146:Generated_Source\PSoC5/QuadDec.c **** *
 147:Generated_Source\PSoC5/QuadDec.c **** * Summary:
 148:Generated_Source\PSoC5/QuadDec.c **** *  Turns off UDBs and other relevant hardware.
 149:Generated_Source\PSoC5/QuadDec.c **** *
 150:Generated_Source\PSoC5/QuadDec.c **** * Parameters:
 151:Generated_Source\PSoC5/QuadDec.c **** *  None.
 152:Generated_Source\PSoC5/QuadDec.c **** *
 153:Generated_Source\PSoC5/QuadDec.c **** * Return:
 154:Generated_Source\PSoC5/QuadDec.c **** *  None.
 155:Generated_Source\PSoC5/QuadDec.c **** *
 156:Generated_Source\PSoC5/QuadDec.c **** *******************************************************************************/
 157:Generated_Source\PSoC5/QuadDec.c **** void QuadDec_Stop(void) 
 158:Generated_Source\PSoC5/QuadDec.c **** {
  44              		.loc 1 158 0
  45              		.cfi_startproc
  46              		@ args = 0, pretend = 0, frame = 0
  47              		@ frame_needed = 0, uses_anonymous_args = 0
  48              		.loc 1 158 0
  49 0000 08B5     		push	{r3, lr}
  50              		.cfi_def_cfa_offset 8
  51              		.cfi_offset 3, -8
  52              		.cfi_offset 14, -4
 159:Generated_Source\PSoC5/QuadDec.c ****     uint8 enableInterrupts;
 160:Generated_Source\PSoC5/QuadDec.c **** 
 161:Generated_Source\PSoC5/QuadDec.c ****     #if (QuadDec_COUNTER_SIZE == QuadDec_COUNTER_SIZE_8_BIT)
 162:Generated_Source\PSoC5/QuadDec.c ****         QuadDec_Cnt8_Stop();
 163:Generated_Source\PSoC5/QuadDec.c ****     #else 
 164:Generated_Source\PSoC5/QuadDec.c ****         /* (QuadDec_COUNTER_SIZE == QuadDec_COUNTER_SIZE_16_BIT) ||
 165:Generated_Source\PSoC5/QuadDec.c ****         *  (QuadDec_COUNTER_SIZE == QuadDec_COUNTER_SIZE_32_BIT)
 166:Generated_Source\PSoC5/QuadDec.c ****         */
 167:Generated_Source\PSoC5/QuadDec.c ****         QuadDec_Cnt16_Stop();    /* counter disable */
  53              		.loc 1 167 0
  54 0002 FFF7FEFF 		bl	QuadDec_Cnt16_Stop
  55              	.LVL0:
 168:Generated_Source\PSoC5/QuadDec.c ****     #endif /* (QuadDec_COUNTER_SIZE == QuadDec_COUNTER_SIZE_8_BIT) */
 169:Generated_Source\PSoC5/QuadDec.c ****  
 170:Generated_Source\PSoC5/QuadDec.c ****     enableInterrupts = CyEnterCriticalSection();
  56              		.loc 1 170 0
  57 0006 FFF7FEFF 		bl	CyEnterCriticalSection
  58              	.LVL1:
ARM GAS  C:\Users\Bart\AppData\Local\Temp\cc159kjl.s 			page 5


 171:Generated_Source\PSoC5/QuadDec.c **** 
 172:Generated_Source\PSoC5/QuadDec.c ****     /* Disable interrupts interrupts from Statusi register */
 173:Generated_Source\PSoC5/QuadDec.c ****     QuadDec_SR_AUX_CONTROL &= (uint8) (~QuadDec_INTERRUPTS_ENABLE);
  59              		.loc 1 173 0
  60 000a 044A     		ldr	r2, .L4
  61 000c 1378     		ldrb	r3, [r2]	@ zero_extendqisi2
  62 000e 03F0EF03 		and	r3, r3, #239
  63 0012 1370     		strb	r3, [r2]
 174:Generated_Source\PSoC5/QuadDec.c **** 
 175:Generated_Source\PSoC5/QuadDec.c ****     CyExitCriticalSection(enableInterrupts);
  64              		.loc 1 175 0
  65 0014 FFF7FEFF 		bl	CyExitCriticalSection
  66              	.LVL2:
  67 0018 08BD     		pop	{r3, pc}
  68              	.L5:
  69 001a 00BF     		.align	2
  70              	.L4:
  71 001c 99640040 		.word	1073767577
  72              		.cfi_endproc
  73              	.LFE3:
  74              		.size	QuadDec_Stop, .-QuadDec_Stop
  75              		.section	.text.QuadDec_GetCounter,"ax",%progbits
  76              		.align	2
  77              		.global	QuadDec_GetCounter
  78              		.thumb
  79              		.thumb_func
  80              		.type	QuadDec_GetCounter, %function
  81              	QuadDec_GetCounter:
  82              	.LFB4:
 176:Generated_Source\PSoC5/QuadDec.c **** 
 177:Generated_Source\PSoC5/QuadDec.c ****     #if (QuadDec_COUNTER_SIZE == QuadDec_COUNTER_SIZE_32_BIT)
 178:Generated_Source\PSoC5/QuadDec.c ****         CyIntDisable(QuadDec_ISR_NUMBER);    /* interrupt disable */
 179:Generated_Source\PSoC5/QuadDec.c ****     #endif /* QuadDec_COUNTER_SIZE == QuadDec_COUNTER_SIZE_32_BIT */
 180:Generated_Source\PSoC5/QuadDec.c **** }
 181:Generated_Source\PSoC5/QuadDec.c **** 
 182:Generated_Source\PSoC5/QuadDec.c **** 
 183:Generated_Source\PSoC5/QuadDec.c **** /*******************************************************************************
 184:Generated_Source\PSoC5/QuadDec.c **** * Function Name: QuadDec_GetCounter
 185:Generated_Source\PSoC5/QuadDec.c **** ********************************************************************************
 186:Generated_Source\PSoC5/QuadDec.c **** *
 187:Generated_Source\PSoC5/QuadDec.c **** * Summary:
 188:Generated_Source\PSoC5/QuadDec.c **** *  Reports the current value of the counter.
 189:Generated_Source\PSoC5/QuadDec.c **** *
 190:Generated_Source\PSoC5/QuadDec.c **** * Parameters:
 191:Generated_Source\PSoC5/QuadDec.c **** *  None.
 192:Generated_Source\PSoC5/QuadDec.c **** *
 193:Generated_Source\PSoC5/QuadDec.c **** * Return:
 194:Generated_Source\PSoC5/QuadDec.c **** *  The counter value. Return type is signed and per the counter size setting.
 195:Generated_Source\PSoC5/QuadDec.c **** *  A positive value indicates clockwise movement (B before A).
 196:Generated_Source\PSoC5/QuadDec.c **** *
 197:Generated_Source\PSoC5/QuadDec.c **** * Global variables:
 198:Generated_Source\PSoC5/QuadDec.c **** *  QuadDec_count32SoftPart - used to get hi 16 bit for current value
 199:Generated_Source\PSoC5/QuadDec.c **** *  of the 32-bit counter, when Counter size equal 32-bit.
 200:Generated_Source\PSoC5/QuadDec.c **** *
 201:Generated_Source\PSoC5/QuadDec.c **** *******************************************************************************/
 202:Generated_Source\PSoC5/QuadDec.c **** int16 QuadDec_GetCounter(void) 
 203:Generated_Source\PSoC5/QuadDec.c **** {
ARM GAS  C:\Users\Bart\AppData\Local\Temp\cc159kjl.s 			page 6


  83              		.loc 1 203 0
  84              		.cfi_startproc
  85              		@ args = 0, pretend = 0, frame = 0
  86              		@ frame_needed = 0, uses_anonymous_args = 0
  87 0000 08B5     		push	{r3, lr}
  88              		.cfi_def_cfa_offset 8
  89              		.cfi_offset 3, -8
  90              		.cfi_offset 14, -4
 204:Generated_Source\PSoC5/QuadDec.c ****     int16 count;
 205:Generated_Source\PSoC5/QuadDec.c ****     uint16 tmpCnt;
 206:Generated_Source\PSoC5/QuadDec.c **** 
 207:Generated_Source\PSoC5/QuadDec.c ****     #if (QuadDec_COUNTER_SIZE == QuadDec_COUNTER_SIZE_32_BIT)
 208:Generated_Source\PSoC5/QuadDec.c ****         int16 hwCount;
 209:Generated_Source\PSoC5/QuadDec.c **** 
 210:Generated_Source\PSoC5/QuadDec.c ****         CyIntDisable(QuadDec_ISR_NUMBER);
 211:Generated_Source\PSoC5/QuadDec.c **** 
 212:Generated_Source\PSoC5/QuadDec.c ****         tmpCnt = QuadDec_Cnt16_ReadCounter();
 213:Generated_Source\PSoC5/QuadDec.c ****         hwCount = (int16) ((int32) tmpCnt - (int32) QuadDec_COUNTER_INIT_VALUE);
 214:Generated_Source\PSoC5/QuadDec.c ****         count = QuadDec_count32SoftPart + hwCount;
 215:Generated_Source\PSoC5/QuadDec.c **** 
 216:Generated_Source\PSoC5/QuadDec.c ****         CyIntEnable(QuadDec_ISR_NUMBER);
 217:Generated_Source\PSoC5/QuadDec.c ****     #else 
 218:Generated_Source\PSoC5/QuadDec.c ****         /* (QuadDec_COUNTER_SIZE == QuadDec_COUNTER_SIZE_8_BIT) || 
 219:Generated_Source\PSoC5/QuadDec.c ****         *  (QuadDec_COUNTER_SIZE == QuadDec_COUNTER_SIZE_16_BIT)
 220:Generated_Source\PSoC5/QuadDec.c ****         */
 221:Generated_Source\PSoC5/QuadDec.c ****         #if (QuadDec_COUNTER_SIZE == QuadDec_COUNTER_SIZE_8_BIT)
 222:Generated_Source\PSoC5/QuadDec.c ****             tmpCnt = QuadDec_Cnt8_ReadCounter();
 223:Generated_Source\PSoC5/QuadDec.c ****         #else /* (QuadDec_COUNTER_SIZE == QuadDec_COUNTER_SIZE_16_BIT) */
 224:Generated_Source\PSoC5/QuadDec.c ****             tmpCnt = QuadDec_Cnt16_ReadCounter();
  91              		.loc 1 224 0
  92 0002 FFF7FEFF 		bl	QuadDec_Cnt16_ReadCounter
  93              	.LVL3:
 225:Generated_Source\PSoC5/QuadDec.c ****         #endif  /* QuadDec_COUNTER_SIZE == QuadDec_COUNTER_SIZE_8_BIT */
 226:Generated_Source\PSoC5/QuadDec.c **** 
 227:Generated_Source\PSoC5/QuadDec.c ****         count = (int16) ((int32) tmpCnt -
  94              		.loc 1 227 0
  95 0006 A0F50040 		sub	r0, r0, #32768
  96              	.LVL4:
 228:Generated_Source\PSoC5/QuadDec.c ****                 (int32) QuadDec_COUNTER_INIT_VALUE);
 229:Generated_Source\PSoC5/QuadDec.c **** 
 230:Generated_Source\PSoC5/QuadDec.c ****     #endif /* QuadDec_COUNTER_SIZE == QuadDec_COUNTER_SIZE_32_BIT */ 
 231:Generated_Source\PSoC5/QuadDec.c **** 
 232:Generated_Source\PSoC5/QuadDec.c ****     return (count);
 233:Generated_Source\PSoC5/QuadDec.c **** }
  97              		.loc 1 233 0
  98 000a 00B2     		sxth	r0, r0
  99 000c 08BD     		pop	{r3, pc}
 100              		.cfi_endproc
 101              	.LFE4:
 102              		.size	QuadDec_GetCounter, .-QuadDec_GetCounter
 103 000e 00BF     		.section	.text.QuadDec_SetCounter,"ax",%progbits
 104              		.align	2
 105              		.global	QuadDec_SetCounter
 106              		.thumb
 107              		.thumb_func
 108              		.type	QuadDec_SetCounter, %function
 109              	QuadDec_SetCounter:
ARM GAS  C:\Users\Bart\AppData\Local\Temp\cc159kjl.s 			page 7


 110              	.LFB5:
 234:Generated_Source\PSoC5/QuadDec.c **** 
 235:Generated_Source\PSoC5/QuadDec.c **** 
 236:Generated_Source\PSoC5/QuadDec.c **** /*******************************************************************************
 237:Generated_Source\PSoC5/QuadDec.c **** * Function Name: QuadDec_SetCounter
 238:Generated_Source\PSoC5/QuadDec.c **** ********************************************************************************
 239:Generated_Source\PSoC5/QuadDec.c **** *
 240:Generated_Source\PSoC5/QuadDec.c **** * Summary:
 241:Generated_Source\PSoC5/QuadDec.c **** *  Sets the current value of the counter.
 242:Generated_Source\PSoC5/QuadDec.c **** *
 243:Generated_Source\PSoC5/QuadDec.c **** * Parameters:
 244:Generated_Source\PSoC5/QuadDec.c **** *  value:  The new value. Parameter type is signed and per the counter size
 245:Generated_Source\PSoC5/QuadDec.c **** *  setting.
 246:Generated_Source\PSoC5/QuadDec.c **** *
 247:Generated_Source\PSoC5/QuadDec.c **** * Return:
 248:Generated_Source\PSoC5/QuadDec.c **** *  None.
 249:Generated_Source\PSoC5/QuadDec.c **** *
 250:Generated_Source\PSoC5/QuadDec.c **** * Global variables:
 251:Generated_Source\PSoC5/QuadDec.c **** *  QuadDec_count32SoftPart - modified to set hi 16 bit for current
 252:Generated_Source\PSoC5/QuadDec.c **** *  value of the 32-bit counter, when Counter size equal 32-bit.
 253:Generated_Source\PSoC5/QuadDec.c **** *
 254:Generated_Source\PSoC5/QuadDec.c **** * Reentrant:
 255:Generated_Source\PSoC5/QuadDec.c **** *  No.
 256:Generated_Source\PSoC5/QuadDec.c **** *
 257:Generated_Source\PSoC5/QuadDec.c **** *******************************************************************************/
 258:Generated_Source\PSoC5/QuadDec.c **** void QuadDec_SetCounter(int16 value) 
 259:Generated_Source\PSoC5/QuadDec.c **** {
 111              		.loc 1 259 0
 112              		.cfi_startproc
 113              		@ args = 0, pretend = 0, frame = 0
 114              		@ frame_needed = 0, uses_anonymous_args = 0
 115              	.LVL5:
 116 0000 08B5     		push	{r3, lr}
 117              		.cfi_def_cfa_offset 8
 118              		.cfi_offset 3, -8
 119              		.cfi_offset 14, -4
 260:Generated_Source\PSoC5/QuadDec.c ****     #if ((QuadDec_COUNTER_SIZE == QuadDec_COUNTER_SIZE_8_BIT) || \
 261:Generated_Source\PSoC5/QuadDec.c ****          (QuadDec_COUNTER_SIZE == QuadDec_COUNTER_SIZE_16_BIT))
 262:Generated_Source\PSoC5/QuadDec.c ****         uint16 count;
 263:Generated_Source\PSoC5/QuadDec.c ****         
 264:Generated_Source\PSoC5/QuadDec.c ****         if (value >= 0)
 120              		.loc 1 264 0
 121 0002 0028     		cmp	r0, #0
 122              	.LVL6:
 123 0004 03DB     		blt	.L9
 265:Generated_Source\PSoC5/QuadDec.c ****         {
 266:Generated_Source\PSoC5/QuadDec.c ****             count = (uint16) value + QuadDec_COUNTER_INIT_VALUE;
 124              		.loc 1 266 0
 125 0006 80B2     		uxth	r0, r0
 126 0008 80F40040 		eor	r0, r0, #32768
 127              	.LVL7:
 128 000c 02E0     		b	.L10
 129              	.LVL8:
 130              	.L9:
 267:Generated_Source\PSoC5/QuadDec.c ****         }
 268:Generated_Source\PSoC5/QuadDec.c ****         else
 269:Generated_Source\PSoC5/QuadDec.c ****         {
ARM GAS  C:\Users\Bart\AppData\Local\Temp\cc159kjl.s 			page 8


 270:Generated_Source\PSoC5/QuadDec.c ****             count = QuadDec_COUNTER_INIT_VALUE - (uint16)(-value);
 131              		.loc 1 270 0
 132 000e A0F50040 		sub	r0, r0, #32768
 133 0012 80B2     		uxth	r0, r0
 134              	.LVL9:
 135              	.L10:
 271:Generated_Source\PSoC5/QuadDec.c ****         }
 272:Generated_Source\PSoC5/QuadDec.c ****         #if (QuadDec_COUNTER_SIZE == QuadDec_COUNTER_SIZE_8_BIT)
 273:Generated_Source\PSoC5/QuadDec.c ****             QuadDec_Cnt8_WriteCounter(count);
 274:Generated_Source\PSoC5/QuadDec.c ****         #else /* (QuadDec_COUNTER_SIZE == QuadDec_COUNTER_SIZE_16_BIT) */
 275:Generated_Source\PSoC5/QuadDec.c ****             QuadDec_Cnt16_WriteCounter(count);
 136              		.loc 1 275 0
 137 0014 FFF7FEFF 		bl	QuadDec_Cnt16_WriteCounter
 138              	.LVL10:
 139 0018 08BD     		pop	{r3, pc}
 140              		.cfi_endproc
 141              	.LFE5:
 142              		.size	QuadDec_SetCounter, .-QuadDec_SetCounter
 143 001a 00BF     		.section	.text.QuadDec_GetEvents,"ax",%progbits
 144              		.align	2
 145              		.global	QuadDec_GetEvents
 146              		.thumb
 147              		.thumb_func
 148              		.type	QuadDec_GetEvents, %function
 149              	QuadDec_GetEvents:
 150              	.LFB6:
 276:Generated_Source\PSoC5/QuadDec.c ****         #endif  /* QuadDec_COUNTER_SIZE == QuadDec_COUNTER_SIZE_8_BIT */
 277:Generated_Source\PSoC5/QuadDec.c ****     #else /* (QuadDec_COUNTER_SIZE == QuadDec_COUNTER_SIZE_32_BIT) */
 278:Generated_Source\PSoC5/QuadDec.c ****         CyIntDisable(QuadDec_ISR_NUMBER);
 279:Generated_Source\PSoC5/QuadDec.c **** 
 280:Generated_Source\PSoC5/QuadDec.c ****         QuadDec_Cnt16_WriteCounter(QuadDec_COUNTER_INIT_VALUE);
 281:Generated_Source\PSoC5/QuadDec.c ****         QuadDec_count32SoftPart = value;
 282:Generated_Source\PSoC5/QuadDec.c **** 
 283:Generated_Source\PSoC5/QuadDec.c ****         CyIntEnable(QuadDec_ISR_NUMBER);
 284:Generated_Source\PSoC5/QuadDec.c ****     #endif  /* (QuadDec_COUNTER_SIZE == QuadDec_COUNTER_SIZE_8_BIT) ||
 285:Generated_Source\PSoC5/QuadDec.c ****              * (QuadDec_COUNTER_SIZE == QuadDec_COUNTER_SIZE_16_BIT)
 286:Generated_Source\PSoC5/QuadDec.c ****              */
 287:Generated_Source\PSoC5/QuadDec.c **** }
 288:Generated_Source\PSoC5/QuadDec.c **** 
 289:Generated_Source\PSoC5/QuadDec.c **** 
 290:Generated_Source\PSoC5/QuadDec.c **** /*******************************************************************************
 291:Generated_Source\PSoC5/QuadDec.c **** * Function Name: QuadDec_GetEvents
 292:Generated_Source\PSoC5/QuadDec.c **** ********************************************************************************
 293:Generated_Source\PSoC5/QuadDec.c **** * 
 294:Generated_Source\PSoC5/QuadDec.c **** * Summary:
 295:Generated_Source\PSoC5/QuadDec.c **** *   Reports the current status of events. This function clears the bits of the 
 296:Generated_Source\PSoC5/QuadDec.c **** *   status register.
 297:Generated_Source\PSoC5/QuadDec.c **** *
 298:Generated_Source\PSoC5/QuadDec.c **** * Parameters:
 299:Generated_Source\PSoC5/QuadDec.c **** *  None.
 300:Generated_Source\PSoC5/QuadDec.c **** *
 301:Generated_Source\PSoC5/QuadDec.c **** * Return:
 302:Generated_Source\PSoC5/QuadDec.c **** *  The events, as bits in an unsigned 8-bit value:
 303:Generated_Source\PSoC5/QuadDec.c **** *    Bit      Description
 304:Generated_Source\PSoC5/QuadDec.c **** *     0        Counter overflow.
 305:Generated_Source\PSoC5/QuadDec.c **** *     1        Counter underflow.
 306:Generated_Source\PSoC5/QuadDec.c **** *     2        Counter reset due to index, if index input is used.
ARM GAS  C:\Users\Bart\AppData\Local\Temp\cc159kjl.s 			page 9


 307:Generated_Source\PSoC5/QuadDec.c **** *     3        Invalid A, B inputs state transition.
 308:Generated_Source\PSoC5/QuadDec.c **** *
 309:Generated_Source\PSoC5/QuadDec.c **** *******************************************************************************/
 310:Generated_Source\PSoC5/QuadDec.c **** uint8 QuadDec_GetEvents(void) 
 311:Generated_Source\PSoC5/QuadDec.c **** {
 151              		.loc 1 311 0
 152              		.cfi_startproc
 153              		@ args = 0, pretend = 0, frame = 0
 154              		@ frame_needed = 0, uses_anonymous_args = 0
 155              		@ link register save eliminated.
 312:Generated_Source\PSoC5/QuadDec.c ****     return (QuadDec_STATUS_REG & QuadDec_INIT_INT_MASK);
 156              		.loc 1 312 0
 157 0000 024B     		ldr	r3, .L13
 158 0002 1878     		ldrb	r0, [r3]	@ zero_extendqisi2
 313:Generated_Source\PSoC5/QuadDec.c **** }
 159              		.loc 1 313 0
 160 0004 00F00F00 		and	r0, r0, #15
 161 0008 7047     		bx	lr
 162              	.L14:
 163 000a 00BF     		.align	2
 164              	.L13:
 165 000c 69640040 		.word	1073767529
 166              		.cfi_endproc
 167              	.LFE6:
 168              		.size	QuadDec_GetEvents, .-QuadDec_GetEvents
 169              		.section	.text.QuadDec_SetInterruptMask,"ax",%progbits
 170              		.align	2
 171              		.global	QuadDec_SetInterruptMask
 172              		.thumb
 173              		.thumb_func
 174              		.type	QuadDec_SetInterruptMask, %function
 175              	QuadDec_SetInterruptMask:
 176              	.LFB7:
 314:Generated_Source\PSoC5/QuadDec.c **** 
 315:Generated_Source\PSoC5/QuadDec.c **** 
 316:Generated_Source\PSoC5/QuadDec.c **** /*******************************************************************************
 317:Generated_Source\PSoC5/QuadDec.c **** * Function Name: QuadDec_SetInterruptMask
 318:Generated_Source\PSoC5/QuadDec.c **** ********************************************************************************
 319:Generated_Source\PSoC5/QuadDec.c **** *
 320:Generated_Source\PSoC5/QuadDec.c **** * Summary:
 321:Generated_Source\PSoC5/QuadDec.c **** *  Enables / disables interrupts due to the events.
 322:Generated_Source\PSoC5/QuadDec.c **** *  For the 32-bit counter, the overflow, underflow and reset interrupts cannot
 323:Generated_Source\PSoC5/QuadDec.c **** *  be disabled, these bits are ignored.
 324:Generated_Source\PSoC5/QuadDec.c **** *
 325:Generated_Source\PSoC5/QuadDec.c **** * Parameters:
 326:Generated_Source\PSoC5/QuadDec.c **** *  mask: Enable / disable bits in an 8-bit value, where 1 enables the interrupt.
 327:Generated_Source\PSoC5/QuadDec.c **** *
 328:Generated_Source\PSoC5/QuadDec.c **** * Return:
 329:Generated_Source\PSoC5/QuadDec.c **** *  None.
 330:Generated_Source\PSoC5/QuadDec.c **** *
 331:Generated_Source\PSoC5/QuadDec.c **** *******************************************************************************/
 332:Generated_Source\PSoC5/QuadDec.c **** void QuadDec_SetInterruptMask(uint8 mask) 
 333:Generated_Source\PSoC5/QuadDec.c **** {
 177              		.loc 1 333 0
 178              		.cfi_startproc
 179              		@ args = 0, pretend = 0, frame = 0
 180              		@ frame_needed = 0, uses_anonymous_args = 0
ARM GAS  C:\Users\Bart\AppData\Local\Temp\cc159kjl.s 			page 10


 181              		@ link register save eliminated.
 182              	.LVL11:
 334:Generated_Source\PSoC5/QuadDec.c ****     #if (QuadDec_COUNTER_SIZE == QuadDec_COUNTER_SIZE_32_BIT)
 335:Generated_Source\PSoC5/QuadDec.c ****         /* Underflow, Overflow and Reset interrupts for 32-bit Counter are always enable */
 336:Generated_Source\PSoC5/QuadDec.c ****         mask |= (QuadDec_COUNTER_OVERFLOW | QuadDec_COUNTER_UNDERFLOW |
 337:Generated_Source\PSoC5/QuadDec.c ****                  QuadDec_COUNTER_RESET);
 338:Generated_Source\PSoC5/QuadDec.c ****     #endif /* QuadDec_COUNTER_SIZE == QuadDec_COUNTER_SIZE_32_BIT */
 339:Generated_Source\PSoC5/QuadDec.c **** 
 340:Generated_Source\PSoC5/QuadDec.c ****     QuadDec_STATUS_MASK = mask;
 183              		.loc 1 340 0
 184 0000 014B     		ldr	r3, .L16
 185 0002 1870     		strb	r0, [r3]
 186 0004 7047     		bx	lr
 187              	.L17:
 188 0006 00BF     		.align	2
 189              	.L16:
 190 0008 89640040 		.word	1073767561
 191              		.cfi_endproc
 192              	.LFE7:
 193              		.size	QuadDec_SetInterruptMask, .-QuadDec_SetInterruptMask
 194              		.section	.text.QuadDec_Enable,"ax",%progbits
 195              		.align	2
 196              		.global	QuadDec_Enable
 197              		.thumb
 198              		.thumb_func
 199              		.type	QuadDec_Enable, %function
 200              	QuadDec_Enable:
 201              	.LFB1:
  71:Generated_Source\PSoC5/QuadDec.c ****     uint8 enableInterrupts;
 202              		.loc 1 71 0
 203              		.cfi_startproc
 204              		@ args = 0, pretend = 0, frame = 0
 205              		@ frame_needed = 0, uses_anonymous_args = 0
 206 0000 08B5     		push	{r3, lr}
 207              		.cfi_def_cfa_offset 8
 208              		.cfi_offset 3, -8
 209              		.cfi_offset 14, -4
  74:Generated_Source\PSoC5/QuadDec.c **** 
 210              		.loc 1 74 0
 211 0002 0F20     		movs	r0, #15
 212 0004 FFF7FEFF 		bl	QuadDec_SetInterruptMask
 213              	.LVL12:
  77:Generated_Source\PSoC5/QuadDec.c ****     
 214              		.loc 1 77 0
 215 0008 FFF7FEFF 		bl	QuadDec_GetEvents
 216              	.LVL13:
  79:Generated_Source\PSoC5/QuadDec.c **** 
 217              		.loc 1 79 0
 218 000c FFF7FEFF 		bl	CyEnterCriticalSection
 219              	.LVL14:
  82:Generated_Source\PSoC5/QuadDec.c **** 
 220              		.loc 1 82 0
 221 0010 034A     		ldr	r2, .L20
 222 0012 1378     		ldrb	r3, [r2]	@ zero_extendqisi2
 223 0014 43F01003 		orr	r3, r3, #16
 224 0018 1370     		strb	r3, [r2]
  84:Generated_Source\PSoC5/QuadDec.c **** 
ARM GAS  C:\Users\Bart\AppData\Local\Temp\cc159kjl.s 			page 11


 225              		.loc 1 84 0
 226 001a FFF7FEFF 		bl	CyExitCriticalSection
 227              	.LVL15:
 228 001e 08BD     		pop	{r3, pc}
 229              	.L21:
 230              		.align	2
 231              	.L20:
 232 0020 99640040 		.word	1073767577
 233              		.cfi_endproc
 234              	.LFE1:
 235              		.size	QuadDec_Enable, .-QuadDec_Enable
 236              		.section	.text.QuadDec_Start,"ax",%progbits
 237              		.align	2
 238              		.global	QuadDec_Start
 239              		.thumb
 240              		.thumb_func
 241              		.type	QuadDec_Start, %function
 242              	QuadDec_Start:
 243              	.LFB2:
 117:Generated_Source\PSoC5/QuadDec.c ****     #if (QuadDec_COUNTER_SIZE == QuadDec_COUNTER_SIZE_8_BIT)
 244              		.loc 1 117 0
 245              		.cfi_startproc
 246              		@ args = 0, pretend = 0, frame = 0
 247              		@ frame_needed = 0, uses_anonymous_args = 0
 248 0000 08B5     		push	{r3, lr}
 249              		.cfi_def_cfa_offset 8
 250              		.cfi_offset 3, -8
 251              		.cfi_offset 14, -4
 125:Generated_Source\PSoC5/QuadDec.c ****         QuadDec_Cnt16_WriteCounter(QuadDec_COUNTER_INIT_VALUE);
 252              		.loc 1 125 0
 253 0002 FFF7FEFF 		bl	QuadDec_Cnt16_Start
 254              	.LVL16:
 126:Generated_Source\PSoC5/QuadDec.c ****     #endif /* QuadDec_COUNTER_SIZE == QuadDec_COUNTER_SIZE_8_BIT */
 255              		.loc 1 126 0
 256 0006 4FF40040 		mov	r0, #32768
 257 000a FFF7FEFF 		bl	QuadDec_Cnt16_WriteCounter
 258              	.LVL17:
 133:Generated_Source\PSoC5/QuadDec.c ****     {
 259              		.loc 1 133 0
 260 000e 044B     		ldr	r3, .L25
 261 0010 1B78     		ldrb	r3, [r3]	@ zero_extendqisi2
 262 0012 13B9     		cbnz	r3, .L23
 136:Generated_Source\PSoC5/QuadDec.c ****     }
 263              		.loc 1 136 0
 264 0014 0122     		movs	r2, #1
 265 0016 024B     		ldr	r3, .L25
 266 0018 1A70     		strb	r2, [r3]
 267              	.L23:
 139:Generated_Source\PSoC5/QuadDec.c **** }
 268              		.loc 1 139 0
 269 001a FFF7FEFF 		bl	QuadDec_Enable
 270              	.LVL18:
 271 001e 08BD     		pop	{r3, pc}
 272              	.L26:
 273              		.align	2
 274              	.L25:
 275 0020 00000000 		.word	.LANCHOR0
ARM GAS  C:\Users\Bart\AppData\Local\Temp\cc159kjl.s 			page 12


 276              		.cfi_endproc
 277              	.LFE2:
 278              		.size	QuadDec_Start, .-QuadDec_Start
 279              		.section	.text.QuadDec_GetInterruptMask,"ax",%progbits
 280              		.align	2
 281              		.global	QuadDec_GetInterruptMask
 282              		.thumb
 283              		.thumb_func
 284              		.type	QuadDec_GetInterruptMask, %function
 285              	QuadDec_GetInterruptMask:
 286              	.LFB8:
 341:Generated_Source\PSoC5/QuadDec.c **** }
 342:Generated_Source\PSoC5/QuadDec.c **** 
 343:Generated_Source\PSoC5/QuadDec.c **** 
 344:Generated_Source\PSoC5/QuadDec.c **** /*******************************************************************************
 345:Generated_Source\PSoC5/QuadDec.c **** * Function Name: QuadDec_GetInterruptMask
 346:Generated_Source\PSoC5/QuadDec.c **** ********************************************************************************
 347:Generated_Source\PSoC5/QuadDec.c **** *
 348:Generated_Source\PSoC5/QuadDec.c **** * Summary:
 349:Generated_Source\PSoC5/QuadDec.c **** *  Reports the current interrupt mask settings.
 350:Generated_Source\PSoC5/QuadDec.c **** *
 351:Generated_Source\PSoC5/QuadDec.c **** * Parameters:
 352:Generated_Source\PSoC5/QuadDec.c **** *  None.
 353:Generated_Source\PSoC5/QuadDec.c **** *
 354:Generated_Source\PSoC5/QuadDec.c **** * Return:
 355:Generated_Source\PSoC5/QuadDec.c **** *  Enable / disable bits in an 8-bit value, where 1 enables the interrupt.
 356:Generated_Source\PSoC5/QuadDec.c **** *  For the 32-bit counter, the overflow, underflow and reset enable bits are
 357:Generated_Source\PSoC5/QuadDec.c **** *  always set.
 358:Generated_Source\PSoC5/QuadDec.c **** *
 359:Generated_Source\PSoC5/QuadDec.c **** *******************************************************************************/
 360:Generated_Source\PSoC5/QuadDec.c **** uint8 QuadDec_GetInterruptMask(void) 
 361:Generated_Source\PSoC5/QuadDec.c **** {
 287              		.loc 1 361 0
 288              		.cfi_startproc
 289              		@ args = 0, pretend = 0, frame = 0
 290              		@ frame_needed = 0, uses_anonymous_args = 0
 291              		@ link register save eliminated.
 362:Generated_Source\PSoC5/QuadDec.c ****     return (QuadDec_STATUS_MASK & QuadDec_INIT_INT_MASK);
 292              		.loc 1 362 0
 293 0000 024B     		ldr	r3, .L28
 294 0002 1878     		ldrb	r0, [r3]	@ zero_extendqisi2
 363:Generated_Source\PSoC5/QuadDec.c **** }
 295              		.loc 1 363 0
 296 0004 00F00F00 		and	r0, r0, #15
 297 0008 7047     		bx	lr
 298              	.L29:
 299 000a 00BF     		.align	2
 300              	.L28:
 301 000c 89640040 		.word	1073767561
 302              		.cfi_endproc
 303              	.LFE8:
 304              		.size	QuadDec_GetInterruptMask, .-QuadDec_GetInterruptMask
 305              		.global	QuadDec_initVar
 306              		.bss
 307              		.set	.LANCHOR0,. + 0
 308              		.type	QuadDec_initVar, %object
 309              		.size	QuadDec_initVar, 1
ARM GAS  C:\Users\Bart\AppData\Local\Temp\cc159kjl.s 			page 13


 310              	QuadDec_initVar:
 311 0000 00       		.space	1
 312              		.text
 313              	.Letext0:
 314              		.file 2 "Generated_Source\\PSoC5\\cytypes.h"
 315              		.file 3 "Generated_Source\\PSoC5\\CyLib.h"
 316              		.file 4 "Generated_Source\\PSoC5\\QuadDec_Cnt16.h"