ARM GAS  C:\Users\Bart\AppData\Local\Temp\ccYn2oUj.s 			page 1


   1              		.syntax unified
   2              		.cpu cortex-m3
   3              		.fpu softvfp
   4              		.eabi_attribute 20, 1
   5              		.eabi_attribute 21, 1
   6              		.eabi_attribute 23, 3
   7              		.eabi_attribute 24, 1
   8              		.eabi_attribute 25, 1
   9              		.eabi_attribute 26, 1
  10              		.eabi_attribute 30, 1
  11              		.eabi_attribute 34, 1
  12              		.eabi_attribute 18, 4
  13              		.thumb
  14              		.file	"report.c"
  15              		.text
  16              	.Ltext0:
  17              		.cfi_sections	.debug_frame
  18              		.section	.text.report_util_line_feed,"ax",%progbits
  19              		.align	2
  20              		.thumb
  21              		.thumb_func
  22              		.type	report_util_line_feed, %function
  23              	report_util_line_feed:
  24              	.LFB64:
  25              		.file 1 "report.c"
   1:report.c      **** /*
   2:report.c      ****   report.c - reporting and messaging methods
   3:report.c      ****   Part of Grbl
   4:report.c      ****   Updated For PSOC Barton J. Dring 2017
   5:report.c      **** 
   6:report.c      ****   Copyright (c) 2012-2016 Sungeun K. Jeon for Gnea Research LLC
   7:report.c      **** 
   8:report.c      ****   Grbl is free software: you can redistribute it and/or modify
   9:report.c      ****   it under the terms of the GNU General Public License as published by
  10:report.c      ****   the Free Software Foundation, either version 3 of the License, or
  11:report.c      ****   (at your option) any later version.
  12:report.c      **** 
  13:report.c      ****   Grbl is distributed in the hope that it will be useful,
  14:report.c      ****   but WITHOUT ANY WARRANTY; without even the implied warranty of
  15:report.c      ****   MERCHANTABILITY or FITNESS FOR A PARTICULAR PURPOSE.  See the
  16:report.c      ****   GNU General Public License for more details.
  17:report.c      **** 
  18:report.c      ****   You should have received a copy of the GNU General Public License
  19:report.c      ****   along with Grbl.  If not, see <http://www.gnu.org/licenses/>.
  20:report.c      **** */
  21:report.c      **** 
  22:report.c      **** /*
  23:report.c      ****   This file functions as the primary feedback interface for Grbl. Any outgoing data, such
  24:report.c      ****   as the protocol status messages, feedback messages, and status reports, are stored here.
  25:report.c      ****   For the most part, these functions primarily are called from protocol.c methods. If a
  26:report.c      ****   different style feedback is desired (i.e. JSON), then a user can change these following
  27:report.c      ****   methods to accomodate their needs.
  28:report.c      **** */
  29:report.c      **** 
  30:report.c      **** #include "grbl.h"
  31:report.c      **** 
  32:report.c      **** 
ARM GAS  C:\Users\Bart\AppData\Local\Temp\ccYn2oUj.s 			page 2


  33:report.c      **** // Internal report utilities to reduce flash with repetitive tasks turned into functions.
  34:report.c      **** void report_util_setting_prefix(uint8_t n) { serial_write('$'); print_uint8_base10(n); serial_write
  35:report.c      **** static void report_util_line_feed() { printPgmString(PSTR("\r\n")); }
  26              		.loc 1 35 0
  27              		.cfi_startproc
  28              		@ args = 0, pretend = 0, frame = 0
  29              		@ frame_needed = 0, uses_anonymous_args = 0
  30 0000 08B5     		push	{r3, lr}
  31              		.cfi_def_cfa_offset 8
  32              		.cfi_offset 3, -8
  33              		.cfi_offset 14, -4
  34              		.loc 1 35 0
  35 0002 0248     		ldr	r0, .L3
  36 0004 FFF7FEFF 		bl	printPgmString
  37              	.LVL0:
  38 0008 08BD     		pop	{r3, pc}
  39              	.L4:
  40 000a 00BF     		.align	2
  41              	.L3:
  42 000c 00000000 		.word	.LC0
  43              		.cfi_endproc
  44              	.LFE64:
  45              		.size	report_util_line_feed, .-report_util_line_feed
  46              		.section	.text.report_util_feedback_line_feed,"ax",%progbits
  47              		.align	2
  48              		.thumb
  49              		.thumb_func
  50              		.type	report_util_feedback_line_feed, %function
  51              	report_util_feedback_line_feed:
  52              	.LFB65:
  36:report.c      **** static void report_util_feedback_line_feed() { serial_write(']'); report_util_line_feed(); }
  53              		.loc 1 36 0
  54              		.cfi_startproc
  55              		@ args = 0, pretend = 0, frame = 0
  56              		@ frame_needed = 0, uses_anonymous_args = 0
  57 0000 08B5     		push	{r3, lr}
  58              		.cfi_def_cfa_offset 8
  59              		.cfi_offset 3, -8
  60              		.cfi_offset 14, -4
  61              		.loc 1 36 0
  62 0002 5D20     		movs	r0, #93
  63 0004 FFF7FEFF 		bl	serial_write
  64              	.LVL1:
  65 0008 FFF7FEFF 		bl	report_util_line_feed
  66              	.LVL2:
  67 000c 08BD     		pop	{r3, pc}
  68              		.cfi_endproc
  69              	.LFE65:
  70              		.size	report_util_feedback_line_feed, .-report_util_feedback_line_feed
  71 000e 00BF     		.section	.text.report_util_gcode_modes_G,"ax",%progbits
  72              		.align	2
  73              		.thumb
  74              		.thumb_func
  75              		.type	report_util_gcode_modes_G, %function
  76              	report_util_gcode_modes_G:
  77              	.LFB66:
  37:report.c      **** static void report_util_gcode_modes_G() { printPgmString(PSTR(" G")); }
ARM GAS  C:\Users\Bart\AppData\Local\Temp\ccYn2oUj.s 			page 3


  78              		.loc 1 37 0
  79              		.cfi_startproc
  80              		@ args = 0, pretend = 0, frame = 0
  81              		@ frame_needed = 0, uses_anonymous_args = 0
  82 0000 08B5     		push	{r3, lr}
  83              		.cfi_def_cfa_offset 8
  84              		.cfi_offset 3, -8
  85              		.cfi_offset 14, -4
  86              		.loc 1 37 0
  87 0002 0248     		ldr	r0, .L9
  88 0004 FFF7FEFF 		bl	printPgmString
  89              	.LVL3:
  90 0008 08BD     		pop	{r3, pc}
  91              	.L10:
  92 000a 00BF     		.align	2
  93              	.L9:
  94 000c 04000000 		.word	.LC1
  95              		.cfi_endproc
  96              	.LFE66:
  97              		.size	report_util_gcode_modes_G, .-report_util_gcode_modes_G
  98              		.section	.text.report_util_gcode_modes_M,"ax",%progbits
  99              		.align	2
 100              		.thumb
 101              		.thumb_func
 102              		.type	report_util_gcode_modes_M, %function
 103              	report_util_gcode_modes_M:
 104              	.LFB67:
  38:report.c      **** static void report_util_gcode_modes_M() { printPgmString(PSTR(" M")); }
 105              		.loc 1 38 0
 106              		.cfi_startproc
 107              		@ args = 0, pretend = 0, frame = 0
 108              		@ frame_needed = 0, uses_anonymous_args = 0
 109 0000 08B5     		push	{r3, lr}
 110              		.cfi_def_cfa_offset 8
 111              		.cfi_offset 3, -8
 112              		.cfi_offset 14, -4
 113              		.loc 1 38 0
 114 0002 0248     		ldr	r0, .L13
 115 0004 FFF7FEFF 		bl	printPgmString
 116              	.LVL4:
 117 0008 08BD     		pop	{r3, pc}
 118              	.L14:
 119 000a 00BF     		.align	2
 120              	.L13:
 121 000c 08000000 		.word	.LC2
 122              		.cfi_endproc
 123              	.LFE67:
 124              		.size	report_util_gcode_modes_M, .-report_util_gcode_modes_M
 125              		.section	.text.report_util_axis_values,"ax",%progbits
 126              		.align	2
 127              		.thumb
 128              		.thumb_func
 129              		.type	report_util_axis_values, %function
 130              	report_util_axis_values:
 131              	.LFB68:
  39:report.c      **** // static void report_util_comment_line_feed() { serial_write(')'); report_util_line_feed(); }
  40:report.c      **** static void report_util_axis_values(float *axis_value) {
ARM GAS  C:\Users\Bart\AppData\Local\Temp\ccYn2oUj.s 			page 4


 132              		.loc 1 40 0
 133              		.cfi_startproc
 134              		@ args = 0, pretend = 0, frame = 0
 135              		@ frame_needed = 0, uses_anonymous_args = 0
 136              	.LVL5:
 137 0000 38B5     		push	{r3, r4, r5, lr}
 138              		.cfi_def_cfa_offset 16
 139              		.cfi_offset 3, -16
 140              		.cfi_offset 4, -12
 141              		.cfi_offset 5, -8
 142              		.cfi_offset 14, -4
 143 0002 0546     		mov	r5, r0
 144              	.LVL6:
  41:report.c      ****   uint8_t idx;
  42:report.c      ****   for (idx=0; idx<N_AXIS; idx++) {
 145              		.loc 1 42 0
 146 0004 0024     		movs	r4, #0
 147 0006 0AE0     		b	.L16
 148              	.LVL7:
 149              	.L18:
  43:report.c      ****     printFloat_CoordValue(axis_value[idx]);
 150              		.loc 1 43 0
 151 0008 55F82400 		ldr	r0, [r5, r4, lsl #2]	@ float
 152 000c FFF7FEFF 		bl	printFloat_CoordValue
 153              	.LVL8:
  44:report.c      ****     if (idx < (N_AXIS-1)) { serial_write(','); }
 154              		.loc 1 44 0
 155 0010 012C     		cmp	r4, #1
 156 0012 02D8     		bhi	.L17
 157              		.loc 1 44 0 is_stmt 0 discriminator 1
 158 0014 2C20     		movs	r0, #44
 159 0016 FFF7FEFF 		bl	serial_write
 160              	.LVL9:
 161              	.L17:
  42:report.c      ****     printFloat_CoordValue(axis_value[idx]);
 162              		.loc 1 42 0 is_stmt 1 discriminator 2
 163 001a 0134     		adds	r4, r4, #1
 164              	.LVL10:
 165 001c E4B2     		uxtb	r4, r4
 166              	.LVL11:
 167              	.L16:
  42:report.c      ****     printFloat_CoordValue(axis_value[idx]);
 168              		.loc 1 42 0 is_stmt 0 discriminator 1
 169 001e 022C     		cmp	r4, #2
 170 0020 F2D9     		bls	.L18
  45:report.c      ****   }
  46:report.c      **** }
 171              		.loc 1 46 0 is_stmt 1
 172 0022 38BD     		pop	{r3, r4, r5, pc}
 173              		.cfi_endproc
 174              	.LFE68:
 175              		.size	report_util_axis_values, .-report_util_axis_values
 176              		.section	.text.report_util_setting_prefix,"ax",%progbits
 177              		.align	2
 178              		.global	report_util_setting_prefix
 179              		.thumb
 180              		.thumb_func
ARM GAS  C:\Users\Bart\AppData\Local\Temp\ccYn2oUj.s 			page 5


 181              		.type	report_util_setting_prefix, %function
 182              	report_util_setting_prefix:
 183              	.LFB63:
  34:report.c      **** static void report_util_line_feed() { printPgmString(PSTR("\r\n")); }
 184              		.loc 1 34 0
 185              		.cfi_startproc
 186              		@ args = 0, pretend = 0, frame = 0
 187              		@ frame_needed = 0, uses_anonymous_args = 0
 188              	.LVL12:
 189 0000 10B5     		push	{r4, lr}
 190              		.cfi_def_cfa_offset 8
 191              		.cfi_offset 4, -8
 192              		.cfi_offset 14, -4
 193 0002 0446     		mov	r4, r0
  34:report.c      **** static void report_util_line_feed() { printPgmString(PSTR("\r\n")); }
 194              		.loc 1 34 0
 195 0004 2420     		movs	r0, #36
 196              	.LVL13:
 197 0006 FFF7FEFF 		bl	serial_write
 198              	.LVL14:
 199 000a 2046     		mov	r0, r4
 200 000c FFF7FEFF 		bl	print_uint8_base10
 201              	.LVL15:
 202 0010 3D20     		movs	r0, #61
 203 0012 FFF7FEFF 		bl	serial_write
 204              	.LVL16:
 205 0016 10BD     		pop	{r4, pc}
 206              		.cfi_endproc
 207              	.LFE63:
 208              		.size	report_util_setting_prefix, .-report_util_setting_prefix
 209              		.section	.text.report_util_uint8_setting,"ax",%progbits
 210              		.align	2
 211              		.thumb
 212              		.thumb_func
 213              		.type	report_util_uint8_setting, %function
 214              	report_util_uint8_setting:
 215              	.LFB70:
  47:report.c      **** 
  48:report.c      **** void get_state(char *foo)
  49:report.c      **** {        
  50:report.c      ****     // pad them to same length
  51:report.c      ****     switch (sys.state) {
  52:report.c      ****     case STATE_IDLE: strcpy(foo," Idle ");; break;
  53:report.c      ****     case STATE_CYCLE: strcpy(foo," Run  "); break;
  54:report.c      ****     case STATE_HOLD: strcpy(foo," Hold "); break;
  55:report.c      ****     case STATE_HOMING: strcpy(foo," Home "); break;
  56:report.c      ****     case STATE_ALARM: strcpy(foo," Alarm"); break;
  57:report.c      ****     case STATE_CHECK_MODE: strcpy(foo," Check"); break;
  58:report.c      ****     case STATE_SAFETY_DOOR: strcpy(foo," Door "); break;
  59:report.c      ****     default:strcpy(foo,"  ?  "); break;
  60:report.c      ****   }     
  61:report.c      **** }
  62:report.c      **** 
  63:report.c      **** /*
  64:report.c      **** static void report_util_setting_string(uint8_t n) {
  65:report.c      ****   serial_write(' ');
  66:report.c      ****   serial_write('(');
ARM GAS  C:\Users\Bart\AppData\Local\Temp\ccYn2oUj.s 			page 6


  67:report.c      ****   switch(n) {
  68:report.c      ****     case 0: printPgmString(PSTR("stp pulse")); break;
  69:report.c      ****     case 1: printPgmString(PSTR("idl delay")); break; 
  70:report.c      ****     case 2: printPgmString(PSTR("stp inv")); break;
  71:report.c      ****     case 3: printPgmString(PSTR("dir inv")); break;
  72:report.c      ****     case 4: printPgmString(PSTR("stp en inv")); break;
  73:report.c      ****     case 5: printPgmString(PSTR("lim inv")); break;
  74:report.c      ****     case 6: printPgmString(PSTR("prb inv")); break;
  75:report.c      ****     case 10: printPgmString(PSTR("rpt")); break;
  76:report.c      ****     case 11: printPgmString(PSTR("jnc dev")); break;
  77:report.c      ****     case 12: printPgmString(PSTR("arc tol")); break;
  78:report.c      ****     case 13: printPgmString(PSTR("rpt inch")); break;
  79:report.c      ****     case 20: printPgmString(PSTR("sft lim")); break;
  80:report.c      ****     case 21: printPgmString(PSTR("hrd lim")); break;
  81:report.c      ****     case 22: printPgmString(PSTR("hm cyc")); break;
  82:report.c      ****     case 23: printPgmString(PSTR("hm dir inv")); break;
  83:report.c      ****     case 24: printPgmString(PSTR("hm feed")); break;
  84:report.c      ****     case 25: printPgmString(PSTR("hm seek")); break;
  85:report.c      ****     case 26: printPgmString(PSTR("hm delay")); break;
  86:report.c      ****     case 27: printPgmString(PSTR("hm pulloff")); break;
  87:report.c      ****     case 30: printPgmString(PSTR("rpm max")); break;
  88:report.c      ****     case 31: printPgmString(PSTR("rpm min")); break;
  89:report.c      ****     case 32: printPgmString(PSTR("laser")); break;
  90:report.c      ****     default:
  91:report.c      ****       n -= AXIS_SETTINGS_START_VAL;
  92:report.c      ****       uint8_t idx = 0;
  93:report.c      ****       while (n >= AXIS_SETTINGS_INCREMENT) {
  94:report.c      ****         n -= AXIS_SETTINGS_INCREMENT;
  95:report.c      ****         idx++;
  96:report.c      ****       }
  97:report.c      ****       serial_write(n+'x');
  98:report.c      ****       switch (idx) {
  99:report.c      ****         case 0: printPgmString(PSTR(":stp/mm")); break;
 100:report.c      ****         case 1: printPgmString(PSTR(":mm/min")); break;
 101:report.c      ****         case 2: printPgmString(PSTR(":mm/s^2")); break;
 102:report.c      ****         case 3: printPgmString(PSTR(":mm max")); break;
 103:report.c      ****       }
 104:report.c      ****       break;
 105:report.c      ****   }
 106:report.c      ****   report_util_comment_line_feed();
 107:report.c      **** }
 108:report.c      **** */
 109:report.c      **** 
 110:report.c      **** static void report_util_uint8_setting(uint8_t n, int val) { 
 216              		.loc 1 110 0
 217              		.cfi_startproc
 218              		@ args = 0, pretend = 0, frame = 0
 219              		@ frame_needed = 0, uses_anonymous_args = 0
 220              	.LVL17:
 221 0000 10B5     		push	{r4, lr}
 222              		.cfi_def_cfa_offset 8
 223              		.cfi_offset 4, -8
 224              		.cfi_offset 14, -4
 225 0002 0C46     		mov	r4, r1
 111:report.c      ****   report_util_setting_prefix(n); 
 226              		.loc 1 111 0
 227 0004 FFF7FEFF 		bl	report_util_setting_prefix
ARM GAS  C:\Users\Bart\AppData\Local\Temp\ccYn2oUj.s 			page 7


 228              	.LVL18:
 112:report.c      ****   print_uint8_base10(val); 
 229              		.loc 1 112 0
 230 0008 E0B2     		uxtb	r0, r4
 231 000a FFF7FEFF 		bl	print_uint8_base10
 232              	.LVL19:
 113:report.c      ****   report_util_line_feed(); // report_util_setting_string(n); 
 233              		.loc 1 113 0
 234 000e FFF7FEFF 		bl	report_util_line_feed
 235              	.LVL20:
 236 0012 10BD     		pop	{r4, pc}
 237              		.cfi_endproc
 238              	.LFE70:
 239              		.size	report_util_uint8_setting, .-report_util_uint8_setting
 240              		.section	.text.report_util_float_setting,"ax",%progbits
 241              		.align	2
 242              		.thumb
 243              		.thumb_func
 244              		.type	report_util_float_setting, %function
 245              	report_util_float_setting:
 246              	.LFB71:
 114:report.c      **** }
 115:report.c      **** static void report_util_float_setting(uint8_t n, float val, uint8_t n_decimal) { 
 247              		.loc 1 115 0
 248              		.cfi_startproc
 249              		@ args = 0, pretend = 0, frame = 0
 250              		@ frame_needed = 0, uses_anonymous_args = 0
 251              	.LVL21:
 252 0000 38B5     		push	{r3, r4, r5, lr}
 253              		.cfi_def_cfa_offset 16
 254              		.cfi_offset 3, -16
 255              		.cfi_offset 4, -12
 256              		.cfi_offset 5, -8
 257              		.cfi_offset 14, -4
 258 0002 0D46     		mov	r5, r1
 259 0004 1446     		mov	r4, r2
 116:report.c      ****   report_util_setting_prefix(n); 
 260              		.loc 1 116 0
 261 0006 FFF7FEFF 		bl	report_util_setting_prefix
 262              	.LVL22:
 117:report.c      ****   printFloat(val,n_decimal);
 263              		.loc 1 117 0
 264 000a 2846     		mov	r0, r5
 265 000c 2146     		mov	r1, r4
 266 000e FFF7FEFF 		bl	printFloat
 267              	.LVL23:
 118:report.c      ****   report_util_line_feed(); // report_util_setting_string(n);
 268              		.loc 1 118 0
 269 0012 FFF7FEFF 		bl	report_util_line_feed
 270              	.LVL24:
 271 0016 38BD     		pop	{r3, r4, r5, pc}
 272              		.cfi_endproc
 273              	.LFE71:
 274              		.size	report_util_float_setting, .-report_util_float_setting
 275              		.section	.text.get_state,"ax",%progbits
 276              		.align	2
 277              		.global	get_state
ARM GAS  C:\Users\Bart\AppData\Local\Temp\ccYn2oUj.s 			page 8


 278              		.thumb
 279              		.thumb_func
 280              		.type	get_state, %function
 281              	get_state:
 282              	.LFB69:
  49:report.c      ****     // pad them to same length
 283              		.loc 1 49 0
 284              		.cfi_startproc
 285              		@ args = 0, pretend = 0, frame = 0
 286              		@ frame_needed = 0, uses_anonymous_args = 0
 287              		@ link register save eliminated.
 288              	.LVL25:
 289 0000 0346     		mov	r3, r0
  51:report.c      ****     case STATE_IDLE: strcpy(foo," Idle ");; break;
 290              		.loc 1 51 0
 291 0002 324A     		ldr	r2, .L37
 292 0004 1278     		ldrb	r2, [r2]	@ zero_extendqisi2
 293 0006 402A     		cmp	r2, #64
 294 0008 5AD8     		bhi	.L27
 295 000a DFE802F0 		tbb	[pc, r2]
 296              	.L29:
 297 000e 21       		.byte	(.L28-.L29)/2
 298 000f 41       		.byte	(.L30-.L29)/2
 299 0010 49       		.byte	(.L31-.L29)/2
 300 0011 59       		.byte	(.L27-.L29)/2
 301 0012 39       		.byte	(.L32-.L29)/2
 302 0013 59       		.byte	(.L27-.L29)/2
 303 0014 59       		.byte	(.L27-.L29)/2
 304 0015 59       		.byte	(.L27-.L29)/2
 305 0016 29       		.byte	(.L33-.L29)/2
 306 0017 59       		.byte	(.L27-.L29)/2
 307 0018 59       		.byte	(.L27-.L29)/2
 308 0019 59       		.byte	(.L27-.L29)/2
 309 001a 59       		.byte	(.L27-.L29)/2
 310 001b 59       		.byte	(.L27-.L29)/2
 311 001c 59       		.byte	(.L27-.L29)/2
 312 001d 59       		.byte	(.L27-.L29)/2
 313 001e 31       		.byte	(.L34-.L29)/2
 314 001f 59       		.byte	(.L27-.L29)/2
 315 0020 59       		.byte	(.L27-.L29)/2
 316 0021 59       		.byte	(.L27-.L29)/2
 317 0022 59       		.byte	(.L27-.L29)/2
 318 0023 59       		.byte	(.L27-.L29)/2
 319 0024 59       		.byte	(.L27-.L29)/2
 320 0025 59       		.byte	(.L27-.L29)/2
 321 0026 59       		.byte	(.L27-.L29)/2
 322 0027 59       		.byte	(.L27-.L29)/2
 323 0028 59       		.byte	(.L27-.L29)/2
 324 0029 59       		.byte	(.L27-.L29)/2
 325 002a 59       		.byte	(.L27-.L29)/2
 326 002b 59       		.byte	(.L27-.L29)/2
 327 002c 59       		.byte	(.L27-.L29)/2
 328 002d 59       		.byte	(.L27-.L29)/2
 329 002e 59       		.byte	(.L27-.L29)/2
 330 002f 59       		.byte	(.L27-.L29)/2
 331 0030 59       		.byte	(.L27-.L29)/2
 332 0031 59       		.byte	(.L27-.L29)/2
ARM GAS  C:\Users\Bart\AppData\Local\Temp\ccYn2oUj.s 			page 9


 333 0032 59       		.byte	(.L27-.L29)/2
 334 0033 59       		.byte	(.L27-.L29)/2
 335 0034 59       		.byte	(.L27-.L29)/2
 336 0035 59       		.byte	(.L27-.L29)/2
 337 0036 59       		.byte	(.L27-.L29)/2
 338 0037 59       		.byte	(.L27-.L29)/2
 339 0038 59       		.byte	(.L27-.L29)/2
 340 0039 59       		.byte	(.L27-.L29)/2
 341 003a 59       		.byte	(.L27-.L29)/2
 342 003b 59       		.byte	(.L27-.L29)/2
 343 003c 59       		.byte	(.L27-.L29)/2
 344 003d 59       		.byte	(.L27-.L29)/2
 345 003e 59       		.byte	(.L27-.L29)/2
 346 003f 59       		.byte	(.L27-.L29)/2
 347 0040 59       		.byte	(.L27-.L29)/2
 348 0041 59       		.byte	(.L27-.L29)/2
 349 0042 59       		.byte	(.L27-.L29)/2
 350 0043 59       		.byte	(.L27-.L29)/2
 351 0044 59       		.byte	(.L27-.L29)/2
 352 0045 59       		.byte	(.L27-.L29)/2
 353 0046 59       		.byte	(.L27-.L29)/2
 354 0047 59       		.byte	(.L27-.L29)/2
 355 0048 59       		.byte	(.L27-.L29)/2
 356 0049 59       		.byte	(.L27-.L29)/2
 357 004a 59       		.byte	(.L27-.L29)/2
 358 004b 59       		.byte	(.L27-.L29)/2
 359 004c 59       		.byte	(.L27-.L29)/2
 360 004d 59       		.byte	(.L27-.L29)/2
 361 004e 51       		.byte	(.L35-.L29)/2
 362 004f 00       		.p2align 1
 363              	.L28:
  52:report.c      ****     case STATE_CYCLE: strcpy(foo," Run  "); break;
 364              		.loc 1 52 0
 365 0050 1F4A     		ldr	r2, .L37+4
 366 0052 1068     		ldr	r0, [r2]	@ unaligned
 367              	.LVL26:
 368 0054 1860     		str	r0, [r3]	@ unaligned
 369 0056 9188     		ldrh	r1, [r2, #4]	@ unaligned
 370 0058 9279     		ldrb	r2, [r2, #6]	@ zero_extendqisi2
 371 005a 9980     		strh	r1, [r3, #4]	@ unaligned
 372 005c 9A71     		strb	r2, [r3, #6]
 373 005e 7047     		bx	lr
 374              	.LVL27:
 375              	.L33:
  53:report.c      ****     case STATE_HOLD: strcpy(foo," Hold "); break;
 376              		.loc 1 53 0
 377 0060 1C4A     		ldr	r2, .L37+8
 378 0062 1068     		ldr	r0, [r2]	@ unaligned
 379              	.LVL28:
 380 0064 1860     		str	r0, [r3]	@ unaligned
 381 0066 9188     		ldrh	r1, [r2, #4]	@ unaligned
 382 0068 9279     		ldrb	r2, [r2, #6]	@ zero_extendqisi2
 383 006a 9980     		strh	r1, [r3, #4]	@ unaligned
 384 006c 9A71     		strb	r2, [r3, #6]
 385 006e 7047     		bx	lr
 386              	.LVL29:
 387              	.L34:
ARM GAS  C:\Users\Bart\AppData\Local\Temp\ccYn2oUj.s 			page 10


  54:report.c      ****     case STATE_HOMING: strcpy(foo," Home "); break;
 388              		.loc 1 54 0
 389 0070 194A     		ldr	r2, .L37+12
 390 0072 1068     		ldr	r0, [r2]	@ unaligned
 391              	.LVL30:
 392 0074 1860     		str	r0, [r3]	@ unaligned
 393 0076 9188     		ldrh	r1, [r2, #4]	@ unaligned
 394 0078 9279     		ldrb	r2, [r2, #6]	@ zero_extendqisi2
 395 007a 9980     		strh	r1, [r3, #4]	@ unaligned
 396 007c 9A71     		strb	r2, [r3, #6]
 397 007e 7047     		bx	lr
 398              	.LVL31:
 399              	.L32:
  55:report.c      ****     case STATE_ALARM: strcpy(foo," Alarm"); break;
 400              		.loc 1 55 0
 401 0080 164A     		ldr	r2, .L37+16
 402 0082 1068     		ldr	r0, [r2]	@ unaligned
 403              	.LVL32:
 404 0084 1860     		str	r0, [r3]	@ unaligned
 405 0086 9188     		ldrh	r1, [r2, #4]	@ unaligned
 406 0088 9279     		ldrb	r2, [r2, #6]	@ zero_extendqisi2
 407 008a 9980     		strh	r1, [r3, #4]	@ unaligned
 408 008c 9A71     		strb	r2, [r3, #6]
 409 008e 7047     		bx	lr
 410              	.LVL33:
 411              	.L30:
  56:report.c      ****     case STATE_CHECK_MODE: strcpy(foo," Check"); break;
 412              		.loc 1 56 0
 413 0090 134A     		ldr	r2, .L37+20
 414 0092 1068     		ldr	r0, [r2]	@ unaligned
 415              	.LVL34:
 416 0094 1860     		str	r0, [r3]	@ unaligned
 417 0096 9188     		ldrh	r1, [r2, #4]	@ unaligned
 418 0098 9279     		ldrb	r2, [r2, #6]	@ zero_extendqisi2
 419 009a 9980     		strh	r1, [r3, #4]	@ unaligned
 420 009c 9A71     		strb	r2, [r3, #6]
 421 009e 7047     		bx	lr
 422              	.LVL35:
 423              	.L31:
  57:report.c      ****     case STATE_SAFETY_DOOR: strcpy(foo," Door "); break;
 424              		.loc 1 57 0
 425 00a0 104A     		ldr	r2, .L37+24
 426 00a2 1068     		ldr	r0, [r2]	@ unaligned
 427              	.LVL36:
 428 00a4 1860     		str	r0, [r3]	@ unaligned
 429 00a6 9188     		ldrh	r1, [r2, #4]	@ unaligned
 430 00a8 9279     		ldrb	r2, [r2, #6]	@ zero_extendqisi2
 431 00aa 9980     		strh	r1, [r3, #4]	@ unaligned
 432 00ac 9A71     		strb	r2, [r3, #6]
 433 00ae 7047     		bx	lr
 434              	.LVL37:
 435              	.L35:
  58:report.c      ****     default:strcpy(foo,"  ?  "); break;
 436              		.loc 1 58 0
 437 00b0 0D4A     		ldr	r2, .L37+28
 438 00b2 1068     		ldr	r0, [r2]	@ unaligned
 439              	.LVL38:
ARM GAS  C:\Users\Bart\AppData\Local\Temp\ccYn2oUj.s 			page 11


 440 00b4 1860     		str	r0, [r3]	@ unaligned
 441 00b6 9188     		ldrh	r1, [r2, #4]	@ unaligned
 442 00b8 9279     		ldrb	r2, [r2, #6]	@ zero_extendqisi2
 443 00ba 9980     		strh	r1, [r3, #4]	@ unaligned
 444 00bc 9A71     		strb	r2, [r3, #6]
 445 00be 7047     		bx	lr
 446              	.LVL39:
 447              	.L27:
  59:report.c      ****   }     
 448              		.loc 1 59 0
 449 00c0 0A4A     		ldr	r2, .L37+32
 450 00c2 1068     		ldr	r0, [r2]	@ unaligned
 451              	.LVL40:
 452 00c4 1860     		str	r0, [r3]	@ unaligned
 453 00c6 9288     		ldrh	r2, [r2, #4]	@ unaligned
 454 00c8 9A80     		strh	r2, [r3, #4]	@ unaligned
 455 00ca 7047     		bx	lr
 456              	.L38:
 457              		.align	2
 458              	.L37:
 459 00cc 00000000 		.word	sys
 460 00d0 0C000000 		.word	.LC3
 461 00d4 14000000 		.word	.LC4
 462 00d8 1C000000 		.word	.LC5
 463 00dc 24000000 		.word	.LC6
 464 00e0 2C000000 		.word	.LC7
 465 00e4 34000000 		.word	.LC8
 466 00e8 3C000000 		.word	.LC9
 467 00ec 44000000 		.word	.LC10
 468              		.cfi_endproc
 469              	.LFE69:
 470              		.size	get_state, .-get_state
 471              		.section	.text.report_status_message,"ax",%progbits
 472              		.align	2
 473              		.global	report_status_message
 474              		.thumb
 475              		.thumb_func
 476              		.type	report_status_message, %function
 477              	report_status_message:
 478              	.LFB72:
 119:report.c      **** }
 120:report.c      **** 
 121:report.c      **** 
 122:report.c      **** // Handles the primary confirmation protocol response for streaming interfaces and human-feedback.
 123:report.c      **** // For every incoming line, this method responds with an 'ok' for a successful command or an
 124:report.c      **** // 'error:'  to indicate some error event with the line or some critical system error during
 125:report.c      **** // operation. Errors events can originate from the g-code parser, settings module, or asynchronousl
 126:report.c      **** // from a critical error, such as a triggered hard limit. Interface should always monitor for these
 127:report.c      **** // responses.
 128:report.c      **** void report_status_message(uint8_t status_code)
 129:report.c      **** {
 479              		.loc 1 129 0
 480              		.cfi_startproc
 481              		@ args = 0, pretend = 0, frame = 0
 482              		@ frame_needed = 0, uses_anonymous_args = 0
 483              	.LVL41:
 484 0000 10B5     		push	{r4, lr}
ARM GAS  C:\Users\Bart\AppData\Local\Temp\ccYn2oUj.s 			page 12


 485              		.cfi_def_cfa_offset 8
 486              		.cfi_offset 4, -8
 487              		.cfi_offset 14, -4
 130:report.c      ****   switch(status_code) {
 488              		.loc 1 130 0
 489 0002 18B9     		cbnz	r0, .L43
 131:report.c      ****     case STATUS_OK: // STATUS_OK
 132:report.c      ****       printPgmString(PSTR("ok\r\n")); break;
 490              		.loc 1 132 0
 491 0004 0648     		ldr	r0, .L45
 492              	.LVL42:
 493 0006 FFF7FEFF 		bl	printPgmString
 494              	.LVL43:
 495 000a 10BD     		pop	{r4, pc}
 496              	.LVL44:
 497              	.L43:
 498 000c 0446     		mov	r4, r0
 133:report.c      ****     default:
 134:report.c      ****       printPgmString(PSTR("error:"));
 499              		.loc 1 134 0
 500 000e 0548     		ldr	r0, .L45+4
 501              	.LVL45:
 502 0010 FFF7FEFF 		bl	printPgmString
 503              	.LVL46:
 135:report.c      ****       print_uint8_base10(status_code);
 504              		.loc 1 135 0
 505 0014 2046     		mov	r0, r4
 506 0016 FFF7FEFF 		bl	print_uint8_base10
 507              	.LVL47:
 136:report.c      ****       report_util_line_feed();
 508              		.loc 1 136 0
 509 001a FFF7FEFF 		bl	report_util_line_feed
 510              	.LVL48:
 511 001e 10BD     		pop	{r4, pc}
 512              	.L46:
 513              		.align	2
 514              	.L45:
 515 0020 4C000000 		.word	.LC11
 516 0024 54000000 		.word	.LC12
 517              		.cfi_endproc
 518              	.LFE72:
 519              		.size	report_status_message, .-report_status_message
 520              		.section	.text.report_alarm_message,"ax",%progbits
 521              		.align	2
 522              		.global	report_alarm_message
 523              		.thumb
 524              		.thumb_func
 525              		.type	report_alarm_message, %function
 526              	report_alarm_message:
 527              	.LFB73:
 137:report.c      ****   }
 138:report.c      **** }
 139:report.c      **** 
 140:report.c      **** // Prints alarm messages.
 141:report.c      **** void report_alarm_message(int8_t alarm_code)
 142:report.c      **** {
 528              		.loc 1 142 0
ARM GAS  C:\Users\Bart\AppData\Local\Temp\ccYn2oUj.s 			page 13


 529              		.cfi_startproc
 530              		@ args = 0, pretend = 0, frame = 0
 531              		@ frame_needed = 0, uses_anonymous_args = 0
 532              	.LVL49:
 533 0000 10B5     		push	{r4, lr}
 534              		.cfi_def_cfa_offset 8
 535              		.cfi_offset 4, -8
 536              		.cfi_offset 14, -4
 537 0002 0446     		mov	r4, r0
 143:report.c      ****   printPgmString(PSTR("ALARM:"));
 538              		.loc 1 143 0
 539 0004 0648     		ldr	r0, .L49
 540              	.LVL50:
 541 0006 FFF7FEFF 		bl	printPgmString
 542              	.LVL51:
 144:report.c      ****   print_uint8_base10(alarm_code);
 543              		.loc 1 144 0
 544 000a E0B2     		uxtb	r0, r4
 545 000c FFF7FEFF 		bl	print_uint8_base10
 546              	.LVL52:
 145:report.c      ****   report_util_line_feed();
 547              		.loc 1 145 0
 548 0010 FFF7FEFF 		bl	report_util_line_feed
 549              	.LVL53:
 146:report.c      ****   delay_ms(500); // Force delay to ensure message clears serial write buffer.
 550              		.loc 1 146 0
 551 0014 4FF4FA70 		mov	r0, #500
 552 0018 FFF7FEFF 		bl	CyDelay
 553              	.LVL54:
 554 001c 10BD     		pop	{r4, pc}
 555              	.L50:
 556 001e 00BF     		.align	2
 557              	.L49:
 558 0020 5C000000 		.word	.LC13
 559              		.cfi_endproc
 560              	.LFE73:
 561              		.size	report_alarm_message, .-report_alarm_message
 562              		.section	.text.report_feedback_message,"ax",%progbits
 563              		.align	2
 564              		.global	report_feedback_message
 565              		.thumb
 566              		.thumb_func
 567              		.type	report_feedback_message, %function
 568              	report_feedback_message:
 569              	.LFB74:
 147:report.c      **** }
 148:report.c      **** 
 149:report.c      **** // Prints feedback messages. This serves as a centralized method to provide additional
 150:report.c      **** // user feedback for things that are not of the status/alarm message protocol. These are
 151:report.c      **** // messages such as setup warnings, switch toggling, and how to exit alarms.
 152:report.c      **** // NOTE: For interfaces, messages are always placed within brackets. And if silent mode
 153:report.c      **** // is installed, the message number codes are less than zero.
 154:report.c      **** void report_feedback_message(uint8_t message_code)
 155:report.c      **** {
 570              		.loc 1 155 0
 571              		.cfi_startproc
 572              		@ args = 0, pretend = 0, frame = 0
ARM GAS  C:\Users\Bart\AppData\Local\Temp\ccYn2oUj.s 			page 14


 573              		@ frame_needed = 0, uses_anonymous_args = 0
 574              	.LVL55:
 575 0000 10B5     		push	{r4, lr}
 576              		.cfi_def_cfa_offset 8
 577              		.cfi_offset 4, -8
 578              		.cfi_offset 14, -4
 579 0002 0446     		mov	r4, r0
 156:report.c      ****   printPgmString(PSTR("[MSG:"));
 580              		.loc 1 156 0
 581 0004 1D48     		ldr	r0, .L66
 582              	.LVL56:
 583 0006 FFF7FEFF 		bl	printPgmString
 584              	.LVL57:
 157:report.c      ****   switch(message_code) {
 585              		.loc 1 157 0
 586 000a 601E     		subs	r0, r4, #1
 587 000c 0A28     		cmp	r0, #10
 588 000e 32D8     		bhi	.L52
 589 0010 DFE800F0 		tbb	[pc, r0]
 590              	.L54:
 591 0014 06       		.byte	(.L53-.L54)/2
 592 0015 0A       		.byte	(.L55-.L54)/2
 593 0016 0E       		.byte	(.L56-.L54)/2
 594 0017 12       		.byte	(.L57-.L54)/2
 595 0018 16       		.byte	(.L58-.L54)/2
 596 0019 1A       		.byte	(.L59-.L54)/2
 597 001a 1E       		.byte	(.L60-.L54)/2
 598 001b 22       		.byte	(.L61-.L54)/2
 599 001c 26       		.byte	(.L62-.L54)/2
 600 001d 2A       		.byte	(.L63-.L54)/2
 601 001e 2E       		.byte	(.L64-.L54)/2
 602 001f 00       		.p2align 1
 603              	.L53:
 158:report.c      ****     case MESSAGE_CRITICAL_EVENT:
 159:report.c      ****       printPgmString(PSTR("Reset to continue")); break;
 604              		.loc 1 159 0
 605 0020 1748     		ldr	r0, .L66+4
 606 0022 FFF7FEFF 		bl	printPgmString
 607              	.LVL58:
 608 0026 26E0     		b	.L52
 609              	.L55:
 160:report.c      ****     case MESSAGE_ALARM_LOCK:
 161:report.c      ****       printPgmString(PSTR("'$H'|'$X' to unlock")); break;
 610              		.loc 1 161 0
 611 0028 1648     		ldr	r0, .L66+8
 612 002a FFF7FEFF 		bl	printPgmString
 613              	.LVL59:
 614 002e 22E0     		b	.L52
 615              	.L56:
 162:report.c      ****     case MESSAGE_ALARM_UNLOCK:
 163:report.c      ****       printPgmString(PSTR("Caution: Unlocked")); break;
 616              		.loc 1 163 0
 617 0030 1548     		ldr	r0, .L66+12
 618 0032 FFF7FEFF 		bl	printPgmString
 619              	.LVL60:
 620 0036 1EE0     		b	.L52
 621              	.L57:
ARM GAS  C:\Users\Bart\AppData\Local\Temp\ccYn2oUj.s 			page 15


 164:report.c      ****     case MESSAGE_ENABLED:
 165:report.c      ****       printPgmString(PSTR("Enabled")); break;
 622              		.loc 1 165 0
 623 0038 1448     		ldr	r0, .L66+16
 624 003a FFF7FEFF 		bl	printPgmString
 625              	.LVL61:
 626 003e 1AE0     		b	.L52
 627              	.L58:
 166:report.c      ****     case MESSAGE_DISABLED:
 167:report.c      ****       printPgmString(PSTR("Disabled")); break;
 628              		.loc 1 167 0
 629 0040 1348     		ldr	r0, .L66+20
 630 0042 FFF7FEFF 		bl	printPgmString
 631              	.LVL62:
 632 0046 16E0     		b	.L52
 633              	.L59:
 168:report.c      ****     case MESSAGE_SAFETY_DOOR_AJAR:
 169:report.c      ****       printPgmString(PSTR("Check Door")); break;
 634              		.loc 1 169 0
 635 0048 1248     		ldr	r0, .L66+24
 636 004a FFF7FEFF 		bl	printPgmString
 637              	.LVL63:
 638 004e 12E0     		b	.L52
 639              	.L60:
 170:report.c      ****     case MESSAGE_CHECK_LIMITS:
 171:report.c      ****       printPgmString(PSTR("Check Limits")); break;
 640              		.loc 1 171 0
 641 0050 1148     		ldr	r0, .L66+28
 642 0052 FFF7FEFF 		bl	printPgmString
 643              	.LVL64:
 644 0056 0EE0     		b	.L52
 645              	.L61:
 172:report.c      ****     case MESSAGE_PROGRAM_END:
 173:report.c      ****       printPgmString(PSTR("Pgm End")); break;
 646              		.loc 1 173 0
 647 0058 1048     		ldr	r0, .L66+32
 648 005a FFF7FEFF 		bl	printPgmString
 649              	.LVL65:
 650 005e 0AE0     		b	.L52
 651              	.L62:
 174:report.c      ****     case MESSAGE_RESTORE_DEFAULTS:
 175:report.c      ****       printPgmString(PSTR("Restoring defaults")); break;
 652              		.loc 1 175 0
 653 0060 0F48     		ldr	r0, .L66+36
 654 0062 FFF7FEFF 		bl	printPgmString
 655              	.LVL66:
 656 0066 06E0     		b	.L52
 657              	.L63:
 176:report.c      ****     case MESSAGE_SPINDLE_RESTORE:
 177:report.c      ****       printPgmString(PSTR("Restoring spindle")); break;
 658              		.loc 1 177 0
 659 0068 0E48     		ldr	r0, .L66+40
 660 006a FFF7FEFF 		bl	printPgmString
 661              	.LVL67:
 662 006e 02E0     		b	.L52
 663              	.L64:
 178:report.c      ****     case MESSAGE_SLEEP_MODE:
ARM GAS  C:\Users\Bart\AppData\Local\Temp\ccYn2oUj.s 			page 16


 179:report.c      ****       printPgmString(PSTR("Sleeping")); break;
 664              		.loc 1 179 0
 665 0070 0D48     		ldr	r0, .L66+44
 666 0072 FFF7FEFF 		bl	printPgmString
 667              	.LVL68:
 668              	.L52:
 180:report.c      ****   }
 181:report.c      ****   report_util_feedback_line_feed();
 669              		.loc 1 181 0
 670 0076 FFF7FEFF 		bl	report_util_feedback_line_feed
 671              	.LVL69:
 672 007a 10BD     		pop	{r4, pc}
 673              	.L67:
 674              		.align	2
 675              	.L66:
 676 007c 64000000 		.word	.LC14
 677 0080 6C000000 		.word	.LC15
 678 0084 80000000 		.word	.LC16
 679 0088 94000000 		.word	.LC17
 680 008c A8000000 		.word	.LC18
 681 0090 B0000000 		.word	.LC19
 682 0094 BC000000 		.word	.LC20
 683 0098 C8000000 		.word	.LC21
 684 009c D8000000 		.word	.LC22
 685 00a0 E0000000 		.word	.LC23
 686 00a4 F4000000 		.word	.LC24
 687 00a8 08010000 		.word	.LC25
 688              		.cfi_endproc
 689              	.LFE74:
 690              		.size	report_feedback_message, .-report_feedback_message
 691              		.section	.text.report_init_message,"ax",%progbits
 692              		.align	2
 693              		.global	report_init_message
 694              		.thumb
 695              		.thumb_func
 696              		.type	report_init_message, %function
 697              	report_init_message:
 698              	.LFB75:
 182:report.c      **** }
 183:report.c      **** 
 184:report.c      **** 
 185:report.c      **** // Welcome message
 186:report.c      **** void report_init_message()
 187:report.c      **** {
 699              		.loc 1 187 0
 700              		.cfi_startproc
 701              		@ args = 0, pretend = 0, frame = 0
 702              		@ frame_needed = 0, uses_anonymous_args = 0
 703 0000 08B5     		push	{r3, lr}
 704              		.cfi_def_cfa_offset 8
 705              		.cfi_offset 3, -8
 706              		.cfi_offset 14, -4
 188:report.c      ****   printPgmString(PSTR("\r\nGrbl " GRBL_VERSION " ['$' for help]\r\n"));
 707              		.loc 1 188 0
 708 0002 0248     		ldr	r0, .L70
 709 0004 FFF7FEFF 		bl	printPgmString
 710              	.LVL70:
ARM GAS  C:\Users\Bart\AppData\Local\Temp\ccYn2oUj.s 			page 17


 711 0008 08BD     		pop	{r3, pc}
 712              	.L71:
 713 000a 00BF     		.align	2
 714              	.L70:
 715 000c 14010000 		.word	.LC26
 716              		.cfi_endproc
 717              	.LFE75:
 718              		.size	report_init_message, .-report_init_message
 719              		.section	.text.report_grbl_help,"ax",%progbits
 720              		.align	2
 721              		.global	report_grbl_help
 722              		.thumb
 723              		.thumb_func
 724              		.type	report_grbl_help, %function
 725              	report_grbl_help:
 726              	.LFB76:
 189:report.c      **** }
 190:report.c      **** 
 191:report.c      **** // Grbl help message
 192:report.c      **** void report_grbl_help() {
 727              		.loc 1 192 0
 728              		.cfi_startproc
 729              		@ args = 0, pretend = 0, frame = 0
 730              		@ frame_needed = 0, uses_anonymous_args = 0
 731 0000 08B5     		push	{r3, lr}
 732              		.cfi_def_cfa_offset 8
 733              		.cfi_offset 3, -8
 734              		.cfi_offset 14, -4
 193:report.c      ****   printPgmString(PSTR("[HLP:$$ $# $G $I $N $x=val $Nx=line $J=line $SLP $C $X $H ~ ! ? ctrl-x]\r\n"
 735              		.loc 1 193 0
 736 0002 0248     		ldr	r0, .L74
 737 0004 FFF7FEFF 		bl	printPgmString
 738              	.LVL71:
 739 0008 08BD     		pop	{r3, pc}
 740              	.L75:
 741 000a 00BF     		.align	2
 742              	.L74:
 743 000c 34010000 		.word	.LC27
 744              		.cfi_endproc
 745              	.LFE76:
 746              		.size	report_grbl_help, .-report_grbl_help
 747              		.global	__aeabi_fdiv
 748              		.section	.text.report_grbl_settings,"ax",%progbits
 749              		.align	2
 750              		.global	report_grbl_settings
 751              		.thumb
 752              		.thumb_func
 753              		.type	report_grbl_settings, %function
 754              	report_grbl_settings:
 755              	.LFB77:
 194:report.c      **** }
 195:report.c      **** 
 196:report.c      **** 
 197:report.c      **** // Grbl global settings print out.
 198:report.c      **** // NOTE: The numbering scheme here must correlate to storing in settings.c
 199:report.c      **** void report_grbl_settings() {
 756              		.loc 1 199 0
ARM GAS  C:\Users\Bart\AppData\Local\Temp\ccYn2oUj.s 			page 18


 757              		.cfi_startproc
 758              		@ args = 0, pretend = 0, frame = 0
 759              		@ frame_needed = 0, uses_anonymous_args = 0
 760 0000 F8B5     		push	{r3, r4, r5, r6, r7, lr}
 761              		.cfi_def_cfa_offset 24
 762              		.cfi_offset 3, -24
 763              		.cfi_offset 4, -20
 764              		.cfi_offset 5, -16
 765              		.cfi_offset 6, -12
 766              		.cfi_offset 7, -8
 767              		.cfi_offset 14, -4
 200:report.c      ****   // Print Grbl settings.
 201:report.c      ****   report_util_uint8_setting(0,settings.pulse_microseconds);
 768              		.loc 1 201 0
 769 0002 604C     		ldr	r4, .L88
 770 0004 0020     		movs	r0, #0
 771 0006 94F83010 		ldrb	r1, [r4, #48]	@ zero_extendqisi2
 772 000a FFF7FEFF 		bl	report_util_uint8_setting
 773              	.LVL72:
 202:report.c      ****   report_util_uint8_setting(1,settings.stepper_idle_lock_time);
 774              		.loc 1 202 0
 775 000e 0120     		movs	r0, #1
 776 0010 94F83310 		ldrb	r1, [r4, #51]	@ zero_extendqisi2
 777 0014 FFF7FEFF 		bl	report_util_uint8_setting
 778              	.LVL73:
 203:report.c      ****   report_util_uint8_setting(2,settings.step_invert_mask);
 779              		.loc 1 203 0
 780 0018 0220     		movs	r0, #2
 781 001a 94F83110 		ldrb	r1, [r4, #49]	@ zero_extendqisi2
 782 001e FFF7FEFF 		bl	report_util_uint8_setting
 783              	.LVL74:
 204:report.c      ****   report_util_uint8_setting(3,settings.dir_invert_mask);
 784              		.loc 1 204 0
 785 0022 0320     		movs	r0, #3
 786 0024 94F83210 		ldrb	r1, [r4, #50]	@ zero_extendqisi2
 787 0028 FFF7FEFF 		bl	report_util_uint8_setting
 788              	.LVL75:
 205:report.c      ****   report_util_uint8_setting(4,bit_istrue(settings.flags,BITFLAG_INVERT_ST_ENABLE));
 789              		.loc 1 205 0
 790 002c 94F84810 		ldrb	r1, [r4, #72]	@ zero_extendqisi2
 791 0030 0420     		movs	r0, #4
 792 0032 C1F38001 		ubfx	r1, r1, #2, #1
 793 0036 FFF7FEFF 		bl	report_util_uint8_setting
 794              	.LVL76:
 206:report.c      ****   report_util_uint8_setting(5,bit_istrue(settings.flags,BITFLAG_INVERT_LIMIT_PINS));
 795              		.loc 1 206 0
 796 003a 94F84810 		ldrb	r1, [r4, #72]	@ zero_extendqisi2
 797 003e 0520     		movs	r0, #5
 798 0040 C1F38011 		ubfx	r1, r1, #6, #1
 799 0044 FFF7FEFF 		bl	report_util_uint8_setting
 800              	.LVL77:
 207:report.c      ****   report_util_uint8_setting(6,bit_istrue(settings.flags,BITFLAG_INVERT_PROBE_PIN));
 801              		.loc 1 207 0
 802 0048 94F94810 		ldrsb	r1, [r4, #72]
 803 004c 0620     		movs	r0, #6
 804 004e C90F     		lsrs	r1, r1, #31
 805 0050 FFF7FEFF 		bl	report_util_uint8_setting
ARM GAS  C:\Users\Bart\AppData\Local\Temp\ccYn2oUj.s 			page 19


 806              	.LVL78:
 208:report.c      ****   report_util_uint8_setting(10,settings.status_report_mask);
 807              		.loc 1 208 0
 808 0054 0A20     		movs	r0, #10
 809 0056 94F83410 		ldrb	r1, [r4, #52]	@ zero_extendqisi2
 810 005a FFF7FEFF 		bl	report_util_uint8_setting
 811              	.LVL79:
 209:report.c      ****   report_util_float_setting(11,settings.junction_deviation,N_DECIMAL_SETTINGVALUE);
 812              		.loc 1 209 0
 813 005e 0B20     		movs	r0, #11
 814 0060 A16B     		ldr	r1, [r4, #56]	@ float
 815 0062 0322     		movs	r2, #3
 816 0064 FFF7FEFF 		bl	report_util_float_setting
 817              	.LVL80:
 210:report.c      ****   report_util_float_setting(12,settings.arc_tolerance,N_DECIMAL_SETTINGVALUE);
 818              		.loc 1 210 0
 819 0068 0C20     		movs	r0, #12
 820 006a E16B     		ldr	r1, [r4, #60]	@ float
 821 006c 0322     		movs	r2, #3
 822 006e FFF7FEFF 		bl	report_util_float_setting
 823              	.LVL81:
 211:report.c      ****   report_util_uint8_setting(13,bit_istrue(settings.flags,BITFLAG_REPORT_INCHES));
 824              		.loc 1 211 0
 825 0072 94F84810 		ldrb	r1, [r4, #72]	@ zero_extendqisi2
 826 0076 0D20     		movs	r0, #13
 827 0078 01F00101 		and	r1, r1, #1
 828 007c FFF7FEFF 		bl	report_util_uint8_setting
 829              	.LVL82:
 212:report.c      ****   report_util_uint8_setting(20,bit_istrue(settings.flags,BITFLAG_SOFT_LIMIT_ENABLE));
 830              		.loc 1 212 0
 831 0080 94F84810 		ldrb	r1, [r4, #72]	@ zero_extendqisi2
 832 0084 1420     		movs	r0, #20
 833 0086 C1F34011 		ubfx	r1, r1, #5, #1
 834 008a FFF7FEFF 		bl	report_util_uint8_setting
 835              	.LVL83:
 213:report.c      ****   report_util_uint8_setting(21,bit_istrue(settings.flags,BITFLAG_HARD_LIMIT_ENABLE));
 836              		.loc 1 213 0
 837 008e 94F84810 		ldrb	r1, [r4, #72]	@ zero_extendqisi2
 838 0092 1520     		movs	r0, #21
 839 0094 C1F3C001 		ubfx	r1, r1, #3, #1
 840 0098 FFF7FEFF 		bl	report_util_uint8_setting
 841              	.LVL84:
 214:report.c      ****   report_util_uint8_setting(22,bit_istrue(settings.flags,BITFLAG_HOMING_ENABLE));
 842              		.loc 1 214 0
 843 009c 94F84810 		ldrb	r1, [r4, #72]	@ zero_extendqisi2
 844 00a0 1620     		movs	r0, #22
 845 00a2 C1F30011 		ubfx	r1, r1, #4, #1
 846 00a6 FFF7FEFF 		bl	report_util_uint8_setting
 847              	.LVL85:
 215:report.c      ****   report_util_uint8_setting(23,settings.homing_dir_mask);
 848              		.loc 1 215 0
 849 00aa 1720     		movs	r0, #23
 850 00ac 94F84910 		ldrb	r1, [r4, #73]	@ zero_extendqisi2
 851 00b0 FFF7FEFF 		bl	report_util_uint8_setting
 852              	.LVL86:
 216:report.c      ****   report_util_float_setting(24,settings.homing_feed_rate,N_DECIMAL_SETTINGVALUE);
 853              		.loc 1 216 0
ARM GAS  C:\Users\Bart\AppData\Local\Temp\ccYn2oUj.s 			page 20


 854 00b4 1820     		movs	r0, #24
 855 00b6 E16C     		ldr	r1, [r4, #76]	@ float
 856 00b8 0322     		movs	r2, #3
 857 00ba FFF7FEFF 		bl	report_util_float_setting
 858              	.LVL87:
 217:report.c      ****   report_util_float_setting(25,settings.homing_seek_rate,N_DECIMAL_SETTINGVALUE);
 859              		.loc 1 217 0
 860 00be 1920     		movs	r0, #25
 861 00c0 216D     		ldr	r1, [r4, #80]	@ float
 862 00c2 0322     		movs	r2, #3
 863 00c4 FFF7FEFF 		bl	report_util_float_setting
 864              	.LVL88:
 218:report.c      ****   report_util_uint8_setting(26,settings.homing_debounce_delay);
 865              		.loc 1 218 0
 866 00c8 1A20     		movs	r0, #26
 867 00ca B4F85410 		ldrh	r1, [r4, #84]
 868 00ce FFF7FEFF 		bl	report_util_uint8_setting
 869              	.LVL89:
 219:report.c      ****   report_util_float_setting(27,settings.homing_pulloff,N_DECIMAL_SETTINGVALUE);
 870              		.loc 1 219 0
 871 00d2 1B20     		movs	r0, #27
 872 00d4 A16D     		ldr	r1, [r4, #88]	@ float
 873 00d6 0322     		movs	r2, #3
 874 00d8 FFF7FEFF 		bl	report_util_float_setting
 875              	.LVL90:
 220:report.c      ****   report_util_float_setting(30,settings.rpm_max,N_DECIMAL_RPMVALUE);
 876              		.loc 1 220 0
 877 00dc 1E20     		movs	r0, #30
 878 00de 216C     		ldr	r1, [r4, #64]	@ float
 879 00e0 0022     		movs	r2, #0
 880 00e2 FFF7FEFF 		bl	report_util_float_setting
 881              	.LVL91:
 221:report.c      ****   report_util_float_setting(31,settings.rpm_min,N_DECIMAL_RPMVALUE);
 882              		.loc 1 221 0
 883 00e6 1F20     		movs	r0, #31
 884 00e8 616C     		ldr	r1, [r4, #68]	@ float
 885 00ea 0022     		movs	r2, #0
 886 00ec FFF7FEFF 		bl	report_util_float_setting
 887              	.LVL92:
 222:report.c      ****   #ifdef VARIABLE_SPINDLE
 223:report.c      ****     report_util_uint8_setting(32,bit_istrue(settings.flags,BITFLAG_LASER_MODE));
 888              		.loc 1 223 0
 889 00f0 94F84810 		ldrb	r1, [r4, #72]	@ zero_extendqisi2
 890 00f4 2020     		movs	r0, #32
 891 00f6 C1F34001 		ubfx	r1, r1, #1, #1
 892 00fa FFF7FEFF 		bl	report_util_uint8_setting
 893              	.LVL93:
 224:report.c      ****   #else
 225:report.c      ****     report_util_uint8_setting(32,0);
 226:report.c      ****   #endif
 227:report.c      ****   // Print axis settings
 228:report.c      ****   uint8_t idx, set_idx;
 229:report.c      ****   uint8_t val = AXIS_SETTINGS_START_VAL;
 894              		.loc 1 229 0
 895 00fe 6426     		movs	r6, #100
 230:report.c      ****   for (set_idx=0; set_idx<AXIS_N_SETTINGS; set_idx++) {
 896              		.loc 1 230 0
ARM GAS  C:\Users\Bart\AppData\Local\Temp\ccYn2oUj.s 			page 21


 897 0100 0025     		movs	r5, #0
 898 0102 3CE0     		b	.L77
 899              	.LVL94:
 900              	.L84:
 231:report.c      ****     for (idx=0; idx<N_AXIS; idx++) {
 232:report.c      ****       switch (set_idx) {
 901              		.loc 1 232 0
 902 0104 032D     		cmp	r5, #3
 903 0106 30D8     		bhi	.L78
 904 0108 DFE805F0 		tbb	[pc, r5]
 905              	.L80:
 906 010c 02       		.byte	(.L79-.L80)/2
 907 010d 0B       		.byte	(.L81-.L80)/2
 908 010e 15       		.byte	(.L82-.L80)/2
 909 010f 24       		.byte	(.L83-.L80)/2
 910              		.p2align 1
 911              	.L79:
 233:report.c      ****         case 0: report_util_float_setting(val+idx,settings.steps_per_mm[idx],N_DECIMAL_SETTINGVALUE
 912              		.loc 1 233 0
 913 0110 3019     		adds	r0, r6, r4
 914 0112 C0B2     		uxtb	r0, r0
 915 0114 1B4B     		ldr	r3, .L88
 916 0116 53F82410 		ldr	r1, [r3, r4, lsl #2]	@ float
 917 011a 0322     		movs	r2, #3
 918 011c FFF7FEFF 		bl	report_util_float_setting
 919              	.LVL95:
 920 0120 23E0     		b	.L78
 921              	.L81:
 234:report.c      ****         case 1: report_util_float_setting(val+idx,settings.max_rate[idx],N_DECIMAL_SETTINGVALUE); b
 922              		.loc 1 234 0
 923 0122 3019     		adds	r0, r6, r4
 924 0124 174B     		ldr	r3, .L88
 925 0126 03EB8403 		add	r3, r3, r4, lsl #2
 926 012a C0B2     		uxtb	r0, r0
 927 012c D968     		ldr	r1, [r3, #12]	@ float
 928 012e 0322     		movs	r2, #3
 929 0130 FFF7FEFF 		bl	report_util_float_setting
 930              	.LVL96:
 931 0134 19E0     		b	.L78
 932              	.L82:
 235:report.c      ****         case 2: report_util_float_setting(val+idx,settings.acceleration[idx]/(60*60),N_DECIMAL_SETT
 933              		.loc 1 235 0
 934 0136 A31D     		adds	r3, r4, #6
 935 0138 3719     		adds	r7, r6, r4
 936 013a FFB2     		uxtb	r7, r7
 937 013c 114A     		ldr	r2, .L88
 938 013e 52F82300 		ldr	r0, [r2, r3, lsl #2]	@ float
 939 0142 1149     		ldr	r1, .L88+4
 940 0144 FFF7FEFF 		bl	__aeabi_fdiv
 941              	.LVL97:
 942 0148 0146     		mov	r1, r0
 943 014a 3846     		mov	r0, r7
 944 014c 0322     		movs	r2, #3
 945 014e FFF7FEFF 		bl	report_util_float_setting
 946              	.LVL98:
 947 0152 0AE0     		b	.L78
 948              	.L83:
ARM GAS  C:\Users\Bart\AppData\Local\Temp\ccYn2oUj.s 			page 22


 236:report.c      ****         case 3: report_util_float_setting(val+idx,-settings.max_travel[idx],N_DECIMAL_SETTINGVALUE)
 949              		.loc 1 236 0
 950 0154 0B4B     		ldr	r3, .L88
 951 0156 03EB8403 		add	r3, r3, r4, lsl #2
 952 015a 596A     		ldr	r1, [r3, #36]	@ float
 953 015c 3019     		adds	r0, r6, r4
 954 015e 01F10041 		add	r1, r1, #-2147483648
 955 0162 C0B2     		uxtb	r0, r0
 956 0164 0322     		movs	r2, #3
 957 0166 FFF7FEFF 		bl	report_util_float_setting
 958              	.LVL99:
 959              	.L78:
 231:report.c      ****       switch (set_idx) {
 960              		.loc 1 231 0 discriminator 2
 961 016a 0134     		adds	r4, r4, #1
 962              	.LVL100:
 963 016c E4B2     		uxtb	r4, r4
 964              	.LVL101:
 965 016e 00E0     		b	.L85
 966              	.LVL102:
 967              	.L86:
 968 0170 0024     		movs	r4, #0
 969              	.L85:
 970              	.LVL103:
 231:report.c      ****       switch (set_idx) {
 971              		.loc 1 231 0 is_stmt 0 discriminator 1
 972 0172 022C     		cmp	r4, #2
 973 0174 C6D9     		bls	.L84
 237:report.c      ****       }
 238:report.c      ****     }
 239:report.c      ****     val += AXIS_SETTINGS_INCREMENT;
 974              		.loc 1 239 0 is_stmt 1 discriminator 2
 975 0176 0A36     		adds	r6, r6, #10
 976              	.LVL104:
 977 0178 F6B2     		uxtb	r6, r6
 978              	.LVL105:
 230:report.c      ****     for (idx=0; idx<N_AXIS; idx++) {
 979              		.loc 1 230 0 discriminator 2
 980 017a 0135     		adds	r5, r5, #1
 981              	.LVL106:
 982 017c EDB2     		uxtb	r5, r5
 983              	.LVL107:
 984              	.L77:
 230:report.c      ****     for (idx=0; idx<N_AXIS; idx++) {
 985              		.loc 1 230 0 is_stmt 0 discriminator 1
 986 017e 032D     		cmp	r5, #3
 987 0180 F6D9     		bls	.L86
 240:report.c      ****   }
 241:report.c      **** }
 988              		.loc 1 241 0 is_stmt 1
 989 0182 F8BD     		pop	{r3, r4, r5, r6, r7, pc}
 990              	.LVL108:
 991              	.L89:
 992              		.align	2
 993              	.L88:
 994 0184 00000000 		.word	settings
 995 0188 00006145 		.word	1163984896
ARM GAS  C:\Users\Bart\AppData\Local\Temp\ccYn2oUj.s 			page 23


 996              		.cfi_endproc
 997              	.LFE77:
 998              		.size	report_grbl_settings, .-report_grbl_settings
 999              		.section	.text.report_probe_parameters,"ax",%progbits
 1000              		.align	2
 1001              		.global	report_probe_parameters
 1002              		.thumb
 1003              		.thumb_func
 1004              		.type	report_probe_parameters, %function
 1005              	report_probe_parameters:
 1006              	.LFB78:
 242:report.c      **** 
 243:report.c      **** 
 244:report.c      **** // Prints current probe parameters. Upon a probe command, these parameters are updated upon a
 245:report.c      **** // successful probe or upon a failed probe with the G38.3 without errors command (if supported).
 246:report.c      **** // These values are retained until Grbl is power-cycled, whereby they will be re-zeroed.
 247:report.c      **** void report_probe_parameters()
 248:report.c      **** {
 1007              		.loc 1 248 0
 1008              		.cfi_startproc
 1009              		@ args = 0, pretend = 0, frame = 16
 1010              		@ frame_needed = 0, uses_anonymous_args = 0
 1011 0000 00B5     		push	{lr}
 1012              		.cfi_def_cfa_offset 4
 1013              		.cfi_offset 14, -4
 1014 0002 85B0     		sub	sp, sp, #20
 1015              		.cfi_def_cfa_offset 24
 249:report.c      ****   // Report in terms of machine position.
 250:report.c      ****   printPgmString(PSTR("[PRB:"));
 1016              		.loc 1 250 0
 1017 0004 0A48     		ldr	r0, .L92
 1018 0006 FFF7FEFF 		bl	printPgmString
 1019              	.LVL109:
 251:report.c      ****   float print_position[N_AXIS];
 252:report.c      ****   system_convert_array_steps_to_mpos(print_position,sys_probe_position);
 1020              		.loc 1 252 0
 1021 000a 01A8     		add	r0, sp, #4
 1022 000c 0949     		ldr	r1, .L92+4
 1023 000e FFF7FEFF 		bl	system_convert_array_steps_to_mpos
 1024              	.LVL110:
 253:report.c      ****   report_util_axis_values(print_position);
 1025              		.loc 1 253 0
 1026 0012 01A8     		add	r0, sp, #4
 1027 0014 FFF7FEFF 		bl	report_util_axis_values
 1028              	.LVL111:
 254:report.c      ****   serial_write(':');
 1029              		.loc 1 254 0
 1030 0018 3A20     		movs	r0, #58
 1031 001a FFF7FEFF 		bl	serial_write
 1032              	.LVL112:
 255:report.c      ****   print_uint8_base10(sys.probe_succeeded);
 1033              		.loc 1 255 0
 1034 001e 064B     		ldr	r3, .L92+8
 1035 0020 5879     		ldrb	r0, [r3, #5]	@ zero_extendqisi2
 1036 0022 FFF7FEFF 		bl	print_uint8_base10
 1037              	.LVL113:
 256:report.c      ****   report_util_feedback_line_feed();
ARM GAS  C:\Users\Bart\AppData\Local\Temp\ccYn2oUj.s 			page 24


 1038              		.loc 1 256 0
 1039 0026 FFF7FEFF 		bl	report_util_feedback_line_feed
 1040              	.LVL114:
 257:report.c      **** }
 1041              		.loc 1 257 0
 1042 002a 05B0     		add	sp, sp, #20
 1043              		.cfi_def_cfa_offset 4
 1044              		@ sp needed
 1045 002c 5DF804FB 		ldr	pc, [sp], #4
 1046              	.L93:
 1047              		.align	2
 1048              	.L92:
 1049 0030 80010000 		.word	.LC28
 1050 0034 00000000 		.word	sys_probe_position
 1051 0038 00000000 		.word	sys
 1052              		.cfi_endproc
 1053              	.LFE78:
 1054              		.size	report_probe_parameters, .-report_probe_parameters
 1055              		.section	.text.report_ngc_parameters,"ax",%progbits
 1056              		.align	2
 1057              		.global	report_ngc_parameters
 1058              		.thumb
 1059              		.thumb_func
 1060              		.type	report_ngc_parameters, %function
 1061              	report_ngc_parameters:
 1062              	.LFB79:
 258:report.c      **** 
 259:report.c      **** 
 260:report.c      **** // Prints Grbl NGC parameters (coordinate offsets, probing)
 261:report.c      **** void report_ngc_parameters()
 262:report.c      **** {
 1063              		.loc 1 262 0
 1064              		.cfi_startproc
 1065              		@ args = 0, pretend = 0, frame = 16
 1066              		@ frame_needed = 0, uses_anonymous_args = 0
 1067 0000 10B5     		push	{r4, lr}
 1068              		.cfi_def_cfa_offset 8
 1069              		.cfi_offset 4, -8
 1070              		.cfi_offset 14, -4
 1071 0002 84B0     		sub	sp, sp, #16
 1072              		.cfi_def_cfa_offset 24
 1073              	.LVL115:
 263:report.c      ****   float coord_data[N_AXIS];
 264:report.c      ****   uint8_t coord_select;
 265:report.c      ****   for (coord_select = 0; coord_select <= SETTING_INDEX_NCOORD; coord_select++) {
 1074              		.loc 1 265 0
 1075 0004 0024     		movs	r4, #0
 1076 0006 27E0     		b	.L95
 1077              	.LVL116:
 1078              	.L102:
 266:report.c      ****     if (!(settings_read_coord_data(coord_select,coord_data))) {
 1079              		.loc 1 266 0
 1080 0008 2046     		mov	r0, r4
 1081 000a 01A9     		add	r1, sp, #4
 1082 000c FFF7FEFF 		bl	settings_read_coord_data
 1083              	.LVL117:
 1084 0010 18B9     		cbnz	r0, .L96
ARM GAS  C:\Users\Bart\AppData\Local\Temp\ccYn2oUj.s 			page 25


 267:report.c      ****       report_status_message(STATUS_SETTING_READ_FAIL);
 1085              		.loc 1 267 0
 1086 0012 0720     		movs	r0, #7
 1087 0014 FFF7FEFF 		bl	report_status_message
 1088              	.LVL118:
 1089 0018 33E0     		b	.L94
 1090              	.L96:
 268:report.c      ****       return;
 269:report.c      ****     }
 270:report.c      ****     printPgmString(PSTR("[G"));
 1091              		.loc 1 270 0
 1092 001a 1B48     		ldr	r0, .L105
 1093 001c FFF7FEFF 		bl	printPgmString
 1094              	.LVL119:
 271:report.c      ****     switch (coord_select) {
 1095              		.loc 1 271 0
 1096 0020 062C     		cmp	r4, #6
 1097 0022 02D0     		beq	.L99
 1098 0024 072C     		cmp	r4, #7
 1099 0026 04D0     		beq	.L100
 1100 0028 07E0     		b	.L103
 1101              	.L99:
 272:report.c      ****       case 6: printPgmString(PSTR("28")); break;
 1102              		.loc 1 272 0
 1103 002a 1848     		ldr	r0, .L105+4
 1104 002c FFF7FEFF 		bl	printPgmString
 1105              	.LVL120:
 1106 0030 08E0     		b	.L101
 1107              	.L100:
 273:report.c      ****       case 7: printPgmString(PSTR("30")); break;
 1108              		.loc 1 273 0
 1109 0032 1748     		ldr	r0, .L105+8
 1110 0034 FFF7FEFF 		bl	printPgmString
 1111              	.LVL121:
 1112 0038 04E0     		b	.L101
 1113              	.L103:
 274:report.c      ****       default: print_uint8_base10(coord_select+54); break; // G54-G59
 1114              		.loc 1 274 0
 1115 003a 04F13600 		add	r0, r4, #54
 1116 003e C0B2     		uxtb	r0, r0
 1117 0040 FFF7FEFF 		bl	print_uint8_base10
 1118              	.LVL122:
 1119              	.L101:
 275:report.c      ****     }
 276:report.c      ****     serial_write(':');
 1120              		.loc 1 276 0 discriminator 2
 1121 0044 3A20     		movs	r0, #58
 1122 0046 FFF7FEFF 		bl	serial_write
 1123              	.LVL123:
 277:report.c      ****     report_util_axis_values(coord_data);
 1124              		.loc 1 277 0 discriminator 2
 1125 004a 01A8     		add	r0, sp, #4
 1126 004c FFF7FEFF 		bl	report_util_axis_values
 1127              	.LVL124:
 278:report.c      ****     report_util_feedback_line_feed();
 1128              		.loc 1 278 0 discriminator 2
 1129 0050 FFF7FEFF 		bl	report_util_feedback_line_feed
ARM GAS  C:\Users\Bart\AppData\Local\Temp\ccYn2oUj.s 			page 26


 1130              	.LVL125:
 265:report.c      ****     if (!(settings_read_coord_data(coord_select,coord_data))) {
 1131              		.loc 1 265 0 discriminator 2
 1132 0054 0134     		adds	r4, r4, #1
 1133              	.LVL126:
 1134 0056 E4B2     		uxtb	r4, r4
 1135              	.LVL127:
 1136              	.L95:
 265:report.c      ****     if (!(settings_read_coord_data(coord_select,coord_data))) {
 1137              		.loc 1 265 0 is_stmt 0 discriminator 1
 1138 0058 072C     		cmp	r4, #7
 1139 005a D5D9     		bls	.L102
 279:report.c      ****   }
 280:report.c      ****   printPgmString(PSTR("[G92:")); // Print G92,G92.1 which are not persistent in memory
 1140              		.loc 1 280 0 is_stmt 1
 1141 005c 0D48     		ldr	r0, .L105+12
 1142 005e FFF7FEFF 		bl	printPgmString
 1143              	.LVL128:
 281:report.c      ****   report_util_axis_values(gc_state.coord_offset);
 1144              		.loc 1 281 0
 1145 0062 0D4C     		ldr	r4, .L105+16
 1146              	.LVL129:
 1147 0064 2046     		mov	r0, r4
 1148 0066 FFF7FEFF 		bl	report_util_axis_values
 1149              	.LVL130:
 282:report.c      ****   report_util_feedback_line_feed();
 1150              		.loc 1 282 0
 1151 006a FFF7FEFF 		bl	report_util_feedback_line_feed
 1152              	.LVL131:
 283:report.c      ****   printPgmString(PSTR("[TLO:")); // Print tool length offset value
 1153              		.loc 1 283 0
 1154 006e 0B48     		ldr	r0, .L105+20
 1155 0070 FFF7FEFF 		bl	printPgmString
 1156              	.LVL132:
 284:report.c      ****   printFloat_CoordValue(gc_state.tool_length_offset);
 1157              		.loc 1 284 0
 1158 0074 E068     		ldr	r0, [r4, #12]	@ float
 1159 0076 FFF7FEFF 		bl	printFloat_CoordValue
 1160              	.LVL133:
 285:report.c      ****   report_util_feedback_line_feed();
 1161              		.loc 1 285 0
 1162 007a FFF7FEFF 		bl	report_util_feedback_line_feed
 1163              	.LVL134:
 286:report.c      ****   report_probe_parameters(); // Print probe parameters. Not persistent in memory.
 1164              		.loc 1 286 0
 1165 007e FFF7FEFF 		bl	report_probe_parameters
 1166              	.LVL135:
 1167              	.L94:
 287:report.c      **** }
 1168              		.loc 1 287 0
 1169 0082 04B0     		add	sp, sp, #16
 1170              		.cfi_def_cfa_offset 8
 1171              		@ sp needed
 1172 0084 10BD     		pop	{r4, pc}
 1173              	.L106:
 1174 0086 00BF     		.align	2
 1175              	.L105:
ARM GAS  C:\Users\Bart\AppData\Local\Temp\ccYn2oUj.s 			page 27


 1176 0088 88010000 		.word	.LC29
 1177 008c 8C010000 		.word	.LC30
 1178 0090 90010000 		.word	.LC31
 1179 0094 94010000 		.word	.LC32
 1180 0098 34000000 		.word	gc_state+52
 1181 009c 9C010000 		.word	.LC33
 1182              		.cfi_endproc
 1183              	.LFE79:
 1184              		.size	report_ngc_parameters, .-report_ngc_parameters
 1185              		.section	.text.report_gcode_modes,"ax",%progbits
 1186              		.align	2
 1187              		.global	report_gcode_modes
 1188              		.thumb
 1189              		.thumb_func
 1190              		.type	report_gcode_modes, %function
 1191              	report_gcode_modes:
 1192              	.LFB80:
 288:report.c      **** 
 289:report.c      **** 
 290:report.c      **** // Print current gcode parser mode state
 291:report.c      **** void report_gcode_modes()
 292:report.c      **** {
 1193              		.loc 1 292 0
 1194              		.cfi_startproc
 1195              		@ args = 0, pretend = 0, frame = 0
 1196              		@ frame_needed = 0, uses_anonymous_args = 0
 1197 0000 10B5     		push	{r4, lr}
 1198              		.cfi_def_cfa_offset 8
 1199              		.cfi_offset 4, -8
 1200              		.cfi_offset 14, -4
 293:report.c      ****   printPgmString(PSTR("[GC:G"));
 1201              		.loc 1 293 0
 1202 0002 4148     		ldr	r0, .L120
 1203 0004 FFF7FEFF 		bl	printPgmString
 1204              	.LVL136:
 294:report.c      ****   if (gc_state.modal.motion >= MOTION_MODE_PROBE_TOWARD) {
 1205              		.loc 1 294 0
 1206 0008 404B     		ldr	r3, .L120+4
 1207 000a 1878     		ldrb	r0, [r3]	@ zero_extendqisi2
 1208 000c 8B28     		cmp	r0, #139
 1209 000e 09D9     		bls	.L108
 295:report.c      ****     printPgmString(PSTR("38."));
 1210              		.loc 1 295 0
 1211 0010 3F48     		ldr	r0, .L120+8
 1212 0012 FFF7FEFF 		bl	printPgmString
 1213              	.LVL137:
 296:report.c      ****     print_uint8_base10(gc_state.modal.motion - (MOTION_MODE_PROBE_TOWARD-2));
 1214              		.loc 1 296 0
 1215 0016 3D4B     		ldr	r3, .L120+4
 1216 0018 1878     		ldrb	r0, [r3]	@ zero_extendqisi2
 1217 001a 7630     		adds	r0, r0, #118
 1218 001c C0B2     		uxtb	r0, r0
 1219 001e FFF7FEFF 		bl	print_uint8_base10
 1220              	.LVL138:
 1221 0022 01E0     		b	.L109
 1222              	.L108:
 297:report.c      ****   } else {
ARM GAS  C:\Users\Bart\AppData\Local\Temp\ccYn2oUj.s 			page 28


 298:report.c      ****     print_uint8_base10(gc_state.modal.motion);
 1223              		.loc 1 298 0
 1224 0024 FFF7FEFF 		bl	print_uint8_base10
 1225              	.LVL139:
 1226              	.L109:
 299:report.c      ****   }
 300:report.c      **** 
 301:report.c      ****   report_util_gcode_modes_G();
 1227              		.loc 1 301 0
 1228 0028 FFF7FEFF 		bl	report_util_gcode_modes_G
 1229              	.LVL140:
 302:report.c      ****   print_uint8_base10(gc_state.modal.coord_select+54);
 1230              		.loc 1 302 0
 1231 002c 374C     		ldr	r4, .L120+4
 1232 002e A079     		ldrb	r0, [r4, #6]	@ zero_extendqisi2
 1233 0030 3630     		adds	r0, r0, #54
 1234 0032 C0B2     		uxtb	r0, r0
 1235 0034 FFF7FEFF 		bl	print_uint8_base10
 1236              	.LVL141:
 303:report.c      **** 
 304:report.c      ****   report_util_gcode_modes_G();
 1237              		.loc 1 304 0
 1238 0038 FFF7FEFF 		bl	report_util_gcode_modes_G
 1239              	.LVL142:
 305:report.c      ****   print_uint8_base10(gc_state.modal.plane_select+17);
 1240              		.loc 1 305 0
 1241 003c 2079     		ldrb	r0, [r4, #4]	@ zero_extendqisi2
 1242 003e 1130     		adds	r0, r0, #17
 1243 0040 C0B2     		uxtb	r0, r0
 1244 0042 FFF7FEFF 		bl	print_uint8_base10
 1245              	.LVL143:
 306:report.c      **** 
 307:report.c      ****   report_util_gcode_modes_G();
 1246              		.loc 1 307 0
 1247 0046 FFF7FEFF 		bl	report_util_gcode_modes_G
 1248              	.LVL144:
 308:report.c      ****   print_uint8_base10(21-gc_state.modal.units);
 1249              		.loc 1 308 0
 1250 004a A078     		ldrb	r0, [r4, #2]	@ zero_extendqisi2
 1251 004c C0F11500 		rsb	r0, r0, #21
 1252 0050 C0B2     		uxtb	r0, r0
 1253 0052 FFF7FEFF 		bl	print_uint8_base10
 1254              	.LVL145:
 309:report.c      **** 
 310:report.c      ****   report_util_gcode_modes_G();
 1255              		.loc 1 310 0
 1256 0056 FFF7FEFF 		bl	report_util_gcode_modes_G
 1257              	.LVL146:
 311:report.c      ****   print_uint8_base10(gc_state.modal.distance+90);
 1258              		.loc 1 311 0
 1259 005a E078     		ldrb	r0, [r4, #3]	@ zero_extendqisi2
 1260 005c 5A30     		adds	r0, r0, #90
 1261 005e C0B2     		uxtb	r0, r0
 1262 0060 FFF7FEFF 		bl	print_uint8_base10
 1263              	.LVL147:
 312:report.c      **** 
 313:report.c      ****   report_util_gcode_modes_G();
ARM GAS  C:\Users\Bart\AppData\Local\Temp\ccYn2oUj.s 			page 29


 1264              		.loc 1 313 0
 1265 0064 FFF7FEFF 		bl	report_util_gcode_modes_G
 1266              	.LVL148:
 314:report.c      ****   print_uint8_base10(94-gc_state.modal.feed_rate);
 1267              		.loc 1 314 0
 1268 0068 6078     		ldrb	r0, [r4, #1]	@ zero_extendqisi2
 1269 006a C0F15E00 		rsb	r0, r0, #94
 1270 006e C0B2     		uxtb	r0, r0
 1271 0070 FFF7FEFF 		bl	print_uint8_base10
 1272              	.LVL149:
 315:report.c      **** 
 316:report.c      ****   if (gc_state.modal.program_flow) {
 1273              		.loc 1 316 0
 1274 0074 E379     		ldrb	r3, [r4, #7]	@ zero_extendqisi2
 1275 0076 7BB1     		cbz	r3, .L110
 317:report.c      ****     report_util_gcode_modes_M();
 1276              		.loc 1 317 0
 1277 0078 FFF7FEFF 		bl	report_util_gcode_modes_M
 1278              	.LVL150:
 318:report.c      ****     switch (gc_state.modal.program_flow) {
 1279              		.loc 1 318 0
 1280 007c E079     		ldrb	r0, [r4, #7]	@ zero_extendqisi2
 1281 007e 0328     		cmp	r0, #3
 1282 0080 04D0     		beq	.L111
 1283 0082 1E28     		cmp	r0, #30
 1284 0084 06D0     		beq	.L112
 1285 0086 0228     		cmp	r0, #2
 1286 0088 06D1     		bne	.L110
 1287 008a 03E0     		b	.L112
 1288              	.L111:
 319:report.c      ****       case PROGRAM_FLOW_PAUSED : serial_write('0'); break;
 1289              		.loc 1 319 0
 1290 008c 3020     		movs	r0, #48
 1291 008e FFF7FEFF 		bl	serial_write
 1292              	.LVL151:
 1293 0092 01E0     		b	.L110
 1294              	.L112:
 320:report.c      ****       // case PROGRAM_FLOW_OPTIONAL_STOP : serial_write('1'); break; // M1 is ignored and not suppo
 321:report.c      ****       case PROGRAM_FLOW_COMPLETED_M2 : 
 322:report.c      ****       case PROGRAM_FLOW_COMPLETED_M30 : 
 323:report.c      ****         print_uint8_base10(gc_state.modal.program_flow);
 1295              		.loc 1 323 0
 1296 0094 FFF7FEFF 		bl	print_uint8_base10
 1297              	.LVL152:
 1298              	.L110:
 324:report.c      ****         break;
 325:report.c      ****     }
 326:report.c      ****   }
 327:report.c      **** 
 328:report.c      ****   report_util_gcode_modes_M();
 1299              		.loc 1 328 0
 1300 0098 FFF7FEFF 		bl	report_util_gcode_modes_M
 1301              	.LVL153:
 329:report.c      ****   switch (gc_state.modal.spindle) {
 1302              		.loc 1 329 0
 1303 009c 1B4B     		ldr	r3, .L120+4
 1304 009e 5B7A     		ldrb	r3, [r3, #9]	@ zero_extendqisi2
ARM GAS  C:\Users\Bart\AppData\Local\Temp\ccYn2oUj.s 			page 30


 1305 00a0 102B     		cmp	r3, #16
 1306 00a2 03D0     		beq	.L114
 1307 00a4 202B     		cmp	r3, #32
 1308 00a6 05D0     		beq	.L115
 1309 00a8 5BB9     		cbnz	r3, .L113
 1310 00aa 07E0     		b	.L116
 1311              	.L114:
 330:report.c      ****     case SPINDLE_ENABLE_CW : serial_write('3'); break;
 1312              		.loc 1 330 0
 1313 00ac 3320     		movs	r0, #51
 1314 00ae FFF7FEFF 		bl	serial_write
 1315              	.LVL154:
 1316 00b2 06E0     		b	.L113
 1317              	.L115:
 331:report.c      ****     case SPINDLE_ENABLE_CCW : serial_write('4'); break;
 1318              		.loc 1 331 0
 1319 00b4 3420     		movs	r0, #52
 1320 00b6 FFF7FEFF 		bl	serial_write
 1321              	.LVL155:
 1322 00ba 02E0     		b	.L113
 1323              	.L116:
 332:report.c      ****     case SPINDLE_DISABLE : serial_write('5'); break;
 1324              		.loc 1 332 0
 1325 00bc 3520     		movs	r0, #53
 1326 00be FFF7FEFF 		bl	serial_write
 1327              	.LVL156:
 1328              	.L113:
 333:report.c      ****   }
 334:report.c      **** 
 335:report.c      ****   report_util_gcode_modes_M();
 1329              		.loc 1 335 0
 1330 00c2 FFF7FEFF 		bl	report_util_gcode_modes_M
 1331              	.LVL157:
 336:report.c      ****   #ifdef ENABLE_M7
 337:report.c      ****     if (gc_state.modal.coolant) { // Note: Multiple coolant states may be active at the same time.
 338:report.c      ****       if (gc_state.modal.coolant & PL_COND_FLAG_COOLANT_MIST) { serial_write('7'); }
 339:report.c      ****       if (gc_state.modal.coolant & PL_COND_FLAG_COOLANT_FLOOD) { serial_write('8'); }
 340:report.c      ****     } else { serial_write('9'); }
 341:report.c      ****   #else
 342:report.c      ****     if (gc_state.modal.coolant) { serial_write('8'); }
 1332              		.loc 1 342 0
 1333 00c6 114B     		ldr	r3, .L120+4
 1334 00c8 1B7A     		ldrb	r3, [r3, #8]	@ zero_extendqisi2
 1335 00ca 1BB1     		cbz	r3, .L117
 1336              		.loc 1 342 0 is_stmt 0 discriminator 1
 1337 00cc 3820     		movs	r0, #56
 1338 00ce FFF7FEFF 		bl	serial_write
 1339              	.LVL158:
 1340 00d2 02E0     		b	.L118
 1341              	.L117:
 343:report.c      ****     else { serial_write('9'); }
 1342              		.loc 1 343 0 is_stmt 1
 1343 00d4 3920     		movs	r0, #57
 1344 00d6 FFF7FEFF 		bl	serial_write
 1345              	.LVL159:
 1346              	.L118:
 344:report.c      ****   #endif
ARM GAS  C:\Users\Bart\AppData\Local\Temp\ccYn2oUj.s 			page 31


 345:report.c      **** 
 346:report.c      ****   printPgmString(PSTR(" T"));
 1347              		.loc 1 346 0
 1348 00da 0E48     		ldr	r0, .L120+12
 1349 00dc FFF7FEFF 		bl	printPgmString
 1350              	.LVL160:
 347:report.c      ****   print_uint8_base10(gc_state.tool);
 1351              		.loc 1 347 0
 1352 00e0 0A4C     		ldr	r4, .L120+4
 1353 00e2 207D     		ldrb	r0, [r4, #20]	@ zero_extendqisi2
 1354 00e4 FFF7FEFF 		bl	print_uint8_base10
 1355              	.LVL161:
 348:report.c      **** 
 349:report.c      ****   printPgmString(PSTR(" F"));
 1356              		.loc 1 349 0
 1357 00e8 0B48     		ldr	r0, .L120+16
 1358 00ea FFF7FEFF 		bl	printPgmString
 1359              	.LVL162:
 350:report.c      ****   printFloat_RateValue(gc_state.feed_rate);
 1360              		.loc 1 350 0
 1361 00ee 2069     		ldr	r0, [r4, #16]	@ float
 1362 00f0 FFF7FEFF 		bl	printFloat_RateValue
 1363              	.LVL163:
 351:report.c      **** 
 352:report.c      ****   #ifdef VARIABLE_SPINDLE
 353:report.c      ****     printPgmString(PSTR(" S"));
 1364              		.loc 1 353 0
 1365 00f4 0948     		ldr	r0, .L120+20
 1366 00f6 FFF7FEFF 		bl	printPgmString
 1367              	.LVL164:
 354:report.c      ****     printFloat(gc_state.spindle_speed,N_DECIMAL_RPMVALUE);
 1368              		.loc 1 354 0
 1369 00fa E068     		ldr	r0, [r4, #12]	@ float
 1370 00fc 0021     		movs	r1, #0
 1371 00fe FFF7FEFF 		bl	printFloat
 1372              	.LVL165:
 355:report.c      ****   #endif
 356:report.c      **** 
 357:report.c      ****   report_util_feedback_line_feed();
 1373              		.loc 1 357 0
 1374 0102 FFF7FEFF 		bl	report_util_feedback_line_feed
 1375              	.LVL166:
 1376 0106 10BD     		pop	{r4, pc}
 1377              	.L121:
 1378              		.align	2
 1379              	.L120:
 1380 0108 A4010000 		.word	.LC34
 1381 010c 00000000 		.word	gc_state
 1382 0110 AC010000 		.word	.LC35
 1383 0114 B0010000 		.word	.LC36
 1384 0118 B4010000 		.word	.LC37
 1385 011c B8010000 		.word	.LC38
 1386              		.cfi_endproc
 1387              	.LFE80:
 1388              		.size	report_gcode_modes, .-report_gcode_modes
 1389              		.section	.text.report_startup_line,"ax",%progbits
 1390              		.align	2
ARM GAS  C:\Users\Bart\AppData\Local\Temp\ccYn2oUj.s 			page 32


 1391              		.global	report_startup_line
 1392              		.thumb
 1393              		.thumb_func
 1394              		.type	report_startup_line, %function
 1395              	report_startup_line:
 1396              	.LFB81:
 358:report.c      **** }
 359:report.c      **** 
 360:report.c      **** // Prints specified startup line
 361:report.c      **** void report_startup_line(uint8_t n, char *line)
 362:report.c      **** {
 1397              		.loc 1 362 0
 1398              		.cfi_startproc
 1399              		@ args = 0, pretend = 0, frame = 0
 1400              		@ frame_needed = 0, uses_anonymous_args = 0
 1401              	.LVL167:
 1402 0000 38B5     		push	{r3, r4, r5, lr}
 1403              		.cfi_def_cfa_offset 16
 1404              		.cfi_offset 3, -16
 1405              		.cfi_offset 4, -12
 1406              		.cfi_offset 5, -8
 1407              		.cfi_offset 14, -4
 1408 0002 0546     		mov	r5, r0
 1409 0004 0C46     		mov	r4, r1
 363:report.c      ****   printPgmString(PSTR("$N"));
 1410              		.loc 1 363 0
 1411 0006 0748     		ldr	r0, .L124
 1412              	.LVL168:
 1413 0008 FFF7FEFF 		bl	printPgmString
 1414              	.LVL169:
 364:report.c      ****   print_uint8_base10(n);
 1415              		.loc 1 364 0
 1416 000c 2846     		mov	r0, r5
 1417 000e FFF7FEFF 		bl	print_uint8_base10
 1418              	.LVL170:
 365:report.c      ****   serial_write('=');
 1419              		.loc 1 365 0
 1420 0012 3D20     		movs	r0, #61
 1421 0014 FFF7FEFF 		bl	serial_write
 1422              	.LVL171:
 366:report.c      ****   printString(line);
 1423              		.loc 1 366 0
 1424 0018 2046     		mov	r0, r4
 1425 001a FFF7FEFF 		bl	printString
 1426              	.LVL172:
 367:report.c      ****   report_util_line_feed();
 1427              		.loc 1 367 0
 1428 001e FFF7FEFF 		bl	report_util_line_feed
 1429              	.LVL173:
 1430 0022 38BD     		pop	{r3, r4, r5, pc}
 1431              	.LVL174:
 1432              	.L125:
 1433              		.align	2
 1434              	.L124:
 1435 0024 BC010000 		.word	.LC39
 1436              		.cfi_endproc
 1437              	.LFE81:
ARM GAS  C:\Users\Bart\AppData\Local\Temp\ccYn2oUj.s 			page 33


 1438              		.size	report_startup_line, .-report_startup_line
 1439              		.section	.text.report_execute_startup_message,"ax",%progbits
 1440              		.align	2
 1441              		.global	report_execute_startup_message
 1442              		.thumb
 1443              		.thumb_func
 1444              		.type	report_execute_startup_message, %function
 1445              	report_execute_startup_message:
 1446              	.LFB82:
 368:report.c      **** }
 369:report.c      **** 
 370:report.c      **** void report_execute_startup_message(char *line, uint8_t status_code)
 371:report.c      **** {
 1447              		.loc 1 371 0
 1448              		.cfi_startproc
 1449              		@ args = 0, pretend = 0, frame = 0
 1450              		@ frame_needed = 0, uses_anonymous_args = 0
 1451              	.LVL175:
 1452 0000 38B5     		push	{r3, r4, r5, lr}
 1453              		.cfi_def_cfa_offset 16
 1454              		.cfi_offset 3, -16
 1455              		.cfi_offset 4, -12
 1456              		.cfi_offset 5, -8
 1457              		.cfi_offset 14, -4
 1458 0002 0546     		mov	r5, r0
 1459 0004 0C46     		mov	r4, r1
 372:report.c      ****   serial_write('>');
 1460              		.loc 1 372 0
 1461 0006 3E20     		movs	r0, #62
 1462              	.LVL176:
 1463 0008 FFF7FEFF 		bl	serial_write
 1464              	.LVL177:
 373:report.c      ****   printString(line);
 1465              		.loc 1 373 0
 1466 000c 2846     		mov	r0, r5
 1467 000e FFF7FEFF 		bl	printString
 1468              	.LVL178:
 374:report.c      ****   serial_write(':');
 1469              		.loc 1 374 0
 1470 0012 3A20     		movs	r0, #58
 1471 0014 FFF7FEFF 		bl	serial_write
 1472              	.LVL179:
 375:report.c      ****   report_status_message(status_code);
 1473              		.loc 1 375 0
 1474 0018 2046     		mov	r0, r4
 1475 001a FFF7FEFF 		bl	report_status_message
 1476              	.LVL180:
 1477 001e 38BD     		pop	{r3, r4, r5, pc}
 1478              		.cfi_endproc
 1479              	.LFE82:
 1480              		.size	report_execute_startup_message, .-report_execute_startup_message
 1481              		.section	.text.report_build_info,"ax",%progbits
 1482              		.align	2
 1483              		.global	report_build_info
 1484              		.thumb
 1485              		.thumb_func
 1486              		.type	report_build_info, %function
ARM GAS  C:\Users\Bart\AppData\Local\Temp\ccYn2oUj.s 			page 34


 1487              	report_build_info:
 1488              	.LFB83:
 376:report.c      **** }
 377:report.c      **** 
 378:report.c      **** // Prints build info line
 379:report.c      **** void report_build_info(char *line)
 380:report.c      **** {
 1489              		.loc 1 380 0
 1490              		.cfi_startproc
 1491              		@ args = 0, pretend = 0, frame = 0
 1492              		@ frame_needed = 0, uses_anonymous_args = 0
 1493              	.LVL181:
 1494 0000 10B5     		push	{r4, lr}
 1495              		.cfi_def_cfa_offset 8
 1496              		.cfi_offset 4, -8
 1497              		.cfi_offset 14, -4
 1498 0002 0446     		mov	r4, r0
 381:report.c      ****   printPgmString(PSTR("[VER:" GRBL_VERSION "." GRBL_VERSION_BUILD ":"));
 1499              		.loc 1 381 0
 1500 0004 0948     		ldr	r0, .L130
 1501              	.LVL182:
 1502 0006 FFF7FEFF 		bl	printPgmString
 1503              	.LVL183:
 382:report.c      ****   printString(line);
 1504              		.loc 1 382 0
 1505 000a 2046     		mov	r0, r4
 1506 000c FFF7FEFF 		bl	printString
 1507              	.LVL184:
 383:report.c      ****   report_util_feedback_line_feed();
 1508              		.loc 1 383 0
 1509 0010 FFF7FEFF 		bl	report_util_feedback_line_feed
 1510              	.LVL185:
 384:report.c      ****   printPgmString(PSTR("[OPT:")); // Generate compile-time build option list
 1511              		.loc 1 384 0
 1512 0014 0648     		ldr	r0, .L130+4
 1513 0016 FFF7FEFF 		bl	printPgmString
 1514              	.LVL186:
 385:report.c      ****   #ifdef VARIABLE_SPINDLE
 386:report.c      ****     serial_write('V');
 1515              		.loc 1 386 0
 1516 001a 5620     		movs	r0, #86
 1517 001c FFF7FEFF 		bl	serial_write
 1518              	.LVL187:
 387:report.c      ****   #endif
 388:report.c      ****   #ifdef USE_LINE_NUMBERS
 389:report.c      ****     serial_write('N');
 390:report.c      ****   #endif
 391:report.c      ****   #ifdef ENABLE_M7
 392:report.c      ****     serial_write('M');
 393:report.c      ****   #endif
 394:report.c      ****   #ifdef COREXY
 395:report.c      ****     serial_write('C');
 396:report.c      ****   #endif
 397:report.c      ****   #ifdef PARKING_ENABLE
 398:report.c      ****     serial_write('P');
 399:report.c      ****   #endif
 400:report.c      ****   #ifdef HOMING_FORCE_SET_ORIGIN
ARM GAS  C:\Users\Bart\AppData\Local\Temp\ccYn2oUj.s 			page 35


 401:report.c      ****     serial_write('Z');
 402:report.c      ****   #endif
 403:report.c      ****   #ifdef HOMING_SINGLE_AXIS_COMMANDS
 404:report.c      ****     serial_write('H');
 1519              		.loc 1 404 0
 1520 0020 4820     		movs	r0, #72
 1521 0022 FFF7FEFF 		bl	serial_write
 1522              	.LVL188:
 405:report.c      ****   #endif
 406:report.c      ****   #ifdef LIMITS_TWO_SWITCHES_ON_AXES
 407:report.c      ****     serial_write('L');
 408:report.c      ****   #endif
 409:report.c      ****   #ifdef ALLOW_FEED_OVERRIDE_DURING_PROBE_CYCLES
 410:report.c      ****     serial_write('A');
 411:report.c      ****   #endif
 412:report.c      ****   #ifndef ENABLE_RESTORE_EEPROM_WIPE_ALL // NOTE: Shown when disabled.
 413:report.c      ****     serial_write('*');
 414:report.c      ****   #endif
 415:report.c      ****   #ifndef ENABLE_RESTORE_EEPROM_DEFAULT_SETTINGS // NOTE: Shown when disabled.
 416:report.c      ****     serial_write('$');
 417:report.c      ****   #endif
 418:report.c      ****   #ifndef ENABLE_RESTORE_EEPROM_CLEAR_PARAMETERS // NOTE: Shown when disabled.
 419:report.c      ****     serial_write('#');
 420:report.c      ****   #endif
 421:report.c      ****   #ifndef ENABLE_BUILD_INFO_WRITE_COMMAND // NOTE: Shown when disabled.
 422:report.c      ****     serial_write('I');
 423:report.c      ****   #endif
 424:report.c      ****   #ifndef FORCE_BUFFER_SYNC_DURING_EEPROM_WRITE // NOTE: Shown when disabled.
 425:report.c      ****     serial_write('E');
 426:report.c      ****   #endif
 427:report.c      ****   #ifndef FORCE_BUFFER_SYNC_DURING_WCO_CHANGE // NOTE: Shown when disabled.
 428:report.c      ****     serial_write('W');
 429:report.c      ****   #endif
 430:report.c      ****   // NOTE: Compiled values, like override increments/max/min values, may be added at some point lat
 431:report.c      ****   // These will likely have a comma delimiter to separate them.   
 432:report.c      ****     
 433:report.c      ****   report_util_feedback_line_feed();
 1523              		.loc 1 433 0
 1524 0026 FFF7FEFF 		bl	report_util_feedback_line_feed
 1525              	.LVL189:
 1526 002a 10BD     		pop	{r4, pc}
 1527              	.LVL190:
 1528              	.L131:
 1529              		.align	2
 1530              	.L130:
 1531 002c C0010000 		.word	.LC40
 1532 0030 D4010000 		.word	.LC41
 1533              		.cfi_endproc
 1534              	.LFE83:
 1535              		.size	report_build_info, .-report_build_info
 1536              		.section	.text.report_echo_line_received,"ax",%progbits
 1537              		.align	2
 1538              		.global	report_echo_line_received
 1539              		.thumb
 1540              		.thumb_func
 1541              		.type	report_echo_line_received, %function
 1542              	report_echo_line_received:
ARM GAS  C:\Users\Bart\AppData\Local\Temp\ccYn2oUj.s 			page 36


 1543              	.LFB84:
 434:report.c      **** }
 435:report.c      **** 
 436:report.c      **** 
 437:report.c      **** // Prints the character string line Grbl has received from the user, which has been pre-parsed,
 438:report.c      **** // and has been sent into protocol_execute_line() routine to be executed by Grbl.
 439:report.c      **** void report_echo_line_received(char *line)
 440:report.c      **** {
 1544              		.loc 1 440 0
 1545              		.cfi_startproc
 1546              		@ args = 0, pretend = 0, frame = 0
 1547              		@ frame_needed = 0, uses_anonymous_args = 0
 1548              	.LVL191:
 1549 0000 10B5     		push	{r4, lr}
 1550              		.cfi_def_cfa_offset 8
 1551              		.cfi_offset 4, -8
 1552              		.cfi_offset 14, -4
 1553 0002 0446     		mov	r4, r0
 441:report.c      ****   printPgmString(PSTR("[echo: ")); printString(line);
 1554              		.loc 1 441 0
 1555 0004 0448     		ldr	r0, .L134
 1556              	.LVL192:
 1557 0006 FFF7FEFF 		bl	printPgmString
 1558              	.LVL193:
 1559 000a 2046     		mov	r0, r4
 1560 000c FFF7FEFF 		bl	printString
 1561              	.LVL194:
 442:report.c      ****   report_util_feedback_line_feed();
 1562              		.loc 1 442 0
 1563 0010 FFF7FEFF 		bl	report_util_feedback_line_feed
 1564              	.LVL195:
 1565 0014 10BD     		pop	{r4, pc}
 1566              	.LVL196:
 1567              	.L135:
 1568 0016 00BF     		.align	2
 1569              	.L134:
 1570 0018 DC010000 		.word	.LC42
 1571              		.cfi_endproc
 1572              	.LFE84:
 1573              		.size	report_echo_line_received, .-report_echo_line_received
 1574              		.global	__aeabi_fadd
 1575              		.global	__aeabi_fsub
 1576              		.section	.text.report_realtime_status,"ax",%progbits
 1577              		.align	2
 1578              		.global	report_realtime_status
 1579              		.thumb
 1580              		.thumb_func
 1581              		.type	report_realtime_status, %function
 1582              	report_realtime_status:
 1583              	.LFB85:
 443:report.c      **** }
 444:report.c      **** 
 445:report.c      **** 
 446:report.c      ****  // Prints real-time data. This function grabs a real-time snapshot of the stepper subprogram
 447:report.c      ****  // and the actual location of the CNC machine. Users may change the following function to their
 448:report.c      ****  // specific needs, but the desired real-time data report must be as short as possible. This is
 449:report.c      ****  // requires as it minimizes the computational overhead and allows grbl to keep running smoothly,
ARM GAS  C:\Users\Bart\AppData\Local\Temp\ccYn2oUj.s 			page 37


 450:report.c      ****  // especially during g-code programs with fast, short line segments and high frequency reports (5-
 451:report.c      **** void report_realtime_status()
 452:report.c      **** {
 1584              		.loc 1 452 0
 1585              		.cfi_startproc
 1586              		@ args = 0, pretend = 0, frame = 40
 1587              		@ frame_needed = 0, uses_anonymous_args = 0
 1588 0000 70B5     		push	{r4, r5, r6, lr}
 1589              		.cfi_def_cfa_offset 16
 1590              		.cfi_offset 4, -16
 1591              		.cfi_offset 5, -12
 1592              		.cfi_offset 6, -8
 1593              		.cfi_offset 14, -4
 1594 0002 8AB0     		sub	sp, sp, #40
 1595              		.cfi_def_cfa_offset 56
 453:report.c      ****   uint8_t idx;
 454:report.c      ****   int32_t current_position[N_AXIS]; // Copy current state of the system position variable
 455:report.c      ****   memcpy(current_position,sys_position,sizeof(sys_position));
 1596              		.loc 1 455 0
 1597 0004 A14A     		ldr	r2, .L183
 1598 0006 07AB     		add	r3, sp, #28
 1599 0008 07CA     		ldmia	r2, {r0, r1, r2}
 1600 000a 83E80700 		stmia	r3, {r0, r1, r2}
 456:report.c      ****   float print_position[N_AXIS];
 457:report.c      ****   system_convert_array_steps_to_mpos(print_position,current_position);
 1601              		.loc 1 457 0
 1602 000e 04A8     		add	r0, sp, #16
 1603 0010 1946     		mov	r1, r3
 1604 0012 FFF7FEFF 		bl	system_convert_array_steps_to_mpos
 1605              	.LVL197:
 458:report.c      **** 
 459:report.c      ****   // Report current machine state and sub-states
 460:report.c      ****   serial_write('<');
 1606              		.loc 1 460 0
 1607 0016 3C20     		movs	r0, #60
 1608 0018 FFF7FEFF 		bl	serial_write
 1609              	.LVL198:
 461:report.c      ****   switch (sys.state) {
 1610              		.loc 1 461 0
 1611 001c 9C4B     		ldr	r3, .L183+4
 1612 001e 1B78     		ldrb	r3, [r3]	@ zero_extendqisi2
 1613 0020 082B     		cmp	r3, #8
 1614 0022 17D0     		beq	.L138
 1615 0024 07D8     		bhi	.L139
 1616 0026 012B     		cmp	r3, #1
 1617 0028 35D0     		beq	.L140
 1618 002a 7BB1     		cbz	r3, .L141
 1619 002c 022B     		cmp	r3, #2
 1620 002e 36D0     		beq	.L142
 1621 0030 042B     		cmp	r3, #4
 1622 0032 2CD0     		beq	.L143
 1623 0034 58E0     		b	.L137
 1624              	.L139:
 1625 0036 202B     		cmp	r3, #32
 1626 0038 25D0     		beq	.L144
 1627 003a 02D8     		bhi	.L145
 1628 003c 102B     		cmp	r3, #16
ARM GAS  C:\Users\Bart\AppData\Local\Temp\ccYn2oUj.s 			page 38


 1629 003e 0DD0     		beq	.L146
 1630 0040 52E0     		b	.L137
 1631              	.L145:
 1632 0042 402B     		cmp	r3, #64
 1633 0044 2FD0     		beq	.L147
 1634 0046 802B     		cmp	r3, #128
 1635 0048 4BD0     		beq	.L148
 1636 004a 4DE0     		b	.L137
 1637              	.L141:
 462:report.c      ****     case STATE_IDLE: printPgmString(("Idle")); break;
 1638              		.loc 1 462 0
 1639 004c 9148     		ldr	r0, .L183+8
 1640 004e FFF7FEFF 		bl	printPgmString
 1641              	.LVL199:
 1642 0052 49E0     		b	.L137
 1643              	.L138:
 463:report.c      ****     case STATE_CYCLE: printPgmString(PSTR("Run")); break;
 1644              		.loc 1 463 0
 1645 0054 9048     		ldr	r0, .L183+12
 1646 0056 FFF7FEFF 		bl	printPgmString
 1647              	.LVL200:
 1648 005a 45E0     		b	.L137
 1649              	.L146:
 464:report.c      ****     case STATE_HOLD:
 465:report.c      ****     
 466:report.c      ****       if (!(sys.suspend & SUSPEND_JOG_CANCEL)) {
 1650              		.loc 1 466 0
 1651 005c 8C4B     		ldr	r3, .L183+4
 1652 005e 93F90230 		ldrsb	r3, [r3, #2]
 1653 0062 002B     		cmp	r3, #0
 1654 0064 0FDB     		blt	.L144
 467:report.c      ****         printPgmString(PSTR("Hold:"));
 1655              		.loc 1 467 0
 1656 0066 8D48     		ldr	r0, .L183+16
 1657 0068 FFF7FEFF 		bl	printPgmString
 1658              	.LVL201:
 468:report.c      ****         if (sys.suspend & SUSPEND_HOLD_COMPLETE) { serial_write('0'); } // Ready to resume
 1659              		.loc 1 468 0
 1660 006c 884B     		ldr	r3, .L183+4
 1661 006e 9B78     		ldrb	r3, [r3, #2]	@ zero_extendqisi2
 1662 0070 13F0010F 		tst	r3, #1
 1663 0074 03D0     		beq	.L149
 1664              		.loc 1 468 0 is_stmt 0 discriminator 1
 1665 0076 3020     		movs	r0, #48
 1666 0078 FFF7FEFF 		bl	serial_write
 1667              	.LVL202:
 1668 007c 34E0     		b	.L137
 1669              	.L149:
 469:report.c      ****         else { serial_write('1'); } // Actively holding
 1670              		.loc 1 469 0 is_stmt 1
 1671 007e 3120     		movs	r0, #49
 1672 0080 FFF7FEFF 		bl	serial_write
 1673              	.LVL203:
 1674 0084 30E0     		b	.L137
 1675              	.L144:
 470:report.c      ****         break;
 471:report.c      ****       } // Continues to print jog state during jog cancel.
ARM GAS  C:\Users\Bart\AppData\Local\Temp\ccYn2oUj.s 			page 39


 472:report.c      ****     case STATE_JOG: printPgmString(PSTR("Jog")); break;
 1676              		.loc 1 472 0
 1677 0086 8648     		ldr	r0, .L183+20
 1678 0088 FFF7FEFF 		bl	printPgmString
 1679              	.LVL204:
 1680 008c 2CE0     		b	.L137
 1681              	.L143:
 473:report.c      ****     case STATE_HOMING: printPgmString(PSTR("Home")); break;
 1682              		.loc 1 473 0
 1683 008e 8548     		ldr	r0, .L183+24
 1684 0090 FFF7FEFF 		bl	printPgmString
 1685              	.LVL205:
 1686 0094 28E0     		b	.L137
 1687              	.L140:
 474:report.c      ****     case STATE_ALARM: printPgmString(PSTR("Alarm")); break;
 1688              		.loc 1 474 0
 1689 0096 8448     		ldr	r0, .L183+28
 1690 0098 FFF7FEFF 		bl	printPgmString
 1691              	.LVL206:
 1692 009c 24E0     		b	.L137
 1693              	.L142:
 475:report.c      ****     case STATE_CHECK_MODE: printPgmString(PSTR("Check")); break;
 1694              		.loc 1 475 0
 1695 009e 8348     		ldr	r0, .L183+32
 1696 00a0 FFF7FEFF 		bl	printPgmString
 1697              	.LVL207:
 1698 00a4 20E0     		b	.L137
 1699              	.L147:
 476:report.c      ****     case STATE_SAFETY_DOOR:
 477:report.c      ****       printPgmString(PSTR("Door:"));
 1700              		.loc 1 477 0
 1701 00a6 8248     		ldr	r0, .L183+36
 1702 00a8 FFF7FEFF 		bl	printPgmString
 1703              	.LVL208:
 478:report.c      ****       if (sys.suspend & SUSPEND_INITIATE_RESTORE) {
 1704              		.loc 1 478 0
 1705 00ac 784B     		ldr	r3, .L183+4
 1706 00ae 9B78     		ldrb	r3, [r3, #2]	@ zero_extendqisi2
 1707 00b0 13F0080F 		tst	r3, #8
 1708 00b4 03D0     		beq	.L150
 479:report.c      ****         serial_write('3'); // Restoring
 1709              		.loc 1 479 0
 1710 00b6 3320     		movs	r0, #51
 1711 00b8 FFF7FEFF 		bl	serial_write
 1712              	.LVL209:
 1713 00bc 14E0     		b	.L137
 1714              	.L150:
 480:report.c      ****       } else {
 481:report.c      ****         if (sys.suspend & SUSPEND_RETRACT_COMPLETE) {
 1715              		.loc 1 481 0
 1716 00be 13F0040F 		tst	r3, #4
 1717 00c2 0AD0     		beq	.L151
 482:report.c      ****           if (sys.suspend & SUSPEND_SAFETY_DOOR_AJAR) {
 1718              		.loc 1 482 0
 1719 00c4 13F0200F 		tst	r3, #32
 1720 00c8 03D0     		beq	.L152
 483:report.c      ****             serial_write('1'); // Door ajar
ARM GAS  C:\Users\Bart\AppData\Local\Temp\ccYn2oUj.s 			page 40


 1721              		.loc 1 483 0
 1722 00ca 3120     		movs	r0, #49
 1723 00cc FFF7FEFF 		bl	serial_write
 1724              	.LVL210:
 1725 00d0 0AE0     		b	.L137
 1726              	.L152:
 484:report.c      ****           } else {
 485:report.c      ****             serial_write('0');
 1727              		.loc 1 485 0
 1728 00d2 3020     		movs	r0, #48
 1729 00d4 FFF7FEFF 		bl	serial_write
 1730              	.LVL211:
 1731 00d8 06E0     		b	.L137
 1732              	.L151:
 486:report.c      ****           } // Door closed and ready to resume
 487:report.c      ****         } else {
 488:report.c      ****           serial_write('2'); // Retracting
 1733              		.loc 1 488 0
 1734 00da 3220     		movs	r0, #50
 1735 00dc FFF7FEFF 		bl	serial_write
 1736              	.LVL212:
 1737 00e0 02E0     		b	.L137
 1738              	.L148:
 489:report.c      ****         }
 490:report.c      ****       }
 491:report.c      ****       break;
 492:report.c      ****     case STATE_SLEEP: printPgmString(PSTR("Sleep")); break;
 1739              		.loc 1 492 0
 1740 00e2 7448     		ldr	r0, .L183+40
 1741 00e4 FFF7FEFF 		bl	printPgmString
 1742              	.LVL213:
 1743              	.L137:
 493:report.c      ****   }
 494:report.c      **** 
 495:report.c      ****   float wco[N_AXIS];
 496:report.c      ****   if (bit_isfalse(settings.status_report_mask,BITFLAG_RT_STATUS_POSITION_TYPE) ||
 1744              		.loc 1 496 0
 1745 00e8 734B     		ldr	r3, .L183+44
 1746 00ea 93F83460 		ldrb	r6, [r3, #52]	@ zero_extendqisi2
 1747 00ee 16F00106 		ands	r6, r6, #1
 1748 00f2 2DD0     		beq	.L180
 497:report.c      ****       (sys.report_wco_counter == 0) ) {
 1749              		.loc 1 497 0 discriminator 1
 1750 00f4 664B     		ldr	r3, .L183+4
 1751 00f6 1B7B     		ldrb	r3, [r3, #12]	@ zero_extendqisi2
 496:report.c      ****       (sys.report_wco_counter == 0) ) {
 1752              		.loc 1 496 0 discriminator 1
 1753 00f8 63B3     		cbz	r3, .L181
 1754 00fa 2EE0     		b	.L154
 1755              	.LVL214:
 1756              	.L157:
 498:report.c      ****     for (idx=0; idx< N_AXIS; idx++) {
 499:report.c      ****       // Apply work coordinate offsets and tool length offset to current position.
 500:report.c      ****       wco[idx] = gc_state.coord_system[idx]+gc_state.coord_offset[idx];
 1757              		.loc 1 500 0
 1758 00fc 2546     		mov	r5, r4
 1759 00fe 6F4A     		ldr	r2, .L183+48
ARM GAS  C:\Users\Bart\AppData\Local\Temp\ccYn2oUj.s 			page 41


 1760 0100 04F10A03 		add	r3, r4, #10
 1761 0104 02EB8401 		add	r1, r2, r4, lsl #2
 1762 0108 52F82300 		ldr	r0, [r2, r3, lsl #2]	@ float
 1763 010c 496B     		ldr	r1, [r1, #52]	@ float
 1764 010e FFF7FEFF 		bl	__aeabi_fadd
 1765              	.LVL215:
 1766 0112 0AAB     		add	r3, sp, #40
 1767 0114 03EB8403 		add	r3, r3, r4, lsl #2
 1768 0118 43F8240C 		str	r0, [r3, #-36]	@ float
 501:report.c      ****       if (idx == TOOL_LENGTH_OFFSET_AXIS) { wco[idx] += gc_state.tool_length_offset; }
 1769              		.loc 1 501 0
 1770 011c 022C     		cmp	r4, #2
 1771 011e 08D1     		bne	.L155
 1772              		.loc 1 501 0 is_stmt 0 discriminator 1
 1773 0120 664B     		ldr	r3, .L183+48
 1774 0122 196C     		ldr	r1, [r3, #64]	@ float
 1775 0124 FFF7FEFF 		bl	__aeabi_fadd
 1776              	.LVL216:
 1777 0128 0AAB     		add	r3, sp, #40
 1778 012a 03EB8403 		add	r3, r3, r4, lsl #2
 1779 012e 43F8240C 		str	r0, [r3, #-36]	@ float
 1780              	.L155:
 502:report.c      ****       if (bit_isfalse(settings.status_report_mask,BITFLAG_RT_STATUS_POSITION_TYPE)) {
 1781              		.loc 1 502 0 is_stmt 1
 1782 0132 56B9     		cbnz	r6, .L156
 503:report.c      ****         print_position[idx] -= wco[idx];
 1783              		.loc 1 503 0
 1784 0134 0AAB     		add	r3, sp, #40
 1785 0136 03EB8505 		add	r5, r3, r5, lsl #2
 1786 013a 55F8180C 		ldr	r0, [r5, #-24]	@ float
 1787 013e 55F8241C 		ldr	r1, [r5, #-36]	@ float
 1788 0142 FFF7FEFF 		bl	__aeabi_fsub
 1789              	.LVL217:
 1790 0146 45F8180C 		str	r0, [r5, #-24]	@ float
 1791              	.L156:
 498:report.c      ****       // Apply work coordinate offsets and tool length offset to current position.
 1792              		.loc 1 498 0 discriminator 2
 1793 014a 0134     		adds	r4, r4, #1
 1794              	.LVL218:
 1795 014c E4B2     		uxtb	r4, r4
 1796              	.LVL219:
 1797 014e 02E0     		b	.L153
 1798              	.LVL220:
 1799              	.L180:
 1800 0150 0024     		movs	r4, #0
 1801 0152 00E0     		b	.L153
 1802              	.L181:
 1803 0154 0024     		movs	r4, #0
 1804              	.L153:
 1805              	.LVL221:
 498:report.c      ****       // Apply work coordinate offsets and tool length offset to current position.
 1806              		.loc 1 498 0 is_stmt 0 discriminator 1
 1807 0156 022C     		cmp	r4, #2
 1808 0158 D0D9     		bls	.L157
 1809              	.LVL222:
 1810              	.L154:
 504:report.c      ****       }
ARM GAS  C:\Users\Bart\AppData\Local\Temp\ccYn2oUj.s 			page 42


 505:report.c      ****     }
 506:report.c      ****   }
 507:report.c      **** 
 508:report.c      ****   // Report machine position
 509:report.c      ****   if (bit_istrue(settings.status_report_mask,BITFLAG_RT_STATUS_POSITION_TYPE)) {
 1811              		.loc 1 509 0 is_stmt 1
 1812 015a 1EB1     		cbz	r6, .L158
 510:report.c      ****     printPgmString(PSTR("|MPos:"));
 1813              		.loc 1 510 0
 1814 015c 5848     		ldr	r0, .L183+52
 1815 015e FFF7FEFF 		bl	printPgmString
 1816              	.LVL223:
 1817 0162 02E0     		b	.L159
 1818              	.L158:
 511:report.c      ****   } else {
 512:report.c      ****     printPgmString(PSTR("|WPos:"));
 1819              		.loc 1 512 0
 1820 0164 5748     		ldr	r0, .L183+56
 1821 0166 FFF7FEFF 		bl	printPgmString
 1822              	.LVL224:
 1823              	.L159:
 513:report.c      ****   }
 514:report.c      ****   report_util_axis_values(print_position);
 1824              		.loc 1 514 0
 1825 016a 04A8     		add	r0, sp, #16
 1826 016c FFF7FEFF 		bl	report_util_axis_values
 1827              	.LVL225:
 515:report.c      **** 
 516:report.c      ****   // Returns planner and serial read buffer states.
 517:report.c      ****   #ifdef REPORT_FIELD_BUFFER_STATE
 518:report.c      ****     if (bit_istrue(settings.status_report_mask,BITFLAG_RT_STATUS_BUFFER_STATE)) {
 1828              		.loc 1 518 0
 1829 0170 514B     		ldr	r3, .L183+44
 1830 0172 93F83430 		ldrb	r3, [r3, #52]	@ zero_extendqisi2
 1831 0176 13F0020F 		tst	r3, #2
 1832 017a 0DD0     		beq	.L160
 519:report.c      ****       printPgmString(PSTR("|Bf:"));
 1833              		.loc 1 519 0
 1834 017c 5248     		ldr	r0, .L183+60
 1835 017e FFF7FEFF 		bl	printPgmString
 1836              	.LVL226:
 520:report.c      ****       print_uint8_base10(plan_get_block_buffer_available());
 1837              		.loc 1 520 0
 1838 0182 FFF7FEFF 		bl	plan_get_block_buffer_available
 1839              	.LVL227:
 1840 0186 FFF7FEFF 		bl	print_uint8_base10
 1841              	.LVL228:
 521:report.c      ****       serial_write(',');
 1842              		.loc 1 521 0
 1843 018a 2C20     		movs	r0, #44
 1844 018c FFF7FEFF 		bl	serial_write
 1845              	.LVL229:
 522:report.c      ****       print_uint8_base10(serial_get_rx_buffer_available());
 1846              		.loc 1 522 0
 1847 0190 FFF7FEFF 		bl	serial_get_rx_buffer_available
 1848              	.LVL230:
 1849 0194 FFF7FEFF 		bl	print_uint8_base10
ARM GAS  C:\Users\Bart\AppData\Local\Temp\ccYn2oUj.s 			page 43


 1850              	.LVL231:
 1851              	.L160:
 523:report.c      ****     }
 524:report.c      ****   #endif
 525:report.c      **** 
 526:report.c      ****   #ifdef USE_LINE_NUMBERS
 527:report.c      ****     #ifdef REPORT_FIELD_LINE_NUMBERS
 528:report.c      ****       // Report current line number
 529:report.c      ****       plan_block_t * cur_block = plan_get_current_block();
 530:report.c      ****       if (cur_block != NULL) {
 531:report.c      ****         uint32_t ln = cur_block->line_number;
 532:report.c      ****         if (ln > 0) {
 533:report.c      ****           printPgmString(PSTR("|Ln:"));
 534:report.c      ****           printInteger(ln);
 535:report.c      ****         }
 536:report.c      ****       }
 537:report.c      ****     #endif
 538:report.c      ****   #endif
 539:report.c      **** 
 540:report.c      ****   // Report realtime feed speed
 541:report.c      ****   #ifdef REPORT_FIELD_CURRENT_FEED_SPEED
 542:report.c      ****     #ifdef VARIABLE_SPINDLE
 543:report.c      ****       printPgmString(PSTR("|FS:"));
 1852              		.loc 1 543 0
 1853 0198 4C48     		ldr	r0, .L183+64
 1854 019a FFF7FEFF 		bl	printPgmString
 1855              	.LVL232:
 544:report.c      ****       printFloat_RateValue(st_get_realtime_rate());
 1856              		.loc 1 544 0
 1857 019e FFF7FEFF 		bl	st_get_realtime_rate
 1858              	.LVL233:
 1859 01a2 FFF7FEFF 		bl	printFloat_RateValue
 1860              	.LVL234:
 545:report.c      ****       serial_write(',');
 1861              		.loc 1 545 0
 1862 01a6 2C20     		movs	r0, #44
 1863 01a8 FFF7FEFF 		bl	serial_write
 1864              	.LVL235:
 546:report.c      ****       printFloat(sys.spindle_speed,N_DECIMAL_RPMVALUE);
 1865              		.loc 1 546 0
 1866 01ac 384B     		ldr	r3, .L183+4
 1867 01ae 1869     		ldr	r0, [r3, #16]	@ float
 1868 01b0 0021     		movs	r1, #0
 1869 01b2 FFF7FEFF 		bl	printFloat
 1870              	.LVL236:
 547:report.c      ****     #else
 548:report.c      ****       printPgmString(PSTR("|F:"));
 549:report.c      ****       printFloat_RateValue(st_get_realtime_rate());
 550:report.c      ****     #endif      
 551:report.c      ****   #endif
 552:report.c      **** 
 553:report.c      ****   #ifdef REPORT_FIELD_PIN_STATE
 554:report.c      ****     uint8_t lim_pin_state = limits_get_state();
 1871              		.loc 1 554 0
 1872 01b6 FFF7FEFF 		bl	limits_get_state
 1873              	.LVL237:
 1874 01ba 0546     		mov	r5, r0
ARM GAS  C:\Users\Bart\AppData\Local\Temp\ccYn2oUj.s 			page 44


 1875              	.LVL238:
 555:report.c      ****     uint8_t ctrl_pin_state = system_control_get_state();
 1876              		.loc 1 555 0
 1877 01bc FFF7FEFF 		bl	system_control_get_state
 1878              	.LVL239:
 1879 01c0 0446     		mov	r4, r0
 1880              	.LVL240:
 556:report.c      ****     uint8_t prb_pin_state = probe_get_state();
 1881              		.loc 1 556 0
 1882 01c2 FFF7FEFF 		bl	probe_get_state
 1883              	.LVL241:
 1884 01c6 0646     		mov	r6, r0
 1885              	.LVL242:
 557:report.c      ****     if (lim_pin_state | ctrl_pin_state | prb_pin_state) {
 1886              		.loc 1 557 0
 1887 01c8 45EA0403 		orr	r3, r5, r4
 1888 01cc 0343     		orrs	r3, r3, r0
 1889 01ce 13F0FF0F 		tst	r3, #255
 1890 01d2 2CD0     		beq	.L161
 558:report.c      ****       printPgmString(PSTR("|Pn:"));
 1891              		.loc 1 558 0
 1892 01d4 3E48     		ldr	r0, .L183+68
 1893              	.LVL243:
 1894 01d6 FFF7FEFF 		bl	printPgmString
 1895              	.LVL244:
 559:report.c      ****       if (prb_pin_state) { serial_write('P'); }
 1896              		.loc 1 559 0
 1897 01da 16B1     		cbz	r6, .L162
 1898              		.loc 1 559 0 is_stmt 0 discriminator 1
 1899 01dc 5020     		movs	r0, #80
 1900 01de FFF7FEFF 		bl	serial_write
 1901              	.LVL245:
 1902              	.L162:
 560:report.c      ****       if (lim_pin_state) {
 1903              		.loc 1 560 0 is_stmt 1
 1904 01e2 8DB1     		cbz	r5, .L163
 561:report.c      ****         if (bit_istrue(lim_pin_state,bit(X_AXIS))) { serial_write('X'); }
 1905              		.loc 1 561 0
 1906 01e4 15F0010F 		tst	r5, #1
 1907 01e8 02D0     		beq	.L164
 1908              		.loc 1 561 0 is_stmt 0 discriminator 1
 1909 01ea 5820     		movs	r0, #88
 1910 01ec FFF7FEFF 		bl	serial_write
 1911              	.LVL246:
 1912              	.L164:
 562:report.c      ****         if (bit_istrue(lim_pin_state,bit(Y_AXIS))) { serial_write('Y'); }
 1913              		.loc 1 562 0 is_stmt 1
 1914 01f0 15F0020F 		tst	r5, #2
 1915 01f4 02D0     		beq	.L165
 1916              		.loc 1 562 0 is_stmt 0 discriminator 1
 1917 01f6 5920     		movs	r0, #89
 1918 01f8 FFF7FEFF 		bl	serial_write
 1919              	.LVL247:
 1920              	.L165:
 563:report.c      ****         if (bit_istrue(lim_pin_state,bit(Z_AXIS))) { serial_write('Z'); }
 1921              		.loc 1 563 0 is_stmt 1
 1922 01fc 15F0040F 		tst	r5, #4
ARM GAS  C:\Users\Bart\AppData\Local\Temp\ccYn2oUj.s 			page 45


 1923 0200 02D0     		beq	.L163
 1924              		.loc 1 563 0 is_stmt 0 discriminator 1
 1925 0202 5A20     		movs	r0, #90
 1926 0204 FFF7FEFF 		bl	serial_write
 1927              	.LVL248:
 1928              	.L163:
 564:report.c      ****       }
 565:report.c      ****       if (ctrl_pin_state) {
 1929              		.loc 1 565 0 is_stmt 1
 1930 0208 8CB1     		cbz	r4, .L161
 566:report.c      ****         #ifdef ENABLE_SAFETY_DOOR_INPUT_PIN
 567:report.c      ****           if (bit_istrue(ctrl_pin_state,CONTROL_PIN_INDEX_SAFETY_DOOR)) { serial_write('D'); }
 568:report.c      ****         #endif
 569:report.c      ****         if (bit_istrue(ctrl_pin_state,CONTROL_PIN_INDEX_RESET)) { serial_write('R'); }
 1931              		.loc 1 569 0
 1932 020a 14F0010F 		tst	r4, #1
 1933 020e 02D0     		beq	.L166
 1934              		.loc 1 569 0 is_stmt 0 discriminator 1
 1935 0210 5220     		movs	r0, #82
 1936 0212 FFF7FEFF 		bl	serial_write
 1937              	.LVL249:
 1938              	.L166:
 570:report.c      ****         if (bit_istrue(ctrl_pin_state,CONTROL_PIN_INDEX_FEED_HOLD)) { serial_write('H'); }
 1939              		.loc 1 570 0 is_stmt 1
 1940 0216 14F0020F 		tst	r4, #2
 1941 021a 02D0     		beq	.L167
 1942              		.loc 1 570 0 is_stmt 0 discriminator 1
 1943 021c 4820     		movs	r0, #72
 1944 021e FFF7FEFF 		bl	serial_write
 1945              	.LVL250:
 1946              	.L167:
 571:report.c      ****         if (bit_istrue(ctrl_pin_state,CONTROL_PIN_INDEX_CYCLE_START)) { serial_write('S'); }
 1947              		.loc 1 571 0 is_stmt 1
 1948 0222 14F0040F 		tst	r4, #4
 1949 0226 02D0     		beq	.L161
 1950              		.loc 1 571 0 is_stmt 0 discriminator 1
 1951 0228 5320     		movs	r0, #83
 1952 022a FFF7FEFF 		bl	serial_write
 1953              	.LVL251:
 1954              	.L161:
 572:report.c      ****       }
 573:report.c      ****     }
 574:report.c      ****   #endif
 575:report.c      **** 
 576:report.c      ****   #ifdef REPORT_FIELD_WORK_COORD_OFFSET
 577:report.c      ****     if (sys.report_wco_counter > 0) { sys.report_wco_counter--; }
 1955              		.loc 1 577 0 is_stmt 1
 1956 022e 184B     		ldr	r3, .L183+4
 1957 0230 1B7B     		ldrb	r3, [r3, #12]	@ zero_extendqisi2
 1958 0232 1BB1     		cbz	r3, .L168
 1959              		.loc 1 577 0 is_stmt 0 discriminator 1
 1960 0234 013B     		subs	r3, r3, #1
 1961 0236 164A     		ldr	r2, .L183+4
 1962 0238 1373     		strb	r3, [r2, #12]
 1963 023a 17E0     		b	.L169
 1964              	.L168:
 578:report.c      ****     else {
ARM GAS  C:\Users\Bart\AppData\Local\Temp\ccYn2oUj.s 			page 46


 579:report.c      ****       if (sys.state & (STATE_HOMING | STATE_CYCLE | STATE_HOLD | STATE_JOG | STATE_SAFETY_DOOR)) {
 1965              		.loc 1 579 0 is_stmt 1
 1966 023c 144B     		ldr	r3, .L183+4
 1967 023e 1B78     		ldrb	r3, [r3]	@ zero_extendqisi2
 1968 0240 13F07C0F 		tst	r3, #124
 1969 0244 03D0     		beq	.L170
 580:report.c      ****         sys.report_wco_counter = (REPORT_WCO_REFRESH_BUSY_COUNT-1); // Reset counter for slow refre
 1970              		.loc 1 580 0
 1971 0246 1D22     		movs	r2, #29
 1972 0248 114B     		ldr	r3, .L183+4
 1973 024a 1A73     		strb	r2, [r3, #12]
 1974 024c 02E0     		b	.L171
 1975              	.L170:
 581:report.c      ****       } else { sys.report_wco_counter = (REPORT_WCO_REFRESH_IDLE_COUNT-1); }
 1976              		.loc 1 581 0
 1977 024e 0922     		movs	r2, #9
 1978 0250 0F4B     		ldr	r3, .L183+4
 1979 0252 1A73     		strb	r2, [r3, #12]
 1980              	.L171:
 582:report.c      ****       if (sys.report_ovr_counter == 0) { sys.report_ovr_counter = 1; } // Set override on next repo
 1981              		.loc 1 582 0
 1982 0254 0E4B     		ldr	r3, .L183+4
 1983 0256 DB7A     		ldrb	r3, [r3, #11]	@ zero_extendqisi2
 1984 0258 13B9     		cbnz	r3, .L172
 1985              		.loc 1 582 0 is_stmt 0 discriminator 1
 1986 025a 0122     		movs	r2, #1
 1987 025c 0C4B     		ldr	r3, .L183+4
 1988 025e DA72     		strb	r2, [r3, #11]
 1989              	.L172:
 583:report.c      ****       printPgmString(PSTR("|WCO:"));
 1990              		.loc 1 583 0 is_stmt 1
 1991 0260 1C48     		ldr	r0, .L183+72
 1992 0262 FFF7FEFF 		bl	printPgmString
 1993              	.LVL252:
 584:report.c      ****       report_util_axis_values(wco);
 1994              		.loc 1 584 0
 1995 0266 01A8     		add	r0, sp, #4
 1996 0268 FFF7FEFF 		bl	report_util_axis_values
 1997              	.LVL253:
 1998              	.L169:
 585:report.c      ****     }
 586:report.c      ****   #endif
 587:report.c      **** 
 588:report.c      ****   #ifdef REPORT_FIELD_OVERRIDES
 589:report.c      ****     if (sys.report_ovr_counter > 0) { sys.report_ovr_counter--; }
 1999              		.loc 1 589 0
 2000 026c 084B     		ldr	r3, .L183+4
 2001 026e DB7A     		ldrb	r3, [r3, #11]	@ zero_extendqisi2
 2002 0270 1BB1     		cbz	r3, .L173
 2003              		.loc 1 589 0 is_stmt 0 discriminator 1
 2004 0272 013B     		subs	r3, r3, #1
 2005 0274 064A     		ldr	r2, .L183+4
 2006 0276 D372     		strb	r3, [r2, #11]
 2007 0278 5FE0     		b	.L174
 2008              	.L173:
 2009              	.LBB2:
 590:report.c      ****     else {
ARM GAS  C:\Users\Bart\AppData\Local\Temp\ccYn2oUj.s 			page 47


 591:report.c      ****       if (sys.state & (STATE_HOMING | STATE_CYCLE | STATE_HOLD | STATE_JOG | STATE_SAFETY_DOOR)) {
 2010              		.loc 1 591 0 is_stmt 1
 2011 027a 054B     		ldr	r3, .L183+4
 2012 027c 1B78     		ldrb	r3, [r3]	@ zero_extendqisi2
 2013 027e 13F07C0F 		tst	r3, #124
 2014 0282 29D0     		beq	.L175
 592:report.c      ****         sys.report_ovr_counter = (REPORT_OVR_REFRESH_BUSY_COUNT-1); // Reset counter for slow refre
 2015              		.loc 1 592 0
 2016 0284 1322     		movs	r2, #19
 2017 0286 024B     		ldr	r3, .L183+4
 2018 0288 DA72     		strb	r2, [r3, #11]
 2019 028a 28E0     		b	.L176
 2020              	.L184:
 2021              		.align	2
 2022              	.L183:
 2023 028c 00000000 		.word	sys_position
 2024 0290 00000000 		.word	sys
 2025 0294 E4010000 		.word	.LC43
 2026 0298 EC010000 		.word	.LC44
 2027 029c F0010000 		.word	.LC45
 2028 02a0 F8010000 		.word	.LC46
 2029 02a4 FC010000 		.word	.LC47
 2030 02a8 04020000 		.word	.LC48
 2031 02ac 0C020000 		.word	.LC49
 2032 02b0 14020000 		.word	.LC50
 2033 02b4 1C020000 		.word	.LC51
 2034 02b8 00000000 		.word	settings
 2035 02bc 00000000 		.word	gc_state
 2036 02c0 24020000 		.word	.LC52
 2037 02c4 2C020000 		.word	.LC53
 2038 02c8 34020000 		.word	.LC54
 2039 02cc 3C020000 		.word	.LC55
 2040 02d0 44020000 		.word	.LC56
 2041 02d4 4C020000 		.word	.LC57
 2042              	.L175:
 593:report.c      ****       } else { sys.report_ovr_counter = (REPORT_OVR_REFRESH_IDLE_COUNT-1); }
 2043              		.loc 1 593 0
 2044 02d8 0922     		movs	r2, #9
 2045 02da 1B4B     		ldr	r3, .L185
 2046 02dc DA72     		strb	r2, [r3, #11]
 2047              	.L176:
 594:report.c      ****       printPgmString(PSTR("|Ov:"));
 2048              		.loc 1 594 0
 2049 02de 1B48     		ldr	r0, .L185+4
 2050 02e0 FFF7FEFF 		bl	printPgmString
 2051              	.LVL254:
 595:report.c      ****       print_uint8_base10(sys.f_override);
 2052              		.loc 1 595 0
 2053 02e4 184C     		ldr	r4, .L185
 2054              	.LVL255:
 2055 02e6 E079     		ldrb	r0, [r4, #7]	@ zero_extendqisi2
 2056 02e8 FFF7FEFF 		bl	print_uint8_base10
 2057              	.LVL256:
 596:report.c      ****       serial_write(',');
 2058              		.loc 1 596 0
 2059 02ec 2C20     		movs	r0, #44
 2060 02ee FFF7FEFF 		bl	serial_write
ARM GAS  C:\Users\Bart\AppData\Local\Temp\ccYn2oUj.s 			page 48


 2061              	.LVL257:
 597:report.c      ****       print_uint8_base10(sys.r_override);
 2062              		.loc 1 597 0
 2063 02f2 207A     		ldrb	r0, [r4, #8]	@ zero_extendqisi2
 2064 02f4 FFF7FEFF 		bl	print_uint8_base10
 2065              	.LVL258:
 598:report.c      ****       serial_write(',');
 2066              		.loc 1 598 0
 2067 02f8 2C20     		movs	r0, #44
 2068 02fa FFF7FEFF 		bl	serial_write
 2069              	.LVL259:
 599:report.c      ****       print_uint8_base10(sys.spindle_speed_ovr);
 2070              		.loc 1 599 0
 2071 02fe 607A     		ldrb	r0, [r4, #9]	@ zero_extendqisi2
 2072 0300 FFF7FEFF 		bl	print_uint8_base10
 2073              	.LVL260:
 600:report.c      **** 
 601:report.c      ****       uint8_t sp_state = spindle_get_state();
 2074              		.loc 1 601 0
 2075 0304 FFF7FEFF 		bl	spindle_get_state
 2076              	.LVL261:
 2077 0308 0446     		mov	r4, r0
 2078              	.LVL262:
 602:report.c      ****       uint8_t cl_state = coolant_get_state();
 2079              		.loc 1 602 0
 2080 030a FFF7FEFF 		bl	coolant_get_state
 2081              	.LVL263:
 2082 030e 0546     		mov	r5, r0
 2083              	.LVL264:
 603:report.c      ****       if (sp_state || cl_state) {
 2084              		.loc 1 603 0
 2085 0310 04B9     		cbnz	r4, .L177
 2086              		.loc 1 603 0 is_stmt 0 discriminator 1
 2087 0312 90B1     		cbz	r0, .L174
 2088              	.L177:
 604:report.c      ****         printPgmString(PSTR("|A:"));
 2089              		.loc 1 604 0 is_stmt 1
 2090 0314 0E48     		ldr	r0, .L185+8
 2091              	.LVL265:
 2092 0316 FFF7FEFF 		bl	printPgmString
 2093              	.LVL266:
 605:report.c      ****         if (sp_state) { // != SPINDLE_STATE_DISABLE
 2094              		.loc 1 605 0
 2095 031a 44B1     		cbz	r4, .L178
 606:report.c      ****           #ifdef VARIABLE_SPINDLE 
 607:report.c      ****             #ifdef USE_SPINDLE_DIR_AS_ENABLE_PIN
 608:report.c      ****               serial_write('S'); // CW
 609:report.c      ****             #else
 610:report.c      ****               if (sp_state == SPINDLE_STATE_CW) { serial_write('S'); } // CW
 2096              		.loc 1 610 0
 2097 031c 012C     		cmp	r4, #1
 2098 031e 03D1     		bne	.L179
 2099              		.loc 1 610 0 is_stmt 0 discriminator 1
 2100 0320 5320     		movs	r0, #83
 2101 0322 FFF7FEFF 		bl	serial_write
 2102              	.LVL267:
 2103 0326 02E0     		b	.L178
ARM GAS  C:\Users\Bart\AppData\Local\Temp\ccYn2oUj.s 			page 49


 2104              	.L179:
 611:report.c      ****               else { serial_write('C'); } // CCW
 2105              		.loc 1 611 0 is_stmt 1
 2106 0328 4320     		movs	r0, #67
 2107 032a FFF7FEFF 		bl	serial_write
 2108              	.LVL268:
 2109              	.L178:
 612:report.c      ****             #endif
 613:report.c      ****           #else
 614:report.c      ****             if (sp_state & SPINDLE_STATE_CW) { serial_write('S'); } // CW
 615:report.c      ****             else { serial_write('C'); } // CCW
 616:report.c      ****           #endif
 617:report.c      ****         }
 618:report.c      ****         if (cl_state & COOLANT_STATE_FLOOD) { serial_write('F'); }
 2110              		.loc 1 618 0
 2111 032e 15F0010F 		tst	r5, #1
 2112 0332 02D0     		beq	.L174
 2113              		.loc 1 618 0 is_stmt 0 discriminator 1
 2114 0334 4620     		movs	r0, #70
 2115 0336 FFF7FEFF 		bl	serial_write
 2116              	.LVL269:
 2117              	.L174:
 2118              	.LBE2:
 619:report.c      ****         #ifdef ENABLE_M7
 620:report.c      ****           if (cl_state & COOLANT_STATE_MIST) { serial_write('M'); }
 621:report.c      ****         #endif
 622:report.c      ****       }  
 623:report.c      ****     }
 624:report.c      ****   #endif
 625:report.c      **** 
 626:report.c      ****   serial_write('>');
 2119              		.loc 1 626 0 is_stmt 1
 2120 033a 3E20     		movs	r0, #62
 2121 033c FFF7FEFF 		bl	serial_write
 2122              	.LVL270:
 627:report.c      ****   report_util_line_feed();
 2123              		.loc 1 627 0
 2124 0340 FFF7FEFF 		bl	report_util_line_feed
 2125              	.LVL271:
 628:report.c      **** }
 2126              		.loc 1 628 0
 2127 0344 0AB0     		add	sp, sp, #40
 2128              		.cfi_def_cfa_offset 16
 2129              		@ sp needed
 2130 0346 70BD     		pop	{r4, r5, r6, pc}
 2131              	.L186:
 2132              		.align	2
 2133              	.L185:
 2134 0348 00000000 		.word	sys
 2135 034c 54020000 		.word	.LC58
 2136 0350 5C020000 		.word	.LC59
 2137              		.cfi_endproc
 2138              	.LFE85:
 2139              		.size	report_realtime_status, .-report_realtime_status
 2140              		.section	.text.report_realtime_debug,"ax",%progbits
 2141              		.align	2
 2142              		.global	report_realtime_debug
ARM GAS  C:\Users\Bart\AppData\Local\Temp\ccYn2oUj.s 			page 50


 2143              		.thumb
 2144              		.thumb_func
 2145              		.type	report_realtime_debug, %function
 2146              	report_realtime_debug:
 2147              	.LFB86:
 629:report.c      **** 
 630:report.c      **** 
 631:report.c      **** #ifdef DEBUG
 632:report.c      ****   void report_realtime_debug()
 633:report.c      ****   {
 2148              		.loc 1 633 0
 2149              		.cfi_startproc
 2150              		@ args = 0, pretend = 0, frame = 0
 2151              		@ frame_needed = 0, uses_anonymous_args = 0
 2152              		@ link register save eliminated.
 2153 0000 7047     		bx	lr
 2154              		.cfi_endproc
 2155              	.LFE86:
 2156              		.size	report_realtime_debug, .-report_realtime_debug
 2157              		.comm	exec_lcd_status,1,1
 2158              		.comm	sys_rt_exec_debug,1,1
 2159              		.comm	sys_rt_exec_accessory_override,1,1
 2160              		.comm	sys_rt_exec_motion_override,1,1
 2161              		.comm	sys_rt_exec_alarm,1,1
 2162              		.comm	sys_rt_exec_state,1,1
 2163              		.comm	sys_probe_state,1,1
 2164              		.comm	sys_probe_position,12,4
 2165              		.comm	sys_position,12,4
 2166 0002 00BF     		.section	.rodata.str1.4,"aMS",%progbits,1
 2167              		.align	2
 2168              	.LC0:
 2169 0000 0D0A00   		.ascii	"\015\012\000"
 2170 0003 00       		.space	1
 2171              	.LC1:
 2172 0004 204700   		.ascii	" G\000"
 2173 0007 00       		.space	1
 2174              	.LC2:
 2175 0008 204D00   		.ascii	" M\000"
 2176 000b 00       		.space	1
 2177              	.LC3:
 2178 000c 2049646C 		.ascii	" Idle \000"
 2178      652000
 2179 0013 00       		.space	1
 2180              	.LC4:
 2181 0014 2052756E 		.ascii	" Run  \000"
 2181      202000
 2182 001b 00       		.space	1
 2183              	.LC5:
 2184 001c 20486F6C 		.ascii	" Hold \000"
 2184      642000
 2185 0023 00       		.space	1
 2186              	.LC6:
 2187 0024 20486F6D 		.ascii	" Home \000"
 2187      652000
 2188 002b 00       		.space	1
 2189              	.LC7:
 2190 002c 20416C61 		.ascii	" Alarm\000"
ARM GAS  C:\Users\Bart\AppData\Local\Temp\ccYn2oUj.s 			page 51


 2190      726D00
 2191 0033 00       		.space	1
 2192              	.LC8:
 2193 0034 20436865 		.ascii	" Check\000"
 2193      636B00
 2194 003b 00       		.space	1
 2195              	.LC9:
 2196 003c 20446F6F 		.ascii	" Door \000"
 2196      722000
 2197 0043 00       		.space	1
 2198              	.LC10:
 2199 0044 20203F20 		.ascii	"  ?  \000"
 2199      2000
 2200 004a 0000     		.space	2
 2201              	.LC11:
 2202 004c 6F6B0D0A 		.ascii	"ok\015\012\000"
 2202      00
 2203 0051 000000   		.space	3
 2204              	.LC12:
 2205 0054 6572726F 		.ascii	"error:\000"
 2205      723A00
 2206 005b 00       		.space	1
 2207              	.LC13:
 2208 005c 414C4152 		.ascii	"ALARM:\000"
 2208      4D3A00
 2209 0063 00       		.space	1
 2210              	.LC14:
 2211 0064 5B4D5347 		.ascii	"[MSG:\000"
 2211      3A00
 2212 006a 0000     		.space	2
 2213              	.LC15:
 2214 006c 52657365 		.ascii	"Reset to continue\000"
 2214      7420746F 
 2214      20636F6E 
 2214      74696E75 
 2214      6500
 2215 007e 0000     		.space	2
 2216              	.LC16:
 2217 0080 27244827 		.ascii	"'$H'|'$X' to unlock\000"
 2217      7C272458 
 2217      2720746F 
 2217      20756E6C 
 2217      6F636B00 
 2218              	.LC17:
 2219 0094 43617574 		.ascii	"Caution: Unlocked\000"
 2219      696F6E3A 
 2219      20556E6C 
 2219      6F636B65 
 2219      6400
 2220 00a6 0000     		.space	2
 2221              	.LC18:
 2222 00a8 456E6162 		.ascii	"Enabled\000"
 2222      6C656400 
 2223              	.LC19:
 2224 00b0 44697361 		.ascii	"Disabled\000"
 2224      626C6564 
 2224      00
ARM GAS  C:\Users\Bart\AppData\Local\Temp\ccYn2oUj.s 			page 52


 2225 00b9 000000   		.space	3
 2226              	.LC20:
 2227 00bc 43686563 		.ascii	"Check Door\000"
 2227      6B20446F 
 2227      6F7200
 2228 00c7 00       		.space	1
 2229              	.LC21:
 2230 00c8 43686563 		.ascii	"Check Limits\000"
 2230      6B204C69 
 2230      6D697473 
 2230      00
 2231 00d5 000000   		.space	3
 2232              	.LC22:
 2233 00d8 50676D20 		.ascii	"Pgm End\000"
 2233      456E6400 
 2234              	.LC23:
 2235 00e0 52657374 		.ascii	"Restoring defaults\000"
 2235      6F72696E 
 2235      67206465 
 2235      6661756C 
 2235      747300
 2236 00f3 00       		.space	1
 2237              	.LC24:
 2238 00f4 52657374 		.ascii	"Restoring spindle\000"
 2238      6F72696E 
 2238      67207370 
 2238      696E646C 
 2238      6500
 2239 0106 0000     		.space	2
 2240              	.LC25:
 2241 0108 536C6565 		.ascii	"Sleeping\000"
 2241      70696E67 
 2241      00
 2242 0111 000000   		.space	3
 2243              	.LC26:
 2244 0114 0D0A4772 		.ascii	"\015\012Grbl 1.1e ['$' for help]\015\012\000"
 2244      626C2031 
 2244      2E316520 
 2244      5B272427 
 2244      20666F72 
 2245 0131 000000   		.space	3
 2246              	.LC27:
 2247 0134 5B484C50 		.ascii	"[HLP:$$ $# $G $I $N $x=val $Nx=line $J=line $SLP $C"
 2247      3A242420 
 2247      24232024 
 2247      47202449 
 2247      20244E20 
 2248 0167 20245820 		.ascii	" $X $H ~ ! ? ctrl-x]\015\012\000"
 2248      2448207E 
 2248      2021203F 
 2248      20637472 
 2248      6C2D785D 
 2249 017e 0000     		.space	2
 2250              	.LC28:
 2251 0180 5B505242 		.ascii	"[PRB:\000"
 2251      3A00
 2252 0186 0000     		.space	2
ARM GAS  C:\Users\Bart\AppData\Local\Temp\ccYn2oUj.s 			page 53


 2253              	.LC29:
 2254 0188 5B4700   		.ascii	"[G\000"
 2255 018b 00       		.space	1
 2256              	.LC30:
 2257 018c 323800   		.ascii	"28\000"
 2258 018f 00       		.space	1
 2259              	.LC31:
 2260 0190 333000   		.ascii	"30\000"
 2261 0193 00       		.space	1
 2262              	.LC32:
 2263 0194 5B473932 		.ascii	"[G92:\000"
 2263      3A00
 2264 019a 0000     		.space	2
 2265              	.LC33:
 2266 019c 5B544C4F 		.ascii	"[TLO:\000"
 2266      3A00
 2267 01a2 0000     		.space	2
 2268              	.LC34:
 2269 01a4 5B47433A 		.ascii	"[GC:G\000"
 2269      4700
 2270 01aa 0000     		.space	2
 2271              	.LC35:
 2272 01ac 33382E00 		.ascii	"38.\000"
 2273              	.LC36:
 2274 01b0 205400   		.ascii	" T\000"
 2275 01b3 00       		.space	1
 2276              	.LC37:
 2277 01b4 204600   		.ascii	" F\000"
 2278 01b7 00       		.space	1
 2279              	.LC38:
 2280 01b8 205300   		.ascii	" S\000"
 2281 01bb 00       		.space	1
 2282              	.LC39:
 2283 01bc 244E00   		.ascii	"$N\000"
 2284 01bf 00       		.space	1
 2285              	.LC40:
 2286 01c0 5B564552 		.ascii	"[VER:1.1e.20160114:\000"
 2286      3A312E31 
 2286      652E3230 
 2286      31363031 
 2286      31343A00 
 2287              	.LC41:
 2288 01d4 5B4F5054 		.ascii	"[OPT:\000"
 2288      3A00
 2289 01da 0000     		.space	2
 2290              	.LC42:
 2291 01dc 5B656368 		.ascii	"[echo: \000"
 2291      6F3A2000 
 2292              	.LC43:
 2293 01e4 49646C65 		.ascii	"Idle\000"
 2293      00
 2294 01e9 000000   		.space	3
 2295              	.LC44:
 2296 01ec 52756E00 		.ascii	"Run\000"
 2297              	.LC45:
 2298 01f0 486F6C64 		.ascii	"Hold:\000"
 2298      3A00
ARM GAS  C:\Users\Bart\AppData\Local\Temp\ccYn2oUj.s 			page 54


 2299 01f6 0000     		.space	2
 2300              	.LC46:
 2301 01f8 4A6F6700 		.ascii	"Jog\000"
 2302              	.LC47:
 2303 01fc 486F6D65 		.ascii	"Home\000"
 2303      00
 2304 0201 000000   		.space	3
 2305              	.LC48:
 2306 0204 416C6172 		.ascii	"Alarm\000"
 2306      6D00
 2307 020a 0000     		.space	2
 2308              	.LC49:
 2309 020c 43686563 		.ascii	"Check\000"
 2309      6B00
 2310 0212 0000     		.space	2
 2311              	.LC50:
 2312 0214 446F6F72 		.ascii	"Door:\000"
 2312      3A00
 2313 021a 0000     		.space	2
 2314              	.LC51:
 2315 021c 536C6565 		.ascii	"Sleep\000"
 2315      7000
 2316 0222 0000     		.space	2
 2317              	.LC52:
 2318 0224 7C4D506F 		.ascii	"|MPos:\000"
 2318      733A00
 2319 022b 00       		.space	1
 2320              	.LC53:
 2321 022c 7C57506F 		.ascii	"|WPos:\000"
 2321      733A00
 2322 0233 00       		.space	1
 2323              	.LC54:
 2324 0234 7C42663A 		.ascii	"|Bf:\000"
 2324      00
 2325 0239 000000   		.space	3
 2326              	.LC55:
 2327 023c 7C46533A 		.ascii	"|FS:\000"
 2327      00
 2328 0241 000000   		.space	3
 2329              	.LC56:
 2330 0244 7C506E3A 		.ascii	"|Pn:\000"
 2330      00
 2331 0249 000000   		.space	3
 2332              	.LC57:
 2333 024c 7C57434F 		.ascii	"|WCO:\000"
 2333      3A00
 2334 0252 0000     		.space	2
 2335              	.LC58:
 2336 0254 7C4F763A 		.ascii	"|Ov:\000"
 2336      00
 2337 0259 000000   		.space	3
 2338              	.LC59:
 2339 025c 7C413A00 		.ascii	"|A:\000"
 2340              		.text
 2341              	.Letext0:
 2342              		.file 2 "d:\\program files (x86)\\cypress\\psoc creator\\4.0\\psoc creator\\import\\gnu\\arm\\4.9.
 2343              		.file 3 "d:\\program files (x86)\\cypress\\psoc creator\\4.0\\psoc creator\\import\\gnu\\arm\\4.9.
ARM GAS  C:\Users\Bart\AppData\Local\Temp\ccYn2oUj.s 			page 55


 2344              		.file 4 "Generated_Source\\PSoC5/cytypes.h"
 2345              		.file 5 "settings.h"
 2346              		.file 6 "system.h"
 2347              		.file 7 "gcode.h"
 2348              		.file 8 "Generated_Source\\PSoC5/core_cm3.h"
 2349              		.file 9 "lcd_report.h"
 2350              		.file 10 "print.h"
 2351              		.file 11 "serial.h"
 2352              		.file 12 "Generated_Source\\PSoC5/CyLib.h"
 2353              		.file 13 "spindle_control.h"
 2354              		.file 14 "coolant_control.h"
 2355              		.file 15 "planner.h"
 2356              		.file 16 "stepper.h"
 2357              		.file 17 "./limits.h"
 2358              		.file 18 "probe.h"