ARM GAS  C:\Users\Bart\AppData\Local\Temp\ccYfe8Fd.s 			page 1


   1              		.syntax unified
   2              		.cpu cortex-m3
   3              		.fpu softvfp
   4              		.eabi_attribute 20, 1
   5              		.eabi_attribute 21, 1
   6              		.eabi_attribute 23, 3
   7              		.eabi_attribute 24, 1
   8              		.eabi_attribute 25, 1
   9              		.eabi_attribute 26, 1
  10              		.eabi_attribute 30, 1
  11              		.eabi_attribute 34, 1
  12              		.eabi_attribute 18, 4
  13              		.thumb
  14              		.file	"serial.c"
  15              		.text
  16              	.Ltext0:
  17              		.cfi_sections	.debug_frame
  18              		.section	.text.rx_isr_handler,"ax",%progbits
  19              		.align	2
  20              		.global	rx_isr_handler
  21              		.thumb
  22              		.thumb_func
  23              		.type	rx_isr_handler, %function
  24              	rx_isr_handler:
  25              	.LFB68:
  26              		.file 1 "serial.c"
   1:serial.c      **** /*
   2:serial.c      ****   serial.c - Low level functions for sending and recieving bytes via the serial port
   3:serial.c      ****   Part of Grbl
   4:serial.c      **** 
   5:serial.c      ****   Copyright (c) 2011-2015 Sungeun K. Jeon
   6:serial.c      ****   Copyright (c) 2009-2011 Simen Svale Skogsrud
   7:serial.c      ****    Updated For PSOC BJD 2017
   8:serial.c      **** 
   9:serial.c      ****   Grbl is free software: you can redistribute it and/or modify
  10:serial.c      ****   it under the terms of the GNU General Public License as published by
  11:serial.c      ****   the Free Software Foundation, either version 3 of the License, or
  12:serial.c      ****   (at your option) any later version.
  13:serial.c      **** 
  14:serial.c      ****   Grbl is distributed in the hope that it will be useful,
  15:serial.c      ****   but WITHOUT ANY WARRANTY; without even the implied warranty of
  16:serial.c      ****   MERCHANTABILITY or FITNESS FOR A PARTICULAR PURPOSE.  See the
  17:serial.c      ****   GNU General Public License for more details.
  18:serial.c      **** 
  19:serial.c      ****   You should have received a copy of the GNU General Public License
  20:serial.c      ****   along with Grbl.  If not, see <http://www.gnu.org/licenses/>.
  21:serial.c      **** */
  22:serial.c      **** 
  23:serial.c      **** #include <project.h>
  24:serial.c      **** //#include "serial.h"
  25:serial.c      **** #include "grbl.h"
  26:serial.c      **** 
  27:serial.c      **** #define RX_RING_BUFFER (RX_BUFFER_SIZE+1)
  28:serial.c      **** #define TX_RING_BUFFER (TX_BUFFER_SIZE+1)
  29:serial.c      **** 
  30:serial.c      **** uint8_t serial_rx_buffer[RX_BUFFER_SIZE];
  31:serial.c      **** uint8_t serial_rx_buffer_head = 0;
ARM GAS  C:\Users\Bart\AppData\Local\Temp\ccYfe8Fd.s 			page 2


  32:serial.c      **** volatile uint8_t serial_rx_buffer_tail = 0;
  33:serial.c      **** 
  34:serial.c      **** // no grbl +TX buffer required for PSoc verison
  35:serial.c      **** 
  36:serial.c      **** // Returns the number of bytes available in the RX serial buffer.
  37:serial.c      **** uint8_t serial_get_rx_buffer_available()
  38:serial.c      **** {
  39:serial.c      ****   uint8_t rtail = serial_rx_buffer_tail; // Copy to limit multiple calls to volatile
  40:serial.c      ****   if (serial_rx_buffer_head >= rtail) { return(RX_BUFFER_SIZE - (serial_rx_buffer_head-rtail)); }
  41:serial.c      ****   return((rtail-serial_rx_buffer_head-1));
  42:serial.c      **** }
  43:serial.c      **** 
  44:serial.c      **** // Returns the number of bytes used in the RX serial buffer.
  45:serial.c      **** uint8_t serial_get_rx_buffer_count()
  46:serial.c      **** {
  47:serial.c      ****   uint8_t rtail = serial_rx_buffer_tail; // Copy to limit multiple calls to volatile
  48:serial.c      ****   if (serial_rx_buffer_head >= rtail) { return(serial_rx_buffer_head-rtail); }
  49:serial.c      ****   return (RX_BUFFER_SIZE - (rtail-serial_rx_buffer_head));
  50:serial.c      **** }
  51:serial.c      **** 
  52:serial.c      **** // uint8_t serial_get_tx_buffer_count() // not req for PSoc
  53:serial.c      **** 
  54:serial.c      **** 
  55:serial.c      **** void serial_init()
  56:serial.c      **** {
  57:serial.c      ****   // Start the component
  58:serial.c      ****   UART_Start();
  59:serial.c      ****   isr_UART_Rx_StartEx(rx_isr_handler);  // this starts the interrupt and uses the handler specified
  60:serial.c      ****  
  61:serial.c      **** }
  62:serial.c      **** 
  63:serial.c      **** // Writes one byte to the TX serial buffer. Called by main program.
  64:serial.c      **** void serial_write(uint8_t data) {
  65:serial.c      ****   // totally rewritten for PSoc
  66:serial.c      ****   UART_PutChar(data);
  67:serial.c      **** }
  68:serial.c      **** 
  69:serial.c      **** 
  70:serial.c      **** 
  71:serial.c      **** // Fetches the first byte in the serial read buffer. Called by main program.
  72:serial.c      **** uint8_t serial_read()
  73:serial.c      **** {
  74:serial.c      ****   uint8_t tail = serial_rx_buffer_tail; // Temporary serial_rx_buffer_tail (to optimize for volatil
  75:serial.c      ****   if (serial_rx_buffer_head == tail) {
  76:serial.c      ****     return SERIAL_NO_DATA;
  77:serial.c      ****   } else {
  78:serial.c      ****     uint8_t data = serial_rx_buffer[tail];
  79:serial.c      **** 
  80:serial.c      ****     tail++;
  81:serial.c      ****     if (tail == RX_RING_BUFFER) { tail = 0; }
  82:serial.c      ****     serial_rx_buffer_tail = tail;
  83:serial.c      **** 
  84:serial.c      ****     return data;
  85:serial.c      ****   }
  86:serial.c      **** }
  87:serial.c      **** 
  88:serial.c      **** 
ARM GAS  C:\Users\Bart\AppData\Local\Temp\ccYfe8Fd.s 			page 3


  89:serial.c      **** 
  90:serial.c      **** //was ISR(SERIAL_RX)
  91:serial.c      **** void rx_isr_handler()
  92:serial.c      **** {
  27              		.loc 1 92 0
  28              		.cfi_startproc
  29              		@ args = 0, pretend = 0, frame = 0
  30              		@ frame_needed = 0, uses_anonymous_args = 0
  31 0000 08B5     		push	{r3, lr}
  32              		.cfi_def_cfa_offset 8
  33              		.cfi_offset 3, -8
  34              		.cfi_offset 14, -4
  93:serial.c      ****   uint8_t data = UART_GetChar();  //UDR0;
  35              		.loc 1 93 0
  36 0002 FFF7FEFF 		bl	UART_GetChar
  37              	.LVL0:
  94:serial.c      ****   uint8_t next_head;
  95:serial.c      ****   
  96:serial.c      ****   // Pick off realtime command characters directly from the serial stream. These characters are
  97:serial.c      ****   // not passed into the buffer, but these set system state flag bits for realtime execution.
  98:serial.c      ****   switch (data) {
  38              		.loc 1 98 0
  39 0006 3F28     		cmp	r0, #63
  40 0008 0AD0     		beq	.L3
  41 000a 04D8     		bhi	.L4
  42 000c 1828     		cmp	r0, #24
  43 000e 17D0     		beq	.L5
  44 0010 2128     		cmp	r0, #33
  45 0012 0DD0     		beq	.L6
  46 0014 17E0     		b	.L2
  47              	.L4:
  48 0016 7E28     		cmp	r0, #126
  49 0018 06D0     		beq	.L7
  50 001a 8428     		cmp	r0, #132
  51 001c 0CD0     		beq	.L8
  52 001e 12E0     		b	.L2
  53              	.L3:
  99:serial.c      ****     case CMD_STATUS_REPORT: system_set_exec_state_flag(EXEC_STATUS_REPORT); break; // Set as true
  54              		.loc 1 99 0
  55 0020 0120     		movs	r0, #1
  56              	.LVL1:
  57 0022 FFF7FEFF 		bl	system_set_exec_state_flag
  58              	.LVL2:
  59 0026 08BD     		pop	{r3, pc}
  60              	.LVL3:
  61              	.L7:
 100:serial.c      ****     case CMD_CYCLE_START:   system_set_exec_state_flag(EXEC_CYCLE_START); break; // Set as true
  62              		.loc 1 100 0
  63 0028 0220     		movs	r0, #2
  64              	.LVL4:
  65 002a FFF7FEFF 		bl	system_set_exec_state_flag
  66              	.LVL5:
  67 002e 08BD     		pop	{r3, pc}
  68              	.LVL6:
  69              	.L6:
 101:serial.c      ****     case CMD_FEED_HOLD:     system_set_exec_state_flag(EXEC_FEED_HOLD); break; // Set as true
  70              		.loc 1 101 0
ARM GAS  C:\Users\Bart\AppData\Local\Temp\ccYfe8Fd.s 			page 4


  71 0030 0820     		movs	r0, #8
  72              	.LVL7:
  73 0032 FFF7FEFF 		bl	system_set_exec_state_flag
  74              	.LVL8:
  75 0036 08BD     		pop	{r3, pc}
  76              	.LVL9:
  77              	.L8:
 102:serial.c      ****     case CMD_SAFETY_DOOR:   system_set_exec_state_flag(EXEC_SAFETY_DOOR); break; // Set as true
  78              		.loc 1 102 0
  79 0038 2020     		movs	r0, #32
  80              	.LVL10:
  81 003a FFF7FEFF 		bl	system_set_exec_state_flag
  82              	.LVL11:
  83 003e 08BD     		pop	{r3, pc}
  84              	.LVL12:
  85              	.L5:
 103:serial.c      ****     case CMD_RESET:         mc_reset(); break; // Call motion control reset routine.
  86              		.loc 1 103 0
  87 0040 FFF7FEFF 		bl	mc_reset
  88              	.LVL13:
  89 0044 08BD     		pop	{r3, pc}
  90              	.LVL14:
  91              	.L2:
 104:serial.c      ****     default: // Write character to buffer    
 105:serial.c      ****       next_head = serial_rx_buffer_head + 1;
  92              		.loc 1 105 0
  93 0046 084B     		ldr	r3, .L13
  94 0048 1978     		ldrb	r1, [r3]	@ zero_extendqisi2
  95 004a 4B1C     		adds	r3, r1, #1
  96 004c DBB2     		uxtb	r3, r3
  97              	.LVL15:
 106:serial.c      ****       if (next_head == RX_BUFFER_SIZE) { next_head = 0; }
  98              		.loc 1 106 0
  99 004e 802B     		cmp	r3, #128
 100 0050 00D1     		bne	.L10
 101 0052 0023     		movs	r3, #0
 102              	.LVL16:
 103              	.L10:
 107:serial.c      ****     
 108:serial.c      ****       // Write data to buffer unless it is full.
 109:serial.c      ****       if (next_head != serial_rx_buffer_tail) {
 104              		.loc 1 109 0
 105 0054 044A     		ldr	r2, .L13
 106 0056 5278     		ldrb	r2, [r2, #1]	@ zero_extendqisi2
 107 0058 D2B2     		uxtb	r2, r2
 108 005a 9342     		cmp	r3, r2
 109 005c 03D0     		beq	.L1
 110:serial.c      ****         serial_rx_buffer[serial_rx_buffer_head] = data;
 110              		.loc 1 110 0
 111 005e 034A     		ldr	r2, .L13+4
 112 0060 5054     		strb	r0, [r2, r1]
 111:serial.c      ****         serial_rx_buffer_head = next_head;
 113              		.loc 1 111 0
 114 0062 014A     		ldr	r2, .L13
 115 0064 1370     		strb	r3, [r2]
 116              	.L1:
 117 0066 08BD     		pop	{r3, pc}
ARM GAS  C:\Users\Bart\AppData\Local\Temp\ccYfe8Fd.s 			page 5


 118              	.LVL17:
 119              	.L14:
 120              		.align	2
 121              	.L13:
 122 0068 00000000 		.word	.LANCHOR0
 123 006c 00000000 		.word	serial_rx_buffer
 124              		.cfi_endproc
 125              	.LFE68:
 126              		.size	rx_isr_handler, .-rx_isr_handler
 127              		.section	.text.serial_get_rx_buffer_available,"ax",%progbits
 128              		.align	2
 129              		.global	serial_get_rx_buffer_available
 130              		.thumb
 131              		.thumb_func
 132              		.type	serial_get_rx_buffer_available, %function
 133              	serial_get_rx_buffer_available:
 134              	.LFB63:
  38:serial.c      ****   uint8_t rtail = serial_rx_buffer_tail; // Copy to limit multiple calls to volatile
 135              		.loc 1 38 0
 136              		.cfi_startproc
 137              		@ args = 0, pretend = 0, frame = 0
 138              		@ frame_needed = 0, uses_anonymous_args = 0
 139              		@ link register save eliminated.
  39:serial.c      ****   if (serial_rx_buffer_head >= rtail) { return(RX_BUFFER_SIZE - (serial_rx_buffer_head-rtail)); }
 140              		.loc 1 39 0
 141 0000 064A     		ldr	r2, .L18
 142 0002 5378     		ldrb	r3, [r2, #1]	@ zero_extendqisi2
 143 0004 DBB2     		uxtb	r3, r3
 144              	.LVL18:
  40:serial.c      ****   return((rtail-serial_rx_buffer_head-1));
 145              		.loc 1 40 0
 146 0006 1078     		ldrb	r0, [r2]	@ zero_extendqisi2
 147 0008 9842     		cmp	r0, r3
 148 000a 03D3     		bcc	.L16
  40:serial.c      ****   return((rtail-serial_rx_buffer_head-1));
 149              		.loc 1 40 0 is_stmt 0 discriminator 1
 150 000c 181A     		subs	r0, r3, r0
 151 000e 8038     		subs	r0, r0, #128
 152 0010 C0B2     		uxtb	r0, r0
 153 0012 7047     		bx	lr
 154              	.L16:
  41:serial.c      **** }
 155              		.loc 1 41 0 is_stmt 1
 156 0014 181A     		subs	r0, r3, r0
 157 0016 0138     		subs	r0, r0, #1
 158 0018 C0B2     		uxtb	r0, r0
  42:serial.c      **** 
 159              		.loc 1 42 0
 160 001a 7047     		bx	lr
 161              	.L19:
 162              		.align	2
 163              	.L18:
 164 001c 00000000 		.word	.LANCHOR0
 165              		.cfi_endproc
 166              	.LFE63:
 167              		.size	serial_get_rx_buffer_available, .-serial_get_rx_buffer_available
 168              		.section	.text.serial_get_rx_buffer_count,"ax",%progbits
ARM GAS  C:\Users\Bart\AppData\Local\Temp\ccYfe8Fd.s 			page 6


 169              		.align	2
 170              		.global	serial_get_rx_buffer_count
 171              		.thumb
 172              		.thumb_func
 173              		.type	serial_get_rx_buffer_count, %function
 174              	serial_get_rx_buffer_count:
 175              	.LFB64:
  46:serial.c      ****   uint8_t rtail = serial_rx_buffer_tail; // Copy to limit multiple calls to volatile
 176              		.loc 1 46 0
 177              		.cfi_startproc
 178              		@ args = 0, pretend = 0, frame = 0
 179              		@ frame_needed = 0, uses_anonymous_args = 0
 180              		@ link register save eliminated.
  47:serial.c      ****   if (serial_rx_buffer_head >= rtail) { return(serial_rx_buffer_head-rtail); }
 181              		.loc 1 47 0
 182 0000 064B     		ldr	r3, .L23
 183 0002 5878     		ldrb	r0, [r3, #1]	@ zero_extendqisi2
 184 0004 C0B2     		uxtb	r0, r0
 185              	.LVL19:
  48:serial.c      ****   return (RX_BUFFER_SIZE - (rtail-serial_rx_buffer_head));
 186              		.loc 1 48 0
 187 0006 1B78     		ldrb	r3, [r3]	@ zero_extendqisi2
 188 0008 8342     		cmp	r3, r0
 189 000a 02D3     		bcc	.L21
  48:serial.c      ****   return (RX_BUFFER_SIZE - (rtail-serial_rx_buffer_head));
 190              		.loc 1 48 0 is_stmt 0 discriminator 1
 191 000c 181A     		subs	r0, r3, r0
 192              	.LVL20:
 193 000e C0B2     		uxtb	r0, r0
 194 0010 7047     		bx	lr
 195              	.LVL21:
 196              	.L21:
  49:serial.c      **** }
 197              		.loc 1 49 0 is_stmt 1
 198 0012 181A     		subs	r0, r3, r0
 199              	.LVL22:
 200 0014 8038     		subs	r0, r0, #128
 201 0016 C0B2     		uxtb	r0, r0
  50:serial.c      **** 
 202              		.loc 1 50 0
 203 0018 7047     		bx	lr
 204              	.L24:
 205 001a 00BF     		.align	2
 206              	.L23:
 207 001c 00000000 		.word	.LANCHOR0
 208              		.cfi_endproc
 209              	.LFE64:
 210              		.size	serial_get_rx_buffer_count, .-serial_get_rx_buffer_count
 211              		.section	.text.serial_init,"ax",%progbits
 212              		.align	2
 213              		.global	serial_init
 214              		.thumb
 215              		.thumb_func
 216              		.type	serial_init, %function
 217              	serial_init:
 218              	.LFB65:
  56:serial.c      ****   // Start the component
ARM GAS  C:\Users\Bart\AppData\Local\Temp\ccYfe8Fd.s 			page 7


 219              		.loc 1 56 0
 220              		.cfi_startproc
 221              		@ args = 0, pretend = 0, frame = 0
 222              		@ frame_needed = 0, uses_anonymous_args = 0
 223 0000 08B5     		push	{r3, lr}
 224              		.cfi_def_cfa_offset 8
 225              		.cfi_offset 3, -8
 226              		.cfi_offset 14, -4
  58:serial.c      ****   isr_UART_Rx_StartEx(rx_isr_handler);  // this starts the interrupt and uses the handler specified
 227              		.loc 1 58 0
 228 0002 FFF7FEFF 		bl	UART_Start
 229              	.LVL23:
  59:serial.c      ****  
 230              		.loc 1 59 0
 231 0006 0248     		ldr	r0, .L27
 232 0008 FFF7FEFF 		bl	isr_UART_Rx_StartEx
 233              	.LVL24:
 234 000c 08BD     		pop	{r3, pc}
 235              	.L28:
 236 000e 00BF     		.align	2
 237              	.L27:
 238 0010 00000000 		.word	rx_isr_handler
 239              		.cfi_endproc
 240              	.LFE65:
 241              		.size	serial_init, .-serial_init
 242              		.section	.text.serial_write,"ax",%progbits
 243              		.align	2
 244              		.global	serial_write
 245              		.thumb
 246              		.thumb_func
 247              		.type	serial_write, %function
 248              	serial_write:
 249              	.LFB66:
  64:serial.c      ****   // totally rewritten for PSoc
 250              		.loc 1 64 0
 251              		.cfi_startproc
 252              		@ args = 0, pretend = 0, frame = 0
 253              		@ frame_needed = 0, uses_anonymous_args = 0
 254              	.LVL25:
 255 0000 08B5     		push	{r3, lr}
 256              		.cfi_def_cfa_offset 8
 257              		.cfi_offset 3, -8
 258              		.cfi_offset 14, -4
  66:serial.c      **** }
 259              		.loc 1 66 0
 260 0002 FFF7FEFF 		bl	UART_PutChar
 261              	.LVL26:
 262 0006 08BD     		pop	{r3, pc}
 263              		.cfi_endproc
 264              	.LFE66:
 265              		.size	serial_write, .-serial_write
 266              		.section	.text.serial_read,"ax",%progbits
 267              		.align	2
 268              		.global	serial_read
 269              		.thumb
 270              		.thumb_func
 271              		.type	serial_read, %function
ARM GAS  C:\Users\Bart\AppData\Local\Temp\ccYfe8Fd.s 			page 8


 272              	serial_read:
 273              	.LFB67:
  73:serial.c      ****   uint8_t tail = serial_rx_buffer_tail; // Temporary serial_rx_buffer_tail (to optimize for volatil
 274              		.loc 1 73 0
 275              		.cfi_startproc
 276              		@ args = 0, pretend = 0, frame = 0
 277              		@ frame_needed = 0, uses_anonymous_args = 0
 278              		@ link register save eliminated.
  74:serial.c      ****   if (serial_rx_buffer_head == tail) {
 279              		.loc 1 74 0
 280 0000 084A     		ldr	r2, .L36
 281 0002 5378     		ldrb	r3, [r2, #1]	@ zero_extendqisi2
 282 0004 DBB2     		uxtb	r3, r3
 283              	.LVL27:
  75:serial.c      ****     return SERIAL_NO_DATA;
 284              		.loc 1 75 0
 285 0006 1278     		ldrb	r2, [r2]	@ zero_extendqisi2
 286 0008 9A42     		cmp	r2, r3
 287 000a 09D0     		beq	.L34
 288              	.LBB2:
  78:serial.c      **** 
 289              		.loc 1 78 0
 290 000c 064A     		ldr	r2, .L36+4
 291 000e D05C     		ldrb	r0, [r2, r3]	@ zero_extendqisi2
 292              	.LVL28:
  80:serial.c      ****     if (tail == RX_RING_BUFFER) { tail = 0; }
 293              		.loc 1 80 0
 294 0010 0133     		adds	r3, r3, #1
 295              	.LVL29:
 296 0012 DBB2     		uxtb	r3, r3
 297              	.LVL30:
  81:serial.c      ****     serial_rx_buffer_tail = tail;
 298              		.loc 1 81 0
 299 0014 812B     		cmp	r3, #129
 300 0016 00D1     		bne	.L33
 301 0018 0023     		movs	r3, #0
 302              	.LVL31:
 303              	.L33:
  82:serial.c      **** 
 304              		.loc 1 82 0
 305 001a 024A     		ldr	r2, .L36
 306 001c 5370     		strb	r3, [r2, #1]
  84:serial.c      ****   }
 307              		.loc 1 84 0
 308 001e 7047     		bx	lr
 309              	.LVL32:
 310              	.L34:
 311              	.LBE2:
  76:serial.c      ****   } else {
 312              		.loc 1 76 0
 313 0020 FF20     		movs	r0, #255
  86:serial.c      **** 
 314              		.loc 1 86 0
 315 0022 7047     		bx	lr
 316              	.L37:
 317              		.align	2
 318              	.L36:
ARM GAS  C:\Users\Bart\AppData\Local\Temp\ccYfe8Fd.s 			page 9


 319 0024 00000000 		.word	.LANCHOR0
 320 0028 00000000 		.word	serial_rx_buffer
 321              		.cfi_endproc
 322              	.LFE67:
 323              		.size	serial_read, .-serial_read
 324              		.section	.text.serial_reset_read_buffer,"ax",%progbits
 325              		.align	2
 326              		.global	serial_reset_read_buffer
 327              		.thumb
 328              		.thumb_func
 329              		.type	serial_reset_read_buffer, %function
 330              	serial_reset_read_buffer:
 331              	.LFB69:
 112:serial.c      ****       }
 113:serial.c      ****       //TODO: else alarm on overflow?
 114:serial.c      ****   }
 115:serial.c      **** }
 116:serial.c      **** 
 117:serial.c      **** void serial_reset_read_buffer()
 118:serial.c      **** {
 332              		.loc 1 118 0
 333              		.cfi_startproc
 334              		@ args = 0, pretend = 0, frame = 0
 335              		@ frame_needed = 0, uses_anonymous_args = 0
 336              		@ link register save eliminated.
 119:serial.c      ****   serial_rx_buffer_tail = serial_rx_buffer_head;
 337              		.loc 1 119 0
 338 0000 014B     		ldr	r3, .L39
 339 0002 1A78     		ldrb	r2, [r3]	@ zero_extendqisi2
 340 0004 5A70     		strb	r2, [r3, #1]
 341 0006 7047     		bx	lr
 342              	.L40:
 343              		.align	2
 344              	.L39:
 345 0008 00000000 		.word	.LANCHOR0
 346              		.cfi_endproc
 347              	.LFE69:
 348              		.size	serial_reset_read_buffer, .-serial_reset_read_buffer
 349              		.global	serial_rx_buffer_tail
 350              		.global	serial_rx_buffer_head
 351              		.comm	serial_rx_buffer,128,4
 352              		.comm	exec_lcd_status,1,1
 353              		.comm	sys_rt_exec_debug,1,1
 354              		.comm	sys_rt_exec_accessory_override,1,1
 355              		.comm	sys_rt_exec_motion_override,1,1
 356              		.comm	sys_rt_exec_alarm,1,1
 357              		.comm	sys_rt_exec_state,1,1
 358              		.comm	sys_probe_state,1,1
 359              		.comm	sys_probe_position,12,4
 360              		.comm	sys_position,12,4
 361              		.bss
 362              		.set	.LANCHOR0,. + 0
 363              		.type	serial_rx_buffer_head, %object
 364              		.size	serial_rx_buffer_head, 1
 365              	serial_rx_buffer_head:
 366 0000 00       		.space	1
 367              		.type	serial_rx_buffer_tail, %object
ARM GAS  C:\Users\Bart\AppData\Local\Temp\ccYfe8Fd.s 			page 10


 368              		.size	serial_rx_buffer_tail, 1
 369              	serial_rx_buffer_tail:
 370 0001 00       		.space	1
 371              		.text
 372              	.Letext0:
 373              		.file 2 "d:\\program files (x86)\\cypress\\psoc creator\\4.0\\psoc creator\\import\\gnu\\arm\\4.9.
 374              		.file 3 "d:\\program files (x86)\\cypress\\psoc creator\\4.0\\psoc creator\\import\\gnu\\arm\\4.9.
 375              		.file 4 "Generated_Source\\PSoC5/cytypes.h"
 376              		.file 5 "Generated_Source\\PSoC5/core_cm3.h"
 377              		.file 6 "system.h"
 378              		.file 7 "lcd_report.h"
 379              		.file 8 "Generated_Source\\PSoC5/isr_UART_Rx.h"
 380              		.file 9 "motion_control.h"
 381              		.file 10 "Generated_Source\\PSoC5/UART.h"