ARM GAS  C:\Users\Bart\AppData\Local\Temp\ccdZapHm.s 			page 1


   1              		.syntax unified
   2              		.cpu cortex-m3
   3              		.fpu softvfp
   4              		.eabi_attribute 20, 1
   5              		.eabi_attribute 21, 1
   6              		.eabi_attribute 23, 3
   7              		.eabi_attribute 24, 1
   8              		.eabi_attribute 25, 1
   9              		.eabi_attribute 26, 1
  10              		.eabi_attribute 30, 1
  11              		.eabi_attribute 34, 1
  12              		.eabi_attribute 18, 4
  13              		.thumb
  14              		.file	"settings.c"
  15              		.text
  16              	.Ltext0:
  17              		.cfi_sections	.debug_frame
  18              		.section	.text.settings_store_startup_line,"ax",%progbits
  19              		.align	2
  20              		.global	settings_store_startup_line
  21              		.thumb
  22              		.thumb_func
  23              		.type	settings_store_startup_line, %function
  24              	settings_store_startup_line:
  25              	.LFB63:
  26              		.file 1 "settings.c"
   1:settings.c    **** /*
   2:settings.c    ****   settings.c - eeprom configuration handling 
   3:settings.c    ****   Part of Grbl
   4:settings.c    **** 
   5:settings.c    ****   Copyright (c) 2011-2015 Sungeun K. Jeon  
   6:settings.c    ****   Copyright (c) 2009-2011 Simen Svale Skogsrud
   7:settings.c    **** 
   8:settings.c    ****   Grbl is free software: you can redistribute it and/or modify
   9:settings.c    ****   it under the terms of the GNU General Public License as published by
  10:settings.c    ****   the Free Software Foundation, either version 3 of the License, or
  11:settings.c    ****   (at your option) any later version.
  12:settings.c    **** 
  13:settings.c    ****   Grbl is distributed in the hope that it will be useful,
  14:settings.c    ****   but WITHOUT ANY WARRANTY; without even the implied warranty of
  15:settings.c    ****   MERCHANTABILITY or FITNESS FOR A PARTICULAR PURPOSE.  See the
  16:settings.c    ****   GNU General Public License for more details.
  17:settings.c    **** 
  18:settings.c    ****   You should have received a copy of the GNU General Public License
  19:settings.c    ****   along with Grbl.  If not, see <http://www.gnu.org/licenses/>.
  20:settings.c    **** */
  21:settings.c    **** 
  22:settings.c    **** #include "grbl.h"
  23:settings.c    **** 
  24:settings.c    **** 
  25:settings.c    **** 
  26:settings.c    **** settings_t settings;
  27:settings.c    **** 
  28:settings.c    **** 
  29:settings.c    **** // Method to store startup lines into EEPROM
  30:settings.c    **** void settings_store_startup_line(uint8_t n, char *line)
  31:settings.c    **** {
ARM GAS  C:\Users\Bart\AppData\Local\Temp\ccdZapHm.s 			page 2


  27              		.loc 1 31 0
  28              		.cfi_startproc
  29              		@ args = 0, pretend = 0, frame = 0
  30              		@ frame_needed = 0, uses_anonymous_args = 0
  31              	.LVL0:
  32 0000 08B5     		push	{r3, lr}
  33              		.cfi_def_cfa_offset 8
  34              		.cfi_offset 3, -8
  35              		.cfi_offset 14, -4
  32:settings.c    ****   uint32_t addr = n*(LINE_BUFFER_SIZE+1)+EEPROM_ADDR_STARTUP_BLOCK;
  36              		.loc 1 32 0
  37 0002 00EBC000 		add	r0, r0, r0, lsl #3
  38              	.LVL1:
  39 0006 00EBC000 		add	r0, r0, r0, lsl #3
  40              	.LVL2:
  33:settings.c    ****   memcpy_to_eeprom_with_checksum(addr,(char*)line, LINE_BUFFER_SIZE);
  41              		.loc 1 33 0
  42 000a 00F54070 		add	r0, r0, #768
  43              	.LVL3:
  44 000e 5022     		movs	r2, #80
  45 0010 FFF7FEFF 		bl	memcpy_to_eeprom_with_checksum
  46              	.LVL4:
  47 0014 08BD     		pop	{r3, pc}
  48              		.cfi_endproc
  49              	.LFE63:
  50              		.size	settings_store_startup_line, .-settings_store_startup_line
  51 0016 00BF     		.section	.text.settings_store_build_info,"ax",%progbits
  52              		.align	2
  53              		.global	settings_store_build_info
  54              		.thumb
  55              		.thumb_func
  56              		.type	settings_store_build_info, %function
  57              	settings_store_build_info:
  58              	.LFB64:
  34:settings.c    **** }
  35:settings.c    **** 
  36:settings.c    **** 
  37:settings.c    **** // Method to store build info into EEPROM
  38:settings.c    **** void settings_store_build_info(char *line)
  39:settings.c    **** {
  59              		.loc 1 39 0
  60              		.cfi_startproc
  61              		@ args = 0, pretend = 0, frame = 0
  62              		@ frame_needed = 0, uses_anonymous_args = 0
  63              	.LVL5:
  64 0000 08B5     		push	{r3, lr}
  65              		.cfi_def_cfa_offset 8
  66              		.cfi_offset 3, -8
  67              		.cfi_offset 14, -4
  68 0002 0146     		mov	r1, r0
  40:settings.c    ****   memcpy_to_eeprom_with_checksum(EEPROM_ADDR_BUILD_INFO,(char*)line, LINE_BUFFER_SIZE);
  69              		.loc 1 40 0
  70 0004 40F2AE30 		movw	r0, #942
  71              	.LVL6:
  72 0008 5022     		movs	r2, #80
  73 000a FFF7FEFF 		bl	memcpy_to_eeprom_with_checksum
  74              	.LVL7:
ARM GAS  C:\Users\Bart\AppData\Local\Temp\ccdZapHm.s 			page 3


  75 000e 08BD     		pop	{r3, pc}
  76              		.cfi_endproc
  77              	.LFE64:
  78              		.size	settings_store_build_info, .-settings_store_build_info
  79              		.section	.text.settings_write_coord_data,"ax",%progbits
  80              		.align	2
  81              		.global	settings_write_coord_data
  82              		.thumb
  83              		.thumb_func
  84              		.type	settings_write_coord_data, %function
  85              	settings_write_coord_data:
  86              	.LFB65:
  41:settings.c    **** }
  42:settings.c    **** 
  43:settings.c    **** 
  44:settings.c    **** // Method to store coord data parameters into EEPROM
  45:settings.c    **** void settings_write_coord_data(uint8_t coord_select, float *coord_data)
  46:settings.c    **** {  
  87              		.loc 1 46 0
  88              		.cfi_startproc
  89              		@ args = 0, pretend = 0, frame = 0
  90              		@ frame_needed = 0, uses_anonymous_args = 0
  91              	.LVL8:
  92 0000 08B5     		push	{r3, lr}
  93              		.cfi_def_cfa_offset 8
  94              		.cfi_offset 3, -8
  95              		.cfi_offset 14, -4
  47:settings.c    ****   uint32_t addr = coord_select*(sizeof(float)*N_AXIS+1) + EEPROM_ADDR_PARAMETERS;
  96              		.loc 1 47 0
  97 0002 00EB4003 		add	r3, r0, r0, lsl #1
  98 0006 00EB8300 		add	r0, r0, r3, lsl #2
  99              	.LVL9:
  48:settings.c    ****   memcpy_to_eeprom_with_checksum(addr,(char*)coord_data, sizeof(float)*N_AXIS);
 100              		.loc 1 48 0
 101 000a 00F50070 		add	r0, r0, #512
 102              	.LVL10:
 103 000e 0C22     		movs	r2, #12
 104 0010 FFF7FEFF 		bl	memcpy_to_eeprom_with_checksum
 105              	.LVL11:
 106 0014 08BD     		pop	{r3, pc}
 107              		.cfi_endproc
 108              	.LFE65:
 109              		.size	settings_write_coord_data, .-settings_write_coord_data
 110 0016 00BF     		.section	.text.write_global_settings,"ax",%progbits
 111              		.align	2
 112              		.global	write_global_settings
 113              		.thumb
 114              		.thumb_func
 115              		.type	write_global_settings, %function
 116              	write_global_settings:
 117              	.LFB66:
  49:settings.c    **** }  
  50:settings.c    **** 
  51:settings.c    **** 
  52:settings.c    **** // Method to store Grbl global settings struct and version number into EEPROM
  53:settings.c    **** void write_global_settings() 
  54:settings.c    **** {
ARM GAS  C:\Users\Bart\AppData\Local\Temp\ccdZapHm.s 			page 4


 118              		.loc 1 54 0
 119              		.cfi_startproc
 120              		@ args = 0, pretend = 0, frame = 0
 121              		@ frame_needed = 0, uses_anonymous_args = 0
 122 0000 08B5     		push	{r3, lr}
 123              		.cfi_def_cfa_offset 8
 124              		.cfi_offset 3, -8
 125              		.cfi_offset 14, -4
  55:settings.c    ****   eeprom_put_char(0, SETTINGS_VERSION);
 126              		.loc 1 55 0
 127 0002 0020     		movs	r0, #0
 128 0004 0A21     		movs	r1, #10
 129 0006 FFF7FEFF 		bl	eeprom_put_char
 130              	.LVL12:
  56:settings.c    ****   memcpy_to_eeprom_with_checksum(EEPROM_ADDR_GLOBAL, (char*)&settings, sizeof(settings_t));
 131              		.loc 1 56 0
 132 000a 0120     		movs	r0, #1
 133 000c 0249     		ldr	r1, .L9
 134 000e 5C22     		movs	r2, #92
 135 0010 FFF7FEFF 		bl	memcpy_to_eeprom_with_checksum
 136              	.LVL13:
 137 0014 08BD     		pop	{r3, pc}
 138              	.L10:
 139 0016 00BF     		.align	2
 140              	.L9:
 141 0018 00000000 		.word	settings
 142              		.cfi_endproc
 143              	.LFE66:
 144              		.size	write_global_settings, .-write_global_settings
 145              		.section	.text.settings_restore,"ax",%progbits
 146              		.align	2
 147              		.global	settings_restore
 148              		.thumb
 149              		.thumb_func
 150              		.type	settings_restore, %function
 151              	settings_restore:
 152              	.LFB67:
  57:settings.c    **** }
  58:settings.c    **** 
  59:settings.c    **** 
  60:settings.c    **** // Method to restore EEPROM-saved Grbl global settings back to defaults. 
  61:settings.c    **** void settings_restore(uint8_t restore_flag) {  
 153              		.loc 1 61 0
 154              		.cfi_startproc
 155              		@ args = 0, pretend = 0, frame = 16
 156              		@ frame_needed = 0, uses_anonymous_args = 0
 157              	.LVL14:
 158 0000 30B5     		push	{r4, r5, lr}
 159              		.cfi_def_cfa_offset 12
 160              		.cfi_offset 4, -12
 161              		.cfi_offset 5, -8
 162              		.cfi_offset 14, -4
 163 0002 85B0     		sub	sp, sp, #20
 164              		.cfi_def_cfa_offset 32
 165 0004 0546     		mov	r5, r0
  62:settings.c    ****   if (restore_flag & SETTINGS_RESTORE_DEFAULTS) {
 166              		.loc 1 62 0
ARM GAS  C:\Users\Bart\AppData\Local\Temp\ccdZapHm.s 			page 5


 167 0006 10F0010F 		tst	r0, #1
 168 000a 35D0     		beq	.L12
  63:settings.c    **** 	settings.pulse_microseconds = DEFAULT_STEP_PULSE_MICROSECONDS;
 169              		.loc 1 63 0
 170 000c 2E4B     		ldr	r3, .L19
 171 000e 0A22     		movs	r2, #10
 172 0010 83F83020 		strb	r2, [r3, #48]
  64:settings.c    **** 	settings.stepper_idle_lock_time = DEFAULT_STEPPER_IDLE_LOCK_TIME;
 173              		.loc 1 64 0
 174 0014 1922     		movs	r2, #25
 175 0016 83F83320 		strb	r2, [r3, #51]
  65:settings.c    **** 	settings.step_invert_mask = DEFAULT_STEPPING_INVERT_MASK;
 176              		.loc 1 65 0
 177 001a 0021     		movs	r1, #0
 178 001c 83F83110 		strb	r1, [r3, #49]
  66:settings.c    **** 	settings.dir_invert_mask = DEFAULT_DIRECTION_INVERT_MASK;
 179              		.loc 1 66 0
 180 0020 83F83210 		strb	r1, [r3, #50]
  67:settings.c    **** 	settings.status_report_mask = DEFAULT_STATUS_REPORT_MASK;
 181              		.loc 1 67 0
 182 0024 0122     		movs	r2, #1
 183 0026 83F83420 		strb	r2, [r3, #52]
  68:settings.c    **** 	settings.junction_deviation = DEFAULT_JUNCTION_DEVIATION;
 184              		.loc 1 68 0
 185 002a 284A     		ldr	r2, .L19+4
 186 002c 9A63     		str	r2, [r3, #56]	@ float
  69:settings.c    **** 	settings.arc_tolerance = DEFAULT_ARC_TOLERANCE;
 187              		.loc 1 69 0
 188 002e 284A     		ldr	r2, .L19+8
 189 0030 DA63     		str	r2, [r3, #60]	@ float
  70:settings.c    **** 	
  71:settings.c    **** 	settings.rpm_max = DEFAULT_SPINDLE_RPM_MAX;
 190              		.loc 1 71 0
 191 0032 284A     		ldr	r2, .L19+12
 192 0034 1A64     		str	r2, [r3, #64]	@ float
  72:settings.c    **** 	settings.rpm_min = DEFAULT_SPINDLE_RPM_MIN;
 193              		.loc 1 72 0
 194 0036 0022     		movs	r2, #0
 195 0038 5A64     		str	r2, [r3, #68]	@ float
  73:settings.c    **** 	
  74:settings.c    **** 	settings.homing_dir_mask = DEFAULT_HOMING_DIR_MASK;
 196              		.loc 1 74 0
 197 003a 83F84910 		strb	r1, [r3, #73]
  75:settings.c    **** 	settings.homing_feed_rate = DEFAULT_HOMING_FEED_RATE;
 198              		.loc 1 75 0
 199 003e 264A     		ldr	r2, .L19+16
 200 0040 DA64     		str	r2, [r3, #76]	@ float
  76:settings.c    **** 	settings.homing_seek_rate = DEFAULT_HOMING_SEEK_RATE;
 201              		.loc 1 76 0
 202 0042 264A     		ldr	r2, .L19+20
 203 0044 1A65     		str	r2, [r3, #80]	@ float
  77:settings.c    **** 	settings.homing_debounce_delay = DEFAULT_HOMING_DEBOUNCE_DELAY;
 204              		.loc 1 77 0
 205 0046 FA20     		movs	r0, #250
 206              	.LVL15:
 207 0048 A3F85400 		strh	r0, [r3, #84]	@ movhi
  78:settings.c    **** 	settings.homing_pulloff = DEFAULT_HOMING_PULLOFF;
ARM GAS  C:\Users\Bart\AppData\Local\Temp\ccdZapHm.s 			page 6


 208              		.loc 1 78 0
 209 004c 4FF07E50 		mov	r0, #1065353216
 210 0050 9865     		str	r0, [r3, #88]	@ float
  79:settings.c    **** 
  80:settings.c    **** 	settings.flags = 0;
 211              		.loc 1 80 0
 212 0052 83F84810 		strb	r1, [r3, #72]
  81:settings.c    **** 	if (DEFAULT_REPORT_INCHES) { settings.flags |= BITFLAG_REPORT_INCHES; }
  82:settings.c    **** 	if (DEFAULT_INVERT_ST_ENABLE) { settings.flags |= BITFLAG_INVERT_ST_ENABLE; }
  83:settings.c    **** 	if (DEFAULT_INVERT_LIMIT_PINS) { settings.flags |= BITFLAG_INVERT_LIMIT_PINS; }
  84:settings.c    **** 	if (DEFAULT_SOFT_LIMIT_ENABLE) { settings.flags |= BITFLAG_SOFT_LIMIT_ENABLE; }
  85:settings.c    **** 	if (DEFAULT_HARD_LIMIT_ENABLE) { settings.flags |= BITFLAG_HARD_LIMIT_ENABLE; }
  86:settings.c    **** 	if (DEFAULT_HOMING_ENABLE) { settings.flags |= BITFLAG_HOMING_ENABLE; }
  87:settings.c    ****   
  88:settings.c    **** 	settings.steps_per_mm[X_AXIS] = DEFAULT_X_STEPS_PER_MM;
 213              		.loc 1 88 0
 214 0056 2249     		ldr	r1, .L19+24
 215 0058 1960     		str	r1, [r3]	@ float
  89:settings.c    **** 	settings.steps_per_mm[Y_AXIS] = DEFAULT_Y_STEPS_PER_MM;
 216              		.loc 1 89 0
 217 005a 5960     		str	r1, [r3, #4]	@ float
  90:settings.c    **** 	settings.steps_per_mm[Z_AXIS] = DEFAULT_Z_STEPS_PER_MM;
 218              		.loc 1 90 0
 219 005c 9960     		str	r1, [r3, #8]	@ float
  91:settings.c    **** 	settings.max_rate[X_AXIS] = DEFAULT_X_MAX_RATE;
 220              		.loc 1 91 0
 221 005e DA60     		str	r2, [r3, #12]	@ float
  92:settings.c    **** 	settings.max_rate[Y_AXIS] = DEFAULT_Y_MAX_RATE;
 222              		.loc 1 92 0
 223 0060 1A61     		str	r2, [r3, #16]	@ float
  93:settings.c    **** 	settings.max_rate[Z_AXIS] = DEFAULT_Z_MAX_RATE;
 224              		.loc 1 93 0
 225 0062 5A61     		str	r2, [r3, #20]	@ float
  94:settings.c    **** 	settings.acceleration[X_AXIS] = DEFAULT_X_ACCELERATION;
 226              		.loc 1 94 0
 227 0064 1F4A     		ldr	r2, .L19+28
 228 0066 9A61     		str	r2, [r3, #24]	@ float
  95:settings.c    **** 	settings.acceleration[Y_AXIS] = DEFAULT_Y_ACCELERATION;
 229              		.loc 1 95 0
 230 0068 DA61     		str	r2, [r3, #28]	@ float
  96:settings.c    **** 	settings.acceleration[Z_AXIS] = DEFAULT_Z_ACCELERATION;
 231              		.loc 1 96 0
 232 006a 1A62     		str	r2, [r3, #32]	@ float
  97:settings.c    **** 	settings.max_travel[X_AXIS] = (-DEFAULT_X_MAX_TRAVEL);
 233              		.loc 1 97 0
 234 006c 1E4A     		ldr	r2, .L19+32
 235 006e 5A62     		str	r2, [r3, #36]	@ float
  98:settings.c    **** 	settings.max_travel[Y_AXIS] = (-DEFAULT_Y_MAX_TRAVEL);
 236              		.loc 1 98 0
 237 0070 9A62     		str	r2, [r3, #40]	@ float
  99:settings.c    **** 	settings.max_travel[Z_AXIS] = (-DEFAULT_Z_MAX_TRAVEL);    
 238              		.loc 1 99 0
 239 0072 DA62     		str	r2, [r3, #44]	@ float
 100:settings.c    **** 
 101:settings.c    **** 	write_global_settings();
 240              		.loc 1 101 0
 241 0074 FFF7FEFF 		bl	write_global_settings
ARM GAS  C:\Users\Bart\AppData\Local\Temp\ccdZapHm.s 			page 7


 242              	.LVL16:
 243              	.L12:
 102:settings.c    ****   }
 103:settings.c    ****   
 104:settings.c    ****   if (restore_flag & SETTINGS_RESTORE_PARAMETERS) {
 244              		.loc 1 104 0
 245 0078 15F0020F 		tst	r5, #2
 246 007c 0CD0     		beq	.L13
 247              	.LBB2:
 105:settings.c    **** 	uint8_t idx;
 106:settings.c    **** 	float coord_data[N_AXIS];
 107:settings.c    **** 	memset(&coord_data, 0, sizeof(coord_data));
 248              		.loc 1 107 0
 249 007e 0024     		movs	r4, #0
 250 0080 0194     		str	r4, [sp, #4]
 251 0082 0294     		str	r4, [sp, #8]
 252 0084 0394     		str	r4, [sp, #12]
 253              	.LVL17:
 108:settings.c    **** 	for (idx=0; idx <= SETTING_INDEX_NCOORD; idx++) { settings_write_coord_data(idx, coord_data); }
 254              		.loc 1 108 0
 255 0086 05E0     		b	.L14
 256              	.LVL18:
 257              	.L15:
 258              		.loc 1 108 0 is_stmt 0 discriminator 3
 259 0088 2046     		mov	r0, r4
 260 008a 01A9     		add	r1, sp, #4
 261 008c FFF7FEFF 		bl	settings_write_coord_data
 262              	.LVL19:
 263 0090 0134     		adds	r4, r4, #1
 264              	.LVL20:
 265 0092 E4B2     		uxtb	r4, r4
 266              	.LVL21:
 267              	.L14:
 268              		.loc 1 108 0 discriminator 1
 269 0094 072C     		cmp	r4, #7
 270 0096 F7D9     		bls	.L15
 271              	.LVL22:
 272              	.L13:
 273              	.LBE2:
 109:settings.c    ****   }
 110:settings.c    ****   
 111:settings.c    ****   if (restore_flag & SETTINGS_RESTORE_STARTUP_LINES) {
 274              		.loc 1 111 0 is_stmt 1
 275 0098 15F0040F 		tst	r5, #4
 276 009c 09D0     		beq	.L16
 112:settings.c    **** 	#if N_STARTUP_LINE > 0
 113:settings.c    **** 	eeprom_put_char(EEPROM_ADDR_STARTUP_BLOCK, 0);
 277              		.loc 1 113 0
 278 009e 4FF44070 		mov	r0, #768
 279 00a2 0021     		movs	r1, #0
 280 00a4 FFF7FEFF 		bl	eeprom_put_char
 281              	.LVL23:
 114:settings.c    **** 	#endif
 115:settings.c    **** 	#if N_STARTUP_LINE > 1
 116:settings.c    **** 	eeprom_put_char(EEPROM_ADDR_STARTUP_BLOCK+(LINE_BUFFER_SIZE+1), 0);
 282              		.loc 1 116 0
 283 00a8 40F25130 		movw	r0, #849
ARM GAS  C:\Users\Bart\AppData\Local\Temp\ccdZapHm.s 			page 8


 284 00ac 0021     		movs	r1, #0
 285 00ae FFF7FEFF 		bl	eeprom_put_char
 286              	.LVL24:
 287              	.L16:
 117:settings.c    **** 	#endif
 118:settings.c    ****   }
 119:settings.c    ****   
 120:settings.c    ****   if (restore_flag & SETTINGS_RESTORE_BUILD_INFO) { eeprom_put_char(EEPROM_ADDR_BUILD_INFO , 0); }
 288              		.loc 1 120 0
 289 00b2 15F0080F 		tst	r5, #8
 290 00b6 04D0     		beq	.L11
 291              		.loc 1 120 0 is_stmt 0 discriminator 1
 292 00b8 40F2AE30 		movw	r0, #942
 293 00bc 0021     		movs	r1, #0
 294 00be FFF7FEFF 		bl	eeprom_put_char
 295              	.LVL25:
 296              	.L11:
 121:settings.c    **** }
 297              		.loc 1 121 0 is_stmt 1
 298 00c2 05B0     		add	sp, sp, #20
 299              		.cfi_def_cfa_offset 12
 300              		@ sp needed
 301 00c4 30BD     		pop	{r4, r5, pc}
 302              	.L20:
 303 00c6 00BF     		.align	2
 304              	.L19:
 305 00c8 00000000 		.word	settings
 306 00cc 0AD7233C 		.word	1008981770
 307 00d0 6F12033B 		.word	990057071
 308 00d4 00007A44 		.word	1148846080
 309 00d8 0000C841 		.word	1103626240
 310 00dc 0000FA43 		.word	1140457472
 311 00e0 00007A43 		.word	1132068864
 312 00e4 00A00C47 		.word	1192009728
 313 00e8 000048C3 		.word	-1018691584
 314              		.cfi_endproc
 315              	.LFE67:
 316              		.size	settings_restore, .-settings_restore
 317              		.section	.text.settings_read_startup_line,"ax",%progbits
 318              		.align	2
 319              		.global	settings_read_startup_line
 320              		.thumb
 321              		.thumb_func
 322              		.type	settings_read_startup_line, %function
 323              	settings_read_startup_line:
 324              	.LFB68:
 122:settings.c    **** 
 123:settings.c    **** 
 124:settings.c    **** // Reads startup line from EEPROM. Updated pointed line string data.
 125:settings.c    **** uint8_t settings_read_startup_line(uint8_t n, char *line)
 126:settings.c    **** {
 325              		.loc 1 126 0
 326              		.cfi_startproc
 327              		@ args = 0, pretend = 0, frame = 0
 328              		@ frame_needed = 0, uses_anonymous_args = 0
 329              	.LVL26:
 330 0000 70B5     		push	{r4, r5, r6, lr}
ARM GAS  C:\Users\Bart\AppData\Local\Temp\ccdZapHm.s 			page 9


 331              		.cfi_def_cfa_offset 16
 332              		.cfi_offset 4, -16
 333              		.cfi_offset 5, -12
 334              		.cfi_offset 6, -8
 335              		.cfi_offset 14, -4
 336 0002 0446     		mov	r4, r0
 337 0004 0E46     		mov	r6, r1
 127:settings.c    ****   uint32_t addr = n*(LINE_BUFFER_SIZE+1)+EEPROM_ADDR_STARTUP_BLOCK;
 338              		.loc 1 127 0
 339 0006 00EBC001 		add	r1, r0, r0, lsl #3
 340              	.LVL27:
 341 000a 01EBC101 		add	r1, r1, r1, lsl #3
 342              	.LVL28:
 128:settings.c    ****   if (!(memcpy_from_eeprom_with_checksum((char*)line, addr, LINE_BUFFER_SIZE))) {
 343              		.loc 1 128 0
 344 000e 3046     		mov	r0, r6
 345              	.LVL29:
 346 0010 01F54071 		add	r1, r1, #768
 347              	.LVL30:
 348 0014 5022     		movs	r2, #80
 349 0016 FFF7FEFF 		bl	memcpy_from_eeprom_with_checksum
 350              	.LVL31:
 351 001a 38B9     		cbnz	r0, .L23
 129:settings.c    ****     // Reset line with default value
 130:settings.c    ****     line[0] = 0; // Empty line
 352              		.loc 1 130 0
 353 001c 0025     		movs	r5, #0
 354 001e 3570     		strb	r5, [r6]
 131:settings.c    ****     settings_store_startup_line(n, line);
 355              		.loc 1 131 0
 356 0020 2046     		mov	r0, r4
 357 0022 3146     		mov	r1, r6
 358 0024 FFF7FEFF 		bl	settings_store_startup_line
 359              	.LVL32:
 132:settings.c    ****     return(false);
 360              		.loc 1 132 0
 361 0028 2846     		mov	r0, r5
 362 002a 70BD     		pop	{r4, r5, r6, pc}
 363              	.LVL33:
 364              	.L23:
 133:settings.c    ****   }
 134:settings.c    ****   return(true);
 365              		.loc 1 134 0
 366 002c 0120     		movs	r0, #1
 135:settings.c    **** }
 367              		.loc 1 135 0
 368 002e 70BD     		pop	{r4, r5, r6, pc}
 369              		.cfi_endproc
 370              	.LFE68:
 371              		.size	settings_read_startup_line, .-settings_read_startup_line
 372              		.section	.text.settings_read_build_info,"ax",%progbits
 373              		.align	2
 374              		.global	settings_read_build_info
 375              		.thumb
 376              		.thumb_func
 377              		.type	settings_read_build_info, %function
 378              	settings_read_build_info:
ARM GAS  C:\Users\Bart\AppData\Local\Temp\ccdZapHm.s 			page 10


 379              	.LFB69:
 136:settings.c    **** 
 137:settings.c    **** 
 138:settings.c    **** // Reads startup line from EEPROM. Updated pointed line string data.
 139:settings.c    **** uint8_t settings_read_build_info(char *line)
 140:settings.c    **** {
 380              		.loc 1 140 0
 381              		.cfi_startproc
 382              		@ args = 0, pretend = 0, frame = 0
 383              		@ frame_needed = 0, uses_anonymous_args = 0
 384              	.LVL34:
 385 0000 38B5     		push	{r3, r4, r5, lr}
 386              		.cfi_def_cfa_offset 16
 387              		.cfi_offset 3, -16
 388              		.cfi_offset 4, -12
 389              		.cfi_offset 5, -8
 390              		.cfi_offset 14, -4
 391 0002 0546     		mov	r5, r0
 141:settings.c    ****   if (!(memcpy_from_eeprom_with_checksum((char*)line, EEPROM_ADDR_BUILD_INFO, LINE_BUFFER_SIZE))) {
 392              		.loc 1 141 0
 393 0004 40F2AE31 		movw	r1, #942
 394 0008 5022     		movs	r2, #80
 395 000a FFF7FEFF 		bl	memcpy_from_eeprom_with_checksum
 396              	.LVL35:
 397 000e 30B9     		cbnz	r0, .L27
 142:settings.c    ****     // Reset line with default value
 143:settings.c    ****     line[0] = 0; // Empty line
 398              		.loc 1 143 0
 399 0010 0024     		movs	r4, #0
 400 0012 2C70     		strb	r4, [r5]
 144:settings.c    ****     settings_store_build_info(line);
 401              		.loc 1 144 0
 402 0014 2846     		mov	r0, r5
 403 0016 FFF7FEFF 		bl	settings_store_build_info
 404              	.LVL36:
 145:settings.c    ****     return(false);
 405              		.loc 1 145 0
 406 001a 2046     		mov	r0, r4
 407 001c 38BD     		pop	{r3, r4, r5, pc}
 408              	.LVL37:
 409              	.L27:
 146:settings.c    ****   }
 147:settings.c    ****   return(true);
 410              		.loc 1 147 0
 411 001e 0120     		movs	r0, #1
 148:settings.c    **** }
 412              		.loc 1 148 0
 413 0020 38BD     		pop	{r3, r4, r5, pc}
 414              		.cfi_endproc
 415              	.LFE69:
 416              		.size	settings_read_build_info, .-settings_read_build_info
 417 0022 00BF     		.section	.text.settings_read_coord_data,"ax",%progbits
 418              		.align	2
 419              		.global	settings_read_coord_data
 420              		.thumb
 421              		.thumb_func
 422              		.type	settings_read_coord_data, %function
ARM GAS  C:\Users\Bart\AppData\Local\Temp\ccdZapHm.s 			page 11


 423              	settings_read_coord_data:
 424              	.LFB70:
 149:settings.c    **** 
 150:settings.c    **** 
 151:settings.c    **** // Read selected coordinate data from EEPROM. Updates pointed coord_data value.
 152:settings.c    **** uint8_t settings_read_coord_data(uint8_t coord_select, float *coord_data)
 153:settings.c    **** {
 425              		.loc 1 153 0
 426              		.cfi_startproc
 427              		@ args = 0, pretend = 0, frame = 0
 428              		@ frame_needed = 0, uses_anonymous_args = 0
 429              	.LVL38:
 430 0000 70B5     		push	{r4, r5, r6, lr}
 431              		.cfi_def_cfa_offset 16
 432              		.cfi_offset 4, -16
 433              		.cfi_offset 5, -12
 434              		.cfi_offset 6, -8
 435              		.cfi_offset 14, -4
 436 0002 0546     		mov	r5, r0
 437 0004 0E46     		mov	r6, r1
 154:settings.c    ****   uint32_t addr = coord_select*(sizeof(float)*N_AXIS+1) + EEPROM_ADDR_PARAMETERS;
 438              		.loc 1 154 0
 439 0006 00EB4001 		add	r1, r0, r0, lsl #1
 440              	.LVL39:
 441 000a 00EB8101 		add	r1, r0, r1, lsl #2
 442              	.LVL40:
 155:settings.c    ****   if (!(memcpy_from_eeprom_with_checksum((char*)coord_data, addr, sizeof(float)*N_AXIS))) {
 443              		.loc 1 155 0
 444 000e 3046     		mov	r0, r6
 445              	.LVL41:
 446 0010 01F50071 		add	r1, r1, #512
 447              	.LVL42:
 448 0014 0C22     		movs	r2, #12
 449 0016 FFF7FEFF 		bl	memcpy_from_eeprom_with_checksum
 450              	.LVL43:
 451 001a F0B9     		cbnz	r0, .L31
 156:settings.c    ****     // Reset with default zero vector
 157:settings.c    ****     clear_vector_float(coord_data); 
 452              		.loc 1 157 0
 453 001c 3346     		mov	r3, r6
 454 001e 0024     		movs	r4, #0
 455 0020 03F8014B 		strb	r4, [r3], #1
 456 0024 7470     		strb	r4, [r6, #1]
 457 0026 0133     		adds	r3, r3, #1
 458 0028 03F8014B 		strb	r4, [r3], #1
 459 002c 03F8014B 		strb	r4, [r3], #1
 460 0030 03F8014B 		strb	r4, [r3], #1
 461 0034 03F8014B 		strb	r4, [r3], #1
 462 0038 03F8014B 		strb	r4, [r3], #1
 463 003c 03F8014B 		strb	r4, [r3], #1
 464 0040 03F8014B 		strb	r4, [r3], #1
 465 0044 03F8014B 		strb	r4, [r3], #1
 466 0048 03F8014B 		strb	r4, [r3], #1
 467 004c 1C70     		strb	r4, [r3]
 158:settings.c    ****     settings_write_coord_data(coord_select,coord_data);
 468              		.loc 1 158 0
 469 004e 2846     		mov	r0, r5
ARM GAS  C:\Users\Bart\AppData\Local\Temp\ccdZapHm.s 			page 12


 470 0050 3146     		mov	r1, r6
 471 0052 FFF7FEFF 		bl	settings_write_coord_data
 472              	.LVL44:
 159:settings.c    ****     return(false);
 473              		.loc 1 159 0
 474 0056 2046     		mov	r0, r4
 475 0058 70BD     		pop	{r4, r5, r6, pc}
 476              	.LVL45:
 477              	.L31:
 160:settings.c    ****   }
 161:settings.c    ****   return(true);
 478              		.loc 1 161 0
 479 005a 0120     		movs	r0, #1
 162:settings.c    **** }  
 480              		.loc 1 162 0
 481 005c 70BD     		pop	{r4, r5, r6, pc}
 482              		.cfi_endproc
 483              	.LFE70:
 484              		.size	settings_read_coord_data, .-settings_read_coord_data
 485 005e 00BF     		.section	.text.read_global_settings,"ax",%progbits
 486              		.align	2
 487              		.global	read_global_settings
 488              		.thumb
 489              		.thumb_func
 490              		.type	read_global_settings, %function
 491              	read_global_settings:
 492              	.LFB71:
 163:settings.c    **** 
 164:settings.c    **** 
 165:settings.c    **** // Reads Grbl global settings struct from EEPROM.
 166:settings.c    **** uint8_t read_global_settings() {
 493              		.loc 1 166 0
 494              		.cfi_startproc
 495              		@ args = 0, pretend = 0, frame = 0
 496              		@ frame_needed = 0, uses_anonymous_args = 0
 497 0000 08B5     		push	{r3, lr}
 498              		.cfi_def_cfa_offset 8
 499              		.cfi_offset 3, -8
 500              		.cfi_offset 14, -4
 167:settings.c    ****   // Check version-byte of eeprom
 168:settings.c    ****   uint8_t version = eeprom_get_char(0);
 501              		.loc 1 168 0
 502 0002 0020     		movs	r0, #0
 503 0004 FFF7FEFF 		bl	eeprom_get_char
 504              	.LVL46:
 169:settings.c    ****   if (version == SETTINGS_VERSION) {
 505              		.loc 1 169 0
 506 0008 0A28     		cmp	r0, #10
 507 000a 06D1     		bne	.L35
 170:settings.c    ****     // Read settings-record and check checksum
 171:settings.c    ****     if (!(memcpy_from_eeprom_with_checksum((char*)&settings, EEPROM_ADDR_GLOBAL, sizeof(settings_t)
 508              		.loc 1 171 0
 509 000c 0548     		ldr	r0, .L38
 510              	.LVL47:
 511 000e 0121     		movs	r1, #1
 512 0010 5C22     		movs	r2, #92
 513 0012 FFF7FEFF 		bl	memcpy_from_eeprom_with_checksum
ARM GAS  C:\Users\Bart\AppData\Local\Temp\ccdZapHm.s 			page 13


 514              	.LVL48:
 515 0016 10B9     		cbnz	r0, .L36
 516 0018 08BD     		pop	{r3, pc}
 517              	.LVL49:
 518              	.L35:
 172:settings.c    ****       return(false);
 173:settings.c    ****     }
 174:settings.c    ****   } else {
 175:settings.c    ****     return(false); 
 519              		.loc 1 175 0
 520 001a 0020     		movs	r0, #0
 521              	.LVL50:
 522 001c 08BD     		pop	{r3, pc}
 523              	.L36:
 176:settings.c    ****   }
 177:settings.c    ****   return(true);
 524              		.loc 1 177 0
 525 001e 0120     		movs	r0, #1
 178:settings.c    **** }
 526              		.loc 1 178 0
 527 0020 08BD     		pop	{r3, pc}
 528              	.L39:
 529 0022 00BF     		.align	2
 530              	.L38:
 531 0024 00000000 		.word	settings
 532              		.cfi_endproc
 533              	.LFE71:
 534              		.size	read_global_settings, .-read_global_settings
 535              		.global	__aeabi_fcmplt
 536              		.global	__aeabi_fmul
 537              		.global	__aeabi_f2d
 538              		.global	__aeabi_d2uiz
 539              		.section	.text.settings_store_global_setting,"ax",%progbits
 540              		.align	2
 541              		.global	settings_store_global_setting
 542              		.thumb
 543              		.thumb_func
 544              		.type	settings_store_global_setting, %function
 545              	settings_store_global_setting:
 546              	.LFB72:
 179:settings.c    **** 
 180:settings.c    **** 
 181:settings.c    **** // A helper method to set settings from command line
 182:settings.c    **** uint8_t settings_store_global_setting(uint8_t parameter, float value) {
 547              		.loc 1 182 0
 548              		.cfi_startproc
 549              		@ args = 0, pretend = 0, frame = 0
 550              		@ frame_needed = 0, uses_anonymous_args = 0
 551              	.LVL51:
 552 0000 38B5     		push	{r3, r4, r5, lr}
 553              		.cfi_def_cfa_offset 16
 554              		.cfi_offset 3, -16
 555              		.cfi_offset 4, -12
 556              		.cfi_offset 5, -8
 557              		.cfi_offset 14, -4
 558 0002 0446     		mov	r4, r0
 559 0004 0D46     		mov	r5, r1
ARM GAS  C:\Users\Bart\AppData\Local\Temp\ccdZapHm.s 			page 14


 183:settings.c    ****   if (value < 0.0) { return(STATUS_NEGATIVE_VALUE); } 
 560              		.loc 1 183 0
 561 0006 0846     		mov	r0, r1
 562              	.LVL52:
 563 0008 0021     		movs	r1, #0
 564              	.LVL53:
 565 000a FFF7FEFF 		bl	__aeabi_fcmplt
 566              	.LVL54:
 567 000e 0028     		cmp	r0, #0
 568 0010 40F00D81 		bne	.L82
 184:settings.c    ****   if (parameter >= AXIS_SETTINGS_START_VAL) {
 569              		.loc 1 184 0
 570 0014 632C     		cmp	r4, #99
 571 0016 35D9     		bls	.L42
 572              	.LBB3:
 185:settings.c    ****     // Store axis configuration. Axis numbering sequence set by AXIS_SETTING defines.
 186:settings.c    ****     // NOTE: Ensure the setting index corresponds to the report.c settings printout.
 187:settings.c    ****     parameter -= AXIS_SETTINGS_START_VAL;
 573              		.loc 1 187 0
 574 0018 643C     		subs	r4, r4, #100
 575 001a E4B2     		uxtb	r4, r4
 576              	.LVL55:
 188:settings.c    ****     uint8_t set_idx = 0;
 577              		.loc 1 188 0
 578 001c 0023     		movs	r3, #0
 189:settings.c    ****     while (set_idx < AXIS_N_SETTINGS) {
 579              		.loc 1 189 0
 580 001e 2EE0     		b	.L43
 581              	.LVL56:
 582              	.L51:
 190:settings.c    ****       if (parameter < N_AXIS) {
 583              		.loc 1 190 0
 584 0020 022C     		cmp	r4, #2
 585 0022 22D8     		bhi	.L44
 191:settings.c    ****         // Valid axis setting found.
 192:settings.c    ****         switch (set_idx) {
 586              		.loc 1 192 0
 587 0024 032B     		cmp	r3, #3
 588 0026 00F2FE80 		bhi	.L45
 589 002a DFE803F0 		tbb	[pc, r3]
 590              	.L47:
 591 002e 02       		.byte	(.L46-.L47)/2
 592 002f 06       		.byte	(.L48-.L47)/2
 593 0030 0B       		.byte	(.L49-.L47)/2
 594 0031 17       		.byte	(.L50-.L47)/2
 595              		.p2align 1
 596              	.L46:
 193:settings.c    ****           case 0:
 194:settings.c    ****             #ifdef MAX_STEP_RATE_HZ
 195:settings.c    ****               if (value*settings.max_rate[parameter] > (MAX_STEP_RATE_HZ*60.0)) { return(STATUS_MAX
 196:settings.c    ****             #endif
 197:settings.c    ****             settings.steps_per_mm[parameter] = value;
 597              		.loc 1 197 0
 598 0032 854B     		ldr	r3, .L89
 599              	.LVL57:
 600 0034 43F82450 		str	r5, [r3, r4, lsl #2]	@ float
 198:settings.c    ****             break;
ARM GAS  C:\Users\Bart\AppData\Local\Temp\ccdZapHm.s 			page 15


 601              		.loc 1 198 0
 602 0038 F5E0     		b	.L45
 603              	.LVL58:
 604              	.L48:
 199:settings.c    ****           case 1:
 200:settings.c    ****             #ifdef MAX_STEP_RATE_HZ
 201:settings.c    ****               if (value*settings.steps_per_mm[parameter] > (MAX_STEP_RATE_HZ*60.0)) {  return(STATU
 202:settings.c    ****             #endif
 203:settings.c    ****             settings.max_rate[parameter] = value;
 605              		.loc 1 203 0
 606 003a 834B     		ldr	r3, .L89
 607              	.LVL59:
 608 003c 03EB8404 		add	r4, r3, r4, lsl #2
 609              	.LVL60:
 610 0040 E560     		str	r5, [r4, #12]	@ float
 204:settings.c    ****             break;
 611              		.loc 1 204 0
 612 0042 F0E0     		b	.L45
 613              	.LVL61:
 614              	.L49:
 205:settings.c    ****           case 2: settings.acceleration[parameter] = value*60*60; break; // Convert to mm/min^2 for
 615              		.loc 1 205 0
 616 0044 2846     		mov	r0, r5
 617 0046 8149     		ldr	r1, .L89+4
 618 0048 FFF7FEFF 		bl	__aeabi_fmul
 619              	.LVL62:
 620 004c 7F49     		ldr	r1, .L89+4
 621 004e FFF7FEFF 		bl	__aeabi_fmul
 622              	.LVL63:
 623 0052 0634     		adds	r4, r4, #6
 624              	.LVL64:
 625 0054 7C4B     		ldr	r3, .L89
 626 0056 43F82400 		str	r0, [r3, r4, lsl #2]	@ float
 627 005a E4E0     		b	.L45
 628              	.LVL65:
 629              	.L50:
 206:settings.c    ****           case 3: settings.max_travel[parameter] = -value; break;  // Store as negative for grbl in
 630              		.loc 1 206 0
 631 005c 05F10045 		add	r5, r5, #-2147483648
 632              	.LVL66:
 633 0060 794B     		ldr	r3, .L89
 634              	.LVL67:
 635 0062 03EB8404 		add	r4, r3, r4, lsl #2
 636              	.LVL68:
 637 0066 6562     		str	r5, [r4, #36]	@ float
 638 0068 DDE0     		b	.L45
 639              	.LVL69:
 640              	.L44:
 207:settings.c    ****         }
 208:settings.c    ****         break; // Exit while-loop after setting has been configured and proceed to the EEPROM write
 209:settings.c    ****       } else {
 210:settings.c    ****         set_idx++;
 641              		.loc 1 210 0
 642 006a 0133     		adds	r3, r3, #1
 643              	.LVL70:
 644 006c DBB2     		uxtb	r3, r3
 645              	.LVL71:
ARM GAS  C:\Users\Bart\AppData\Local\Temp\ccdZapHm.s 			page 16


 211:settings.c    ****         // If axis index greater than N_AXIS or setting index greater than number of axis settings,
 212:settings.c    ****         if ((parameter < AXIS_SETTINGS_INCREMENT) || (set_idx == AXIS_N_SETTINGS)) { return(STATUS_
 646              		.loc 1 212 0
 647 006e 092C     		cmp	r4, #9
 648 0070 40F2DF80 		bls	.L83
 649              		.loc 1 212 0 is_stmt 0 discriminator 2
 650 0074 042B     		cmp	r3, #4
 651 0076 00F0DE80 		beq	.L84
 213:settings.c    ****         parameter -= AXIS_SETTINGS_INCREMENT;
 652              		.loc 1 213 0 is_stmt 1
 653 007a 0A3C     		subs	r4, r4, #10
 654              	.LVL72:
 655 007c E4B2     		uxtb	r4, r4
 656              	.LVL73:
 657              	.L43:
 189:settings.c    ****       if (parameter < N_AXIS) {
 658              		.loc 1 189 0
 659 007e 032B     		cmp	r3, #3
 660 0080 CED9     		bls	.L51
 661 0082 D0E0     		b	.L45
 662              	.LVL74:
 663              	.L42:
 664              	.LBE3:
 665              	.LBB4:
 214:settings.c    ****       }
 215:settings.c    ****     }
 216:settings.c    ****   } else {
 217:settings.c    ****     // Store non-axis Grbl settings
 218:settings.c    ****     uint8_t int_value = trunc(value);
 666              		.loc 1 218 0
 667 0084 2846     		mov	r0, r5
 668 0086 FFF7FEFF 		bl	__aeabi_f2d
 669              	.LVL75:
 670 008a FFF7FEFF 		bl	trunc
 671              	.LVL76:
 672 008e FFF7FEFF 		bl	__aeabi_d2uiz
 673              	.LVL77:
 674 0092 C0B2     		uxtb	r0, r0
 675              	.LVL78:
 219:settings.c    ****     switch(parameter) {
 676              		.loc 1 219 0
 677 0094 1F2C     		cmp	r4, #31
 678 0096 00F2D080 		bhi	.L85
 679 009a DFE804F0 		tbb	[pc, r4]
 680              	.L53:
 681 009e 10       		.byte	(.L52-.L53)/2
 682 009f 17       		.byte	(.L54-.L53)/2
 683 00a0 1B       		.byte	(.L55-.L53)/2
 684 00a1 21       		.byte	(.L56-.L53)/2
 685 00a2 27       		.byte	(.L57-.L53)/2
 686 00a3 38       		.byte	(.L58-.L53)/2
 687 00a4 49       		.byte	(.L59-.L53)/2
 688 00a5 CE       		.byte	(.L85-.L53)/2
 689 00a6 CE       		.byte	(.L85-.L53)/2
 690 00a7 CE       		.byte	(.L85-.L53)/2
 691 00a8 5A       		.byte	(.L60-.L53)/2
 692 00a9 5E       		.byte	(.L61-.L53)/2
ARM GAS  C:\Users\Bart\AppData\Local\Temp\ccdZapHm.s 			page 17


 693 00aa 61       		.byte	(.L62-.L53)/2
 694 00ab 64       		.byte	(.L63-.L53)/2
 695 00ac CE       		.byte	(.L85-.L53)/2
 696 00ad CE       		.byte	(.L85-.L53)/2
 697 00ae CE       		.byte	(.L85-.L53)/2
 698 00af CE       		.byte	(.L85-.L53)/2
 699 00b0 CE       		.byte	(.L85-.L53)/2
 700 00b1 CE       		.byte	(.L85-.L53)/2
 701 00b2 75       		.byte	(.L64-.L53)/2
 702 00b3 8A       		.byte	(.L65-.L53)/2
 703 00b4 9D       		.byte	(.L66-.L53)/2
 704 00b5 AE       		.byte	(.L67-.L53)/2
 705 00b6 B2       		.byte	(.L68-.L53)/2
 706 00b7 B5       		.byte	(.L69-.L53)/2
 707 00b8 B8       		.byte	(.L70-.L53)/2
 708 00b9 BC       		.byte	(.L71-.L53)/2
 709 00ba CE       		.byte	(.L85-.L53)/2
 710 00bb CE       		.byte	(.L85-.L53)/2
 711 00bc BF       		.byte	(.L72-.L53)/2
 712 00bd C2       		.byte	(.L73-.L53)/2
 713              		.p2align 1
 714              	.L52:
 220:settings.c    ****       case 0: 
 221:settings.c    ****         if (int_value < 3) { return(STATUS_SETTING_STEP_PULSE_MIN); }
 715              		.loc 1 221 0
 716 00be 0228     		cmp	r0, #2
 717 00c0 40F2BD80 		bls	.L86
 222:settings.c    ****         settings.pulse_microseconds = int_value; break;
 718              		.loc 1 222 0
 719 00c4 604B     		ldr	r3, .L89
 720 00c6 83F83000 		strb	r0, [r3, #48]
 721 00ca ACE0     		b	.L45
 722              	.L54:
 223:settings.c    ****       case 1: settings.stepper_idle_lock_time = int_value; break;
 723              		.loc 1 223 0
 724 00cc 5E4B     		ldr	r3, .L89
 725 00ce 83F83300 		strb	r0, [r3, #51]
 726 00d2 A8E0     		b	.L45
 727              	.L55:
 224:settings.c    ****       case 2: 
 225:settings.c    ****         settings.step_invert_mask = int_value; 
 728              		.loc 1 225 0
 729 00d4 5C4B     		ldr	r3, .L89
 730 00d6 83F83100 		strb	r0, [r3, #49]
 226:settings.c    ****         st_generate_step_dir_invert_masks(); // Regenerate step and direction port invert masks.
 731              		.loc 1 226 0
 732 00da FFF7FEFF 		bl	st_generate_step_dir_invert_masks
 733              	.LVL79:
 227:settings.c    ****         break;
 734              		.loc 1 227 0
 735 00de A2E0     		b	.L45
 736              	.LVL80:
 737              	.L56:
 228:settings.c    ****       case 3: 
 229:settings.c    ****         settings.dir_invert_mask = int_value; 
 738              		.loc 1 229 0
 739 00e0 594B     		ldr	r3, .L89
ARM GAS  C:\Users\Bart\AppData\Local\Temp\ccdZapHm.s 			page 18


 740 00e2 83F83200 		strb	r0, [r3, #50]
 230:settings.c    ****         st_generate_step_dir_invert_masks(); // Regenerate step and direction port invert masks.
 741              		.loc 1 230 0
 742 00e6 FFF7FEFF 		bl	st_generate_step_dir_invert_masks
 743              	.LVL81:
 231:settings.c    ****         break;
 744              		.loc 1 231 0
 745 00ea 9CE0     		b	.L45
 746              	.LVL82:
 747              	.L57:
 232:settings.c    ****       case 4: // Reset to ensure change. Immediate re-init may cause problems.
 233:settings.c    ****         if (int_value) { settings.flags |= BITFLAG_INVERT_ST_ENABLE; }
 748              		.loc 1 233 0
 749 00ec 38B1     		cbz	r0, .L74
 750              		.loc 1 233 0 is_stmt 0 discriminator 1
 751 00ee 564A     		ldr	r2, .L89
 752 00f0 92F84830 		ldrb	r3, [r2, #72]	@ zero_extendqisi2
 753 00f4 43F00403 		orr	r3, r3, #4
 754 00f8 82F84830 		strb	r3, [r2, #72]
 755 00fc 93E0     		b	.L45
 756              	.L74:
 234:settings.c    ****         else { settings.flags &= ~BITFLAG_INVERT_ST_ENABLE; }
 757              		.loc 1 234 0 is_stmt 1
 758 00fe 524A     		ldr	r2, .L89
 759 0100 92F84830 		ldrb	r3, [r2, #72]	@ zero_extendqisi2
 760 0104 23F00403 		bic	r3, r3, #4
 761 0108 82F84830 		strb	r3, [r2, #72]
 762 010c 8BE0     		b	.L45
 763              	.L58:
 235:settings.c    ****         break;
 236:settings.c    ****       case 5: // Reset to ensure change. Immediate re-init may cause problems.
 237:settings.c    ****         if (int_value) { settings.flags |= BITFLAG_INVERT_LIMIT_PINS; }
 764              		.loc 1 237 0
 765 010e 38B1     		cbz	r0, .L75
 766              		.loc 1 237 0 is_stmt 0 discriminator 1
 767 0110 4D4A     		ldr	r2, .L89
 768 0112 92F84830 		ldrb	r3, [r2, #72]	@ zero_extendqisi2
 769 0116 43F04003 		orr	r3, r3, #64
 770 011a 82F84830 		strb	r3, [r2, #72]
 771 011e 82E0     		b	.L45
 772              	.L75:
 238:settings.c    ****         else { settings.flags &= ~BITFLAG_INVERT_LIMIT_PINS; }
 773              		.loc 1 238 0 is_stmt 1
 774 0120 494A     		ldr	r2, .L89
 775 0122 92F84830 		ldrb	r3, [r2, #72]	@ zero_extendqisi2
 776 0126 23F04003 		bic	r3, r3, #64
 777 012a 82F84830 		strb	r3, [r2, #72]
 778 012e 7AE0     		b	.L45
 779              	.L59:
 239:settings.c    ****         break;
 240:settings.c    ****       case 6: // Reset to ensure change. Immediate re-init may cause problems.
 241:settings.c    ****         if (int_value) { settings.flags |= BITFLAG_INVERT_PROBE_PIN; }
 780              		.loc 1 241 0
 781 0130 38B1     		cbz	r0, .L76
 782              		.loc 1 241 0 is_stmt 0 discriminator 1
 783 0132 454A     		ldr	r2, .L89
 784 0134 92F84830 		ldrb	r3, [r2, #72]	@ zero_extendqisi2
ARM GAS  C:\Users\Bart\AppData\Local\Temp\ccdZapHm.s 			page 19


 785 0138 63F07F03 		orn	r3, r3, #127
 786 013c 82F84830 		strb	r3, [r2, #72]
 787 0140 71E0     		b	.L45
 788              	.L76:
 242:settings.c    ****         else { settings.flags &= ~BITFLAG_INVERT_PROBE_PIN; }
 789              		.loc 1 242 0 is_stmt 1
 790 0142 414A     		ldr	r2, .L89
 791 0144 92F84830 		ldrb	r3, [r2, #72]	@ zero_extendqisi2
 792 0148 03F07F03 		and	r3, r3, #127
 793 014c 82F84830 		strb	r3, [r2, #72]
 794 0150 69E0     		b	.L45
 795              	.L60:
 243:settings.c    ****         break;
 244:settings.c    ****       case 10: settings.status_report_mask = int_value; break;
 796              		.loc 1 244 0
 797 0152 3D4B     		ldr	r3, .L89
 798 0154 83F83400 		strb	r0, [r3, #52]
 799 0158 65E0     		b	.L45
 800              	.L61:
 245:settings.c    ****       case 11: settings.junction_deviation = value; break;
 801              		.loc 1 245 0
 802 015a 3B4B     		ldr	r3, .L89
 803 015c 9D63     		str	r5, [r3, #56]	@ float
 804 015e 62E0     		b	.L45
 805              	.L62:
 246:settings.c    ****       case 12: settings.arc_tolerance = value; break;
 806              		.loc 1 246 0
 807 0160 394B     		ldr	r3, .L89
 808 0162 DD63     		str	r5, [r3, #60]	@ float
 809 0164 5FE0     		b	.L45
 810              	.L63:
 247:settings.c    ****       case 13:
 248:settings.c    ****         if (int_value) { settings.flags |= BITFLAG_REPORT_INCHES; }
 811              		.loc 1 248 0
 812 0166 38B1     		cbz	r0, .L77
 813              		.loc 1 248 0 is_stmt 0 discriminator 1
 814 0168 374A     		ldr	r2, .L89
 815 016a 92F84830 		ldrb	r3, [r2, #72]	@ zero_extendqisi2
 816 016e 43F00103 		orr	r3, r3, #1
 817 0172 82F84830 		strb	r3, [r2, #72]
 818 0176 56E0     		b	.L45
 819              	.L77:
 249:settings.c    ****         else { settings.flags &= ~BITFLAG_REPORT_INCHES; }
 820              		.loc 1 249 0 is_stmt 1
 821 0178 334A     		ldr	r2, .L89
 822 017a 92F84830 		ldrb	r3, [r2, #72]	@ zero_extendqisi2
 823 017e 23F00103 		bic	r3, r3, #1
 824 0182 82F84830 		strb	r3, [r2, #72]
 825 0186 4EE0     		b	.L45
 826              	.L64:
 250:settings.c    ****         break;
 251:settings.c    ****       case 20:
 252:settings.c    ****         if (int_value) { 
 827              		.loc 1 252 0
 828 0188 58B1     		cbz	r0, .L78
 253:settings.c    ****           if (bit_isfalse(settings.flags, BITFLAG_HOMING_ENABLE)) { return(STATUS_SOFT_LIMIT_ERROR)
 829              		.loc 1 253 0
ARM GAS  C:\Users\Bart\AppData\Local\Temp\ccdZapHm.s 			page 20


 830 018a 2F4B     		ldr	r3, .L89
 831 018c 93F84830 		ldrb	r3, [r3, #72]	@ zero_extendqisi2
 832 0190 13F0100F 		tst	r3, #16
 833 0194 55D0     		beq	.L87
 254:settings.c    ****           settings.flags |= BITFLAG_SOFT_LIMIT_ENABLE; 
 834              		.loc 1 254 0
 835 0196 43F02003 		orr	r3, r3, #32
 836 019a 2B4A     		ldr	r2, .L89
 837 019c 82F84830 		strb	r3, [r2, #72]
 838 01a0 41E0     		b	.L45
 839              	.L78:
 255:settings.c    ****         } else { settings.flags &= ~BITFLAG_SOFT_LIMIT_ENABLE; }
 840              		.loc 1 255 0
 841 01a2 294A     		ldr	r2, .L89
 842 01a4 92F84830 		ldrb	r3, [r2, #72]	@ zero_extendqisi2
 843 01a8 23F02003 		bic	r3, r3, #32
 844 01ac 82F84830 		strb	r3, [r2, #72]
 845 01b0 39E0     		b	.L45
 846              	.L65:
 256:settings.c    ****         break;
 257:settings.c    ****       case 21:
 258:settings.c    ****         if (int_value) { settings.flags |= BITFLAG_HARD_LIMIT_ENABLE; }
 847              		.loc 1 258 0
 848 01b2 38B1     		cbz	r0, .L79
 849              		.loc 1 258 0 is_stmt 0 discriminator 1
 850 01b4 244A     		ldr	r2, .L89
 851 01b6 92F84830 		ldrb	r3, [r2, #72]	@ zero_extendqisi2
 852 01ba 43F00803 		orr	r3, r3, #8
 853 01be 82F84830 		strb	r3, [r2, #72]
 854 01c2 06E0     		b	.L80
 855              	.L79:
 259:settings.c    ****         else { settings.flags &= ~BITFLAG_HARD_LIMIT_ENABLE; }
 856              		.loc 1 259 0 is_stmt 1
 857 01c4 204A     		ldr	r2, .L89
 858 01c6 92F84830 		ldrb	r3, [r2, #72]	@ zero_extendqisi2
 859 01ca 23F00803 		bic	r3, r3, #8
 860 01ce 82F84830 		strb	r3, [r2, #72]
 861              	.L80:
 260:settings.c    ****         limits_init(); // Re-init to immediately change. NOTE: Nice to have but could be problemati
 862              		.loc 1 260 0
 863 01d2 FFF7FEFF 		bl	limits_init
 864              	.LVL83:
 261:settings.c    ****         break;
 865              		.loc 1 261 0
 866 01d6 26E0     		b	.L45
 867              	.LVL84:
 868              	.L66:
 262:settings.c    ****       case 22:
 263:settings.c    ****         if (int_value) { settings.flags |= BITFLAG_HOMING_ENABLE; }
 869              		.loc 1 263 0
 870 01d8 38B1     		cbz	r0, .L81
 871              		.loc 1 263 0 is_stmt 0 discriminator 1
 872 01da 1B4A     		ldr	r2, .L89
 873 01dc 92F84830 		ldrb	r3, [r2, #72]	@ zero_extendqisi2
 874 01e0 43F01003 		orr	r3, r3, #16
 875 01e4 82F84830 		strb	r3, [r2, #72]
 876 01e8 1DE0     		b	.L45
ARM GAS  C:\Users\Bart\AppData\Local\Temp\ccdZapHm.s 			page 21


 877              	.L81:
 264:settings.c    ****         else { 
 265:settings.c    ****           settings.flags &= ~BITFLAG_HOMING_ENABLE; 
 878              		.loc 1 265 0 is_stmt 1
 879 01ea 174A     		ldr	r2, .L89
 880 01ec 92F84830 		ldrb	r3, [r2, #72]	@ zero_extendqisi2
 266:settings.c    ****           settings.flags &= ~BITFLAG_SOFT_LIMIT_ENABLE; // Force disable soft-limits.
 881              		.loc 1 266 0
 882 01f0 03F0CF03 		and	r3, r3, #207
 883 01f4 82F84830 		strb	r3, [r2, #72]
 884 01f8 15E0     		b	.L45
 885              	.L67:
 267:settings.c    ****         }
 268:settings.c    ****         break;
 269:settings.c    ****       case 23: settings.homing_dir_mask = int_value; break;
 886              		.loc 1 269 0
 887 01fa 134B     		ldr	r3, .L89
 888 01fc 83F84900 		strb	r0, [r3, #73]
 889 0200 11E0     		b	.L45
 890              	.L68:
 270:settings.c    ****       case 24: settings.homing_feed_rate = value; break;
 891              		.loc 1 270 0
 892 0202 114B     		ldr	r3, .L89
 893 0204 DD64     		str	r5, [r3, #76]	@ float
 894 0206 0EE0     		b	.L45
 895              	.L69:
 271:settings.c    ****       case 25: settings.homing_seek_rate = value; break;
 896              		.loc 1 271 0
 897 0208 0F4B     		ldr	r3, .L89
 898 020a 1D65     		str	r5, [r3, #80]	@ float
 899 020c 0BE0     		b	.L45
 900              	.L70:
 272:settings.c    ****       case 26: settings.homing_debounce_delay = int_value; break;
 901              		.loc 1 272 0
 902 020e 0E4B     		ldr	r3, .L89
 903 0210 A3F85400 		strh	r0, [r3, #84]	@ movhi
 904 0214 07E0     		b	.L45
 905              	.L71:
 273:settings.c    ****       case 27: settings.homing_pulloff = value; break;
 906              		.loc 1 273 0
 907 0216 0C4B     		ldr	r3, .L89
 908 0218 9D65     		str	r5, [r3, #88]	@ float
 909 021a 04E0     		b	.L45
 910              	.L72:
 274:settings.c    ****       case 30: settings.rpm_max = value; break;
 911              		.loc 1 274 0
 912 021c 0A4B     		ldr	r3, .L89
 913 021e 1D64     		str	r5, [r3, #64]	@ float
 914 0220 01E0     		b	.L45
 915              	.L73:
 275:settings.c    ****       case 31: settings.rpm_min = value; break;
 916              		.loc 1 275 0
 917 0222 094B     		ldr	r3, .L89
 918 0224 5D64     		str	r5, [r3, #68]	@ float
 919              	.LVL85:
 920              	.L45:
 921              	.LBE4:
ARM GAS  C:\Users\Bart\AppData\Local\Temp\ccdZapHm.s 			page 22


 276:settings.c    ****       default: 
 277:settings.c    ****         return(STATUS_INVALID_STATEMENT);
 278:settings.c    ****     }
 279:settings.c    ****   }
 280:settings.c    ****   write_global_settings();
 922              		.loc 1 280 0
 923 0226 FFF7FEFF 		bl	write_global_settings
 924              	.LVL86:
 281:settings.c    ****   return(STATUS_OK);
 925              		.loc 1 281 0
 926 022a 0020     		movs	r0, #0
 927 022c 38BD     		pop	{r3, r4, r5, pc}
 928              	.LVL87:
 929              	.L82:
 183:settings.c    ****   if (parameter >= AXIS_SETTINGS_START_VAL) {
 930              		.loc 1 183 0
 931 022e 0420     		movs	r0, #4
 932 0230 38BD     		pop	{r3, r4, r5, pc}
 933              	.LVL88:
 934              	.L83:
 935              	.LBB5:
 212:settings.c    ****         parameter -= AXIS_SETTINGS_INCREMENT;
 936              		.loc 1 212 0
 937 0232 0320     		movs	r0, #3
 938 0234 38BD     		pop	{r3, r4, r5, pc}
 939              	.LVL89:
 940              	.L84:
 941 0236 0320     		movs	r0, #3
 942 0238 38BD     		pop	{r3, r4, r5, pc}
 943              	.LVL90:
 944              	.L85:
 945              	.LBE5:
 946              	.LBB6:
 277:settings.c    ****     }
 947              		.loc 1 277 0
 948 023a 0320     		movs	r0, #3
 949              	.LVL91:
 950 023c 38BD     		pop	{r3, r4, r5, pc}
 951              	.LVL92:
 952              	.L86:
 221:settings.c    ****         settings.pulse_microseconds = int_value; break;
 953              		.loc 1 221 0
 954 023e 0620     		movs	r0, #6
 955              	.LVL93:
 956 0240 38BD     		pop	{r3, r4, r5, pc}
 957              	.LVL94:
 958              	.L87:
 253:settings.c    ****           settings.flags |= BITFLAG_SOFT_LIMIT_ENABLE; 
 959              		.loc 1 253 0
 960 0242 0A20     		movs	r0, #10
 961              	.LVL95:
 962              	.LBE6:
 282:settings.c    **** }
 963              		.loc 1 282 0
 964 0244 38BD     		pop	{r3, r4, r5, pc}
 965              	.LVL96:
 966              	.L90:
ARM GAS  C:\Users\Bart\AppData\Local\Temp\ccdZapHm.s 			page 23


 967 0246 00BF     		.align	2
 968              	.L89:
 969 0248 00000000 		.word	settings
 970 024c 00007042 		.word	1114636288
 971              		.cfi_endproc
 972              	.LFE72:
 973              		.size	settings_store_global_setting, .-settings_store_global_setting
 974              		.section	.text.settings_init,"ax",%progbits
 975              		.align	2
 976              		.global	settings_init
 977              		.thumb
 978              		.thumb_func
 979              		.type	settings_init, %function
 980              	settings_init:
 981              	.LFB73:
 283:settings.c    **** 
 284:settings.c    **** 
 285:settings.c    **** // Initialize the config subsystem
 286:settings.c    **** void settings_init() {
 982              		.loc 1 286 0
 983              		.cfi_startproc
 984              		@ args = 0, pretend = 0, frame = 0
 985              		@ frame_needed = 0, uses_anonymous_args = 0
 986 0000 08B5     		push	{r3, lr}
 987              		.cfi_def_cfa_offset 8
 988              		.cfi_offset 3, -8
 989              		.cfi_offset 14, -4
 287:settings.c    ****     
 288:settings.c    ****   EEPROM_PSoC_Start();  
 990              		.loc 1 288 0
 991 0002 FFF7FEFF 		bl	EEPROM_PSoC_Start
 992              	.LVL97:
 289:settings.c    ****     
 290:settings.c    ****   if(!read_global_settings()) {
 993              		.loc 1 290 0
 994 0006 FFF7FEFF 		bl	read_global_settings
 995              	.LVL98:
 996 000a 38B9     		cbnz	r0, .L91
 291:settings.c    ****     report_status_message(STATUS_SETTING_READ_FAIL);
 997              		.loc 1 291 0
 998 000c 0720     		movs	r0, #7
 999 000e FFF7FEFF 		bl	report_status_message
 1000              	.LVL99:
 292:settings.c    ****     settings_restore(SETTINGS_RESTORE_ALL); // Force restore all EEPROM data.
 1001              		.loc 1 292 0
 1002 0012 FF20     		movs	r0, #255
 1003 0014 FFF7FEFF 		bl	settings_restore
 1004              	.LVL100:
 293:settings.c    ****     report_grbl_settings();
 1005              		.loc 1 293 0
 1006 0018 FFF7FEFF 		bl	report_grbl_settings
 1007              	.LVL101:
 1008              	.L91:
 1009 001c 08BD     		pop	{r3, pc}
 1010              		.cfi_endproc
 1011              	.LFE73:
 1012              		.size	settings_init, .-settings_init
ARM GAS  C:\Users\Bart\AppData\Local\Temp\ccdZapHm.s 			page 24


 1013 001e 00BF     		.section	.text.get_step_pin_mask,"ax",%progbits
 1014              		.align	2
 1015              		.global	get_step_pin_mask
 1016              		.thumb
 1017              		.thumb_func
 1018              		.type	get_step_pin_mask, %function
 1019              	get_step_pin_mask:
 1020              	.LFB74:
 294:settings.c    ****   }
 295:settings.c    **** 
 296:settings.c    ****   // NOTE: Checking paramater data, startup lines, and build info string should be done here, 
 297:settings.c    ****   // but it seems fairly redundant. Each of these can be manually checked and reset or restored.
 298:settings.c    ****   // Check all parameter data into a dummy variable. If error, reset to zero, otherwise do nothing.
 299:settings.c    ****   // float coord_data[N_AXIS];
 300:settings.c    ****   // uint8_t i;
 301:settings.c    ****   // for (i=0; i<=SETTING_INDEX_NCOORD; i++) {
 302:settings.c    ****   //   if (!settings_read_coord_data(i, coord_data)) {
 303:settings.c    ****   // 	report_status_message(STATUS_SETTING_READ_FAIL);
 304:settings.c    ****   //   }
 305:settings.c    ****   // }
 306:settings.c    ****   // NOTE: Startup lines are checked and executed by protocol_main_loop at the end of initializatio
 307:settings.c    **** }
 308:settings.c    **** 
 309:settings.c    **** 
 310:settings.c    **** // Returns step pin mask according to Grbl internal axis indexing.
 311:settings.c    **** uint8_t get_step_pin_mask(uint8_t axis_idx)
 312:settings.c    **** {
 1021              		.loc 1 312 0
 1022              		.cfi_startproc
 1023              		@ args = 0, pretend = 0, frame = 0
 1024              		@ frame_needed = 0, uses_anonymous_args = 0
 1025              		@ link register save eliminated.
 1026              	.LVL102:
 313:settings.c    ****   if ( axis_idx == X_AXIS ) { return((1<<X_STEP_BIT)); }
 1027              		.loc 1 313 0
 1028 0000 18B1     		cbz	r0, .L96
 314:settings.c    ****   if ( axis_idx == Y_AXIS ) { return((1<<Y_STEP_BIT)); }
 1029              		.loc 1 314 0
 1030 0002 0128     		cmp	r0, #1
 1031 0004 03D1     		bne	.L97
 1032 0006 0220     		movs	r0, #2
 1033              	.LVL103:
 1034 0008 7047     		bx	lr
 1035              	.LVL104:
 1036              	.L96:
 313:settings.c    ****   if ( axis_idx == X_AXIS ) { return((1<<X_STEP_BIT)); }
 1037              		.loc 1 313 0
 1038 000a 0120     		movs	r0, #1
 1039              	.LVL105:
 1040 000c 7047     		bx	lr
 1041              	.LVL106:
 1042              	.L97:
 315:settings.c    ****   return((1<<Z_STEP_BIT));
 1043              		.loc 1 315 0
 1044 000e 0420     		movs	r0, #4
 1045              	.LVL107:
 316:settings.c    **** }
ARM GAS  C:\Users\Bart\AppData\Local\Temp\ccdZapHm.s 			page 25


 1046              		.loc 1 316 0
 1047 0010 7047     		bx	lr
 1048              		.cfi_endproc
 1049              	.LFE74:
 1050              		.size	get_step_pin_mask, .-get_step_pin_mask
 1051 0012 00BF     		.section	.text.get_direction_pin_mask,"ax",%progbits
 1052              		.align	2
 1053              		.global	get_direction_pin_mask
 1054              		.thumb
 1055              		.thumb_func
 1056              		.type	get_direction_pin_mask, %function
 1057              	get_direction_pin_mask:
 1058              	.LFB75:
 317:settings.c    **** 
 318:settings.c    **** 
 319:settings.c    **** // Returns direction pin mask according to Grbl internal axis indexing.
 320:settings.c    **** uint8_t get_direction_pin_mask(uint8_t axis_idx)
 321:settings.c    **** {
 1059              		.loc 1 321 0
 1060              		.cfi_startproc
 1061              		@ args = 0, pretend = 0, frame = 0
 1062              		@ frame_needed = 0, uses_anonymous_args = 0
 1063              		@ link register save eliminated.
 1064              	.LVL108:
 322:settings.c    ****   if ( axis_idx == X_AXIS ) { return((1<<X_DIRECTION_BIT)); }
 1065              		.loc 1 322 0
 1066 0000 18B1     		cbz	r0, .L100
 323:settings.c    ****   if ( axis_idx == Y_AXIS ) { return((1<<Y_DIRECTION_BIT)); }
 1067              		.loc 1 323 0
 1068 0002 0128     		cmp	r0, #1
 1069 0004 03D1     		bne	.L101
 1070 0006 0220     		movs	r0, #2
 1071              	.LVL109:
 1072 0008 7047     		bx	lr
 1073              	.LVL110:
 1074              	.L100:
 322:settings.c    ****   if ( axis_idx == X_AXIS ) { return((1<<X_DIRECTION_BIT)); }
 1075              		.loc 1 322 0
 1076 000a 0120     		movs	r0, #1
 1077              	.LVL111:
 1078 000c 7047     		bx	lr
 1079              	.LVL112:
 1080              	.L101:
 324:settings.c    ****   return((1<<Z_DIRECTION_BIT));
 1081              		.loc 1 324 0
 1082 000e 0420     		movs	r0, #4
 1083              	.LVL113:
 325:settings.c    ****     //return axis_idx;
 326:settings.c    **** }
 1084              		.loc 1 326 0
 1085 0010 7047     		bx	lr
 1086              		.cfi_endproc
 1087              	.LFE75:
 1088              		.size	get_direction_pin_mask, .-get_direction_pin_mask
 1089 0012 00BF     		.section	.text.get_limit_pin_mask,"ax",%progbits
 1090              		.align	2
 1091              		.global	get_limit_pin_mask
ARM GAS  C:\Users\Bart\AppData\Local\Temp\ccdZapHm.s 			page 26


 1092              		.thumb
 1093              		.thumb_func
 1094              		.type	get_limit_pin_mask, %function
 1095              	get_limit_pin_mask:
 1096              	.LFB76:
 327:settings.c    **** 
 328:settings.c    **** 
 329:settings.c    **** // Returns limit pin mask according to Grbl internal axis indexing.
 330:settings.c    **** uint8_t get_limit_pin_mask(uint8_t axis_idx)
 331:settings.c    **** {
 1097              		.loc 1 331 0
 1098              		.cfi_startproc
 1099              		@ args = 0, pretend = 0, frame = 0
 1100              		@ frame_needed = 0, uses_anonymous_args = 0
 1101              		@ link register save eliminated.
 1102              	.LVL114:
 332:settings.c    ****   //if ( axis_idx == X_AXIS ) { return((1<<X_LIMIT_BIT)); }
 333:settings.c    ****   //if ( axis_idx == Y_AXIS ) { return((1<<Y_LIMIT_BIT)); }
 334:settings.c    ****   //return((1<<Z_LIMIT_BIT));
 335:settings.c    ****     return axis_idx;
 336:settings.c    **** }
 1103              		.loc 1 336 0
 1104 0000 7047     		bx	lr
 1105              		.cfi_endproc
 1106              	.LFE76:
 1107              		.size	get_limit_pin_mask, .-get_limit_pin_mask
 1108              		.comm	settings,92,4
 1109              		.comm	exec_lcd_status,1,1
 1110              		.comm	sys_rt_exec_debug,1,1
 1111              		.comm	sys_rt_exec_accessory_override,1,1
 1112              		.comm	sys_rt_exec_motion_override,1,1
 1113              		.comm	sys_rt_exec_alarm,1,1
 1114              		.comm	sys_rt_exec_state,1,1
 1115              		.comm	sys_probe_state,1,1
 1116              		.comm	sys_probe_position,12,4
 1117              		.comm	sys_position,12,4
 1118 0002 00BF     		.text
 1119              	.Letext0:
 1120              		.file 2 "d:\\program files (x86)\\cypress\\psoc creator\\4.0\\psoc creator\\import\\gnu\\arm\\4.9.
 1121              		.file 3 "d:\\program files (x86)\\cypress\\psoc creator\\4.0\\psoc creator\\import\\gnu\\arm\\4.9.
 1122              		.file 4 "settings.h"
 1123              		.file 5 "Generated_Source\\PSoC5/core_cm3.h"
 1124              		.file 6 "system.h"
 1125              		.file 7 "lcd_report.h"
 1126              		.file 8 "eeprom.h"
 1127              		.file 9 "d:\\program files (x86)\\cypress\\psoc creator\\4.0\\psoc creator\\import\\gnu\\arm\\4.9.
 1128              		.file 10 "stepper.h"
 1129              		.file 11 "./limits.h"
 1130              		.file 12 "report.h"
 1131              		.file 13 "Generated_Source\\PSoC5/EEPROM_PSoC.h"