ARM GAS  C:\Users\Bart\AppData\Local\Temp\ccCnmSxU.s 			page 1


   1              		.syntax unified
   2              		.cpu cortex-m3
   3              		.fpu softvfp
   4              		.eabi_attribute 20, 1
   5              		.eabi_attribute 21, 1
   6              		.eabi_attribute 23, 3
   7              		.eabi_attribute 24, 1
   8              		.eabi_attribute 25, 1
   9              		.eabi_attribute 26, 1
  10              		.eabi_attribute 30, 1
  11              		.eabi_attribute 34, 1
  12              		.eabi_attribute 18, 4
  13              		.thumb
  14              		.file	"spindle_control.c"
  15              		.text
  16              	.Ltext0:
  17              		.cfi_sections	.debug_frame
  18              		.section	.text.spindle_get_state,"ax",%progbits
  19              		.align	2
  20              		.global	spindle_get_state
  21              		.thumb
  22              		.thumb_func
  23              		.type	spindle_get_state, %function
  24              	spindle_get_state:
  25              	.LFB64:
  26              		.file 1 "spindle_control.c"
   1:spindle_control.c **** /*
   2:spindle_control.c ****   spindle_control.c - spindle control methods
   3:spindle_control.c ****   Part of Grbl
   4:spindle_control.c **** 
   5:spindle_control.c ****   Copyright (c) 2012-2016 Sungeun K. Jeon for Gnea Research LLC
   6:spindle_control.c ****   Copyright (c) 2009-2011 Simen Svale Skogsrud
   7:spindle_control.c **** 
   8:spindle_control.c ****   Grbl is free software: you can redistribute it and/or modify
   9:spindle_control.c ****   it under the terms of the GNU General Public License as published by
  10:spindle_control.c ****   the Free Software Foundation, either version 3 of the License, or
  11:spindle_control.c ****   (at your option) any later version.
  12:spindle_control.c **** 
  13:spindle_control.c ****   Grbl is distributed in the hope that it will be useful,
  14:spindle_control.c ****   but WITHOUT ANY WARRANTY; without even the implied warranty of
  15:spindle_control.c ****   MERCHANTABILITY or FITNESS FOR A PARTICULAR PURPOSE.  See the
  16:spindle_control.c ****   GNU General Public License for more details.
  17:spindle_control.c **** 
  18:spindle_control.c ****   You should have received a copy of the GNU General Public License
  19:spindle_control.c ****   along with Grbl.  If not, see <http://www.gnu.org/licenses/>.
  20:spindle_control.c **** */
  21:spindle_control.c **** 
  22:spindle_control.c **** #include "grbl.h"
  23:spindle_control.c **** 
  24:spindle_control.c **** 
  25:spindle_control.c **** #ifdef VARIABLE_SPINDLE
  26:spindle_control.c ****   static float pwm_gradient; // Precalulated value to speed up rpm to PWM conversions.
  27:spindle_control.c **** #endif
  28:spindle_control.c **** 
  29:spindle_control.c **** // PSoc Rewrite
  30:spindle_control.c **** void spindle_init()
  31:spindle_control.c **** {
ARM GAS  C:\Users\Bart\AppData\Local\Temp\ccCnmSxU.s 			page 2


  32:spindle_control.c ****   #ifdef VARIABLE_SPINDLE
  33:spindle_control.c **** 
  34:spindle_control.c ****     PWM_Spindle_Start();
  35:spindle_control.c **** 
  36:spindle_control.c ****   #else
  37:spindle_control.c **** 
  38:spindle_control.c ****     // Configure no variable spindle and only enable pin.
  39:spindle_control.c ****     // TO DO Unsupported PSoC option right now
  40:spindle_control.c **** 
  41:spindle_control.c ****   #endif
  42:spindle_control.c **** 
  43:spindle_control.c ****   spindle_stop();
  44:spindle_control.c **** }
  45:spindle_control.c **** 
  46:spindle_control.c **** 
  47:spindle_control.c **** uint8_t spindle_get_state()
  48:spindle_control.c **** {
  27              		.loc 1 48 0
  28              		.cfi_startproc
  29              		@ args = 0, pretend = 0, frame = 0
  30              		@ frame_needed = 0, uses_anonymous_args = 0
  31 0000 08B5     		push	{r3, lr}
  32              		.cfi_def_cfa_offset 8
  33              		.cfi_offset 3, -8
  34              		.cfi_offset 14, -4
  49:spindle_control.c **** 	#ifdef VARIABLE_SPINDLE
  50:spindle_control.c ****     #ifdef USE_SPINDLE_DIR_AS_ENABLE_PIN
  51:spindle_control.c **** 		  // Not Supported in PSoC Yet
  52:spindle_control.c ****     #else
  53:spindle_control.c ****       
  54:spindle_control.c ****       if (Pin_Spindle_Enable_Read()) 
  35              		.loc 1 54 0
  36 0002 FFF7FEFF 		bl	Pin_Spindle_Enable_Read
  37              	.LVL0:
  38 0006 0346     		mov	r3, r0
  39 0008 28B1     		cbz	r0, .L2
  55:spindle_control.c ****       { // Check if PWM is enabled.
  56:spindle_control.c ****         if (Pin_Spindle_Direction_Read())
  40              		.loc 1 56 0
  41 000a FFF7FEFF 		bl	Pin_Spindle_Direction_Read
  42              	.LVL1:
  43 000e 08B1     		cbz	r0, .L3
  57:spindle_control.c ****           { return(SPINDLE_STATE_CCW); }
  44              		.loc 1 57 0
  45 0010 0223     		movs	r3, #2
  46 0012 00E0     		b	.L2
  47              	.L3:
  58:spindle_control.c ****         else 
  59:spindle_control.c ****           { return(SPINDLE_STATE_CW); }
  48              		.loc 1 59 0
  49 0014 0123     		movs	r3, #1
  50              	.L2:
  60:spindle_control.c ****       }
  61:spindle_control.c ****     #endif
  62:spindle_control.c **** 	#else
  63:spindle_control.c **** 		// Not Supported in PSoC Yet
  64:spindle_control.c **** 	#endif
ARM GAS  C:\Users\Bart\AppData\Local\Temp\ccCnmSxU.s 			page 3


  65:spindle_control.c **** 	return(SPINDLE_STATE_DISABLE);
  66:spindle_control.c **** }
  51              		.loc 1 66 0
  52 0016 1846     		mov	r0, r3
  53 0018 08BD     		pop	{r3, pc}
  54              		.cfi_endproc
  55              	.LFE64:
  56              		.size	spindle_get_state, .-spindle_get_state
  57 001a 00BF     		.section	.text.spindle_stop,"ax",%progbits
  58              		.align	2
  59              		.global	spindle_stop
  60              		.thumb
  61              		.thumb_func
  62              		.type	spindle_stop, %function
  63              	spindle_stop:
  64              	.LFB65:
  67:spindle_control.c **** 
  68:spindle_control.c **** 
  69:spindle_control.c **** // Disables the spindle and sets PWM output to zero when PWM variable spindle speed is enabled.
  70:spindle_control.c **** // Called by various main program and ISR routines. Keep routine small, fast, and efficient.
  71:spindle_control.c **** // Called by spindle_init(), spindle_set_speed(), spindle_set_state(), and mc_reset().
  72:spindle_control.c ****       // PSoC rewrite
  73:spindle_control.c **** void spindle_stop()
  74:spindle_control.c **** {
  65              		.loc 1 74 0
  66              		.cfi_startproc
  67              		@ args = 0, pretend = 0, frame = 0
  68              		@ frame_needed = 0, uses_anonymous_args = 0
  69 0000 08B5     		push	{r3, lr}
  70              		.cfi_def_cfa_offset 8
  71              		.cfi_offset 3, -8
  72              		.cfi_offset 14, -4
  75:spindle_control.c ****   #ifdef VARIABLE_SPINDLE
  76:spindle_control.c ****     PWM_Spindle_WriteCompare(0);
  73              		.loc 1 76 0
  74 0002 0020     		movs	r0, #0
  75 0004 FFF7FEFF 		bl	PWM_Spindle_WriteCompare
  76              	.LVL2:
  77 0008 08BD     		pop	{r3, pc}
  78              		.cfi_endproc
  79              	.LFE65:
  80              		.size	spindle_stop, .-spindle_stop
  81 000a 00BF     		.section	.text.spindle_init,"ax",%progbits
  82              		.align	2
  83              		.global	spindle_init
  84              		.thumb
  85              		.thumb_func
  86              		.type	spindle_init, %function
  87              	spindle_init:
  88              	.LFB63:
  31:spindle_control.c ****   #ifdef VARIABLE_SPINDLE
  89              		.loc 1 31 0
  90              		.cfi_startproc
  91              		@ args = 0, pretend = 0, frame = 0
  92              		@ frame_needed = 0, uses_anonymous_args = 0
  93 0000 08B5     		push	{r3, lr}
  94              		.cfi_def_cfa_offset 8
ARM GAS  C:\Users\Bart\AppData\Local\Temp\ccCnmSxU.s 			page 4


  95              		.cfi_offset 3, -8
  96              		.cfi_offset 14, -4
  34:spindle_control.c **** 
  97              		.loc 1 34 0
  98 0002 FFF7FEFF 		bl	PWM_Spindle_Start
  99              	.LVL3:
  43:spindle_control.c **** }
 100              		.loc 1 43 0
 101 0006 FFF7FEFF 		bl	spindle_stop
 102              	.LVL4:
 103 000a 08BD     		pop	{r3, pc}
 104              		.cfi_endproc
 105              	.LFE63:
 106              		.size	spindle_init, .-spindle_init
 107              		.section	.text.spindle_set_speed,"ax",%progbits
 108              		.align	2
 109              		.global	spindle_set_speed
 110              		.thumb
 111              		.thumb_func
 112              		.type	spindle_set_speed, %function
 113              	spindle_set_speed:
 114              	.LFB66:
  77:spindle_control.c ****   #else
  78:spindle_control.c ****     // TO DO Unsupported in PSoC
  79:spindle_control.c ****   #endif
  80:spindle_control.c **** }
  81:spindle_control.c **** 
  82:spindle_control.c **** 
  83:spindle_control.c **** #ifdef VARIABLE_SPINDLE
  84:spindle_control.c ****   // Sets spindle speed PWM output and enable pin, if configured. Called by spindle_set_state()
  85:spindle_control.c ****   // and stepper ISR. Keep routine small and efficient.
  86:spindle_control.c ****   // PSoC Rewrite
  87:spindle_control.c ****   void spindle_set_speed(uint8_t pwm_value)
  88:spindle_control.c ****   {
 115              		.loc 1 88 0
 116              		.cfi_startproc
 117              		@ args = 0, pretend = 0, frame = 0
 118              		@ frame_needed = 0, uses_anonymous_args = 0
 119              	.LVL5:
 120 0000 08B5     		push	{r3, lr}
 121              		.cfi_def_cfa_offset 8
 122              		.cfi_offset 3, -8
 123              		.cfi_offset 14, -4
  89:spindle_control.c ****     PWM_Spindle_WriteCompare(pwm_value);
 124              		.loc 1 89 0
 125 0002 FFF7FEFF 		bl	PWM_Spindle_WriteCompare
 126              	.LVL6:
 127 0006 08BD     		pop	{r3, pc}
 128              		.cfi_endproc
 129              	.LFE66:
 130              		.size	spindle_set_speed, .-spindle_set_speed
 131              		.global	__aeabi_i2d
 132              		.global	__aeabi_dmul
 133              		.global	__aeabi_f2d
 134              		.global	__aeabi_d2f
 135              		.global	__aeabi_fcmpge
 136              		.global	__aeabi_fcmple
ARM GAS  C:\Users\Bart\AppData\Local\Temp\ccCnmSxU.s 			page 5


 137              		.global	__aeabi_fcmpeq
 138              		.global	__aeabi_fsub
 139              		.global	__aeabi_fmul
 140              		.global	__aeabi_dadd
 141              		.global	__aeabi_d2uiz
 142              		.section	.text.spindle_compute_pwm_value,"ax",%progbits
 143              		.align	2
 144              		.global	spindle_compute_pwm_value
 145              		.thumb
 146              		.thumb_func
 147              		.type	spindle_compute_pwm_value, %function
 148              	spindle_compute_pwm_value:
 149              	.LFB67:
  90:spindle_control.c ****   }
  91:spindle_control.c **** 
  92:spindle_control.c **** 
  93:spindle_control.c ****   // Called by spindle_set_state() and step segment generator. Keep routine small and efficient.
  94:spindle_control.c ****   uint8_t spindle_compute_pwm_value(float rpm) // 328p PWM register is 8-bit.
  95:spindle_control.c ****   {
 150              		.loc 1 95 0
 151              		.cfi_startproc
 152              		@ args = 0, pretend = 0, frame = 0
 153              		@ frame_needed = 0, uses_anonymous_args = 0
 154              	.LVL7:
 155 0000 70B5     		push	{r4, r5, r6, lr}
 156              		.cfi_def_cfa_offset 16
 157              		.cfi_offset 4, -16
 158              		.cfi_offset 5, -12
 159              		.cfi_offset 6, -8
 160              		.cfi_offset 14, -4
 161 0002 0646     		mov	r6, r0
  96:spindle_control.c ****     uint8_t pwm_value;
  97:spindle_control.c ****     rpm *= (0.010*sys.spindle_speed_ovr); // Scale by spindle speed override value.
 162              		.loc 1 97 0
 163 0004 284B     		ldr	r3, .L26+8
 164 0006 587A     		ldrb	r0, [r3, #9]	@ zero_extendqisi2
 165              	.LVL8:
 166 0008 FFF7FEFF 		bl	__aeabi_i2d
 167              	.LVL9:
 168 000c 24A3     		adr	r3, .L26
 169 000e D3E90023 		ldrd	r2, [r3]
 170 0012 FFF7FEFF 		bl	__aeabi_dmul
 171              	.LVL10:
 172 0016 0446     		mov	r4, r0
 173 0018 0D46     		mov	r5, r1
 174 001a 3046     		mov	r0, r6
 175 001c FFF7FEFF 		bl	__aeabi_f2d
 176              	.LVL11:
 177 0020 2246     		mov	r2, r4
 178 0022 2B46     		mov	r3, r5
 179 0024 FFF7FEFF 		bl	__aeabi_dmul
 180              	.LVL12:
 181 0028 FFF7FEFF 		bl	__aeabi_d2f
 182              	.LVL13:
 183 002c 0646     		mov	r6, r0
 184              	.LVL14:
  98:spindle_control.c ****     // Calculate PWM register value based on rpm max/min settings and programmed rpm.
ARM GAS  C:\Users\Bart\AppData\Local\Temp\ccCnmSxU.s 			page 6


  99:spindle_control.c ****     if ((settings.rpm_min >= settings.rpm_max) || (rpm >= settings.rpm_max)) {
 185              		.loc 1 99 0
 186 002e 1F4B     		ldr	r3, .L26+12
 187 0030 5D6C     		ldr	r5, [r3, #68]	@ float
 188 0032 1C6C     		ldr	r4, [r3, #64]	@ float
 189 0034 2846     		mov	r0, r5
 190              	.LVL15:
 191 0036 2146     		mov	r1, r4
 192 0038 FFF7FEFF 		bl	__aeabi_fcmpge
 193              	.LVL16:
 194 003c 20B9     		cbnz	r0, .L12
 195              		.loc 1 99 0 is_stmt 0 discriminator 1
 196 003e 3046     		mov	r0, r6
 197 0040 2146     		mov	r1, r4
 198 0042 FFF7FEFF 		bl	__aeabi_fcmpge
 199              	.LVL17:
 200 0046 18B1     		cbz	r0, .L22
 201              	.L12:
 100:spindle_control.c ****       // No PWM range possible. Set simple on/off spindle control pin state.
 101:spindle_control.c ****       sys.spindle_speed = settings.rpm_max;
 202              		.loc 1 101 0 is_stmt 1
 203 0048 174B     		ldr	r3, .L26+8
 204 004a 1C61     		str	r4, [r3, #16]	@ float
 205              	.LVL18:
 102:spindle_control.c ****       pwm_value = SPINDLE_PWM_MAX_VALUE;
 206              		.loc 1 102 0
 207 004c FF20     		movs	r0, #255
 208 004e 70BD     		pop	{r4, r5, r6, pc}
 209              	.LVL19:
 210              	.L22:
 103:spindle_control.c ****     } else if (rpm <= settings.rpm_min) {
 211              		.loc 1 103 0
 212 0050 3046     		mov	r0, r6
 213 0052 2946     		mov	r1, r5
 214 0054 FFF7FEFF 		bl	__aeabi_fcmple
 215              	.LVL20:
 216 0058 68B1     		cbz	r0, .L23
 104:spindle_control.c ****       if (rpm == 0.0) { // S0 disables spindle
 217              		.loc 1 104 0
 218 005a 3046     		mov	r0, r6
 219 005c 0021     		movs	r1, #0
 220 005e FFF7FEFF 		bl	__aeabi_fcmpeq
 221              	.LVL21:
 222 0062 20B1     		cbz	r0, .L24
 105:spindle_control.c ****         sys.spindle_speed = 0.0;
 223              		.loc 1 105 0
 224 0064 0022     		movs	r2, #0
 225 0066 104B     		ldr	r3, .L26+8
 226 0068 1A61     		str	r2, [r3, #16]	@ float
 227              	.LVL22:
 106:spindle_control.c ****         pwm_value = SPINDLE_PWM_OFF_VALUE;
 228              		.loc 1 106 0
 229 006a 0020     		movs	r0, #0
 230 006c 70BD     		pop	{r4, r5, r6, pc}
 231              	.LVL23:
 232              	.L24:
 107:spindle_control.c ****       } else { // Set minimum PWM output
ARM GAS  C:\Users\Bart\AppData\Local\Temp\ccCnmSxU.s 			page 7


 108:spindle_control.c ****         sys.spindle_speed = settings.rpm_min;
 233              		.loc 1 108 0
 234 006e 0E4B     		ldr	r3, .L26+8
 235 0070 1D61     		str	r5, [r3, #16]	@ float
 236              	.LVL24:
 109:spindle_control.c ****         pwm_value = SPINDLE_PWM_MIN_VALUE;
 237              		.loc 1 109 0
 238 0072 0120     		movs	r0, #1
 239 0074 70BD     		pop	{r4, r5, r6, pc}
 240              	.LVL25:
 241              	.L23:
 110:spindle_control.c ****       }
 111:spindle_control.c ****     } else { 
 112:spindle_control.c ****       // Compute intermediate PWM value with linear spindle speed model.
 113:spindle_control.c ****       // NOTE: A nonlinear model could be installed here, if required, but keep it VERY light-weigh
 114:spindle_control.c ****       sys.spindle_speed = rpm;
 242              		.loc 1 114 0
 243 0076 0C4B     		ldr	r3, .L26+8
 244 0078 1E61     		str	r6, [r3, #16]	@ float
 115:spindle_control.c ****       pwm_value = floor((rpm-settings.rpm_min)*pwm_gradient) + SPINDLE_PWM_MIN_VALUE;
 245              		.loc 1 115 0
 246 007a 3046     		mov	r0, r6
 247 007c 2946     		mov	r1, r5
 248 007e FFF7FEFF 		bl	__aeabi_fsub
 249              	.LVL26:
 250 0082 0021     		movs	r1, #0
 251 0084 FFF7FEFF 		bl	__aeabi_fmul
 252              	.LVL27:
 253 0088 FFF7FEFF 		bl	__aeabi_f2d
 254              	.LVL28:
 255 008c FFF7FEFF 		bl	floor
 256              	.LVL29:
 257 0090 0022     		movs	r2, #0
 258 0092 074B     		ldr	r3, .L26+16
 259 0094 FFF7FEFF 		bl	__aeabi_dadd
 260              	.LVL30:
 261 0098 FFF7FEFF 		bl	__aeabi_d2uiz
 262              	.LVL31:
 263 009c C0B2     		uxtb	r0, r0
 264              	.LVL32:
 116:spindle_control.c ****     }
 117:spindle_control.c ****     return(pwm_value);
 118:spindle_control.c ****   }
 265              		.loc 1 118 0
 266 009e 70BD     		pop	{r4, r5, r6, pc}
 267              	.LVL33:
 268              	.L27:
 269              		.align	3
 270              	.L26:
 271 00a0 7B14AE47 		.word	1202590843
 272 00a4 E17A843F 		.word	1065646817
 273 00a8 00000000 		.word	sys
 274 00ac 00000000 		.word	settings
 275 00b0 0000F03F 		.word	1072693248
 276              		.cfi_endproc
 277              	.LFE67:
 278              		.size	spindle_compute_pwm_value, .-spindle_compute_pwm_value
ARM GAS  C:\Users\Bart\AppData\Local\Temp\ccCnmSxU.s 			page 8


 279 00b4 AFF30080 		.section	.text.spindle_set_state,"ax",%progbits
 280              		.align	2
 281              		.global	spindle_set_state
 282              		.thumb
 283              		.thumb_func
 284              		.type	spindle_set_state, %function
 285              	spindle_set_state:
 286              	.LFB68:
 119:spindle_control.c **** #endif
 120:spindle_control.c **** 
 121:spindle_control.c **** 
 122:spindle_control.c **** // Immediately sets spindle running state with direction and spindle rpm via PWM, if enabled.
 123:spindle_control.c **** // Called by g-code parser spindle_sync(), parking retract and restore, g-code program end,
 124:spindle_control.c **** // sleep, and spindle stop override.
 125:spindle_control.c **** #ifdef VARIABLE_SPINDLE
 126:spindle_control.c ****   void spindle_set_state(uint8_t state, float rpm)
 127:spindle_control.c **** #else
 128:spindle_control.c ****   void _spindle_set_state(uint8_t state)
 129:spindle_control.c **** #endif
 130:spindle_control.c **** {
 287              		.loc 1 130 0
 288              		.cfi_startproc
 289              		@ args = 0, pretend = 0, frame = 0
 290              		@ frame_needed = 0, uses_anonymous_args = 0
 291              	.LVL34:
 292 0000 38B5     		push	{r3, r4, r5, lr}
 293              		.cfi_def_cfa_offset 16
 294              		.cfi_offset 3, -16
 295              		.cfi_offset 4, -12
 296              		.cfi_offset 5, -8
 297              		.cfi_offset 14, -4
 131:spindle_control.c ****   if (sys.abort) { return; } // Block during abort.
 298              		.loc 1 131 0
 299 0002 124B     		ldr	r3, .L35
 300 0004 5B78     		ldrb	r3, [r3, #1]	@ zero_extendqisi2
 301 0006 FBB9     		cbnz	r3, .L28
 302 0008 0446     		mov	r4, r0
 303 000a 0D46     		mov	r5, r1
 132:spindle_control.c ****   if (state == SPINDLE_DISABLE) { // Halt or set spindle direction and rpm.
 304              		.loc 1 132 0
 305 000c 28B9     		cbnz	r0, .L30
 133:spindle_control.c ****   
 134:spindle_control.c ****     #ifdef VARIABLE_SPINDLE
 135:spindle_control.c ****       sys.spindle_speed = 0.0;
 306              		.loc 1 135 0
 307 000e 0022     		movs	r2, #0
 308 0010 0E4B     		ldr	r3, .L35
 309 0012 1A61     		str	r2, [r3, #16]	@ float
 136:spindle_control.c ****     #endif
 137:spindle_control.c ****     spindle_stop();
 310              		.loc 1 137 0
 311 0014 FFF7FEFF 		bl	spindle_stop
 312              	.LVL35:
 313 0018 13E0     		b	.L31
 314              	.LVL36:
 315              	.L30:
 138:spindle_control.c ****   
ARM GAS  C:\Users\Bart\AppData\Local\Temp\ccCnmSxU.s 			page 9


 139:spindle_control.c ****   } else {
 140:spindle_control.c ****   
 141:spindle_control.c ****     #ifndef USE_SPINDLE_DIR_AS_ENABLE_PIN
 142:spindle_control.c ****       Pin_Spindle_Direction_Write(state == SPINDLE_ENABLE_CW);  // PSoC Rewrite       
 316              		.loc 1 142 0
 317 001a 1028     		cmp	r0, #16
 318 001c 14BF     		ite	ne
 319 001e 0020     		movne	r0, #0
 320              	.LVL37:
 321 0020 0120     		moveq	r0, #1
 322 0022 FFF7FEFF 		bl	Pin_Spindle_Direction_Write
 323              	.LVL38:
 143:spindle_control.c ****     #endif
 144:spindle_control.c ****   
 145:spindle_control.c ****     #ifdef VARIABLE_SPINDLE
 146:spindle_control.c ****       // NOTE: Assumes all calls to this function is when Grbl is not moving or must remain off.
 147:spindle_control.c ****       if (settings.flags & BITFLAG_LASER_MODE) { 
 324              		.loc 1 147 0
 325 0026 0A4B     		ldr	r3, .L35+4
 326 0028 93F84830 		ldrb	r3, [r3, #72]	@ zero_extendqisi2
 327 002c 13F0020F 		tst	r3, #2
 328 0030 02D0     		beq	.L32
 148:spindle_control.c ****         if (state == SPINDLE_ENABLE_CCW) { rpm = 0.0; } // TODO: May need to be rpm_min*(100/MAX_SP
 329              		.loc 1 148 0
 330 0032 202C     		cmp	r4, #32
 331 0034 00D1     		bne	.L32
 332 0036 0025     		movs	r5, #0
 333              	.LVL39:
 334              	.L32:
 149:spindle_control.c ****       }
 150:spindle_control.c ****       spindle_set_speed(spindle_compute_pwm_value(rpm));
 335              		.loc 1 150 0
 336 0038 2846     		mov	r0, r5
 337 003a FFF7FEFF 		bl	spindle_compute_pwm_value
 338              	.LVL40:
 339 003e FFF7FEFF 		bl	spindle_set_speed
 340              	.LVL41:
 341              	.L31:
 151:spindle_control.c ****     #endif
 152:spindle_control.c ****     #if defined(USE_SPINDLE_DIR_AS_ENABLE_PIN) || !defined(VARIABLE_SPINDLE)
 153:spindle_control.c ****       // NOTE: Without variable spindle, the enable bit should just turn on or off, regardless
 154:spindle_control.c ****       // if the spindle speed value is zero, as its ignored anyhow.
 155:spindle_control.c ****       #ifdef INVERT_SPINDLE_ENABLE_PIN
 156:spindle_control.c ****         SPINDLE_ENABLE_PORT &= ~(1<<SPINDLE_ENABLE_BIT);
 157:spindle_control.c ****       #else
 158:spindle_control.c ****         SPINDLE_ENABLE_PORT |= (1<<SPINDLE_ENABLE_BIT);
 159:spindle_control.c ****       #endif    
 160:spindle_control.c ****     #endif
 161:spindle_control.c ****   
 162:spindle_control.c ****   }
 163:spindle_control.c ****   
 164:spindle_control.c ****   sys.report_ovr_counter = 0; // Set to report change immediately
 342              		.loc 1 164 0
 343 0042 0022     		movs	r2, #0
 344 0044 014B     		ldr	r3, .L35
 345 0046 DA72     		strb	r2, [r3, #11]
 346              	.LVL42:
ARM GAS  C:\Users\Bart\AppData\Local\Temp\ccCnmSxU.s 			page 10


 347              	.L28:
 348 0048 38BD     		pop	{r3, r4, r5, pc}
 349              	.L36:
 350 004a 00BF     		.align	2
 351              	.L35:
 352 004c 00000000 		.word	sys
 353 0050 00000000 		.word	settings
 354              		.cfi_endproc
 355              	.LFE68:
 356              		.size	spindle_set_state, .-spindle_set_state
 357              		.section	.text.spindle_sync,"ax",%progbits
 358              		.align	2
 359              		.global	spindle_sync
 360              		.thumb
 361              		.thumb_func
 362              		.type	spindle_sync, %function
 363              	spindle_sync:
 364              	.LFB69:
 165:spindle_control.c **** }
 166:spindle_control.c **** 
 167:spindle_control.c **** 
 168:spindle_control.c **** // G-code parser entry-point for setting spindle state. Forces a planner buffer sync and bails 
 169:spindle_control.c **** // if an abort or check-mode is active.
 170:spindle_control.c **** #ifdef VARIABLE_SPINDLE
 171:spindle_control.c ****   void spindle_sync(uint8_t state, float rpm)
 172:spindle_control.c ****   {
 365              		.loc 1 172 0
 366              		.cfi_startproc
 367              		@ args = 0, pretend = 0, frame = 0
 368              		@ frame_needed = 0, uses_anonymous_args = 0
 369              	.LVL43:
 370 0000 38B5     		push	{r3, r4, r5, lr}
 371              		.cfi_def_cfa_offset 16
 372              		.cfi_offset 3, -16
 373              		.cfi_offset 4, -12
 374              		.cfi_offset 5, -8
 375              		.cfi_offset 14, -4
 173:spindle_control.c ****     if (sys.state == STATE_CHECK_MODE) { return; }
 376              		.loc 1 173 0
 377 0002 064B     		ldr	r3, .L40
 378 0004 1B78     		ldrb	r3, [r3]	@ zero_extendqisi2
 379 0006 022B     		cmp	r3, #2
 380 0008 07D0     		beq	.L37
 381 000a 0C46     		mov	r4, r1
 382 000c 0546     		mov	r5, r0
 174:spindle_control.c ****     protocol_buffer_synchronize(); // Empty planner buffer to ensure spindle is set when programmed
 383              		.loc 1 174 0
 384 000e FFF7FEFF 		bl	protocol_buffer_synchronize
 385              	.LVL44:
 175:spindle_control.c ****     spindle_set_state(state,rpm);
 386              		.loc 1 175 0
 387 0012 2846     		mov	r0, r5
 388 0014 2146     		mov	r1, r4
 389 0016 FFF7FEFF 		bl	spindle_set_state
 390              	.LVL45:
 391              	.L37:
 392 001a 38BD     		pop	{r3, r4, r5, pc}
ARM GAS  C:\Users\Bart\AppData\Local\Temp\ccCnmSxU.s 			page 11


 393              	.L41:
 394              		.align	2
 395              	.L40:
 396 001c 00000000 		.word	sys
 397              		.cfi_endproc
 398              	.LFE69:
 399              		.size	spindle_sync, .-spindle_sync
 400              		.comm	exec_lcd_status,1,1
 401              		.comm	sys_rt_exec_debug,1,1
 402              		.comm	sys_rt_exec_accessory_override,1,1
 403              		.comm	sys_rt_exec_motion_override,1,1
 404              		.comm	sys_rt_exec_alarm,1,1
 405              		.comm	sys_rt_exec_state,1,1
 406              		.comm	sys_probe_state,1,1
 407              		.comm	sys_probe_position,12,4
 408              		.comm	sys_position,12,4
 409              		.text
 410              	.Letext0:
 411              		.file 2 "d:\\program files (x86)\\cypress\\psoc creator\\4.0\\psoc creator\\import\\gnu\\arm\\4.9.
 412              		.file 3 "d:\\program files (x86)\\cypress\\psoc creator\\4.0\\psoc creator\\import\\gnu\\arm\\4.9.
 413              		.file 4 "Generated_Source\\PSoC5/cytypes.h"
 414              		.file 5 "settings.h"
 415              		.file 6 "system.h"
 416              		.file 7 "Generated_Source\\PSoC5/core_cm3.h"
 417              		.file 8 "lcd_report.h"
 418              		.file 9 "Generated_Source\\PSoC5/Pin_Spindle_Enable.h"
 419              		.file 10 "Generated_Source\\PSoC5/Pin_Spindle_Direction.h"
 420              		.file 11 "Generated_Source\\PSoC5/PWM_Spindle.h"
 421              		.file 12 "d:\\program files (x86)\\cypress\\psoc creator\\4.0\\psoc creator\\import\\gnu\\arm\\4.9
 422              		.file 13 "protocol.h"