ARM GAS  C:\Users\Bart\AppData\Local\Temp\ccM05RYZ.s 			page 1


   1              		.syntax unified
   2              		.cpu cortex-m3
   3              		.fpu softvfp
   4              		.eabi_attribute 20, 1
   5              		.eabi_attribute 21, 1
   6              		.eabi_attribute 23, 3
   7              		.eabi_attribute 24, 1
   8              		.eabi_attribute 25, 1
   9              		.eabi_attribute 26, 1
  10              		.eabi_attribute 30, 1
  11              		.eabi_attribute 34, 1
  12              		.eabi_attribute 18, 4
  13              		.thumb
  14              		.file	"stepper.c"
  15              		.text
  16              	.Ltext0:
  17              		.cfi_sections	.debug_frame
  18              		.section	.text.st_next_block_index,"ax",%progbits
  19              		.align	2
  20              		.thumb
  21              		.thumb_func
  22              		.type	st_next_block_index, %function
  23              	st_next_block_index:
  24              	.LFB70:
  25              		.file 1 "stepper.c"
   1:stepper.c     **** /*
   2:stepper.c     ****   stepper.c - stepper motor driver: executes motion plans using stepper motors
   3:stepper.c     ****   Part of Grbl
   4:stepper.c     **** 
   5:stepper.c     ****   Copyright (c) 2011-2016 Sungeun K. Jeon for Gnea Research LLC
   6:stepper.c     ****   Copyright (c) 2009-2011 Simen Svale Skogsrud
   7:stepper.c     **** 
   8:stepper.c     ****   Grbl is free software: you can redistribute it and/or modify
   9:stepper.c     ****   it under the terms of the GNU General Public License as published by
  10:stepper.c     ****   the Free Software Foundation, either version 3 of the License, or
  11:stepper.c     ****   (at your option) any later version.
  12:stepper.c     **** 
  13:stepper.c     ****   Grbl is distributed in the hope that it will be useful,
  14:stepper.c     ****   but WITHOUT ANY WARRANTY; without even the implied warranty of
  15:stepper.c     ****   MERCHANTABILITY or FITNESS FOR A PARTICULAR PURPOSE.  See the
  16:stepper.c     ****   GNU General Public License for more details.
  17:stepper.c     **** 
  18:stepper.c     ****   You should have received a copy of the GNU General Public License
  19:stepper.c     ****   along with Grbl.  If not, see <http://www.gnu.org/licenses/>.
  20:stepper.c     **** */
  21:stepper.c     **** 
  22:stepper.c     **** #include "grbl.h"
  23:stepper.c     **** 
  24:stepper.c     **** 
  25:stepper.c     **** // Some useful constants.
  26:stepper.c     **** #define DT_SEGMENT (1.0/(ACCELERATION_TICKS_PER_SECOND*60.0)) // min/segment
  27:stepper.c     **** #define REQ_MM_INCREMENT_SCALAR 1.25
  28:stepper.c     **** #define RAMP_ACCEL 0
  29:stepper.c     **** #define RAMP_CRUISE 1
  30:stepper.c     **** #define RAMP_DECEL 2
  31:stepper.c     **** #define RAMP_DECEL_OVERRIDE 3
  32:stepper.c     **** 
ARM GAS  C:\Users\Bart\AppData\Local\Temp\ccM05RYZ.s 			page 2


  33:stepper.c     **** #define PREP_FLAG_RECALCULATE bit(0)
  34:stepper.c     **** #define PREP_FLAG_HOLD_PARTIAL_BLOCK bit(1)
  35:stepper.c     **** #define PREP_FLAG_PARKING bit(2)
  36:stepper.c     **** #define PREP_FLAG_DECEL_OVERRIDE bit(3)
  37:stepper.c     **** 
  38:stepper.c     **** // Define Adaptive Multi-Axis Step-Smoothing(AMASS) levels and cutoff frequencies. The highest leve
  39:stepper.c     **** // frequency bin starts at 0Hz and ends at its cutoff frequency. The next lower level frequency bin
  40:stepper.c     **** // starts at the next higher cutoff frequency, and so on. The cutoff frequencies for each level mus
  41:stepper.c     **** // be considered carefully against how much it over-drives the stepper ISR, the accuracy of the 16-
  42:stepper.c     **** // timer, and the CPU overhead. Level 0 (no AMASS, normal operation) frequency bin starts at the
  43:stepper.c     **** // Level 1 cutoff frequency and up to as fast as the CPU allows (over 30kHz in limited testing).
  44:stepper.c     **** // NOTE: AMASS cutoff frequency multiplied by ISR overdrive factor must not exceed maximum step fre
  45:stepper.c     **** // NOTE: Current settings are set to overdrive the ISR to no more than 16kHz, balancing CPU overhea
  46:stepper.c     **** // and timer accuracy.  Do not alter these settings unless you know what you are doing.
  47:stepper.c     **** #define MAX_AMASS_LEVEL 3
  48:stepper.c     **** // AMASS_LEVEL0: Normal operation. No AMASS. No upper cutoff frequency. Starts at LEVEL1 cutoff fre
  49:stepper.c     **** #define AMASS_LEVEL1 (F_CPU/8000) // Over-drives ISR (x2). Defined as F_CPU/(Cutoff frequency in Hz
  50:stepper.c     **** #define AMASS_LEVEL2 (F_CPU/4000) // Over-drives ISR (x4)
  51:stepper.c     **** #define AMASS_LEVEL3 (F_CPU/2000) // Over-drives ISR (x8)
  52:stepper.c     **** 
  53:stepper.c     **** 
  54:stepper.c     **** // Stores the planner block Bresenham algorithm execution data for the segments in the segment
  55:stepper.c     **** // buffer. Normally, this buffer is partially in-use, but, for the worst case scenario, it will
  56:stepper.c     **** // never exceed the number of accessible stepper buffer segments (SEGMENT_BUFFER_SIZE-1).
  57:stepper.c     **** // NOTE: This data is copied from the prepped planner blocks so that the planner blocks may be
  58:stepper.c     **** // discarded when entirely consumed and completed by the segment buffer. Also, AMASS alters this
  59:stepper.c     **** // data for its own use.
  60:stepper.c     **** typedef struct {
  61:stepper.c     ****   uint32_t steps[N_AXIS];
  62:stepper.c     ****   uint32_t step_event_count;
  63:stepper.c     ****   uint8_t direction_bits;
  64:stepper.c     ****   #ifdef VARIABLE_SPINDLE
  65:stepper.c     ****     uint8_t is_pwm_rate_adjusted; // Tracks motions that require constant laser power/rate
  66:stepper.c     ****   #endif
  67:stepper.c     **** } st_block_t;
  68:stepper.c     **** static st_block_t st_block_buffer[SEGMENT_BUFFER_SIZE-1];
  69:stepper.c     **** 
  70:stepper.c     **** // Primary stepper segment ring buffer. Contains small, short line segments for the stepper
  71:stepper.c     **** // algorithm to execute, which are "checked-out" incrementally from the first block in the
  72:stepper.c     **** // planner buffer. Once "checked-out", the steps in the segments buffer cannot be modified by
  73:stepper.c     **** // the planner, where the remaining planner block steps still can.
  74:stepper.c     **** typedef struct {
  75:stepper.c     ****   uint16_t n_step;           // Number of step events to be executed for this segment
  76:stepper.c     ****   uint16_t cycles_per_tick;  // Step distance traveled per ISR tick, aka step rate.
  77:stepper.c     ****   uint8_t  st_block_index;   // Stepper block data index. Uses this information to execute this seg
  78:stepper.c     ****   #ifdef ADAPTIVE_MULTI_AXIS_STEP_SMOOTHING
  79:stepper.c     ****     uint8_t amass_level;    // Indicates AMASS level for the ISR to execute this segment
  80:stepper.c     ****   #else
  81:stepper.c     ****     uint8_t prescaler;      // Without AMASS, a prescaler is required to adjust for slow timing.
  82:stepper.c     ****   #endif
  83:stepper.c     ****   #ifdef VARIABLE_SPINDLE
  84:stepper.c     ****     uint8_t spindle_pwm;
  85:stepper.c     ****   #endif
  86:stepper.c     **** } segment_t;
  87:stepper.c     **** static segment_t segment_buffer[SEGMENT_BUFFER_SIZE];
  88:stepper.c     **** 
  89:stepper.c     **** // Stepper ISR data struct. Contains the running data for the main stepper ISR.
ARM GAS  C:\Users\Bart\AppData\Local\Temp\ccM05RYZ.s 			page 3


  90:stepper.c     **** typedef struct {
  91:stepper.c     ****   // Used by the bresenham line algorithm
  92:stepper.c     ****   uint32_t counter_x,        // Counter variables for the bresenham line tracer
  93:stepper.c     ****            counter_y,
  94:stepper.c     ****            counter_z;
  95:stepper.c     ****   #ifdef STEP_PULSE_DELAY
  96:stepper.c     ****     uint8_t step_bits;  // Stores out_bits output to complete the step pulse delay
  97:stepper.c     ****   #endif
  98:stepper.c     **** 
  99:stepper.c     ****   uint8_t execute_step;     // Flags step execution for each interrupt.
 100:stepper.c     ****   uint8_t step_pulse_time;  // Step pulse reset time after step rise
 101:stepper.c     ****   uint8_t step_outbits;         // The next stepping-bits to be output
 102:stepper.c     ****   uint8_t dir_outbits;
 103:stepper.c     ****   #ifdef ADAPTIVE_MULTI_AXIS_STEP_SMOOTHING
 104:stepper.c     ****     uint32_t steps[N_AXIS];
 105:stepper.c     ****   #endif
 106:stepper.c     **** 
 107:stepper.c     ****   uint16_t step_count;       // Steps remaining in line segment motion
 108:stepper.c     ****   uint8_t exec_block_index; // Tracks the current st_block index. Change indicates new block.
 109:stepper.c     ****   st_block_t *exec_block;   // Pointer to the block data for the segment being executed
 110:stepper.c     ****   segment_t *exec_segment;  // Pointer to the segment being executed
 111:stepper.c     **** } stepper_t;
 112:stepper.c     **** static stepper_t st;
 113:stepper.c     **** 
 114:stepper.c     **** // Step segment ring buffer indices
 115:stepper.c     **** static volatile uint8_t segment_buffer_tail;
 116:stepper.c     **** static uint8_t segment_buffer_head;
 117:stepper.c     **** static uint8_t segment_next_head;
 118:stepper.c     **** 
 119:stepper.c     **** // Step and direction port invert masks.
 120:stepper.c     **** static uint8_t step_port_invert_mask;
 121:stepper.c     **** static uint8_t dir_port_invert_mask;
 122:stepper.c     **** 
 123:stepper.c     **** // Used to avoid ISR nesting of the "Stepper Driver Interrupt". Should never occur though.
 124:stepper.c     **** static volatile uint8_t busy;
 125:stepper.c     **** 
 126:stepper.c     **** // Pointers for the step segment being prepped from the planner buffer. Accessed only by the
 127:stepper.c     **** // main program. Pointers may be planning segments or planner blocks ahead of what being executed.
 128:stepper.c     **** static plan_block_t *pl_block;     // Pointer to the planner block being prepped
 129:stepper.c     **** static st_block_t *st_prep_block;  // Pointer to the stepper block data being prepped
 130:stepper.c     **** 
 131:stepper.c     **** // Segment preparation data struct. Contains all the necessary information to compute new segments
 132:stepper.c     **** // based on the current executing planner block.
 133:stepper.c     **** typedef struct {
 134:stepper.c     ****   uint8_t st_block_index;  // Index of stepper common data block being prepped
 135:stepper.c     ****   uint8_t recalculate_flag;
 136:stepper.c     **** 
 137:stepper.c     ****   float dt_remainder;
 138:stepper.c     ****   float steps_remaining;
 139:stepper.c     ****   float step_per_mm;
 140:stepper.c     ****   float req_mm_increment;
 141:stepper.c     **** 
 142:stepper.c     ****   #ifdef PARKING_ENABLE
 143:stepper.c     ****     uint8_t last_st_block_index;
 144:stepper.c     ****     float last_steps_remaining;
 145:stepper.c     ****     float last_step_per_mm;
 146:stepper.c     ****     float last_dt_remainder;
ARM GAS  C:\Users\Bart\AppData\Local\Temp\ccM05RYZ.s 			page 4


 147:stepper.c     ****   #endif
 148:stepper.c     **** 
 149:stepper.c     ****   uint8_t ramp_type;      // Current segment ramp state
 150:stepper.c     ****   float mm_complete;      // End of velocity profile from end of current planner block in (mm).
 151:stepper.c     ****                           // NOTE: This value must coincide with a step(no mantissa) when converted
 152:stepper.c     ****   float current_speed;    // Current speed at the end of the segment buffer (mm/min)
 153:stepper.c     ****   float maximum_speed;    // Maximum speed of executing block. Not always nominal speed. (mm/min)
 154:stepper.c     ****   float exit_speed;       // Exit speed of executing block (mm/min)
 155:stepper.c     ****   float accelerate_until; // Acceleration ramp end measured from end of block (mm)
 156:stepper.c     ****   float decelerate_after; // Deceleration ramp start measured from end of block (mm)
 157:stepper.c     **** 
 158:stepper.c     ****   #ifdef VARIABLE_SPINDLE
 159:stepper.c     ****     float inv_rate;    // Used by PWM laser mode to speed up segment calculations.
 160:stepper.c     ****     uint8_t current_spindle_pwm; 
 161:stepper.c     ****   #endif
 162:stepper.c     **** } st_prep_t;
 163:stepper.c     **** static st_prep_t prep;
 164:stepper.c     **** 
 165:stepper.c     **** 
 166:stepper.c     **** /*    BLOCK VELOCITY PROFILE DEFINITION
 167:stepper.c     ****           __________________________
 168:stepper.c     ****          /|                        |\     _________________         ^
 169:stepper.c     ****         / |                        | \   /|               |\        |
 170:stepper.c     ****        /  |                        |  \ / |               | \       s
 171:stepper.c     ****       /   |                        |   |  |               |  \      p
 172:stepper.c     ****      /    |                        |   |  |               |   \     e
 173:stepper.c     ****     +-----+------------------------+---+--+---------------+----+    e
 174:stepper.c     ****     |               BLOCK 1            ^      BLOCK 2          |    d
 175:stepper.c     ****                                        |
 176:stepper.c     ****                   time ----->      EXAMPLE: Block 2 entry speed is at max junction velocity
 177:stepper.c     **** 
 178:stepper.c     ****   The planner block buffer is planned assuming constant acceleration velocity profiles and are
 179:stepper.c     ****   continuously joined at block junctions as shown above. However, the planner only actively compute
 180:stepper.c     ****   the block entry speeds for an optimal velocity plan, but does not compute the block internal
 181:stepper.c     ****   velocity profiles. These velocity profiles are computed ad-hoc as they are executed by the
 182:stepper.c     ****   stepper algorithm and consists of only 7 possible types of profiles: cruise-only, cruise-
 183:stepper.c     ****   deceleration, acceleration-cruise, acceleration-only, deceleration-only, full-trapezoid, and
 184:stepper.c     ****   triangle(no cruise).
 185:stepper.c     **** 
 186:stepper.c     ****                                         maximum_speed (< nominal_speed) ->  +
 187:stepper.c     ****                     +--------+ <- maximum_speed (= nominal_speed)          /|\
 188:stepper.c     ****                    /          \                                           / | \
 189:stepper.c     ****  current_speed -> +            \                                         /  |  + <- exit_speed
 190:stepper.c     ****                   |             + <- exit_speed                         /   |  |
 191:stepper.c     ****                   +-------------+                     current_speed -> +----+--+
 192:stepper.c     ****                    time -->  ^  ^                                           ^  ^
 193:stepper.c     ****                              |  |                                           |  |
 194:stepper.c     ****                 decelerate_after(in mm)                             decelerate_after(in mm)
 195:stepper.c     ****                     ^           ^                                           ^  ^
 196:stepper.c     ****                     |           |                                           |  |
 197:stepper.c     ****                 accelerate_until(in mm)                             accelerate_until(in mm)
 198:stepper.c     **** 
 199:stepper.c     ****   The step segment buffer computes the executing block velocity profile and tracks the critical
 200:stepper.c     ****   parameters for the stepper algorithm to accurately trace the profile. These critical parameters
 201:stepper.c     ****   are shown and defined in the above illustration.
 202:stepper.c     **** */
 203:stepper.c     **** 
ARM GAS  C:\Users\Bart\AppData\Local\Temp\ccM05RYZ.s 			page 5


 204:stepper.c     **** 
 205:stepper.c     **** // Stepper state initialization. Cycle should only start if the st.cycle_start flag is
 206:stepper.c     **** // enabled. Startup init and limits call this function but shouldn't start the cycle.
 207:stepper.c     **** void st_wake_up()
 208:stepper.c     **** {
 209:stepper.c     ****   // Enable stepper drivers.
 210:stepper.c     ****  // Enable stepper drivers.  
 211:stepper.c     ****   Control_Step_Enable_Write(1);
 212:stepper.c     **** 
 213:stepper.c     ****   // Initialize stepper output bits to ensure first ISR call does not step.
 214:stepper.c     ****   st.step_outbits = step_port_invert_mask;
 215:stepper.c     **** 
 216:stepper.c     ****   // Initialize step pulse timing from settings. Here to ensure updating after re-writing.
 217:stepper.c     ****   #ifdef STEP_PULSE_DELAY
 218:stepper.c     ****     // Set total step pulse time after direction pin set. Ad hoc computation from oscilloscope.
 219:stepper.c     ****     st.step_pulse_time = -(((settings.pulse_microseconds+STEP_PULSE_DELAY-2)*TICKS_PER_MICROSECOND)
 220:stepper.c     ****     // Set delay between direction pin write and step command.
 221:stepper.c     ****     OCR0A = -(((settings.pulse_microseconds)*TICKS_PER_MICROSECOND) >> 3);
 222:stepper.c     ****   #else // Normal operation
 223:stepper.c     ****     // Set step pulse time. Ad hoc computation from oscilloscope. Uses two's complement.
 224:stepper.c     ****     st.step_pulse_time = -(((settings.pulse_microseconds-2)*TICKS_PER_MICROSECOND) >> 3);
 225:stepper.c     ****   #endif
 226:stepper.c     **** 
 227:stepper.c     ****   // Enable Stepper Driver Interrupt
 228:stepper.c     ****  Stepper_Timer_Start();
 229:stepper.c     **** }
 230:stepper.c     **** 
 231:stepper.c     **** 
 232:stepper.c     **** // Stepper shutdown
 233:stepper.c     **** void st_go_idle()
 234:stepper.c     **** {
 235:stepper.c     ****   // Disable Stepper Driver Interrupt. Allow Stepper Port Reset Interrupt to finish, if active.
 236:stepper.c     ****   Stepper_Timer_Stop(); // PSoc Change
 237:stepper.c     ****   busy = false;
 238:stepper.c     **** 
 239:stepper.c     ****   // Set stepper driver idle state, disabled or enabled, depending on settings and circumstances.
 240:stepper.c     ****   bool pin_state = false; // Keep enabled.
 241:stepper.c     ****   if (((settings.stepper_idle_lock_time != 0xff) || sys_rt_exec_alarm || sys.state == STATE_SLEEP) 
 242:stepper.c     ****     // Force stepper dwell to lock axes for a defined amount of time to ensure the axes come to a c
 243:stepper.c     ****     // stop and not drift from residual inertial forces at the end of the last movement.
 244:stepper.c     ****     delay_ms(settings.stepper_idle_lock_time);
 245:stepper.c     ****     pin_state = true; // Override. Disable steppers.   
 246:stepper.c     ****     
 247:stepper.c     ****     
 248:stepper.c     ****   }
 249:stepper.c     ****   
 250:stepper.c     ****   Control_Step_Enable_Write(0); // PSoc Change
 251:stepper.c     ****   
 252:stepper.c     **** }
 253:stepper.c     **** 
 254:stepper.c     **** 
 255:stepper.c     **** /* "The Stepper Driver Interrupt" - This timer interrupt is the workhorse of Grbl. Grbl employs
 256:stepper.c     ****    the venerable Bresenham line algorithm to manage and exactly synchronize multi-axis moves.
 257:stepper.c     ****    Unlike the popular DDA algorithm, the Bresenham algorithm is not susceptible to numerical
 258:stepper.c     ****    round-off errors and only requires fast integer counters, meaning low computational overhead
 259:stepper.c     ****    and maximizing the Arduino's capabilities. However, the downside of the Bresenham algorithm
 260:stepper.c     ****    is, for certain multi-axis motions, the non-dominant axes may suffer from un-smooth step
ARM GAS  C:\Users\Bart\AppData\Local\Temp\ccM05RYZ.s 			page 6


 261:stepper.c     ****    pulse trains, or aliasing, which can lead to strange audible noises or shaking. This is
 262:stepper.c     ****    particularly noticeable or may cause motion issues at low step frequencies (0-5kHz), but
 263:stepper.c     ****    is usually not a physical problem at higher frequencies, although audible.
 264:stepper.c     ****      To improve Bresenham multi-axis performance, Grbl uses what we call an Adaptive Multi-Axis
 265:stepper.c     ****    Step Smoothing (AMASS) algorithm, which does what the name implies. At lower step frequencies,
 266:stepper.c     ****    AMASS artificially increases the Bresenham resolution without effecting the algorithm's
 267:stepper.c     ****    innate exactness. AMASS adapts its resolution levels automatically depending on the step
 268:stepper.c     ****    frequency to be executed, meaning that for even lower step frequencies the step smoothing
 269:stepper.c     ****    level increases. Algorithmically, AMASS is acheived by a simple bit-shifting of the Bresenham
 270:stepper.c     ****    step count for each AMASS level. For example, for a Level 1 step smoothing, we bit shift
 271:stepper.c     ****    the Bresenham step event count, effectively multiplying it by 2, while the axis step counts
 272:stepper.c     ****    remain the same, and then double the stepper ISR frequency. In effect, we are allowing the
 273:stepper.c     ****    non-dominant Bresenham axes step in the intermediate ISR tick, while the dominant axis is
 274:stepper.c     ****    stepping every two ISR ticks, rather than every ISR tick in the traditional sense. At AMASS
 275:stepper.c     ****    Level 2, we simply bit-shift again, so the non-dominant Bresenham axes can step within any
 276:stepper.c     ****    of the four ISR ticks, the dominant axis steps every four ISR ticks, and quadruple the
 277:stepper.c     ****    stepper ISR frequency. And so on. This, in effect, virtually eliminates multi-axis aliasing
 278:stepper.c     ****    issues with the Bresenham algorithm and does not significantly alter Grbl's performance, but
 279:stepper.c     ****    in fact, more efficiently utilizes unused CPU cycles overall throughout all configurations.
 280:stepper.c     ****      AMASS retains the Bresenham algorithm exactness by requiring that it always executes a full
 281:stepper.c     ****    Bresenham step, regardless of AMASS Level. Meaning that for an AMASS Level 2, all four
 282:stepper.c     ****    intermediate steps must be completed such that baseline Bresenham (Level 0) count is always
 283:stepper.c     ****    retained. Similarly, AMASS Level 3 means all eight intermediate steps must be executed.
 284:stepper.c     ****    Although the AMASS Levels are in reality arbitrary, where the baseline Bresenham counts can
 285:stepper.c     ****    be multiplied by any integer value, multiplication by powers of two are simply used to ease
 286:stepper.c     ****    CPU overhead with bitshift integer operations.
 287:stepper.c     ****      This interrupt is simple and dumb by design. All the computational heavy-lifting, as in
 288:stepper.c     ****    determining accelerations, is performed elsewhere. This interrupt pops pre-computed segments,
 289:stepper.c     ****    defined as constant velocity over n number of steps, from the step segment buffer and then
 290:stepper.c     ****    executes them by pulsing the stepper pins appropriately via the Bresenham algorithm. This
 291:stepper.c     ****    ISR is supported by The Stepper Port Reset Interrupt which it uses to reset the stepper port
 292:stepper.c     ****    after each pulse. The bresenham line tracer algorithm controls all stepper outputs
 293:stepper.c     ****    simultaneously with these two interrupts.
 294:stepper.c     **** 
 295:stepper.c     ****    NOTE: This interrupt must be as efficient as possible and complete before the next ISR tick,
 296:stepper.c     ****    which for Grbl must be less than 33.3usec (@30kHz ISR rate). Oscilloscope measured time in
 297:stepper.c     ****    ISR is 5usec typical and 25usec maximum, well below requirement.
 298:stepper.c     ****    NOTE: This ISR expects at least one step to be executed per segment.
 299:stepper.c     **** */
 300:stepper.c     **** // TODO: Replace direct updating of the int32 position counters in the ISR somehow. Perhaps use sma
 301:stepper.c     **** // int8 variables and update position counters only when a segment completes. This can get complica
 302:stepper.c     **** // with probing and homing cycles that require true real-time positions.
 303:stepper.c     **** void stepper_timer_isr() //ISR(TIMER1_COMPA_vect)
 304:stepper.c     **** {
 305:stepper.c     ****   Stepper_Timer_ReadStatusRegister(); // clear the PSoc interrupt
 306:stepper.c     ****   
 307:stepper.c     ****   if (busy) { return; } // The busy-flag is used to avoid reentering this interrupt
 308:stepper.c     **** 
 309:stepper.c     ****   // Set the direction pins a couple of nanoseconds before we step the steppers
 310:stepper.c     ****    Control_Reg_Dir_Write(st.dir_outbits);
 311:stepper.c     **** 
 312:stepper.c     ****   // Then pulse the stepping pins
 313:stepper.c     ****   #ifdef STEP_PULSE_DELAY
 314:stepper.c     ****     st.step_bits = (STEP_PORT & ~STEP_MASK) | st.step_outbits; // Store out_bits to prevent overwri
 315:stepper.c     ****   #else  // Normal operation
 316:stepper.c     ****     Control_Reg_Step_Write(st.step_outbits);
 317:stepper.c     ****   #endif
ARM GAS  C:\Users\Bart\AppData\Local\Temp\ccM05RYZ.s 			page 7


 318:stepper.c     **** 
 319:stepper.c     ****  
 320:stepper.c     **** 
 321:stepper.c     ****   busy = true;
 322:stepper.c     ****   Stepper_Timer_Start(); //sei(); // Re-enable interrupts to allow Stepper Port Reset Interrupt to 
 323:stepper.c     ****          // NOTE: The remaining code in this ISR will finish before returning to main program.
 324:stepper.c     **** 
 325:stepper.c     ****   // If there is no step segment, attempt to pop one from the stepper buffer
 326:stepper.c     ****   if (st.exec_segment == NULL) {
 327:stepper.c     ****     // Anything in the buffer? If so, load and initialize next step segment.
 328:stepper.c     ****     if (segment_buffer_head != segment_buffer_tail) {
 329:stepper.c     ****       // Initialize new step segment and load number of steps to execute
 330:stepper.c     ****       st.exec_segment = &segment_buffer[segment_buffer_tail];
 331:stepper.c     **** 
 332:stepper.c     ****       #ifndef ADAPTIVE_MULTI_AXIS_STEP_SMOOTHING
 333:stepper.c     ****         // With AMASS is disabled, set timer prescaler for segments with slow step frequencies (< 2
 334:stepper.c     ****         TCCR1B = (TCCR1B & ~(0x07<<CS10)) | (st.exec_segment->prescaler<<CS10);
 335:stepper.c     ****       #endif
 336:stepper.c     **** 
 337:stepper.c     ****       // Initialize step segment timing per step and load number of steps to execute.
 338:stepper.c     ****       Stepper_Timer_WritePeriod(st.exec_segment->cycles_per_tick); // OCR1A = st.exec_segment->cycl
 339:stepper.c     ****       st.step_count = st.exec_segment->n_step; // NOTE: Can sometimes be zero when moving slow.
 340:stepper.c     ****       // If the new segment starts a new planner block, initialize stepper variables and counters.
 341:stepper.c     ****       // NOTE: When the segment data index changes, this indicates a new planner block.
 342:stepper.c     ****       if ( st.exec_block_index != st.exec_segment->st_block_index ) {
 343:stepper.c     ****         st.exec_block_index = st.exec_segment->st_block_index;
 344:stepper.c     ****         st.exec_block = &st_block_buffer[st.exec_block_index];
 345:stepper.c     **** 
 346:stepper.c     ****         // Initialize Bresenham line and distance counters
 347:stepper.c     ****         st.counter_x = st.counter_y = st.counter_z = (st.exec_block->step_event_count >> 1);
 348:stepper.c     ****       }
 349:stepper.c     ****       st.dir_outbits = st.exec_block->direction_bits ^ dir_port_invert_mask;
 350:stepper.c     **** 
 351:stepper.c     ****       #ifdef ADAPTIVE_MULTI_AXIS_STEP_SMOOTHING
 352:stepper.c     ****         // With AMASS enabled, adjust Bresenham axis increment counters according to AMASS level.
 353:stepper.c     ****         st.steps[X_AXIS] = st.exec_block->steps[X_AXIS] >> st.exec_segment->amass_level;
 354:stepper.c     ****         st.steps[Y_AXIS] = st.exec_block->steps[Y_AXIS] >> st.exec_segment->amass_level;
 355:stepper.c     ****         st.steps[Z_AXIS] = st.exec_block->steps[Z_AXIS] >> st.exec_segment->amass_level;
 356:stepper.c     ****       #endif
 357:stepper.c     **** 
 358:stepper.c     ****       #ifdef VARIABLE_SPINDLE
 359:stepper.c     ****         // Set real-time spindle output as segment is loaded, just prior to the first step.
 360:stepper.c     ****         spindle_set_speed(st.exec_segment->spindle_pwm);
 361:stepper.c     ****       #endif
 362:stepper.c     **** 
 363:stepper.c     ****     } else {
 364:stepper.c     ****       // Segment buffer empty. Shutdown.
 365:stepper.c     ****       st_go_idle();
 366:stepper.c     ****       #ifdef VARIABLE_SPINDLE
 367:stepper.c     ****         // Ensure pwm is set properly upon completion of rate-controlled motion.
 368:stepper.c     ****         if (st.exec_block->is_pwm_rate_adjusted) { spindle_set_speed(SPINDLE_PWM_OFF_VALUE); }
 369:stepper.c     ****       #endif
 370:stepper.c     ****       system_set_exec_state_flag(EXEC_CYCLE_STOP); // Flag main program for cycle end
 371:stepper.c     ****       return; // Nothing to do but exit.
 372:stepper.c     ****     }
 373:stepper.c     ****   }
 374:stepper.c     **** 
ARM GAS  C:\Users\Bart\AppData\Local\Temp\ccM05RYZ.s 			page 8


 375:stepper.c     **** 
 376:stepper.c     ****   // Check probing state.
 377:stepper.c     ****   if (sys_probe_state == PROBE_ACTIVE) { probe_state_monitor(); }
 378:stepper.c     **** 
 379:stepper.c     ****   // Reset step out bits.
 380:stepper.c     ****   st.step_outbits = 0;
 381:stepper.c     **** 
 382:stepper.c     ****   // Execute step displacement profile by Bresenham line algorithm
 383:stepper.c     ****   #ifdef ADAPTIVE_MULTI_AXIS_STEP_SMOOTHING
 384:stepper.c     ****     st.counter_x += st.steps[X_AXIS];
 385:stepper.c     ****   #else
 386:stepper.c     ****     st.counter_x += st.exec_block->steps[X_AXIS];
 387:stepper.c     ****   #endif
 388:stepper.c     ****   if (st.counter_x > st.exec_block->step_event_count) {
 389:stepper.c     ****     st.step_outbits |= (1<<X_STEP_BIT);
 390:stepper.c     ****     st.counter_x -= st.exec_block->step_event_count;
 391:stepper.c     ****     if (st.exec_block->direction_bits & (1<<X_DIRECTION_BIT)) { sys_position[X_AXIS]--; }
 392:stepper.c     ****     else { sys_position[X_AXIS]++; }
 393:stepper.c     ****   }
 394:stepper.c     ****   #ifdef ADAPTIVE_MULTI_AXIS_STEP_SMOOTHING
 395:stepper.c     ****     st.counter_y += st.steps[Y_AXIS];
 396:stepper.c     ****   #else
 397:stepper.c     ****     st.counter_y += st.exec_block->steps[Y_AXIS];
 398:stepper.c     ****   #endif
 399:stepper.c     ****   if (st.counter_y > st.exec_block->step_event_count) {
 400:stepper.c     ****     st.step_outbits |= (1<<Y_STEP_BIT);
 401:stepper.c     ****     st.counter_y -= st.exec_block->step_event_count;
 402:stepper.c     ****     if (st.exec_block->direction_bits & (1<<Y_DIRECTION_BIT)) { sys_position[Y_AXIS]--; }
 403:stepper.c     ****     else { sys_position[Y_AXIS]++; }
 404:stepper.c     ****   }
 405:stepper.c     ****   #ifdef ADAPTIVE_MULTI_AXIS_STEP_SMOOTHING
 406:stepper.c     ****     st.counter_z += st.steps[Z_AXIS];
 407:stepper.c     ****   #else
 408:stepper.c     ****     st.counter_z += st.exec_block->steps[Z_AXIS];
 409:stepper.c     ****   #endif
 410:stepper.c     ****   if (st.counter_z > st.exec_block->step_event_count) {
 411:stepper.c     ****     st.step_outbits |= (1<<Z_STEP_BIT);
 412:stepper.c     ****     st.counter_z -= st.exec_block->step_event_count;
 413:stepper.c     ****     if (st.exec_block->direction_bits & (1<<Z_DIRECTION_BIT)) { sys_position[Z_AXIS]--; }
 414:stepper.c     ****     else { sys_position[Z_AXIS]++; }
 415:stepper.c     ****   }
 416:stepper.c     **** 
 417:stepper.c     ****   // During a homing cycle, lock out and prevent desired axes from moving.
 418:stepper.c     ****   if (sys.state == STATE_HOMING) { st.step_outbits &= sys.homing_axis_lock; }
 419:stepper.c     **** 
 420:stepper.c     ****   st.step_count--; // Decrement step events count
 421:stepper.c     ****   if (st.step_count == 0) {
 422:stepper.c     ****     // Segment is complete. Discard current segment and advance segment indexing.
 423:stepper.c     ****     st.exec_segment = NULL;
 424:stepper.c     ****     if ( ++segment_buffer_tail == SEGMENT_BUFFER_SIZE) { segment_buffer_tail = 0; }
 425:stepper.c     ****   }
 426:stepper.c     **** 
 427:stepper.c     ****   st.step_outbits ^= step_port_invert_mask;  // Apply step port invert mask
 428:stepper.c     ****   busy = false;
 429:stepper.c     **** }
 430:stepper.c     **** 
 431:stepper.c     **** 
ARM GAS  C:\Users\Bart\AppData\Local\Temp\ccM05RYZ.s 			page 9


 432:stepper.c     **** /* The Stepper Port Reset Interrupt: Timer0 OVF interrupt handles the falling edge of the step
 433:stepper.c     ****    pulse. This should always trigger before the next Timer1 COMPA interrupt and independently
 434:stepper.c     ****    finish, if Timer1 is disabled after completing a move.
 435:stepper.c     ****    NOTE: Interrupt collisions between the serial and stepper interrupts can cause delays by
 436:stepper.c     ****    a few microseconds, if they execute right before one another. Not a big deal, but can
 437:stepper.c     ****    cause issues at high step rates if another high frequency asynchronous interrupt is
 438:stepper.c     ****    added to Grbl.
 439:stepper.c     **** */
 440:stepper.c     **** // This interrupt is enabled by ISR_TIMER1_COMPAREA when it sets the motor port bits to execute
 441:stepper.c     **** // a step. This ISR resets the motor port after a short period (settings.pulse_microseconds)
 442:stepper.c     **** // completing one step cycle.
 443:stepper.c     **** /*  don't need for PSoc
 444:stepper.c     **** ISR(TIMER0_OVF_vect)
 445:stepper.c     **** {
 446:stepper.c     ****   // Reset stepping pins (leave the direction pins)
 447:stepper.c     ****   STEP_PORT = (STEP_PORT & ~STEP_MASK) | (step_port_invert_mask & STEP_MASK);
 448:stepper.c     ****   TCCR0B = 0; // Disable Timer0 to prevent re-entering this interrupt when it's not needed.
 449:stepper.c     **** }
 450:stepper.c     **** */
 451:stepper.c     **** #ifdef STEP_PULSE_DELAY
 452:stepper.c     ****   // Not needed in PSoC
 453:stepper.c     **** #endif
 454:stepper.c     **** 
 455:stepper.c     **** 
 456:stepper.c     **** // Generates the step and direction port invert masks used in the Stepper Interrupt Driver.
 457:stepper.c     **** void st_generate_step_dir_invert_masks()
 458:stepper.c     **** {
 459:stepper.c     ****   uint8_t idx;
 460:stepper.c     ****   step_port_invert_mask = 0;
 461:stepper.c     ****   dir_port_invert_mask = 0;
 462:stepper.c     ****   for (idx=0; idx<N_AXIS; idx++) {
 463:stepper.c     ****     if (bit_istrue(settings.step_invert_mask,bit(idx))) { step_port_invert_mask |= get_step_pin_mas
 464:stepper.c     ****     if (bit_istrue(settings.dir_invert_mask,bit(idx))) { dir_port_invert_mask |= get_direction_pin_
 465:stepper.c     ****   }
 466:stepper.c     **** }
 467:stepper.c     **** 
 468:stepper.c     **** 
 469:stepper.c     **** // Reset and clear stepper subsystem variables
 470:stepper.c     **** void st_reset()
 471:stepper.c     **** {
 472:stepper.c     ****   // Initialize stepper driver idle state.
 473:stepper.c     ****   st_go_idle();
 474:stepper.c     **** 
 475:stepper.c     ****   // Initialize stepper algorithm variables.
 476:stepper.c     ****   memset(&prep, 0, sizeof(st_prep_t));
 477:stepper.c     ****   memset(&st, 0, sizeof(stepper_t));
 478:stepper.c     ****   st.exec_segment = NULL;
 479:stepper.c     ****   pl_block = NULL;  // Planner block pointer used by segment buffer
 480:stepper.c     ****   segment_buffer_tail = 0;
 481:stepper.c     ****   segment_buffer_head = 0; // empty = tail
 482:stepper.c     ****   segment_next_head = 1;
 483:stepper.c     ****   busy = false;
 484:stepper.c     **** 
 485:stepper.c     ****   st_generate_step_dir_invert_masks();
 486:stepper.c     ****   st.dir_outbits = dir_port_invert_mask; // Initialize direction bits to default.
 487:stepper.c     **** 
 488:stepper.c     ****   // Initialize step and direction port pins.
ARM GAS  C:\Users\Bart\AppData\Local\Temp\ccM05RYZ.s 			page 10


 489:stepper.c     ****   Control_Reg_Step_Write(0b111 | step_port_invert_mask);
 490:stepper.c     ****   //STEP_PORT = (STEP_PORT & ~STEP_MASK) | step_port_invert_mask;
 491:stepper.c     ****   Control_Reg_Dir_Write(0b111 | dir_port_invert_mask);
 492:stepper.c     ****   //DIRECTION_PORT = (DIRECTION_PORT & ~DIRECTION_MASK) | dir_port_invert_mask;
 493:stepper.c     **** }
 494:stepper.c     **** 
 495:stepper.c     **** 
 496:stepper.c     **** // Initialize and start the stepper motor subsystem
 497:stepper.c     **** void stepper_init()
 498:stepper.c     **** {
 499:stepper.c     ****   Clock_Step_Pulse_Start();
 500:stepper.c     ****   isr_Step_StartEx(stepper_timer_isr);
 501:stepper.c     **** }
 502:stepper.c     **** 
 503:stepper.c     **** 
 504:stepper.c     **** // Called by planner_recalculate() when the executing block is updated by the new plan.
 505:stepper.c     **** void st_update_plan_block_parameters()
 506:stepper.c     **** {
 507:stepper.c     ****   if (pl_block != NULL) { // Ignore if at start of a new block.
 508:stepper.c     ****     prep.recalculate_flag |= PREP_FLAG_RECALCULATE;
 509:stepper.c     ****     pl_block->entry_speed_sqr = prep.current_speed*prep.current_speed; // Update entry speed.
 510:stepper.c     ****     pl_block = NULL; // Flag st_prep_segment() to load and check active velocity profile.
 511:stepper.c     ****   }
 512:stepper.c     **** }
 513:stepper.c     **** 
 514:stepper.c     **** 
 515:stepper.c     **** // Increments the step segment buffer block data ring buffer.
 516:stepper.c     **** static uint8_t st_next_block_index(uint8_t block_index)
 517:stepper.c     **** {
  26              		.loc 1 517 0
  27              		.cfi_startproc
  28              		@ args = 0, pretend = 0, frame = 0
  29              		@ frame_needed = 0, uses_anonymous_args = 0
  30              		@ link register save eliminated.
  31              	.LVL0:
 518:stepper.c     ****   block_index++;
  32              		.loc 1 518 0
  33 0000 0130     		adds	r0, r0, #1
  34              	.LVL1:
  35 0002 C0B2     		uxtb	r0, r0
  36              	.LVL2:
 519:stepper.c     ****   if ( block_index == (SEGMENT_BUFFER_SIZE-1) ) { return(0); }
  37              		.loc 1 519 0
  38 0004 0528     		cmp	r0, #5
  39 0006 00D1     		bne	.L2
  40 0008 0020     		movs	r0, #0
  41              	.LVL3:
  42              	.L2:
 520:stepper.c     ****   return(block_index);
 521:stepper.c     **** }
  43              		.loc 1 521 0
  44 000a 7047     		bx	lr
  45              		.cfi_endproc
  46              	.LFE70:
  47              		.size	st_next_block_index, .-st_next_block_index
  48              		.section	.text.st_wake_up,"ax",%progbits
  49              		.align	2
ARM GAS  C:\Users\Bart\AppData\Local\Temp\ccM05RYZ.s 			page 11


  50              		.global	st_wake_up
  51              		.thumb
  52              		.thumb_func
  53              		.type	st_wake_up, %function
  54              	st_wake_up:
  55              	.LFB63:
 208:stepper.c     ****   // Enable stepper drivers.
  56              		.loc 1 208 0
  57              		.cfi_startproc
  58              		@ args = 0, pretend = 0, frame = 0
  59              		@ frame_needed = 0, uses_anonymous_args = 0
  60 0000 08B5     		push	{r3, lr}
  61              		.cfi_def_cfa_offset 8
  62              		.cfi_offset 3, -8
  63              		.cfi_offset 14, -4
 211:stepper.c     **** 
  64              		.loc 1 211 0
  65 0002 0120     		movs	r0, #1
  66 0004 FFF7FEFF 		bl	Control_Step_Enable_Write
  67              	.LVL4:
 214:stepper.c     **** 
  68              		.loc 1 214 0
  69 0008 084A     		ldr	r2, .L6
  70 000a 92F82830 		ldrb	r3, [r2, #40]	@ zero_extendqisi2
  71 000e 9373     		strb	r3, [r2, #14]
 224:stepper.c     ****   #endif
  72              		.loc 1 224 0
  73 0010 074B     		ldr	r3, .L6+4
  74 0012 93F83030 		ldrb	r3, [r3, #48]	@ zero_extendqisi2
  75 0016 023B     		subs	r3, r3, #2
  76 0018 03EB4303 		add	r3, r3, r3, lsl #1
  77 001c DB00     		lsls	r3, r3, #3
  78 001e DB08     		lsrs	r3, r3, #3
  79 0020 5B42     		negs	r3, r3
  80 0022 5373     		strb	r3, [r2, #13]
 228:stepper.c     **** }
  81              		.loc 1 228 0
  82 0024 FFF7FEFF 		bl	Stepper_Timer_Start
  83              	.LVL5:
  84 0028 08BD     		pop	{r3, pc}
  85              	.L7:
  86 002a 00BF     		.align	2
  87              	.L6:
  88 002c 00000000 		.word	.LANCHOR0
  89 0030 00000000 		.word	settings
  90              		.cfi_endproc
  91              	.LFE63:
  92              		.size	st_wake_up, .-st_wake_up
  93              		.section	.text.st_go_idle,"ax",%progbits
  94              		.align	2
  95              		.global	st_go_idle
  96              		.thumb
  97              		.thumb_func
  98              		.type	st_go_idle, %function
  99              	st_go_idle:
 100              	.LFB64:
 234:stepper.c     ****   // Disable Stepper Driver Interrupt. Allow Stepper Port Reset Interrupt to finish, if active.
ARM GAS  C:\Users\Bart\AppData\Local\Temp\ccM05RYZ.s 			page 12


 101              		.loc 1 234 0
 102              		.cfi_startproc
 103              		@ args = 0, pretend = 0, frame = 0
 104              		@ frame_needed = 0, uses_anonymous_args = 0
 105 0000 08B5     		push	{r3, lr}
 106              		.cfi_def_cfa_offset 8
 107              		.cfi_offset 3, -8
 108              		.cfi_offset 14, -4
 236:stepper.c     ****   busy = false;
 109              		.loc 1 236 0
 110 0002 FFF7FEFF 		bl	Stepper_Timer_Stop
 111              	.LVL6:
 237:stepper.c     **** 
 112              		.loc 1 237 0
 113 0006 0022     		movs	r2, #0
 114 0008 0D4B     		ldr	r3, .L12
 115 000a 83F82920 		strb	r2, [r3, #41]
 116              	.LVL7:
 241:stepper.c     ****     // Force stepper dwell to lock axes for a defined amount of time to ensure the axes come to a c
 117              		.loc 1 241 0
 118 000e 0D4B     		ldr	r3, .L12+4
 119 0010 93F83300 		ldrb	r0, [r3, #51]	@ zero_extendqisi2
 120 0014 FF28     		cmp	r0, #255
 121 0016 08D1     		bne	.L9
 241:stepper.c     ****     // Force stepper dwell to lock axes for a defined amount of time to ensure the axes come to a c
 122              		.loc 1 241 0 is_stmt 0 discriminator 2
 123 0018 0B4B     		ldr	r3, .L12+8
 124 001a 1B78     		ldrb	r3, [r3]	@ zero_extendqisi2
 125 001c 13F0FF0F 		tst	r3, #255
 126 0020 03D1     		bne	.L9
 241:stepper.c     ****     // Force stepper dwell to lock axes for a defined amount of time to ensure the axes come to a c
 127              		.loc 1 241 0 discriminator 4
 128 0022 0A4B     		ldr	r3, .L12+12
 129 0024 1B78     		ldrb	r3, [r3]	@ zero_extendqisi2
 130 0026 802B     		cmp	r3, #128
 131 0028 05D1     		bne	.L10
 132              	.L9:
 241:stepper.c     ****     // Force stepper dwell to lock axes for a defined amount of time to ensure the axes come to a c
 133              		.loc 1 241 0 discriminator 5
 134 002a 084B     		ldr	r3, .L12+12
 135 002c 1B78     		ldrb	r3, [r3]	@ zero_extendqisi2
 136 002e 042B     		cmp	r3, #4
 137 0030 01D0     		beq	.L10
 244:stepper.c     ****     pin_state = true; // Override. Disable steppers.   
 138              		.loc 1 244 0 is_stmt 1
 139 0032 FFF7FEFF 		bl	CyDelay
 140              	.LVL8:
 141              	.L10:
 250:stepper.c     ****   
 142              		.loc 1 250 0
 143 0036 0020     		movs	r0, #0
 144 0038 FFF7FEFF 		bl	Control_Step_Enable_Write
 145              	.LVL9:
 146 003c 08BD     		pop	{r3, pc}
 147              	.L13:
 148 003e 00BF     		.align	2
 149              	.L12:
ARM GAS  C:\Users\Bart\AppData\Local\Temp\ccM05RYZ.s 			page 13


 150 0040 00000000 		.word	.LANCHOR0
 151 0044 00000000 		.word	settings
 152 0048 00000000 		.word	sys_rt_exec_alarm
 153 004c 00000000 		.word	sys
 154              		.cfi_endproc
 155              	.LFE64:
 156              		.size	st_go_idle, .-st_go_idle
 157              		.section	.text.stepper_timer_isr,"ax",%progbits
 158              		.align	2
 159              		.global	stepper_timer_isr
 160              		.thumb
 161              		.thumb_func
 162              		.type	stepper_timer_isr, %function
 163              	stepper_timer_isr:
 164              	.LFB65:
 304:stepper.c     ****   Stepper_Timer_ReadStatusRegister(); // clear the PSoc interrupt
 165              		.loc 1 304 0
 166              		.cfi_startproc
 167              		@ args = 0, pretend = 0, frame = 0
 168              		@ frame_needed = 0, uses_anonymous_args = 0
 169 0000 10B5     		push	{r4, lr}
 170              		.cfi_def_cfa_offset 8
 171              		.cfi_offset 4, -8
 172              		.cfi_offset 14, -4
 305:stepper.c     ****   
 173              		.loc 1 305 0
 174 0002 FFF7FEFF 		bl	Stepper_Timer_ReadStatusRegister
 175              	.LVL10:
 307:stepper.c     **** 
 176              		.loc 1 307 0
 177 0006 724B     		ldr	r3, .L30
 178 0008 93F82930 		ldrb	r3, [r3, #41]	@ zero_extendqisi2
 179 000c 13F0FF0F 		tst	r3, #255
 180 0010 40F0DC80 		bne	.L14
 310:stepper.c     **** 
 181              		.loc 1 310 0
 182 0014 6E4C     		ldr	r4, .L30
 183 0016 E07B     		ldrb	r0, [r4, #15]	@ zero_extendqisi2
 184 0018 FFF7FEFF 		bl	Control_Reg_Dir_Write
 185              	.LVL11:
 316:stepper.c     ****   #endif
 186              		.loc 1 316 0
 187 001c A07B     		ldrb	r0, [r4, #14]	@ zero_extendqisi2
 188 001e FFF7FEFF 		bl	Control_Reg_Step_Write
 189              	.LVL12:
 321:stepper.c     ****   Stepper_Timer_Start(); //sei(); // Re-enable interrupts to allow Stepper Port Reset Interrupt to 
 190              		.loc 1 321 0
 191 0022 0123     		movs	r3, #1
 192 0024 84F82930 		strb	r3, [r4, #41]
 322:stepper.c     ****          // NOTE: The remaining code in this ISR will finish before returning to main program.
 193              		.loc 1 322 0
 194 0028 FFF7FEFF 		bl	Stepper_Timer_Start
 195              	.LVL13:
 326:stepper.c     ****     // Anything in the buffer? If so, load and initialize next step segment.
 196              		.loc 1 326 0
 197 002c 636A     		ldr	r3, [r4, #36]
 198 002e 002B     		cmp	r3, #0
ARM GAS  C:\Users\Bart\AppData\Local\Temp\ccM05RYZ.s 			page 14


 199 0030 47D1     		bne	.L16
 328:stepper.c     ****       // Initialize new step segment and load number of steps to execute
 200              		.loc 1 328 0
 201 0032 94F82B20 		ldrb	r2, [r4, #43]	@ zero_extendqisi2
 202 0036 94F82A30 		ldrb	r3, [r4, #42]	@ zero_extendqisi2
 203 003a 9342     		cmp	r3, r2
 204 003c 34D0     		beq	.L17
 330:stepper.c     **** 
 205              		.loc 1 330 0
 206 003e 94F82B20 		ldrb	r2, [r4, #43]	@ zero_extendqisi2
 207 0042 04F12C03 		add	r3, r4, #44
 208 0046 03EBC203 		add	r3, r3, r2, lsl #3
 209 004a 6362     		str	r3, [r4, #36]
 338:stepper.c     ****       st.step_count = st.exec_segment->n_step; // NOTE: Can sometimes be zero when moving slow.
 210              		.loc 1 338 0
 211 004c 5888     		ldrh	r0, [r3, #2]
 212 004e FFF7FEFF 		bl	Stepper_Timer_WritePeriod
 213              	.LVL14:
 339:stepper.c     ****       // If the new segment starts a new planner block, initialize stepper variables and counters.
 214              		.loc 1 339 0
 215 0052 626A     		ldr	r2, [r4, #36]
 216 0054 1388     		ldrh	r3, [r2]
 217 0056 A383     		strh	r3, [r4, #28]	@ movhi
 342:stepper.c     ****         st.exec_block_index = st.exec_segment->st_block_index;
 218              		.loc 1 342 0
 219 0058 A17F     		ldrb	r1, [r4, #30]	@ zero_extendqisi2
 220 005a 1379     		ldrb	r3, [r2, #4]	@ zero_extendqisi2
 221 005c 9942     		cmp	r1, r3
 222 005e 0CD0     		beq	.L18
 343:stepper.c     ****         st.exec_block = &st_block_buffer[st.exec_block_index];
 223              		.loc 1 343 0
 224 0060 A377     		strb	r3, [r4, #30]
 344:stepper.c     **** 
 225              		.loc 1 344 0
 226 0062 04F15C00 		add	r0, r4, #92
 227 0066 03EB8303 		add	r3, r3, r3, lsl #2
 228 006a 9B00     		lsls	r3, r3, #2
 229 006c 0344     		add	r3, r3, r0
 230 006e 2362     		str	r3, [r4, #32]
 347:stepper.c     ****       }
 231              		.loc 1 347 0
 232 0070 DB68     		ldr	r3, [r3, #12]
 233 0072 5B08     		lsrs	r3, r3, #1
 234 0074 A360     		str	r3, [r4, #8]
 235 0076 6360     		str	r3, [r4, #4]
 236 0078 2360     		str	r3, [r4]
 237              	.L18:
 349:stepper.c     **** 
 238              		.loc 1 349 0
 239 007a 554B     		ldr	r3, .L30
 240 007c 196A     		ldr	r1, [r3, #32]
 241 007e 0C7C     		ldrb	r4, [r1, #16]	@ zero_extendqisi2
 242 0080 93F8C000 		ldrb	r0, [r3, #192]	@ zero_extendqisi2
 243 0084 6040     		eors	r0, r0, r4
 244 0086 D873     		strb	r0, [r3, #15]
 353:stepper.c     ****         st.steps[Y_AXIS] = st.exec_block->steps[Y_AXIS] >> st.exec_segment->amass_level;
 245              		.loc 1 353 0
ARM GAS  C:\Users\Bart\AppData\Local\Temp\ccM05RYZ.s 			page 15


 246 0088 0868     		ldr	r0, [r1]
 247 008a 5479     		ldrb	r4, [r2, #5]	@ zero_extendqisi2
 248 008c E040     		lsrs	r0, r0, r4
 249 008e 1861     		str	r0, [r3, #16]
 354:stepper.c     ****         st.steps[Z_AXIS] = st.exec_block->steps[Z_AXIS] >> st.exec_segment->amass_level;
 250              		.loc 1 354 0
 251 0090 4868     		ldr	r0, [r1, #4]
 252 0092 5479     		ldrb	r4, [r2, #5]	@ zero_extendqisi2
 253 0094 E040     		lsrs	r0, r0, r4
 254 0096 5861     		str	r0, [r3, #20]
 355:stepper.c     ****       #endif
 255              		.loc 1 355 0
 256 0098 8968     		ldr	r1, [r1, #8]
 257 009a 5079     		ldrb	r0, [r2, #5]	@ zero_extendqisi2
 258 009c C140     		lsrs	r1, r1, r0
 259 009e 9961     		str	r1, [r3, #24]
 360:stepper.c     ****       #endif
 260              		.loc 1 360 0
 261 00a0 9079     		ldrb	r0, [r2, #6]	@ zero_extendqisi2
 262 00a2 FFF7FEFF 		bl	spindle_set_speed
 263              	.LVL15:
 264 00a6 0CE0     		b	.L16
 265              	.L17:
 365:stepper.c     ****       #ifdef VARIABLE_SPINDLE
 266              		.loc 1 365 0
 267 00a8 FFF7FEFF 		bl	st_go_idle
 268              	.LVL16:
 368:stepper.c     ****       #endif
 269              		.loc 1 368 0
 270 00ac 484B     		ldr	r3, .L30
 271 00ae 1B6A     		ldr	r3, [r3, #32]
 272 00b0 5B7C     		ldrb	r3, [r3, #17]	@ zero_extendqisi2
 273 00b2 13B1     		cbz	r3, .L19
 368:stepper.c     ****       #endif
 274              		.loc 1 368 0 is_stmt 0 discriminator 1
 275 00b4 0020     		movs	r0, #0
 276 00b6 FFF7FEFF 		bl	spindle_set_speed
 277              	.LVL17:
 278              	.L19:
 370:stepper.c     ****       return; // Nothing to do but exit.
 279              		.loc 1 370 0 is_stmt 1
 280 00ba 0420     		movs	r0, #4
 281 00bc FFF7FEFF 		bl	system_set_exec_state_flag
 282              	.LVL18:
 371:stepper.c     ****     }
 283              		.loc 1 371 0
 284 00c0 10BD     		pop	{r4, pc}
 285              	.L16:
 377:stepper.c     **** 
 286              		.loc 1 377 0
 287 00c2 444B     		ldr	r3, .L30+4
 288 00c4 1B78     		ldrb	r3, [r3]	@ zero_extendqisi2
 289 00c6 DBB2     		uxtb	r3, r3
 290 00c8 012B     		cmp	r3, #1
 291 00ca 01D1     		bne	.L20
 377:stepper.c     **** 
 292              		.loc 1 377 0 is_stmt 0 discriminator 1
ARM GAS  C:\Users\Bart\AppData\Local\Temp\ccM05RYZ.s 			page 16


 293 00cc FFF7FEFF 		bl	probe_state_monitor
 294              	.LVL19:
 295              	.L20:
 380:stepper.c     **** 
 296              		.loc 1 380 0 is_stmt 1
 297 00d0 3F49     		ldr	r1, .L30
 298 00d2 0023     		movs	r3, #0
 299 00d4 8B73     		strb	r3, [r1, #14]
 384:stepper.c     ****   #else
 300              		.loc 1 384 0
 301 00d6 0A69     		ldr	r2, [r1, #16]
 302 00d8 0B68     		ldr	r3, [r1]
 303 00da 1A44     		add	r2, r2, r3
 304 00dc 0A60     		str	r2, [r1]
 388:stepper.c     ****     st.step_outbits |= (1<<X_STEP_BIT);
 305              		.loc 1 388 0
 306 00de 0B6A     		ldr	r3, [r1, #32]
 307 00e0 D968     		ldr	r1, [r3, #12]
 308 00e2 8A42     		cmp	r2, r1
 309 00e4 12D9     		bls	.L21
 389:stepper.c     ****     st.counter_x -= st.exec_block->step_event_count;
 310              		.loc 1 389 0
 311 00e6 3A49     		ldr	r1, .L30
 312 00e8 0120     		movs	r0, #1
 313 00ea 8873     		strb	r0, [r1, #14]
 390:stepper.c     ****     if (st.exec_block->direction_bits & (1<<X_DIRECTION_BIT)) { sys_position[X_AXIS]--; }
 314              		.loc 1 390 0
 315 00ec D868     		ldr	r0, [r3, #12]
 316 00ee 121A     		subs	r2, r2, r0
 317 00f0 0A60     		str	r2, [r1]
 391:stepper.c     ****     else { sys_position[X_AXIS]++; }
 318              		.loc 1 391 0
 319 00f2 1A7C     		ldrb	r2, [r3, #16]	@ zero_extendqisi2
 320 00f4 12F0010F 		tst	r2, #1
 321 00f8 04D0     		beq	.L22
 391:stepper.c     ****     else { sys_position[X_AXIS]++; }
 322              		.loc 1 391 0 is_stmt 0 discriminator 1
 323 00fa 3749     		ldr	r1, .L30+8
 324 00fc 0A68     		ldr	r2, [r1]
 325 00fe 013A     		subs	r2, r2, #1
 326 0100 0A60     		str	r2, [r1]
 327 0102 03E0     		b	.L21
 328              	.L22:
 392:stepper.c     ****   }
 329              		.loc 1 392 0 is_stmt 1
 330 0104 3449     		ldr	r1, .L30+8
 331 0106 0A68     		ldr	r2, [r1]
 332 0108 0132     		adds	r2, r2, #1
 333 010a 0A60     		str	r2, [r1]
 334              	.L21:
 395:stepper.c     ****   #else
 335              		.loc 1 395 0
 336 010c 3049     		ldr	r1, .L30
 337 010e 4869     		ldr	r0, [r1, #20]
 338 0110 4A68     		ldr	r2, [r1, #4]
 339 0112 0244     		add	r2, r2, r0
 340 0114 4A60     		str	r2, [r1, #4]
ARM GAS  C:\Users\Bart\AppData\Local\Temp\ccM05RYZ.s 			page 17


 399:stepper.c     ****     st.step_outbits |= (1<<Y_STEP_BIT);
 341              		.loc 1 399 0
 342 0116 D968     		ldr	r1, [r3, #12]
 343 0118 8A42     		cmp	r2, r1
 344 011a 14D9     		bls	.L23
 400:stepper.c     ****     st.counter_y -= st.exec_block->step_event_count;
 345              		.loc 1 400 0
 346 011c 2C49     		ldr	r1, .L30
 347 011e 887B     		ldrb	r0, [r1, #14]	@ zero_extendqisi2
 348 0120 40F00200 		orr	r0, r0, #2
 349 0124 8873     		strb	r0, [r1, #14]
 401:stepper.c     ****     if (st.exec_block->direction_bits & (1<<Y_DIRECTION_BIT)) { sys_position[Y_AXIS]--; }
 350              		.loc 1 401 0
 351 0126 D868     		ldr	r0, [r3, #12]
 352 0128 121A     		subs	r2, r2, r0
 353 012a 4A60     		str	r2, [r1, #4]
 402:stepper.c     ****     else { sys_position[Y_AXIS]++; }
 354              		.loc 1 402 0
 355 012c 1A7C     		ldrb	r2, [r3, #16]	@ zero_extendqisi2
 356 012e 12F0020F 		tst	r2, #2
 357 0132 04D0     		beq	.L24
 402:stepper.c     ****     else { sys_position[Y_AXIS]++; }
 358              		.loc 1 402 0 is_stmt 0 discriminator 1
 359 0134 2849     		ldr	r1, .L30+8
 360 0136 4A68     		ldr	r2, [r1, #4]
 361 0138 013A     		subs	r2, r2, #1
 362 013a 4A60     		str	r2, [r1, #4]
 363 013c 03E0     		b	.L23
 364              	.L24:
 403:stepper.c     ****   }
 365              		.loc 1 403 0 is_stmt 1
 366 013e 2649     		ldr	r1, .L30+8
 367 0140 4A68     		ldr	r2, [r1, #4]
 368 0142 0132     		adds	r2, r2, #1
 369 0144 4A60     		str	r2, [r1, #4]
 370              	.L23:
 406:stepper.c     ****   #else
 371              		.loc 1 406 0
 372 0146 2249     		ldr	r1, .L30
 373 0148 8869     		ldr	r0, [r1, #24]
 374 014a 8A68     		ldr	r2, [r1, #8]
 375 014c 0244     		add	r2, r2, r0
 376 014e 8A60     		str	r2, [r1, #8]
 410:stepper.c     ****     st.step_outbits |= (1<<Z_STEP_BIT);
 377              		.loc 1 410 0
 378 0150 D968     		ldr	r1, [r3, #12]
 379 0152 8A42     		cmp	r2, r1
 380 0154 14D9     		bls	.L25
 411:stepper.c     ****     st.counter_z -= st.exec_block->step_event_count;
 381              		.loc 1 411 0
 382 0156 1E49     		ldr	r1, .L30
 383 0158 887B     		ldrb	r0, [r1, #14]	@ zero_extendqisi2
 384 015a 40F00400 		orr	r0, r0, #4
 385 015e 8873     		strb	r0, [r1, #14]
 412:stepper.c     ****     if (st.exec_block->direction_bits & (1<<Z_DIRECTION_BIT)) { sys_position[Z_AXIS]--; }
 386              		.loc 1 412 0
 387 0160 D868     		ldr	r0, [r3, #12]
ARM GAS  C:\Users\Bart\AppData\Local\Temp\ccM05RYZ.s 			page 18


 388 0162 121A     		subs	r2, r2, r0
 389 0164 8A60     		str	r2, [r1, #8]
 413:stepper.c     ****     else { sys_position[Z_AXIS]++; }
 390              		.loc 1 413 0
 391 0166 1B7C     		ldrb	r3, [r3, #16]	@ zero_extendqisi2
 392 0168 13F0040F 		tst	r3, #4
 393 016c 04D0     		beq	.L26
 413:stepper.c     ****     else { sys_position[Z_AXIS]++; }
 394              		.loc 1 413 0 is_stmt 0 discriminator 1
 395 016e 1A4A     		ldr	r2, .L30+8
 396 0170 9368     		ldr	r3, [r2, #8]
 397 0172 013B     		subs	r3, r3, #1
 398 0174 9360     		str	r3, [r2, #8]
 399 0176 03E0     		b	.L25
 400              	.L26:
 414:stepper.c     ****   }
 401              		.loc 1 414 0 is_stmt 1
 402 0178 174A     		ldr	r2, .L30+8
 403 017a 9368     		ldr	r3, [r2, #8]
 404 017c 0133     		adds	r3, r3, #1
 405 017e 9360     		str	r3, [r2, #8]
 406              	.L25:
 418:stepper.c     **** 
 407              		.loc 1 418 0
 408 0180 164B     		ldr	r3, .L30+12
 409 0182 1B78     		ldrb	r3, [r3]	@ zero_extendqisi2
 410 0184 042B     		cmp	r3, #4
 411 0186 05D1     		bne	.L27
 418:stepper.c     **** 
 412              		.loc 1 418 0 is_stmt 0 discriminator 1
 413 0188 144B     		ldr	r3, .L30+12
 414 018a 9979     		ldrb	r1, [r3, #6]	@ zero_extendqisi2
 415 018c 104A     		ldr	r2, .L30
 416 018e 937B     		ldrb	r3, [r2, #14]	@ zero_extendqisi2
 417 0190 0B40     		ands	r3, r3, r1
 418 0192 9373     		strb	r3, [r2, #14]
 419              	.L27:
 420:stepper.c     ****   if (st.step_count == 0) {
 420              		.loc 1 420 0 is_stmt 1
 421 0194 0E4A     		ldr	r2, .L30
 422 0196 938B     		ldrh	r3, [r2, #28]
 423 0198 013B     		subs	r3, r3, #1
 424 019a 9BB2     		uxth	r3, r3
 425 019c 9383     		strh	r3, [r2, #28]	@ movhi
 421:stepper.c     ****     // Segment is complete. Discard current segment and advance segment indexing.
 426              		.loc 1 421 0
 427 019e 63B9     		cbnz	r3, .L28
 423:stepper.c     ****     if ( ++segment_buffer_tail == SEGMENT_BUFFER_SIZE) { segment_buffer_tail = 0; }
 428              		.loc 1 423 0
 429 01a0 5362     		str	r3, [r2, #36]
 424:stepper.c     ****   }
 430              		.loc 1 424 0
 431 01a2 92F82B30 		ldrb	r3, [r2, #43]	@ zero_extendqisi2
 432 01a6 0133     		adds	r3, r3, #1
 433 01a8 DBB2     		uxtb	r3, r3
 434 01aa 82F82B30 		strb	r3, [r2, #43]
 435 01ae 062B     		cmp	r3, #6
ARM GAS  C:\Users\Bart\AppData\Local\Temp\ccM05RYZ.s 			page 19


 436 01b0 03D1     		bne	.L28
 424:stepper.c     ****   }
 437              		.loc 1 424 0 is_stmt 0 discriminator 1
 438 01b2 0022     		movs	r2, #0
 439 01b4 064B     		ldr	r3, .L30
 440 01b6 83F82B20 		strb	r2, [r3, #43]
 441              	.L28:
 427:stepper.c     ****   busy = false;
 442              		.loc 1 427 0 is_stmt 1
 443 01ba 054B     		ldr	r3, .L30
 444 01bc 997B     		ldrb	r1, [r3, #14]	@ zero_extendqisi2
 445 01be 93F82820 		ldrb	r2, [r3, #40]	@ zero_extendqisi2
 446 01c2 4A40     		eors	r2, r2, r1
 447 01c4 9A73     		strb	r2, [r3, #14]
 428:stepper.c     **** }
 448              		.loc 1 428 0
 449 01c6 0022     		movs	r2, #0
 450 01c8 83F82920 		strb	r2, [r3, #41]
 451              	.L14:
 452 01cc 10BD     		pop	{r4, pc}
 453              	.L31:
 454 01ce 00BF     		.align	2
 455              	.L30:
 456 01d0 00000000 		.word	.LANCHOR0
 457 01d4 00000000 		.word	sys_probe_state
 458 01d8 00000000 		.word	sys_position
 459 01dc 00000000 		.word	sys
 460              		.cfi_endproc
 461              	.LFE65:
 462              		.size	stepper_timer_isr, .-stepper_timer_isr
 463              		.section	.text.st_generate_step_dir_invert_masks,"ax",%progbits
 464              		.align	2
 465              		.global	st_generate_step_dir_invert_masks
 466              		.thumb
 467              		.thumb_func
 468              		.type	st_generate_step_dir_invert_masks, %function
 469              	st_generate_step_dir_invert_masks:
 470              	.LFB66:
 458:stepper.c     ****   uint8_t idx;
 471              		.loc 1 458 0
 472              		.cfi_startproc
 473              		@ args = 0, pretend = 0, frame = 0
 474              		@ frame_needed = 0, uses_anonymous_args = 0
 475 0000 38B5     		push	{r3, r4, r5, lr}
 476              		.cfi_def_cfa_offset 16
 477              		.cfi_offset 3, -16
 478              		.cfi_offset 4, -12
 479              		.cfi_offset 5, -8
 480              		.cfi_offset 14, -4
 460:stepper.c     ****   dir_port_invert_mask = 0;
 481              		.loc 1 460 0
 482 0002 164B     		ldr	r3, .L38
 483 0004 0024     		movs	r4, #0
 484 0006 83F82840 		strb	r4, [r3, #40]
 461:stepper.c     ****   for (idx=0; idx<N_AXIS; idx++) {
 485              		.loc 1 461 0
 486 000a 83F8C040 		strb	r4, [r3, #192]
ARM GAS  C:\Users\Bart\AppData\Local\Temp\ccM05RYZ.s 			page 20


 487              	.LVL20:
 462:stepper.c     ****     if (bit_istrue(settings.step_invert_mask,bit(idx))) { step_port_invert_mask |= get_step_pin_mas
 488              		.loc 1 462 0
 489 000e 22E0     		b	.L33
 490              	.LVL21:
 491              	.L36:
 463:stepper.c     ****     if (bit_istrue(settings.dir_invert_mask,bit(idx))) { dir_port_invert_mask |= get_direction_pin_
 492              		.loc 1 463 0
 493 0010 134B     		ldr	r3, .L38+4
 494 0012 93F83130 		ldrb	r3, [r3, #49]	@ zero_extendqisi2
 495 0016 2546     		mov	r5, r4
 496 0018 2341     		asrs	r3, r3, r4
 497 001a 13F0010F 		tst	r3, #1
 498 001e 08D0     		beq	.L34
 463:stepper.c     ****     if (bit_istrue(settings.dir_invert_mask,bit(idx))) { dir_port_invert_mask |= get_direction_pin_
 499              		.loc 1 463 0 is_stmt 0 discriminator 1
 500 0020 2046     		mov	r0, r4
 501 0022 FFF7FEFF 		bl	get_step_pin_mask
 502              	.LVL22:
 503 0026 0D4A     		ldr	r2, .L38
 504 0028 92F82830 		ldrb	r3, [r2, #40]	@ zero_extendqisi2
 505 002c 1843     		orrs	r0, r0, r3
 506 002e 82F82800 		strb	r0, [r2, #40]
 507              	.L34:
 464:stepper.c     ****   }
 508              		.loc 1 464 0 is_stmt 1
 509 0032 0B4B     		ldr	r3, .L38+4
 510 0034 93F83230 		ldrb	r3, [r3, #50]	@ zero_extendqisi2
 511 0038 2B41     		asrs	r3, r3, r5
 512 003a 13F0010F 		tst	r3, #1
 513 003e 08D0     		beq	.L35
 464:stepper.c     ****   }
 514              		.loc 1 464 0 is_stmt 0 discriminator 1
 515 0040 2046     		mov	r0, r4
 516 0042 FFF7FEFF 		bl	get_direction_pin_mask
 517              	.LVL23:
 518 0046 054A     		ldr	r2, .L38
 519 0048 92F8C030 		ldrb	r3, [r2, #192]	@ zero_extendqisi2
 520 004c 1843     		orrs	r0, r0, r3
 521 004e 82F8C000 		strb	r0, [r2, #192]
 522              	.L35:
 462:stepper.c     ****     if (bit_istrue(settings.step_invert_mask,bit(idx))) { step_port_invert_mask |= get_step_pin_mas
 523              		.loc 1 462 0 is_stmt 1 discriminator 2
 524 0052 0134     		adds	r4, r4, #1
 525              	.LVL24:
 526 0054 E4B2     		uxtb	r4, r4
 527              	.LVL25:
 528              	.L33:
 462:stepper.c     ****     if (bit_istrue(settings.step_invert_mask,bit(idx))) { step_port_invert_mask |= get_step_pin_mas
 529              		.loc 1 462 0 is_stmt 0 discriminator 1
 530 0056 022C     		cmp	r4, #2
 531 0058 DAD9     		bls	.L36
 466:stepper.c     **** 
 532              		.loc 1 466 0 is_stmt 1
 533 005a 38BD     		pop	{r3, r4, r5, pc}
 534              	.LVL26:
 535              	.L39:
ARM GAS  C:\Users\Bart\AppData\Local\Temp\ccM05RYZ.s 			page 21


 536              		.align	2
 537              	.L38:
 538 005c 00000000 		.word	.LANCHOR0
 539 0060 00000000 		.word	settings
 540              		.cfi_endproc
 541              	.LFE66:
 542              		.size	st_generate_step_dir_invert_masks, .-st_generate_step_dir_invert_masks
 543              		.section	.text.st_reset,"ax",%progbits
 544              		.align	2
 545              		.global	st_reset
 546              		.thumb
 547              		.thumb_func
 548              		.type	st_reset, %function
 549              	st_reset:
 550              	.LFB67:
 471:stepper.c     ****   // Initialize stepper driver idle state.
 551              		.loc 1 471 0
 552              		.cfi_startproc
 553              		@ args = 0, pretend = 0, frame = 0
 554              		@ frame_needed = 0, uses_anonymous_args = 0
 555 0000 10B5     		push	{r4, lr}
 556              		.cfi_def_cfa_offset 8
 557              		.cfi_offset 4, -8
 558              		.cfi_offset 14, -4
 473:stepper.c     **** 
 559              		.loc 1 473 0
 560 0002 FFF7FEFF 		bl	st_go_idle
 561              	.LVL27:
 476:stepper.c     ****   memset(&st, 0, sizeof(stepper_t));
 562              		.loc 1 476 0
 563 0006 274C     		ldr	r4, .L42
 564 0008 0023     		movs	r3, #0
 565 000a C4F8C430 		str	r3, [r4, #196]
 566 000e C4F8C830 		str	r3, [r4, #200]
 567 0012 C4F8CC30 		str	r3, [r4, #204]
 568 0016 C4F8D030 		str	r3, [r4, #208]
 569 001a C4F8D430 		str	r3, [r4, #212]
 570 001e C4F8D830 		str	r3, [r4, #216]
 571 0022 C4F8DC30 		str	r3, [r4, #220]
 572 0026 C4F8E030 		str	r3, [r4, #224]
 573 002a C4F8E430 		str	r3, [r4, #228]
 574 002e C4F8E830 		str	r3, [r4, #232]
 575 0032 C4F8EC30 		str	r3, [r4, #236]
 576 0036 C4F8F030 		str	r3, [r4, #240]
 577 003a C4F8F430 		str	r3, [r4, #244]
 578 003e C4F8F830 		str	r3, [r4, #248]
 477:stepper.c     ****   st.exec_segment = NULL;
 579              		.loc 1 477 0
 580 0042 2246     		mov	r2, r4
 581 0044 42F8043B 		str	r3, [r2], #4
 582 0048 6360     		str	r3, [r4, #4]
 583 004a 0432     		adds	r2, r2, #4
 584 004c 42F8043B 		str	r3, [r2], #4
 585 0050 42F8043B 		str	r3, [r2], #4
 586 0054 42F8043B 		str	r3, [r2], #4
 587 0058 42F8043B 		str	r3, [r2], #4
 588 005c 42F8043B 		str	r3, [r2], #4
ARM GAS  C:\Users\Bart\AppData\Local\Temp\ccM05RYZ.s 			page 22


 589 0060 42F8043B 		str	r3, [r2], #4
 590 0064 42F8043B 		str	r3, [r2], #4
 591 0068 1360     		str	r3, [r2]
 479:stepper.c     ****   segment_buffer_tail = 0;
 592              		.loc 1 479 0
 593 006a C4F8FC30 		str	r3, [r4, #252]
 480:stepper.c     ****   segment_buffer_head = 0; // empty = tail
 594              		.loc 1 480 0
 595 006e 84F82B30 		strb	r3, [r4, #43]
 481:stepper.c     ****   segment_next_head = 1;
 596              		.loc 1 481 0
 597 0072 84F82A30 		strb	r3, [r4, #42]
 482:stepper.c     ****   busy = false;
 598              		.loc 1 482 0
 599 0076 0122     		movs	r2, #1
 600 0078 84F80021 		strb	r2, [r4, #256]
 483:stepper.c     **** 
 601              		.loc 1 483 0
 602 007c 84F82930 		strb	r3, [r4, #41]
 485:stepper.c     ****   st.dir_outbits = dir_port_invert_mask; // Initialize direction bits to default.
 603              		.loc 1 485 0
 604 0080 FFF7FEFF 		bl	st_generate_step_dir_invert_masks
 605              	.LVL28:
 486:stepper.c     **** 
 606              		.loc 1 486 0
 607 0084 94F8C030 		ldrb	r3, [r4, #192]	@ zero_extendqisi2
 608 0088 E373     		strb	r3, [r4, #15]
 489:stepper.c     ****   //STEP_PORT = (STEP_PORT & ~STEP_MASK) | step_port_invert_mask;
 609              		.loc 1 489 0
 610 008a 94F82800 		ldrb	r0, [r4, #40]	@ zero_extendqisi2
 611 008e 40F00700 		orr	r0, r0, #7
 612 0092 FFF7FEFF 		bl	Control_Reg_Step_Write
 613              	.LVL29:
 491:stepper.c     ****   //DIRECTION_PORT = (DIRECTION_PORT & ~DIRECTION_MASK) | dir_port_invert_mask;
 614              		.loc 1 491 0
 615 0096 94F8C000 		ldrb	r0, [r4, #192]	@ zero_extendqisi2
 616 009a 40F00700 		orr	r0, r0, #7
 617 009e FFF7FEFF 		bl	Control_Reg_Dir_Write
 618              	.LVL30:
 619 00a2 10BD     		pop	{r4, pc}
 620              	.L43:
 621              		.align	2
 622              	.L42:
 623 00a4 00000000 		.word	.LANCHOR0
 624              		.cfi_endproc
 625              	.LFE67:
 626              		.size	st_reset, .-st_reset
 627              		.section	.text.stepper_init,"ax",%progbits
 628              		.align	2
 629              		.global	stepper_init
 630              		.thumb
 631              		.thumb_func
 632              		.type	stepper_init, %function
 633              	stepper_init:
 634              	.LFB68:
 498:stepper.c     ****   Clock_Step_Pulse_Start();
 635              		.loc 1 498 0
ARM GAS  C:\Users\Bart\AppData\Local\Temp\ccM05RYZ.s 			page 23


 636              		.cfi_startproc
 637              		@ args = 0, pretend = 0, frame = 0
 638              		@ frame_needed = 0, uses_anonymous_args = 0
 639 0000 08B5     		push	{r3, lr}
 640              		.cfi_def_cfa_offset 8
 641              		.cfi_offset 3, -8
 642              		.cfi_offset 14, -4
 499:stepper.c     ****   isr_Step_StartEx(stepper_timer_isr);
 643              		.loc 1 499 0
 644 0002 FFF7FEFF 		bl	Clock_Step_Pulse_Start
 645              	.LVL31:
 500:stepper.c     **** }
 646              		.loc 1 500 0
 647 0006 0248     		ldr	r0, .L46
 648 0008 FFF7FEFF 		bl	isr_Step_StartEx
 649              	.LVL32:
 650 000c 08BD     		pop	{r3, pc}
 651              	.L47:
 652 000e 00BF     		.align	2
 653              	.L46:
 654 0010 00000000 		.word	stepper_timer_isr
 655              		.cfi_endproc
 656              	.LFE68:
 657              		.size	stepper_init, .-stepper_init
 658              		.global	__aeabi_fmul
 659              		.section	.text.st_update_plan_block_parameters,"ax",%progbits
 660              		.align	2
 661              		.global	st_update_plan_block_parameters
 662              		.thumb
 663              		.thumb_func
 664              		.type	st_update_plan_block_parameters, %function
 665              	st_update_plan_block_parameters:
 666              	.LFB69:
 506:stepper.c     ****   if (pl_block != NULL) { // Ignore if at start of a new block.
 667              		.loc 1 506 0
 668              		.cfi_startproc
 669              		@ args = 0, pretend = 0, frame = 0
 670              		@ frame_needed = 0, uses_anonymous_args = 0
 671 0000 38B5     		push	{r3, r4, r5, lr}
 672              		.cfi_def_cfa_offset 16
 673              		.cfi_offset 3, -16
 674              		.cfi_offset 4, -12
 675              		.cfi_offset 5, -8
 676              		.cfi_offset 14, -4
 507:stepper.c     ****     prep.recalculate_flag |= PREP_FLAG_RECALCULATE;
 677              		.loc 1 507 0
 678 0002 0A4B     		ldr	r3, .L51
 679 0004 D3F8FC50 		ldr	r5, [r3, #252]
 680 0008 7DB1     		cbz	r5, .L48
 508:stepper.c     ****     pl_block->entry_speed_sqr = prep.current_speed*prep.current_speed; // Update entry speed.
 681              		.loc 1 508 0
 682 000a 1C46     		mov	r4, r3
 683 000c 93F8C530 		ldrb	r3, [r3, #197]	@ zero_extendqisi2
 684 0010 43F00103 		orr	r3, r3, #1
 685 0014 84F8C530 		strb	r3, [r4, #197]
 509:stepper.c     ****     pl_block = NULL; // Flag st_prep_segment() to load and check active velocity profile.
 686              		.loc 1 509 0
ARM GAS  C:\Users\Bart\AppData\Local\Temp\ccM05RYZ.s 			page 24


 687 0018 D4F8E000 		ldr	r0, [r4, #224]	@ float
 688 001c 0146     		mov	r1, r0
 689 001e FFF7FEFF 		bl	__aeabi_fmul
 690              	.LVL33:
 691 0022 6861     		str	r0, [r5, #20]	@ float
 510:stepper.c     ****   }
 692              		.loc 1 510 0
 693 0024 0023     		movs	r3, #0
 694 0026 C4F8FC30 		str	r3, [r4, #252]
 695              	.L48:
 696 002a 38BD     		pop	{r3, r4, r5, pc}
 697              	.L52:
 698              		.align	2
 699              	.L51:
 700 002c 00000000 		.word	.LANCHOR0
 701              		.cfi_endproc
 702              	.LFE69:
 703              		.size	st_update_plan_block_parameters, .-st_update_plan_block_parameters
 704              		.global	__aeabi_ui2f
 705              		.global	__aeabi_fdiv
 706              		.global	__aeabi_f2d
 707              		.global	__aeabi_d2f
 708              		.global	__aeabi_fsub
 709              		.global	__aeabi_fcmplt
 710              		.global	__aeabi_fadd
 711              		.global	__aeabi_fcmple
 712              		.global	__aeabi_fcmpgt
 713              		.global	__aeabi_fcmpeq
 714              		.global	__aeabi_dadd
 715              		.global	__aeabi_dmul
 716              		.global	__aeabi_dsub
 717              		.global	__aeabi_ddiv
 718              		.global	__aeabi_f2uiz
 719              		.global	__aeabi_d2uiz
 720              		.section	.text.st_prep_buffer,"ax",%progbits
 721              		.align	2
 722              		.global	st_prep_buffer
 723              		.thumb
 724              		.thumb_func
 725              		.type	st_prep_buffer, %function
 726              	st_prep_buffer:
 727              	.LFB71:
 522:stepper.c     **** 
 523:stepper.c     **** 
 524:stepper.c     **** #ifdef PARKING_ENABLE
 525:stepper.c     ****   // Changes the run state of the step segment buffer to execute the special parking motion.
 526:stepper.c     ****   void st_parking_setup_buffer()
 527:stepper.c     ****   {
 528:stepper.c     ****     // Store step execution data of partially completed block, if necessary.
 529:stepper.c     ****     if (prep.recalculate_flag & PREP_FLAG_HOLD_PARTIAL_BLOCK) {
 530:stepper.c     ****       prep.last_st_block_index = prep.st_block_index;
 531:stepper.c     ****       prep.last_steps_remaining = prep.steps_remaining;
 532:stepper.c     ****       prep.last_dt_remainder = prep.dt_remainder;
 533:stepper.c     ****       prep.last_step_per_mm = prep.step_per_mm;
 534:stepper.c     ****     }
 535:stepper.c     ****     // Set flags to execute a parking motion
 536:stepper.c     ****     prep.recalculate_flag |= PREP_FLAG_PARKING;
ARM GAS  C:\Users\Bart\AppData\Local\Temp\ccM05RYZ.s 			page 25


 537:stepper.c     ****     prep.recalculate_flag &= ~(PREP_FLAG_RECALCULATE);
 538:stepper.c     ****     pl_block = NULL; // Always reset parking motion to reload new block.
 539:stepper.c     ****   }
 540:stepper.c     **** 
 541:stepper.c     **** 
 542:stepper.c     ****   // Restores the step segment buffer to the normal run state after a parking motion.
 543:stepper.c     ****   void st_parking_restore_buffer()
 544:stepper.c     ****   {
 545:stepper.c     ****     // Restore step execution data and flags of partially completed block, if necessary.
 546:stepper.c     ****     if (prep.recalculate_flag & PREP_FLAG_HOLD_PARTIAL_BLOCK) {
 547:stepper.c     ****       st_prep_block = &st_block_buffer[prep.last_st_block_index];
 548:stepper.c     ****       prep.st_block_index = prep.last_st_block_index;
 549:stepper.c     ****       prep.steps_remaining = prep.last_steps_remaining;
 550:stepper.c     ****       prep.dt_remainder = prep.last_dt_remainder;
 551:stepper.c     ****       prep.step_per_mm = prep.last_step_per_mm;
 552:stepper.c     ****       prep.recalculate_flag = (PREP_FLAG_HOLD_PARTIAL_BLOCK | PREP_FLAG_RECALCULATE);
 553:stepper.c     ****       prep.req_mm_increment = REQ_MM_INCREMENT_SCALAR/prep.step_per_mm; // Recompute this value.
 554:stepper.c     ****     } else {
 555:stepper.c     ****       prep.recalculate_flag = false;
 556:stepper.c     ****     }
 557:stepper.c     ****     pl_block = NULL; // Set to reload next block.
 558:stepper.c     ****   }
 559:stepper.c     **** #endif
 560:stepper.c     **** 
 561:stepper.c     **** 
 562:stepper.c     **** /* Prepares step segment buffer. Continuously called from main program.
 563:stepper.c     **** 
 564:stepper.c     ****    The segment buffer is an intermediary buffer interface between the execution of steps
 565:stepper.c     ****    by the stepper algorithm and the velocity profiles generated by the planner. The stepper
 566:stepper.c     ****    algorithm only executes steps within the segment buffer and is filled by the main program
 567:stepper.c     ****    when steps are "checked-out" from the first block in the planner buffer. This keeps the
 568:stepper.c     ****    step execution and planning optimization processes atomic and protected from each other.
 569:stepper.c     ****    The number of steps "checked-out" from the planner buffer and the number of segments in
 570:stepper.c     ****    the segment buffer is sized and computed such that no operation in the main program takes
 571:stepper.c     ****    longer than the time it takes the stepper algorithm to empty it before refilling it.
 572:stepper.c     ****    Currently, the segment buffer conservatively holds roughly up to 40-50 msec of steps.
 573:stepper.c     ****    NOTE: Computation units are in steps, millimeters, and minutes.
 574:stepper.c     **** */
 575:stepper.c     **** void st_prep_buffer()
 576:stepper.c     **** {
 728              		.loc 1 576 0
 729              		.cfi_startproc
 730              		@ args = 0, pretend = 0, frame = 32
 731              		@ frame_needed = 0, uses_anonymous_args = 0
 577:stepper.c     ****   // Block step prep buffer, while in a suspend state and there is no suspend motion to execute.
 578:stepper.c     ****   if (bit_istrue(sys.step_control,STEP_CONTROL_END_MOTION)) { return; }
 732              		.loc 1 578 0
 733 0000 B44B     		ldr	r3, .L162
 734 0002 1B79     		ldrb	r3, [r3, #4]	@ zero_extendqisi2
 735 0004 13F0010F 		tst	r3, #1
 736 0008 00F0AB84 		beq	.L161
 737 000c 7047     		bx	lr
 738              	.L127:
 739              		.cfi_def_cfa_offset 72
 740              		.cfi_offset 4, -36
 741              		.cfi_offset 5, -32
 742              		.cfi_offset 6, -28
ARM GAS  C:\Users\Bart\AppData\Local\Temp\ccM05RYZ.s 			page 26


 743              		.cfi_offset 7, -24
 744              		.cfi_offset 8, -20
 745              		.cfi_offset 9, -16
 746              		.cfi_offset 10, -12
 747              		.cfi_offset 11, -8
 748              		.cfi_offset 14, -4
 749              	.LBB2:
 579:stepper.c     **** 
 580:stepper.c     ****   while (segment_buffer_tail != segment_next_head) { // Check if we need to fill the buffer.
 581:stepper.c     **** 
 582:stepper.c     ****     // Determine if we need to load a new planner block or if the block needs to be recomputed.
 583:stepper.c     ****     if (pl_block == NULL) {
 750              		.loc 1 583 0
 751 000e B24B     		ldr	r3, .L162+4
 752 0010 D3F8FC30 		ldr	r3, [r3, #252]
 753 0014 002B     		cmp	r3, #0
 754 0016 40F0D981 		bne	.L56
 755              	.LBB3:
 584:stepper.c     **** 
 585:stepper.c     ****       // Query planner for a queued block
 586:stepper.c     ****       if (sys.step_control & STEP_CONTROL_EXECUTE_SYS_MOTION) { pl_block = plan_get_system_motion_b
 756              		.loc 1 586 0
 757 001a AE4B     		ldr	r3, .L162
 758 001c 1B79     		ldrb	r3, [r3, #4]	@ zero_extendqisi2
 759 001e 13F0040F 		tst	r3, #4
 760 0022 05D0     		beq	.L57
 761              		.loc 1 586 0 is_stmt 0 discriminator 1
 762 0024 FFF7FEFF 		bl	plan_get_system_motion_block
 763              	.LVL34:
 764 0028 AB4B     		ldr	r3, .L162+4
 765 002a C3F8FC00 		str	r0, [r3, #252]
 766 002e 04E0     		b	.L58
 767              	.L57:
 587:stepper.c     ****       else { pl_block = plan_get_current_block(); }
 768              		.loc 1 587 0 is_stmt 1
 769 0030 FFF7FEFF 		bl	plan_get_current_block
 770              	.LVL35:
 771 0034 A84B     		ldr	r3, .L162+4
 772 0036 C3F8FC00 		str	r0, [r3, #252]
 773              	.L58:
 588:stepper.c     ****       if (pl_block == NULL) { return; } // No planner blocks. Exit.
 774              		.loc 1 588 0
 775 003a A74B     		ldr	r3, .L162+4
 776 003c D3F8FC40 		ldr	r4, [r3, #252]
 777 0040 002C     		cmp	r4, #0
 778 0042 00F09A84 		beq	.L53
 589:stepper.c     **** 
 590:stepper.c     ****       // Check if we need to only recompute the velocity profile or load a new block.
 591:stepper.c     ****       if (prep.recalculate_flag & PREP_FLAG_RECALCULATE) {
 779              		.loc 1 591 0
 780 0046 93F8C530 		ldrb	r3, [r3, #197]	@ zero_extendqisi2
 781 004a 13F0010F 		tst	r3, #1
 782 004e 04D0     		beq	.L59
 592:stepper.c     **** 
 593:stepper.c     ****         #ifdef PARKING_ENABLE
 594:stepper.c     ****           if (prep.recalculate_flag & PREP_FLAG_PARKING) { prep.recalculate_flag &= ~(PREP_FLAG_REC
 595:stepper.c     ****           else { prep.recalculate_flag = false; }
ARM GAS  C:\Users\Bart\AppData\Local\Temp\ccM05RYZ.s 			page 27


 596:stepper.c     ****         #else
 597:stepper.c     ****           prep.recalculate_flag = false;
 783              		.loc 1 597 0
 784 0050 0022     		movs	r2, #0
 785 0052 A14B     		ldr	r3, .L162+4
 786 0054 83F8C520 		strb	r2, [r3, #197]
 787 0058 73E0     		b	.L60
 788              	.L59:
 789              	.LBB4:
 598:stepper.c     ****         #endif
 599:stepper.c     **** 
 600:stepper.c     ****       } else {
 601:stepper.c     **** 
 602:stepper.c     ****         // Load the Bresenham stepping data for the block.
 603:stepper.c     ****         prep.st_block_index = st_next_block_index(prep.st_block_index);
 790              		.loc 1 603 0
 791 005a 9F4D     		ldr	r5, .L162+4
 792 005c 95F8C400 		ldrb	r0, [r5, #196]	@ zero_extendqisi2
 793 0060 FFF7FEFF 		bl	st_next_block_index
 794              	.LVL36:
 795 0064 85F8C400 		strb	r0, [r5, #196]
 604:stepper.c     **** 
 605:stepper.c     ****         // Prepare and copy Bresenham algorithm segment data from the new planner block, so that
 606:stepper.c     ****         // when the segment buffer completes the planner block, it may be discarded when the
 607:stepper.c     ****         // segment buffer finishes the prepped block, but the stepper ISR is still executing it.
 608:stepper.c     ****         st_prep_block = &st_block_buffer[prep.st_block_index];
 796              		.loc 1 608 0
 797 0068 05F15C02 		add	r2, r5, #92
 798 006c 00EB8000 		add	r0, r0, r0, lsl #2
 799 0070 8000     		lsls	r0, r0, #2
 800 0072 0244     		add	r2, r2, r0
 801 0074 C5F80421 		str	r2, [r5, #260]
 609:stepper.c     ****         st_prep_block->direction_bits = pl_block->direction_bits;
 802              		.loc 1 609 0
 803 0078 237C     		ldrb	r3, [r4, #16]	@ zero_extendqisi2
 804 007a 1374     		strb	r3, [r2, #16]
 805              	.LVL37:
 610:stepper.c     ****         uint8_t idx;
 611:stepper.c     ****         #ifndef ADAPTIVE_MULTI_AXIS_STEP_SMOOTHING
 612:stepper.c     ****           for (idx=0; idx<N_AXIS; idx++) { st_prep_block->steps[idx] = pl_block->steps[idx]; }
 613:stepper.c     ****           st_prep_block->step_event_count = pl_block->step_event_count;
 614:stepper.c     ****         #else
 615:stepper.c     ****           // With AMASS enabled, simply bit-shift multiply all Bresenham data by the max AMASS
 616:stepper.c     ****           // level, such that we never divide beyond the original data anywhere in the algorithm.
 617:stepper.c     ****           // If the original data is divided, we can lose a step from integer roundoff.
 618:stepper.c     ****           for (idx=0; idx<N_AXIS; idx++) { st_prep_block->steps[idx] = pl_block->steps[idx] << MAX_
 806              		.loc 1 618 0
 807 007c 0023     		movs	r3, #0
 808 007e 06E0     		b	.L61
 809              	.LVL38:
 810              	.L62:
 811              		.loc 1 618 0 is_stmt 0 discriminator 3
 812 0080 54F82310 		ldr	r1, [r4, r3, lsl #2]
 813 0084 C900     		lsls	r1, r1, #3
 814 0086 42F82310 		str	r1, [r2, r3, lsl #2]
 815 008a 0133     		adds	r3, r3, #1
 816              	.LVL39:
ARM GAS  C:\Users\Bart\AppData\Local\Temp\ccM05RYZ.s 			page 28


 817 008c DBB2     		uxtb	r3, r3
 818              	.LVL40:
 819              	.L61:
 820              		.loc 1 618 0 discriminator 1
 821 008e 022B     		cmp	r3, #2
 822 0090 F6D9     		bls	.L62
 619:stepper.c     ****           st_prep_block->step_event_count = pl_block->step_event_count << MAX_AMASS_LEVEL;
 823              		.loc 1 619 0 is_stmt 1
 824 0092 E368     		ldr	r3, [r4, #12]
 825              	.LVL41:
 826 0094 DB00     		lsls	r3, r3, #3
 827 0096 D360     		str	r3, [r2, #12]
 620:stepper.c     ****         #endif
 621:stepper.c     **** 
 622:stepper.c     ****         // Initialize segment buffer data for generating the segments.
 623:stepper.c     ****         prep.steps_remaining = (float)pl_block->step_event_count;
 828              		.loc 1 623 0
 829 0098 E068     		ldr	r0, [r4, #12]
 830 009a FFF7FEFF 		bl	__aeabi_ui2f
 831              	.LVL42:
 832 009e 8E4D     		ldr	r5, .L162+4
 833 00a0 C5F8CC00 		str	r0, [r5, #204]	@ float
 624:stepper.c     ****         prep.step_per_mm = prep.steps_remaining/pl_block->millimeters;
 834              		.loc 1 624 0
 835 00a4 216A     		ldr	r1, [r4, #32]	@ float
 836 00a6 FFF7FEFF 		bl	__aeabi_fdiv
 837              	.LVL43:
 838 00aa 0146     		mov	r1, r0
 839 00ac C5F8D000 		str	r0, [r5, #208]	@ float
 625:stepper.c     ****         prep.req_mm_increment = REQ_MM_INCREMENT_SCALAR/prep.step_per_mm;
 840              		.loc 1 625 0
 841 00b0 8A48     		ldr	r0, .L162+8
 842 00b2 FFF7FEFF 		bl	__aeabi_fdiv
 843              	.LVL44:
 844 00b6 C5F8D400 		str	r0, [r5, #212]	@ float
 626:stepper.c     ****         prep.dt_remainder = 0.0; // Reset for new segment block
 845              		.loc 1 626 0
 846 00ba 0023     		movs	r3, #0
 847 00bc C5F8C830 		str	r3, [r5, #200]	@ float
 627:stepper.c     **** 
 628:stepper.c     ****         if ((sys.step_control & STEP_CONTROL_EXECUTE_HOLD) || (prep.recalculate_flag & PREP_FLAG_DE
 848              		.loc 1 628 0
 849 00c0 844B     		ldr	r3, .L162
 850 00c2 1B79     		ldrb	r3, [r3, #4]	@ zero_extendqisi2
 851 00c4 13F0020F 		tst	r3, #2
 852 00c8 04D1     		bne	.L63
 853              		.loc 1 628 0 is_stmt 0 discriminator 1
 854 00ca 95F8C530 		ldrb	r3, [r5, #197]	@ zero_extendqisi2
 855 00ce 13F0080F 		tst	r3, #8
 856 00d2 0FD0     		beq	.L64
 857              	.L63:
 629:stepper.c     ****           // New block loaded mid-hold. Override planner block entry speed to enforce deceleration.
 630:stepper.c     ****           prep.current_speed = prep.exit_speed;
 858              		.loc 1 630 0 is_stmt 1
 859 00d4 804D     		ldr	r5, .L162+4
 860 00d6 D5F8E810 		ldr	r1, [r5, #232]	@ float
 861 00da C5F8E010 		str	r1, [r5, #224]	@ float
ARM GAS  C:\Users\Bart\AppData\Local\Temp\ccM05RYZ.s 			page 29


 631:stepper.c     ****           pl_block->entry_speed_sqr = prep.exit_speed*prep.exit_speed;
 862              		.loc 1 631 0
 863 00de 0846     		mov	r0, r1
 864 00e0 FFF7FEFF 		bl	__aeabi_fmul
 865              	.LVL45:
 866 00e4 6061     		str	r0, [r4, #20]	@ float
 632:stepper.c     ****           prep.recalculate_flag &= ~(PREP_FLAG_DECEL_OVERRIDE);
 867              		.loc 1 632 0
 868 00e6 95F8C530 		ldrb	r3, [r5, #197]	@ zero_extendqisi2
 869 00ea 23F00803 		bic	r3, r3, #8
 870 00ee 85F8C530 		strb	r3, [r5, #197]
 871 00f2 0AE0     		b	.L65
 872              	.L64:
 633:stepper.c     ****         } else {
 634:stepper.c     ****           prep.current_speed = sqrt(pl_block->entry_speed_sqr);
 873              		.loc 1 634 0
 874 00f4 6469     		ldr	r4, [r4, #20]	@ float
 875 00f6 2046     		mov	r0, r4
 876 00f8 FFF7FEFF 		bl	__aeabi_f2d
 877              	.LVL46:
 878 00fc FFF7FEFF 		bl	sqrt
 879              	.LVL47:
 880 0100 FFF7FEFF 		bl	__aeabi_d2f
 881              	.LVL48:
 882 0104 744B     		ldr	r3, .L162+4
 883 0106 C3F8E000 		str	r0, [r3, #224]	@ float
 884              	.L65:
 635:stepper.c     ****         }
 636:stepper.c     ****         
 637:stepper.c     ****         #ifdef VARIABLE_SPINDLE
 638:stepper.c     ****           // Setup laser mode variables. PWM rate adjusted motions will always complete a motion wi
 639:stepper.c     ****           // spindle off. 
 640:stepper.c     ****           st_prep_block->is_pwm_rate_adjusted = false;
 885              		.loc 1 640 0
 886 010a 734B     		ldr	r3, .L162+4
 887 010c D3F80441 		ldr	r4, [r3, #260]
 888 0110 0023     		movs	r3, #0
 889 0112 6374     		strb	r3, [r4, #17]
 641:stepper.c     ****           if (settings.flags & BITFLAG_LASER_MODE) {
 890              		.loc 1 641 0
 891 0114 724B     		ldr	r3, .L162+12
 892 0116 93F84830 		ldrb	r3, [r3, #72]	@ zero_extendqisi2
 893 011a 13F0020F 		tst	r3, #2
 894 011e 10D0     		beq	.L60
 642:stepper.c     ****             if (pl_block->condition & PL_COND_FLAG_SPINDLE_CCW) { 
 895              		.loc 1 642 0
 896 0120 6D4B     		ldr	r3, .L162+4
 897 0122 D3F8FC30 		ldr	r3, [r3, #252]
 898 0126 5A7C     		ldrb	r2, [r3, #17]	@ zero_extendqisi2
 899 0128 12F0200F 		tst	r2, #32
 900 012c 09D0     		beq	.L60
 643:stepper.c     ****               // Pre-compute inverse programmed rate to speed up PWM updating per step segment.
 644:stepper.c     ****               prep.inv_rate = 1.0/pl_block->programmed_rate;
 901              		.loc 1 644 0
 902 012e 4FF07E50 		mov	r0, #1065353216
 903 0132 D96A     		ldr	r1, [r3, #44]	@ float
 904 0134 FFF7FEFF 		bl	__aeabi_fdiv
ARM GAS  C:\Users\Bart\AppData\Local\Temp\ccM05RYZ.s 			page 30


 905              	.LVL49:
 906 0138 674B     		ldr	r3, .L162+4
 907 013a C3F8F400 		str	r0, [r3, #244]	@ float
 645:stepper.c     ****               st_prep_block->is_pwm_rate_adjusted = true; 
 908              		.loc 1 645 0
 909 013e 0123     		movs	r3, #1
 910 0140 6374     		strb	r3, [r4, #17]
 911              	.L60:
 912              	.LBE4:
 646:stepper.c     ****             }
 647:stepper.c     ****           }
 648:stepper.c     ****         #endif
 649:stepper.c     ****       }
 650:stepper.c     **** 
 651:stepper.c     **** 			/* ---------------------------------------------------------------------------------
 652:stepper.c     **** 			 Compute the velocity profile of a new planner block based on its entry and exit
 653:stepper.c     **** 			 speeds, or recompute the profile of a partially-completed planner block if the
 654:stepper.c     **** 			 planner has updated it. For a commanded forced-deceleration, such as from a feed
 655:stepper.c     **** 			 hold, override the planner velocities and decelerate to the target exit speed.
 656:stepper.c     **** 			*/
 657:stepper.c     **** 			prep.mm_complete = 0.0; // Default velocity profile complete at 0.0mm from end of block.
 913              		.loc 1 657 0
 914 0142 654B     		ldr	r3, .L162+4
 915 0144 0022     		movs	r2, #0
 916 0146 C3F8DC20 		str	r2, [r3, #220]	@ float
 658:stepper.c     **** 			float inv_2_accel = 0.5/pl_block->acceleration;
 917              		.loc 1 658 0
 918 014a D3F8FC40 		ldr	r4, [r3, #252]
 919 014e E669     		ldr	r6, [r4, #28]	@ float
 920 0150 4FF07C50 		mov	r0, #1056964608
 921 0154 3146     		mov	r1, r6
 922 0156 FFF7FEFF 		bl	__aeabi_fdiv
 923              	.LVL50:
 924 015a 0546     		mov	r5, r0
 925              	.LVL51:
 659:stepper.c     **** 			if (sys.step_control & STEP_CONTROL_EXECUTE_HOLD) { // [Forced Deceleration to Zero Velocity]
 926              		.loc 1 659 0
 927 015c 5D4B     		ldr	r3, .L162
 928 015e 1B79     		ldrb	r3, [r3, #4]	@ zero_extendqisi2
 929 0160 13F0020F 		tst	r3, #2
 930 0164 31D0     		beq	.L66
 931              	.LBB5:
 660:stepper.c     **** 				// Compute velocity profile parameters for a feed hold in-progress. This profile overrides
 661:stepper.c     **** 				// the planner block profile, enforcing a deceleration to zero speed.
 662:stepper.c     **** 				prep.ramp_type = RAMP_DECEL;
 932              		.loc 1 662 0
 933 0166 0222     		movs	r2, #2
 934 0168 5B4B     		ldr	r3, .L162+4
 935 016a 83F8D820 		strb	r2, [r3, #216]
 663:stepper.c     **** 				// Compute decelerate distance relative to end of block.
 664:stepper.c     **** 				float decel_dist = pl_block->millimeters - inv_2_accel*pl_block->entry_speed_sqr;
 936              		.loc 1 664 0
 937 016e 276A     		ldr	r7, [r4, #32]	@ float
 938 0170 6469     		ldr	r4, [r4, #20]	@ float
 939 0172 2046     		mov	r0, r4
 940              	.LVL52:
 941 0174 2946     		mov	r1, r5
ARM GAS  C:\Users\Bart\AppData\Local\Temp\ccM05RYZ.s 			page 31


 942 0176 FFF7FEFF 		bl	__aeabi_fmul
 943              	.LVL53:
 944 017a 0146     		mov	r1, r0
 945 017c 3846     		mov	r0, r7
 946 017e FFF7FEFF 		bl	__aeabi_fsub
 947              	.LVL54:
 948 0182 0546     		mov	r5, r0
 949              	.LVL55:
 665:stepper.c     **** 				if (decel_dist < 0.0) {
 950              		.loc 1 665 0
 951 0184 0021     		movs	r1, #0
 952 0186 FFF7FEFF 		bl	__aeabi_fcmplt
 953              	.LVL56:
 954 018a B8B1     		cbz	r0, .L146
 666:stepper.c     **** 					// Deceleration through entire planner block. End of feed hold is not in this block.
 667:stepper.c     **** 					prep.exit_speed = sqrt(pl_block->entry_speed_sqr-2*pl_block->acceleration*pl_block->millimeter
 955              		.loc 1 667 0
 956 018c 3046     		mov	r0, r6
 957 018e 3146     		mov	r1, r6
 958 0190 FFF7FEFF 		bl	__aeabi_fadd
 959              	.LVL57:
 960 0194 0146     		mov	r1, r0
 961 0196 3846     		mov	r0, r7
 962 0198 FFF7FEFF 		bl	__aeabi_fmul
 963              	.LVL58:
 964 019c 0146     		mov	r1, r0
 965 019e 2046     		mov	r0, r4
 966 01a0 FFF7FEFF 		bl	__aeabi_fsub
 967              	.LVL59:
 968 01a4 0446     		mov	r4, r0
 969 01a6 2046     		mov	r0, r4
 970 01a8 FFF7FEFF 		bl	__aeabi_f2d
 971              	.LVL60:
 972 01ac FFF7FEFF 		bl	sqrt
 973              	.LVL61:
 974 01b0 FFF7FEFF 		bl	__aeabi_d2f
 975              	.LVL62:
 976 01b4 484B     		ldr	r3, .L162+4
 977 01b6 C3F8E800 		str	r0, [r3, #232]	@ float
 978 01ba 02E1     		b	.L69
 979              	.L146:
 668:stepper.c     **** 				} else {
 669:stepper.c     **** 					prep.mm_complete = decel_dist; // End of feed hold.
 980              		.loc 1 669 0
 981 01bc 464B     		ldr	r3, .L162+4
 982 01be C3F8DC50 		str	r5, [r3, #220]	@ float
 670:stepper.c     **** 					prep.exit_speed = 0.0;
 983              		.loc 1 670 0
 984 01c2 0022     		movs	r2, #0
 985 01c4 C3F8E820 		str	r2, [r3, #232]	@ float
 986 01c8 FBE0     		b	.L69
 987              	.LVL63:
 988              	.L66:
 989              	.LBE5:
 990              	.LBB6:
 671:stepper.c     **** 				}
 672:stepper.c     **** 			} else { // [Normal Operation]
ARM GAS  C:\Users\Bart\AppData\Local\Temp\ccM05RYZ.s 			page 32


 673:stepper.c     **** 				// Compute or recompute velocity profile parameters of the prepped planner block.
 674:stepper.c     **** 				prep.ramp_type = RAMP_ACCEL; // Initialize as acceleration ramp.
 991              		.loc 1 674 0
 992 01ca 434A     		ldr	r2, .L162+4
 993 01cc 0021     		movs	r1, #0
 994 01ce 82F8D810 		strb	r1, [r2, #216]
 675:stepper.c     **** 				prep.accelerate_until = pl_block->millimeters;
 995              		.loc 1 675 0
 996 01d2 216A     		ldr	r1, [r4, #32]	@ float
 997 01d4 C2F8EC10 		str	r1, [r2, #236]	@ float
 676:stepper.c     **** 
 677:stepper.c     **** 				float exit_speed_sqr;
 678:stepper.c     **** 				float nominal_speed;
 679:stepper.c     ****         if (sys.step_control & STEP_CONTROL_EXECUTE_SYS_MOTION) {
 998              		.loc 1 679 0
 999 01d8 13F0040F 		tst	r3, #4
 1000 01dc 03D0     		beq	.L70
 1001              	.LVL64:
 680:stepper.c     ****           prep.exit_speed = exit_speed_sqr = 0.0; // Enforce stop at end of system motion.
 1002              		.loc 1 680 0
 1003 01de 0024     		movs	r4, #0
 1004 01e0 C2F8E840 		str	r4, [r2, #232]	@ float
 1005 01e4 0CE0     		b	.L71
 1006              	.LVL65:
 1007              	.L70:
 681:stepper.c     ****         } else {
 682:stepper.c     ****           exit_speed_sqr = plan_get_exec_block_exit_speed_sqr();
 1008              		.loc 1 682 0
 1009 01e6 FFF7FEFF 		bl	plan_get_exec_block_exit_speed_sqr
 1010              	.LVL66:
 1011 01ea 0446     		mov	r4, r0
 1012              	.LVL67:
 683:stepper.c     ****           prep.exit_speed = sqrt(exit_speed_sqr);
 1013              		.loc 1 683 0
 1014 01ec 2046     		mov	r0, r4
 1015 01ee FFF7FEFF 		bl	__aeabi_f2d
 1016              	.LVL68:
 1017 01f2 FFF7FEFF 		bl	sqrt
 1018              	.LVL69:
 1019 01f6 FFF7FEFF 		bl	__aeabi_d2f
 1020              	.LVL70:
 1021 01fa 374B     		ldr	r3, .L162+4
 1022 01fc C3F8E800 		str	r0, [r3, #232]	@ float
 1023              	.LVL71:
 1024              	.L71:
 684:stepper.c     ****         }
 685:stepper.c     **** 
 686:stepper.c     ****         nominal_speed = plan_compute_profile_nominal_speed(pl_block);
 1025              		.loc 1 686 0
 1026 0200 354E     		ldr	r6, .L162+4
 1027 0202 D6F8FC00 		ldr	r0, [r6, #252]
 1028 0206 FFF7FEFF 		bl	plan_compute_profile_nominal_speed
 1029              	.LVL72:
 1030 020a 8246     		mov	r10, r0
 1031              	.LVL73:
 687:stepper.c     **** 				float nominal_speed_sqr = nominal_speed*nominal_speed;
 1032              		.loc 1 687 0
ARM GAS  C:\Users\Bart\AppData\Local\Temp\ccM05RYZ.s 			page 33


 1033 020c 0146     		mov	r1, r0
 1034 020e FFF7FEFF 		bl	__aeabi_fmul
 1035              	.LVL74:
 1036 0212 0746     		mov	r7, r0
 1037              	.LVL75:
 688:stepper.c     **** 				float intersect_distance =
 689:stepper.c     **** 								0.5*(pl_block->millimeters+inv_2_accel*(pl_block->entry_speed_sqr-exit_speed_sqr));
 1038              		.loc 1 689 0
 1039 0214 D6F8FC60 		ldr	r6, [r6, #252]
 1040 0218 D6F820B0 		ldr	fp, [r6, #32]	@ float
 1041 021c D6F81480 		ldr	r8, [r6, #20]	@ float
 1042 0220 4046     		mov	r0, r8
 1043              	.LVL76:
 1044 0222 2146     		mov	r1, r4
 1045 0224 FFF7FEFF 		bl	__aeabi_fsub
 1046              	.LVL77:
 1047 0228 2946     		mov	r1, r5
 1048 022a FFF7FEFF 		bl	__aeabi_fmul
 1049              	.LVL78:
 1050 022e 0146     		mov	r1, r0
 1051 0230 5846     		mov	r0, fp
 1052 0232 FFF7FEFF 		bl	__aeabi_fadd
 1053              	.LVL79:
 688:stepper.c     **** 				float intersect_distance =
 1054              		.loc 1 688 0
 1055 0236 4FF07C51 		mov	r1, #1056964608
 1056 023a FFF7FEFF 		bl	__aeabi_fmul
 1057              	.LVL80:
 1058 023e 8146     		mov	r9, r0
 1059              	.LVL81:
 690:stepper.c     **** 
 691:stepper.c     ****         if (pl_block->entry_speed_sqr > nominal_speed_sqr) { // Only occurs during override reducti
 1060              		.loc 1 691 0
 1061 0240 3846     		mov	r0, r7
 1062              	.LVL82:
 1063 0242 4146     		mov	r1, r8
 1064 0244 FFF7FEFF 		bl	__aeabi_fcmplt
 1065              	.LVL83:
 1066 0248 0028     		cmp	r0, #0
 1067 024a 4BD0     		beq	.L147
 692:stepper.c     ****           prep.accelerate_until = pl_block->millimeters - inv_2_accel*(pl_block->entry_speed_sqr-no
 1068              		.loc 1 692 0
 1069 024c 4046     		mov	r0, r8
 1070 024e 3946     		mov	r1, r7
 1071 0250 FFF7FEFF 		bl	__aeabi_fsub
 1072              	.LVL84:
 1073 0254 2946     		mov	r1, r5
 1074 0256 FFF7FEFF 		bl	__aeabi_fmul
 1075              	.LVL85:
 1076 025a 0146     		mov	r1, r0
 1077 025c 5846     		mov	r0, fp
 1078 025e FFF7FEFF 		bl	__aeabi_fsub
 1079              	.LVL86:
 1080 0262 1D4B     		ldr	r3, .L162+4
 1081 0264 C3F8EC00 		str	r0, [r3, #236]	@ float
 693:stepper.c     ****           if (prep.accelerate_until <= 0.0) { // Deceleration-only.
 1082              		.loc 1 693 0
ARM GAS  C:\Users\Bart\AppData\Local\Temp\ccM05RYZ.s 			page 34


 1083 0268 0021     		movs	r1, #0
 1084 026a FFF7FEFF 		bl	__aeabi_fcmple
 1085              	.LVL87:
 1086 026e 00B3     		cbz	r0, .L148
 694:stepper.c     ****             prep.ramp_type = RAMP_DECEL;
 1087              		.loc 1 694 0
 1088 0270 194C     		ldr	r4, .L162+4
 1089              	.LVL88:
 1090 0272 0223     		movs	r3, #2
 1091 0274 84F8D830 		strb	r3, [r4, #216]
 695:stepper.c     ****             // prep.decelerate_after = pl_block->millimeters;
 696:stepper.c     ****             // prep.maximum_speed = prep.current_speed;
 697:stepper.c     **** 
 698:stepper.c     ****             // Compute override block exit speed since it doesn't match the planner exit speed.
 699:stepper.c     ****             prep.exit_speed = sqrt(pl_block->entry_speed_sqr - 2*pl_block->acceleration*pl_block->m
 1092              		.loc 1 699 0
 1093 0278 7569     		ldr	r5, [r6, #20]	@ float
 1094              	.LVL89:
 1095 027a F069     		ldr	r0, [r6, #28]	@ float
 1096 027c 0146     		mov	r1, r0
 1097 027e FFF7FEFF 		bl	__aeabi_fadd
 1098              	.LVL90:
 1099 0282 316A     		ldr	r1, [r6, #32]	@ float
 1100 0284 FFF7FEFF 		bl	__aeabi_fmul
 1101              	.LVL91:
 1102 0288 0146     		mov	r1, r0
 1103 028a 2846     		mov	r0, r5
 1104 028c FFF7FEFF 		bl	__aeabi_fsub
 1105              	.LVL92:
 1106 0290 0546     		mov	r5, r0
 1107 0292 2846     		mov	r0, r5
 1108 0294 FFF7FEFF 		bl	__aeabi_f2d
 1109              	.LVL93:
 1110 0298 FFF7FEFF 		bl	sqrt
 1111              	.LVL94:
 1112 029c FFF7FEFF 		bl	__aeabi_d2f
 1113              	.LVL95:
 1114 02a0 C4F8E800 		str	r0, [r4, #232]	@ float
 700:stepper.c     ****             prep.recalculate_flag |= PREP_FLAG_DECEL_OVERRIDE; // Flag to load next block as decele
 1115              		.loc 1 700 0
 1116 02a4 94F8C530 		ldrb	r3, [r4, #197]	@ zero_extendqisi2
 1117 02a8 43F00803 		orr	r3, r3, #8
 1118 02ac 84F8C530 		strb	r3, [r4, #197]
 1119 02b0 87E0     		b	.L69
 1120              	.LVL96:
 1121              	.L148:
 701:stepper.c     **** 
 702:stepper.c     ****             // TODO: Determine correct handling of parameters in deceleration-only.
 703:stepper.c     ****             // Can be tricky since entry speed will be current speed, as in feed holds.
 704:stepper.c     ****             // Also, look into near-zero speed handling issues with this.
 705:stepper.c     **** 
 706:stepper.c     ****           } else {
 707:stepper.c     ****             // Decelerate to cruise or cruise-decelerate types. Guaranteed to intersect updated pla
 708:stepper.c     ****             prep.decelerate_after = inv_2_accel*(nominal_speed_sqr-exit_speed_sqr);
 1122              		.loc 1 708 0
 1123 02b2 3846     		mov	r0, r7
 1124 02b4 2146     		mov	r1, r4
ARM GAS  C:\Users\Bart\AppData\Local\Temp\ccM05RYZ.s 			page 35


 1125 02b6 FFF7FEFF 		bl	__aeabi_fsub
 1126              	.LVL97:
 1127 02ba 2946     		mov	r1, r5
 1128 02bc FFF7FEFF 		bl	__aeabi_fmul
 1129              	.LVL98:
 1130 02c0 054B     		ldr	r3, .L162+4
 1131 02c2 C3F8F000 		str	r0, [r3, #240]	@ float
 709:stepper.c     ****             prep.maximum_speed = nominal_speed;
 1132              		.loc 1 709 0
 1133 02c6 C3F8E4A0 		str	r10, [r3, #228]	@ float
 710:stepper.c     ****             prep.ramp_type = RAMP_DECEL_OVERRIDE;
 1134              		.loc 1 710 0
 1135 02ca 0322     		movs	r2, #3
 1136 02cc 83F8D820 		strb	r2, [r3, #216]
 1137 02d0 77E0     		b	.L69
 1138              	.L163:
 1139 02d2 00BF     		.align	2
 1140              	.L162:
 1141 02d4 00000000 		.word	sys
 1142 02d8 00000000 		.word	.LANCHOR0
 1143 02dc 0000A03F 		.word	1067450368
 1144 02e0 00000000 		.word	settings
 1145              	.L147:
 711:stepper.c     ****           }
 712:stepper.c     **** 				} else if (intersect_distance > 0.0) {
 1146              		.loc 1 712 0
 1147 02e4 4846     		mov	r0, r9
 1148 02e6 0021     		movs	r1, #0
 1149 02e8 FFF7FEFF 		bl	__aeabi_fcmpgt
 1150              	.LVL99:
 1151 02ec 0028     		cmp	r0, #0
 1152 02ee 60D0     		beq	.L149
 713:stepper.c     **** 					if (intersect_distance < pl_block->millimeters) { // Either trapezoid or triangle types
 1153              		.loc 1 713 0
 1154 02f0 5846     		mov	r0, fp
 1155 02f2 4946     		mov	r1, r9
 1156 02f4 FFF7FEFF 		bl	__aeabi_fcmpgt
 1157              	.LVL100:
 1158 02f8 0028     		cmp	r0, #0
 1159 02fa 55D0     		beq	.L150
 714:stepper.c     **** 						// NOTE: For acceleration-cruise and cruise-only types, following calculation will be 0.0.
 715:stepper.c     **** 						prep.decelerate_after = inv_2_accel*(nominal_speed_sqr-exit_speed_sqr);
 1160              		.loc 1 715 0
 1161 02fc 3846     		mov	r0, r7
 1162 02fe 2146     		mov	r1, r4
 1163 0300 FFF7FEFF 		bl	__aeabi_fsub
 1164              	.LVL101:
 1165 0304 2946     		mov	r1, r5
 1166 0306 FFF7FEFF 		bl	__aeabi_fmul
 1167              	.LVL102:
 1168 030a 0146     		mov	r1, r0
 1169 030c AE4B     		ldr	r3, .L164
 1170 030e C3F8F000 		str	r0, [r3, #240]	@ float
 716:stepper.c     **** 						if (prep.decelerate_after < intersect_distance) { // Trapezoid type
 1171              		.loc 1 716 0
 1172 0312 4846     		mov	r0, r9
 1173 0314 FFF7FEFF 		bl	__aeabi_fcmpgt
ARM GAS  C:\Users\Bart\AppData\Local\Temp\ccM05RYZ.s 			page 36


 1174              	.LVL103:
 1175 0318 E8B1     		cbz	r0, .L151
 717:stepper.c     **** 							prep.maximum_speed = nominal_speed;
 1176              		.loc 1 717 0
 1177 031a AB4B     		ldr	r3, .L164
 1178 031c C3F8E4A0 		str	r10, [r3, #228]	@ float
 718:stepper.c     **** 							if (pl_block->entry_speed_sqr == nominal_speed_sqr) {
 1179              		.loc 1 718 0
 1180 0320 7469     		ldr	r4, [r6, #20]	@ float
 1181              	.LVL104:
 1182 0322 2046     		mov	r0, r4
 1183 0324 3946     		mov	r1, r7
 1184 0326 FFF7FEFF 		bl	__aeabi_fcmpeq
 1185              	.LVL105:
 1186 032a 20B1     		cbz	r0, .L152
 719:stepper.c     **** 								// Cruise-deceleration or cruise-only type.
 720:stepper.c     **** 								prep.ramp_type = RAMP_CRUISE;
 1187              		.loc 1 720 0
 1188 032c 0122     		movs	r2, #1
 1189 032e A64B     		ldr	r3, .L164
 1190 0330 83F8D820 		strb	r2, [r3, #216]
 1191 0334 45E0     		b	.L69
 1192              	.L152:
 721:stepper.c     **** 							} else {
 722:stepper.c     **** 								// Full-trapezoid or acceleration-cruise types
 723:stepper.c     **** 								prep.accelerate_until -= inv_2_accel*(nominal_speed_sqr-pl_block->entry_speed_sqr);
 1193              		.loc 1 723 0
 1194 0336 3846     		mov	r0, r7
 1195 0338 2146     		mov	r1, r4
 1196 033a FFF7FEFF 		bl	__aeabi_fsub
 1197              	.LVL106:
 1198 033e 2946     		mov	r1, r5
 1199 0340 FFF7FEFF 		bl	__aeabi_fmul
 1200              	.LVL107:
 1201 0344 0146     		mov	r1, r0
 1202 0346 A04C     		ldr	r4, .L164
 1203 0348 D4F8EC00 		ldr	r0, [r4, #236]	@ float
 1204 034c FFF7FEFF 		bl	__aeabi_fsub
 1205              	.LVL108:
 1206 0350 C4F8EC00 		str	r0, [r4, #236]	@ float
 1207 0354 35E0     		b	.L69
 1208              	.LVL109:
 1209              	.L151:
 724:stepper.c     **** 							}
 725:stepper.c     **** 						} else { // Triangle type
 726:stepper.c     **** 							prep.accelerate_until = intersect_distance;
 1210              		.loc 1 726 0
 1211 0356 9C4D     		ldr	r5, .L164
 1212              	.LVL110:
 1213 0358 C5F8EC90 		str	r9, [r5, #236]	@ float
 727:stepper.c     **** 							prep.decelerate_after = intersect_distance;
 1214              		.loc 1 727 0
 1215 035c C5F8F090 		str	r9, [r5, #240]	@ float
 728:stepper.c     **** 							prep.maximum_speed = sqrt(2.0*pl_block->acceleration*intersect_distance+exit_speed_sqr);
 1216              		.loc 1 728 0
 1217 0360 F069     		ldr	r0, [r6, #28]	@ float
 1218 0362 FFF7FEFF 		bl	__aeabi_f2d
ARM GAS  C:\Users\Bart\AppData\Local\Temp\ccM05RYZ.s 			page 37


 1219              	.LVL111:
 1220 0366 0246     		mov	r2, r0
 1221 0368 0B46     		mov	r3, r1
 1222 036a FFF7FEFF 		bl	__aeabi_dadd
 1223              	.LVL112:
 1224 036e 0646     		mov	r6, r0
 1225 0370 0F46     		mov	r7, r1
 1226              	.LVL113:
 1227 0372 4846     		mov	r0, r9
 1228 0374 FFF7FEFF 		bl	__aeabi_f2d
 1229              	.LVL114:
 1230 0378 0246     		mov	r2, r0
 1231 037a 0B46     		mov	r3, r1
 1232 037c 3046     		mov	r0, r6
 1233 037e 3946     		mov	r1, r7
 1234 0380 FFF7FEFF 		bl	__aeabi_dmul
 1235              	.LVL115:
 1236 0384 0646     		mov	r6, r0
 1237 0386 0F46     		mov	r7, r1
 1238 0388 2046     		mov	r0, r4
 1239 038a FFF7FEFF 		bl	__aeabi_f2d
 1240              	.LVL116:
 1241 038e 0246     		mov	r2, r0
 1242 0390 0B46     		mov	r3, r1
 1243 0392 3046     		mov	r0, r6
 1244 0394 3946     		mov	r1, r7
 1245 0396 FFF7FEFF 		bl	__aeabi_dadd
 1246              	.LVL117:
 1247 039a FFF7FEFF 		bl	sqrt
 1248              	.LVL118:
 1249 039e FFF7FEFF 		bl	__aeabi_d2f
 1250              	.LVL119:
 1251 03a2 C5F8E400 		str	r0, [r5, #228]	@ float
 1252 03a6 0CE0     		b	.L69
 1253              	.LVL120:
 1254              	.L150:
 729:stepper.c     **** 						}
 730:stepper.c     **** 					} else { // Deceleration-only type
 731:stepper.c     ****             prep.ramp_type = RAMP_DECEL;
 1255              		.loc 1 731 0
 1256 03a8 0222     		movs	r2, #2
 1257 03aa 874B     		ldr	r3, .L164
 1258 03ac 83F8D820 		strb	r2, [r3, #216]
 1259 03b0 07E0     		b	.L69
 1260              	.L149:
 732:stepper.c     ****             // prep.decelerate_after = pl_block->millimeters;
 733:stepper.c     ****             // prep.maximum_speed = prep.current_speed;
 734:stepper.c     **** 					}
 735:stepper.c     **** 				} else { // Acceleration-only type
 736:stepper.c     **** 					prep.accelerate_until = 0.0;
 1261              		.loc 1 736 0
 1262 03b2 854B     		ldr	r3, .L164
 1263 03b4 0022     		movs	r2, #0
 1264 03b6 C3F8EC20 		str	r2, [r3, #236]	@ float
 737:stepper.c     **** 					// prep.decelerate_after = 0.0;
 738:stepper.c     **** 					prep.maximum_speed = prep.exit_speed;
 1265              		.loc 1 738 0
ARM GAS  C:\Users\Bart\AppData\Local\Temp\ccM05RYZ.s 			page 38


 1266 03ba D3F8E820 		ldr	r2, [r3, #232]	@ float
 1267 03be C3F8E420 		str	r2, [r3, #228]	@ float
 1268              	.LVL121:
 1269              	.L69:
 1270              	.LBE6:
 739:stepper.c     **** 				}
 740:stepper.c     **** 			}
 741:stepper.c     ****       
 742:stepper.c     ****       #ifdef VARIABLE_SPINDLE
 743:stepper.c     ****         bit_true(sys.step_control, STEP_CONTROL_UPDATE_SPINDLE_PWM); // Force update whenever updat
 1271              		.loc 1 743 0
 1272 03c2 824A     		ldr	r2, .L164+4
 1273 03c4 1379     		ldrb	r3, [r2, #4]	@ zero_extendqisi2
 1274 03c6 43F00803 		orr	r3, r3, #8
 1275 03ca 1371     		strb	r3, [r2, #4]
 1276              	.L56:
 1277              	.LBE3:
 744:stepper.c     ****       #endif
 745:stepper.c     ****     }
 746:stepper.c     ****     
 747:stepper.c     ****     // Initialize new segment
 748:stepper.c     ****     segment_t *prep_segment = &segment_buffer[segment_buffer_head];
 1278              		.loc 1 748 0
 1279 03cc 7E4B     		ldr	r3, .L164
 1280 03ce 93F82A20 		ldrb	r2, [r3, #42]	@ zero_extendqisi2
 1281 03d2 0792     		str	r2, [sp, #28]
 1282              	.LVL122:
 749:stepper.c     **** 
 750:stepper.c     ****     // Set new segment to point to the current segment data block.
 751:stepper.c     ****     prep_segment->st_block_index = prep.st_block_index;
 1283              		.loc 1 751 0
 1284 03d4 93F8C410 		ldrb	r1, [r3, #196]	@ zero_extendqisi2
 1285 03d8 03EBC202 		add	r2, r3, r2, lsl #3
 1286              	.LVL123:
 1287 03dc 82F83010 		strb	r1, [r2, #48]
 1288              	.LVL124:
 752:stepper.c     **** 
 753:stepper.c     ****     /*------------------------------------------------------------------------------------
 754:stepper.c     ****         Compute the average velocity of this new segment by determining the total distance
 755:stepper.c     ****       traveled over the segment time DT_SEGMENT. The following code first attempts to create
 756:stepper.c     ****       a full segment based on the current ramp conditions. If the segment time is incomplete
 757:stepper.c     ****       when terminating at a ramp state change, the code will continue to loop through the
 758:stepper.c     ****       progressing ramp states to fill the remaining segment execution time. However, if
 759:stepper.c     ****       an incomplete segment terminates at the end of the velocity profile, the segment is
 760:stepper.c     ****       considered completed despite having a truncated execution time less than DT_SEGMENT.
 761:stepper.c     ****         The velocity profile is always assumed to progress through the ramp sequence:
 762:stepper.c     ****       acceleration ramp, cruising state, and deceleration ramp. Each ramp's travel distance
 763:stepper.c     ****       may range from zero to the length of the block. Velocity profiles can end either at
 764:stepper.c     ****       the end of planner block (typical) or mid-block at the end of a forced deceleration,
 765:stepper.c     ****       such as from a feed hold.
 766:stepper.c     ****     */
 767:stepper.c     ****     float dt_max = DT_SEGMENT; // Maximum segment time
 768:stepper.c     ****     float dt = 0.0; // Initialize segment time
 769:stepper.c     ****     float time_var = dt_max; // Time worker variable
 770:stepper.c     ****     float mm_var; // mm-Distance worker variable
 771:stepper.c     ****     float speed_var; // Speed worker variable
 772:stepper.c     ****     float mm_remaining = pl_block->millimeters; // New segment distance from end of block.
ARM GAS  C:\Users\Bart\AppData\Local\Temp\ccM05RYZ.s 			page 39


 1289              		.loc 1 772 0
 1290 03e0 D3F8FCA0 		ldr	r10, [r3, #252]
 1291 03e4 DAF82020 		ldr	r2, [r10, #32]	@ float
 1292 03e8 0692     		str	r2, [sp, #24]	@ float
 1293              	.LVL125:
 773:stepper.c     ****     float minimum_mm = mm_remaining-prep.req_mm_increment; // Guarantee at least one step.
 1294              		.loc 1 773 0
 1295 03ea 1046     		mov	r0, r2
 1296 03ec D3F8D410 		ldr	r1, [r3, #212]	@ float
 1297 03f0 FFF7FEFF 		bl	__aeabi_fsub
 1298              	.LVL126:
 1299 03f4 0390     		str	r0, [sp, #12]	@ float
 1300              	.LVL127:
 774:stepper.c     ****     if (minimum_mm < 0.0) { minimum_mm = 0.0; }
 1301              		.loc 1 774 0
 1302 03f6 0021     		movs	r1, #0
 1303 03f8 FFF7FEFF 		bl	__aeabi_fcmplt
 1304              	.LVL128:
 1305 03fc 08B1     		cbz	r0, .L84
 1306 03fe 0023     		movs	r3, #0
 1307 0400 0393     		str	r3, [sp, #12]	@ float
 1308              	.LVL129:
 1309              	.L84:
 1310 0402 DDF81890 		ldr	r9, [sp, #24]	@ float
 1311 0406 DFF8CCB1 		ldr	fp, .L164+12
 1312 040a 0023     		movs	r3, #0
 1313 040c 0193     		str	r3, [sp, #4]	@ float
 1314 040e CDF808B0 		str	fp, [sp, #8]	@ float
 1315              	.LVL130:
 1316              	.L107:
 775:stepper.c     **** 
 776:stepper.c     ****     do {
 777:stepper.c     ****       switch (prep.ramp_type) {
 1317              		.loc 1 777 0
 1318 0412 6D4B     		ldr	r3, .L164
 1319 0414 93F8D830 		ldrb	r3, [r3, #216]	@ zero_extendqisi2
 1320 0418 012B     		cmp	r3, #1
 1321 041a 00F0DD80 		beq	.L86
 1322 041e 002B     		cmp	r3, #0
 1323 0420 64D0     		beq	.L87
 1324 0422 032B     		cmp	r3, #3
 1325 0424 40F0FA80 		bne	.L153
 778:stepper.c     ****         case RAMP_DECEL_OVERRIDE:
 779:stepper.c     ****           speed_var = pl_block->acceleration*time_var;
 1326              		.loc 1 779 0
 1327 0428 DAF81C00 		ldr	r0, [r10, #28]	@ float
 1328 042c 5946     		mov	r1, fp
 1329 042e FFF7FEFF 		bl	__aeabi_fmul
 1330              	.LVL131:
 1331 0432 8046     		mov	r8, r0
 1332              	.LVL132:
 780:stepper.c     ****           mm_var = time_var*(prep.current_speed - 0.5*speed_var);
 1333              		.loc 1 780 0
 1334 0434 644C     		ldr	r4, .L164
 1335 0436 D4F8E060 		ldr	r6, [r4, #224]	@ float
 1336 043a FFF7FEFF 		bl	__aeabi_f2d
 1337              	.LVL133:
ARM GAS  C:\Users\Bart\AppData\Local\Temp\ccM05RYZ.s 			page 40


 1338 043e 0022     		movs	r2, #0
 1339 0440 634B     		ldr	r3, .L164+8
 1340 0442 FFF7FEFF 		bl	__aeabi_dmul
 1341              	.LVL134:
 1342 0446 CDE90401 		strd	r0, [sp, #16]
 1343 044a 3046     		mov	r0, r6
 1344 044c FFF7FEFF 		bl	__aeabi_f2d
 1345              	.LVL135:
 1346 0450 DDE90423 		ldrd	r2, [sp, #16]
 1347 0454 FFF7FEFF 		bl	__aeabi_dsub
 1348              	.LVL136:
 1349 0458 CDE90401 		strd	r0, [sp, #16]
 1350 045c 5846     		mov	r0, fp
 1351 045e FFF7FEFF 		bl	__aeabi_f2d
 1352              	.LVL137:
 1353 0462 DDE90423 		ldrd	r2, [sp, #16]
 1354 0466 FFF7FEFF 		bl	__aeabi_dmul
 1355              	.LVL138:
 1356 046a FFF7FEFF 		bl	__aeabi_d2f
 1357              	.LVL139:
 1358 046e 0546     		mov	r5, r0
 1359              	.LVL140:
 781:stepper.c     ****           mm_remaining -= mm_var;
 1360              		.loc 1 781 0
 1361 0470 4846     		mov	r0, r9
 1362              	.LVL141:
 1363 0472 2946     		mov	r1, r5
 1364 0474 FFF7FEFF 		bl	__aeabi_fsub
 1365              	.LVL142:
 1366 0478 0746     		mov	r7, r0
 1367              	.LVL143:
 782:stepper.c     ****           if ((mm_remaining < prep.accelerate_until) || (mm_var <= 0)) {
 1368              		.loc 1 782 0
 1369 047a D4F8EC90 		ldr	r9, [r4, #236]	@ float
 1370 047e 4846     		mov	r0, r9
 1371              	.LVL144:
 1372 0480 3946     		mov	r1, r7
 1373 0482 FFF7FEFF 		bl	__aeabi_fcmpgt
 1374              	.LVL145:
 1375 0486 20B9     		cbnz	r0, .L89
 1376              		.loc 1 782 0 is_stmt 0 discriminator 1
 1377 0488 2846     		mov	r0, r5
 1378 048a 0021     		movs	r1, #0
 1379 048c FFF7FEFF 		bl	__aeabi_fcmple
 1380              	.LVL146:
 1381 0490 18B3     		cbz	r0, .L154
 1382              	.L89:
 1383              	.LVL147:
 783:stepper.c     ****             // Cruise or cruise-deceleration types only for deceleration override.
 784:stepper.c     ****             mm_remaining = prep.accelerate_until; // NOTE: 0.0 at EOB
 785:stepper.c     ****             time_var = 2.0*(pl_block->millimeters-mm_remaining)/(prep.current_speed+prep.maximum_sp
 1384              		.loc 1 785 0 is_stmt 1
 1385 0492 0698     		ldr	r0, [sp, #24]	@ float
 1386 0494 4946     		mov	r1, r9
 1387 0496 FFF7FEFF 		bl	__aeabi_fsub
 1388              	.LVL148:
 1389 049a FFF7FEFF 		bl	__aeabi_f2d
ARM GAS  C:\Users\Bart\AppData\Local\Temp\ccM05RYZ.s 			page 41


 1390              	.LVL149:
 1391 049e 0246     		mov	r2, r0
 1392 04a0 0B46     		mov	r3, r1
 1393 04a2 FFF7FEFF 		bl	__aeabi_dadd
 1394              	.LVL150:
 1395 04a6 0446     		mov	r4, r0
 1396 04a8 0D46     		mov	r5, r1
 1397              	.LVL151:
 1398 04aa 474F     		ldr	r7, .L164
 1399 04ac D7F8E480 		ldr	r8, [r7, #228]	@ float
 1400              	.LVL152:
 1401 04b0 3046     		mov	r0, r6
 1402 04b2 4146     		mov	r1, r8
 1403 04b4 FFF7FEFF 		bl	__aeabi_fadd
 1404              	.LVL153:
 1405 04b8 FFF7FEFF 		bl	__aeabi_f2d
 1406              	.LVL154:
 1407 04bc 0246     		mov	r2, r0
 1408 04be 0B46     		mov	r3, r1
 1409 04c0 2046     		mov	r0, r4
 1410 04c2 2946     		mov	r1, r5
 1411 04c4 FFF7FEFF 		bl	__aeabi_ddiv
 1412              	.LVL155:
 1413 04c8 FFF7FEFF 		bl	__aeabi_d2f
 1414              	.LVL156:
 1415 04cc 8346     		mov	fp, r0
 1416              	.LVL157:
 786:stepper.c     ****             prep.ramp_type = RAMP_CRUISE;
 1417              		.loc 1 786 0
 1418 04ce 0123     		movs	r3, #1
 1419 04d0 87F8D830 		strb	r3, [r7, #216]
 787:stepper.c     ****             prep.current_speed = prep.maximum_speed;
 1420              		.loc 1 787 0
 1421 04d4 C7F8E080 		str	r8, [r7, #224]	@ float
 1422 04d8 09E1     		b	.L92
 1423              	.LVL158:
 1424              	.L154:
 788:stepper.c     ****           } else { // Mid-deceleration override ramp.
 789:stepper.c     ****             prep.current_speed -= speed_var;
 1425              		.loc 1 789 0
 1426 04da 3046     		mov	r0, r6
 1427 04dc 4146     		mov	r1, r8
 1428 04de FFF7FEFF 		bl	__aeabi_fsub
 1429              	.LVL159:
 1430 04e2 394B     		ldr	r3, .L164
 1431 04e4 C3F8E000 		str	r0, [r3, #224]	@ float
 781:stepper.c     ****           if ((mm_remaining < prep.accelerate_until) || (mm_var <= 0)) {
 1432              		.loc 1 781 0
 1433 04e8 B946     		mov	r9, r7
 1434 04ea 00E1     		b	.L92
 1435              	.LVL160:
 1436              	.L87:
 790:stepper.c     ****           }
 791:stepper.c     ****           break;
 792:stepper.c     ****         case RAMP_ACCEL:
 793:stepper.c     ****           // NOTE: Acceleration ramp only computes during first do-while loop.
 794:stepper.c     ****           speed_var = pl_block->acceleration*time_var;
ARM GAS  C:\Users\Bart\AppData\Local\Temp\ccM05RYZ.s 			page 42


 1437              		.loc 1 794 0
 1438 04ec DAF81C00 		ldr	r0, [r10, #28]	@ float
 1439 04f0 5946     		mov	r1, fp
 1440 04f2 FFF7FEFF 		bl	__aeabi_fmul
 1441              	.LVL161:
 1442 04f6 8046     		mov	r8, r0
 1443              	.LVL162:
 795:stepper.c     ****           mm_remaining -= time_var*(prep.current_speed + 0.5*speed_var);
 1444              		.loc 1 795 0
 1445 04f8 334F     		ldr	r7, .L164
 1446 04fa D7F8E060 		ldr	r6, [r7, #224]	@ float
 1447 04fe FFF7FEFF 		bl	__aeabi_f2d
 1448              	.LVL163:
 1449 0502 0022     		movs	r2, #0
 1450 0504 324B     		ldr	r3, .L164+8
 1451 0506 FFF7FEFF 		bl	__aeabi_dmul
 1452              	.LVL164:
 1453 050a 0446     		mov	r4, r0
 1454 050c 0D46     		mov	r5, r1
 1455 050e 3046     		mov	r0, r6
 1456 0510 FFF7FEFF 		bl	__aeabi_f2d
 1457              	.LVL165:
 1458 0514 2246     		mov	r2, r4
 1459 0516 2B46     		mov	r3, r5
 1460 0518 FFF7FEFF 		bl	__aeabi_dadd
 1461              	.LVL166:
 1462 051c 0446     		mov	r4, r0
 1463 051e 0D46     		mov	r5, r1
 1464 0520 5846     		mov	r0, fp
 1465 0522 FFF7FEFF 		bl	__aeabi_f2d
 1466              	.LVL167:
 1467 0526 2246     		mov	r2, r4
 1468 0528 2B46     		mov	r3, r5
 1469 052a FFF7FEFF 		bl	__aeabi_dmul
 1470              	.LVL168:
 1471 052e 0446     		mov	r4, r0
 1472 0530 0D46     		mov	r5, r1
 1473 0532 4846     		mov	r0, r9
 1474 0534 FFF7FEFF 		bl	__aeabi_f2d
 1475              	.LVL169:
 1476 0538 2246     		mov	r2, r4
 1477 053a 2B46     		mov	r3, r5
 1478 053c FFF7FEFF 		bl	__aeabi_dsub
 1479              	.LVL170:
 1480 0540 FFF7FEFF 		bl	__aeabi_d2f
 1481              	.LVL171:
 1482 0544 8146     		mov	r9, r0
 1483              	.LVL172:
 796:stepper.c     ****           if (mm_remaining < prep.accelerate_until) { // End of acceleration ramp.
 1484              		.loc 1 796 0
 1485 0546 D7F8EC70 		ldr	r7, [r7, #236]	@ float
 1486 054a 3846     		mov	r0, r7
 1487              	.LVL173:
 1488 054c 4946     		mov	r1, r9
 1489 054e FFF7FEFF 		bl	__aeabi_fcmpgt
 1490              	.LVL174:
 1491 0552 88B3     		cbz	r0, .L155
ARM GAS  C:\Users\Bart\AppData\Local\Temp\ccM05RYZ.s 			page 43


 1492              	.LVL175:
 797:stepper.c     ****             // Acceleration-cruise, acceleration-deceleration ramp junction, or end of block.
 798:stepper.c     ****             mm_remaining = prep.accelerate_until; // NOTE: 0.0 at EOB
 799:stepper.c     ****             time_var = 2.0*(pl_block->millimeters-mm_remaining)/(prep.current_speed+prep.maximum_sp
 1493              		.loc 1 799 0
 1494 0554 0698     		ldr	r0, [sp, #24]	@ float
 1495 0556 3946     		mov	r1, r7
 1496 0558 FFF7FEFF 		bl	__aeabi_fsub
 1497              	.LVL176:
 1498 055c FFF7FEFF 		bl	__aeabi_f2d
 1499              	.LVL177:
 1500 0560 0246     		mov	r2, r0
 1501 0562 0B46     		mov	r3, r1
 1502 0564 FFF7FEFF 		bl	__aeabi_dadd
 1503              	.LVL178:
 1504 0568 0446     		mov	r4, r0
 1505 056a 0D46     		mov	r5, r1
 1506 056c DFF85890 		ldr	r9, .L164
 1507 0570 D9F8E480 		ldr	r8, [r9, #228]	@ float
 1508              	.LVL179:
 1509 0574 3046     		mov	r0, r6
 1510 0576 4146     		mov	r1, r8
 1511 0578 FFF7FEFF 		bl	__aeabi_fadd
 1512              	.LVL180:
 1513 057c FFF7FEFF 		bl	__aeabi_f2d
 1514              	.LVL181:
 1515 0580 0246     		mov	r2, r0
 1516 0582 0B46     		mov	r3, r1
 1517 0584 2046     		mov	r0, r4
 1518 0586 2946     		mov	r1, r5
 1519 0588 FFF7FEFF 		bl	__aeabi_ddiv
 1520              	.LVL182:
 1521 058c FFF7FEFF 		bl	__aeabi_d2f
 1522              	.LVL183:
 1523 0590 8346     		mov	fp, r0
 1524              	.LVL184:
 800:stepper.c     ****             if (mm_remaining == prep.decelerate_after) { prep.ramp_type = RAMP_DECEL; }
 1525              		.loc 1 800 0
 1526 0592 3846     		mov	r0, r7
 1527              	.LVL185:
 1528 0594 D9F8F010 		ldr	r1, [r9, #240]	@ float
 1529 0598 FFF7FEFF 		bl	__aeabi_fcmpeq
 1530              	.LVL186:
 1531 059c 18B1     		cbz	r0, .L156
 1532              		.loc 1 800 0 is_stmt 0 discriminator 1
 1533 059e 0222     		movs	r2, #2
 1534 05a0 89F8D820 		strb	r2, [r9, #216]
 1535 05a4 03E0     		b	.L97
 1536              	.L156:
 801:stepper.c     ****             else { prep.ramp_type = RAMP_CRUISE; }
 1537              		.loc 1 801 0 is_stmt 1
 1538 05a6 0122     		movs	r2, #1
 1539 05a8 074B     		ldr	r3, .L164
 1540 05aa 83F8D820 		strb	r2, [r3, #216]
 1541              	.L97:
 802:stepper.c     ****             prep.current_speed = prep.maximum_speed;
 1542              		.loc 1 802 0
ARM GAS  C:\Users\Bart\AppData\Local\Temp\ccM05RYZ.s 			page 44


 1543 05ae 064B     		ldr	r3, .L164
 1544 05b0 C3F8E080 		str	r8, [r3, #224]	@ float
 798:stepper.c     ****             time_var = 2.0*(pl_block->millimeters-mm_remaining)/(prep.current_speed+prep.maximum_sp
 1545              		.loc 1 798 0
 1546 05b4 B946     		mov	r9, r7
 1547 05b6 9AE0     		b	.L92
 1548              	.LVL187:
 1549              	.L155:
 803:stepper.c     ****           } else { // Acceleration only.
 804:stepper.c     ****             prep.current_speed += speed_var;
 1550              		.loc 1 804 0
 1551 05b8 4046     		mov	r0, r8
 1552 05ba 3146     		mov	r1, r6
 1553 05bc FFF7FEFF 		bl	__aeabi_fadd
 1554              	.LVL188:
 1555 05c0 014B     		ldr	r3, .L164
 1556 05c2 C3F8E000 		str	r0, [r3, #224]	@ float
 1557 05c6 92E0     		b	.L92
 1558              	.L165:
 1559              		.align	2
 1560              	.L164:
 1561 05c8 00000000 		.word	.LANCHOR0
 1562 05cc 00000000 		.word	sys
 1563 05d0 0000E03F 		.word	1071644672
 1564 05d4 3EC32E39 		.word	959365950
 1565              	.LVL189:
 1566              	.L86:
 805:stepper.c     ****           }
 806:stepper.c     ****           break;
 807:stepper.c     ****         case RAMP_CRUISE:
 808:stepper.c     ****           // NOTE: mm_var used to retain the last mm_remaining for incomplete segment time_var calc
 809:stepper.c     ****           // NOTE: If maximum_speed*time_var value is too low, round-off can cause mm_var to not ch
 810:stepper.c     ****           //   prevent this, simply enforce a minimum speed threshold in the planner.
 811:stepper.c     ****           mm_var = mm_remaining - prep.maximum_speed*time_var;
 1567              		.loc 1 811 0
 1568 05d8 AD4C     		ldr	r4, .L166+8
 1569 05da D4F8E460 		ldr	r6, [r4, #228]	@ float
 1570 05de 3046     		mov	r0, r6
 1571 05e0 5946     		mov	r1, fp
 1572 05e2 FFF7FEFF 		bl	__aeabi_fmul
 1573              	.LVL190:
 1574 05e6 0146     		mov	r1, r0
 1575 05e8 4846     		mov	r0, r9
 1576 05ea FFF7FEFF 		bl	__aeabi_fsub
 1577              	.LVL191:
 1578 05ee 0546     		mov	r5, r0
 1579              	.LVL192:
 812:stepper.c     ****           if (mm_var < prep.decelerate_after) { // End of cruise.
 1580              		.loc 1 812 0
 1581 05f0 D4F8F040 		ldr	r4, [r4, #240]	@ float
 1582 05f4 2046     		mov	r0, r4
 1583              	.LVL193:
 1584 05f6 2946     		mov	r1, r5
 1585 05f8 FFF7FEFF 		bl	__aeabi_fcmpgt
 1586              	.LVL194:
 1587 05fc 0028     		cmp	r0, #0
 1588 05fe 75D0     		beq	.L157
ARM GAS  C:\Users\Bart\AppData\Local\Temp\ccM05RYZ.s 			page 45


 813:stepper.c     ****             // Cruise-deceleration junction or end of block.
 814:stepper.c     ****             time_var = (mm_remaining - prep.decelerate_after)/prep.maximum_speed;
 1589              		.loc 1 814 0
 1590 0600 4846     		mov	r0, r9
 1591 0602 2146     		mov	r1, r4
 1592 0604 FFF7FEFF 		bl	__aeabi_fsub
 1593              	.LVL195:
 1594 0608 3146     		mov	r1, r6
 1595 060a FFF7FEFF 		bl	__aeabi_fdiv
 1596              	.LVL196:
 1597 060e 8346     		mov	fp, r0
 1598              	.LVL197:
 815:stepper.c     ****             mm_remaining = prep.decelerate_after; // NOTE: 0.0 at EOB
 816:stepper.c     ****             prep.ramp_type = RAMP_DECEL;
 1599              		.loc 1 816 0
 1600 0610 0222     		movs	r2, #2
 1601 0612 9F4B     		ldr	r3, .L166+8
 1602 0614 83F8D820 		strb	r2, [r3, #216]
 815:stepper.c     ****             mm_remaining = prep.decelerate_after; // NOTE: 0.0 at EOB
 1603              		.loc 1 815 0
 1604 0618 A146     		mov	r9, r4
 1605 061a 68E0     		b	.L92
 1606              	.LVL198:
 1607              	.L153:
 817:stepper.c     ****           } else { // Cruising only.
 818:stepper.c     ****             mm_remaining = mm_var;
 819:stepper.c     ****           }
 820:stepper.c     ****           break;
 821:stepper.c     ****         default: // case RAMP_DECEL:
 822:stepper.c     ****           // NOTE: mm_var used as a misc worker variable to prevent errors when near zero speed.
 823:stepper.c     ****           speed_var = pl_block->acceleration*time_var; // Used as delta speed (mm/min)
 1608              		.loc 1 823 0
 1609 061c DAF81C00 		ldr	r0, [r10, #28]	@ float
 1610 0620 5946     		mov	r1, fp
 1611 0622 FFF7FEFF 		bl	__aeabi_fmul
 1612              	.LVL199:
 1613 0626 0546     		mov	r5, r0
 1614              	.LVL200:
 824:stepper.c     ****           if (prep.current_speed > speed_var) { // Check if at or below zero speed.
 1615              		.loc 1 824 0
 1616 0628 994B     		ldr	r3, .L166+8
 1617 062a D3F8E040 		ldr	r4, [r3, #224]	@ float
 1618 062e 2046     		mov	r0, r4
 1619              	.LVL201:
 1620 0630 2946     		mov	r1, r5
 1621 0632 FFF7FEFF 		bl	__aeabi_fcmpgt
 1622              	.LVL202:
 1623 0636 0028     		cmp	r0, #0
 1624 0638 34D0     		beq	.L99
 825:stepper.c     ****             // Compute distance from end of segment to end of block.
 826:stepper.c     ****             mm_var = mm_remaining - time_var*(prep.current_speed - 0.5*speed_var); // (mm)
 1625              		.loc 1 826 0
 1626 063a 2846     		mov	r0, r5
 1627 063c FFF7FEFF 		bl	__aeabi_f2d
 1628              	.LVL203:
 1629 0640 0022     		movs	r2, #0
 1630 0642 944B     		ldr	r3, .L166+12
ARM GAS  C:\Users\Bart\AppData\Local\Temp\ccM05RYZ.s 			page 46


 1631 0644 FFF7FEFF 		bl	__aeabi_dmul
 1632              	.LVL204:
 1633 0648 0646     		mov	r6, r0
 1634 064a 0F46     		mov	r7, r1
 1635 064c 2046     		mov	r0, r4
 1636 064e FFF7FEFF 		bl	__aeabi_f2d
 1637              	.LVL205:
 1638 0652 3246     		mov	r2, r6
 1639 0654 3B46     		mov	r3, r7
 1640 0656 FFF7FEFF 		bl	__aeabi_dsub
 1641              	.LVL206:
 1642 065a 0646     		mov	r6, r0
 1643 065c 0F46     		mov	r7, r1
 1644 065e 5846     		mov	r0, fp
 1645 0660 FFF7FEFF 		bl	__aeabi_f2d
 1646              	.LVL207:
 1647 0664 3246     		mov	r2, r6
 1648 0666 3B46     		mov	r3, r7
 1649 0668 FFF7FEFF 		bl	__aeabi_dmul
 1650              	.LVL208:
 1651 066c 0646     		mov	r6, r0
 1652 066e 0F46     		mov	r7, r1
 1653 0670 4846     		mov	r0, r9
 1654 0672 FFF7FEFF 		bl	__aeabi_f2d
 1655              	.LVL209:
 1656 0676 3246     		mov	r2, r6
 1657 0678 3B46     		mov	r3, r7
 1658 067a FFF7FEFF 		bl	__aeabi_dsub
 1659              	.LVL210:
 1660 067e FFF7FEFF 		bl	__aeabi_d2f
 1661              	.LVL211:
 1662 0682 0646     		mov	r6, r0
 1663              	.LVL212:
 827:stepper.c     ****             if (mm_var > prep.mm_complete) { // Typical case. In deceleration ramp.
 1664              		.loc 1 827 0
 1665 0684 824B     		ldr	r3, .L166+8
 1666 0686 D3F8DC00 		ldr	r0, [r3, #220]	@ float
 1667              	.LVL213:
 1668 068a 3146     		mov	r1, r6
 1669 068c FFF7FEFF 		bl	__aeabi_fcmplt
 1670              	.LVL214:
 1671 0690 40B1     		cbz	r0, .L99
 1672              	.LVL215:
 828:stepper.c     ****               mm_remaining = mm_var;
 829:stepper.c     ****               prep.current_speed -= speed_var;
 1673              		.loc 1 829 0
 1674 0692 2046     		mov	r0, r4
 1675 0694 2946     		mov	r1, r5
 1676 0696 FFF7FEFF 		bl	__aeabi_fsub
 1677              	.LVL216:
 1678 069a 7D4B     		ldr	r3, .L166+8
 1679 069c C3F8E000 		str	r0, [r3, #224]	@ float
 828:stepper.c     ****               mm_remaining = mm_var;
 1680              		.loc 1 828 0
 1681 06a0 B146     		mov	r9, r6
 830:stepper.c     ****               break; // Segment complete. Exit switch-case statement. Continue do-while loop.
 1682              		.loc 1 830 0
ARM GAS  C:\Users\Bart\AppData\Local\Temp\ccM05RYZ.s 			page 47


 1683 06a2 24E0     		b	.L92
 1684              	.LVL217:
 1685              	.L99:
 831:stepper.c     ****             }
 832:stepper.c     ****           }
 833:stepper.c     ****           // Otherwise, at end of block or end of forced-deceleration.
 834:stepper.c     ****           time_var = 2.0*(mm_remaining-prep.mm_complete)/(prep.current_speed+prep.exit_speed);
 1686              		.loc 1 834 0
 1687 06a4 7A4D     		ldr	r5, .L166+8
 1688              	.LVL218:
 1689 06a6 D5F8DC80 		ldr	r8, [r5, #220]	@ float
 1690 06aa 4846     		mov	r0, r9
 1691 06ac 4146     		mov	r1, r8
 1692 06ae FFF7FEFF 		bl	__aeabi_fsub
 1693              	.LVL219:
 1694 06b2 FFF7FEFF 		bl	__aeabi_f2d
 1695              	.LVL220:
 1696 06b6 0246     		mov	r2, r0
 1697 06b8 0B46     		mov	r3, r1
 1698 06ba FFF7FEFF 		bl	__aeabi_dadd
 1699              	.LVL221:
 1700 06be 0646     		mov	r6, r0
 1701 06c0 0F46     		mov	r7, r1
 1702 06c2 D5F8E890 		ldr	r9, [r5, #232]	@ float
 1703              	.LVL222:
 1704 06c6 2046     		mov	r0, r4
 1705 06c8 4946     		mov	r1, r9
 1706 06ca FFF7FEFF 		bl	__aeabi_fadd
 1707              	.LVL223:
 1708 06ce FFF7FEFF 		bl	__aeabi_f2d
 1709              	.LVL224:
 1710 06d2 0246     		mov	r2, r0
 1711 06d4 0B46     		mov	r3, r1
 1712 06d6 3046     		mov	r0, r6
 1713 06d8 3946     		mov	r1, r7
 1714 06da FFF7FEFF 		bl	__aeabi_ddiv
 1715              	.LVL225:
 1716 06de FFF7FEFF 		bl	__aeabi_d2f
 1717              	.LVL226:
 1718 06e2 8346     		mov	fp, r0
 1719              	.LVL227:
 835:stepper.c     ****           mm_remaining = prep.mm_complete;
 836:stepper.c     ****           prep.current_speed = prep.exit_speed;
 1720              		.loc 1 836 0
 1721 06e4 C5F8E090 		str	r9, [r5, #224]	@ float
 835:stepper.c     ****           mm_remaining = prep.mm_complete;
 1722              		.loc 1 835 0
 1723 06e8 C146     		mov	r9, r8
 1724 06ea 00E0     		b	.L92
 1725              	.LVL228:
 1726              	.L157:
 818:stepper.c     ****           }
 1727              		.loc 1 818 0
 1728 06ec A946     		mov	r9, r5
 1729              	.LVL229:
 1730              	.L92:
 837:stepper.c     ****       }
ARM GAS  C:\Users\Bart\AppData\Local\Temp\ccM05RYZ.s 			page 48


 838:stepper.c     ****       dt += time_var; // Add computed ramp time to total segment time.
 1731              		.loc 1 838 0
 1732 06ee 0198     		ldr	r0, [sp, #4]	@ float
 1733 06f0 5946     		mov	r1, fp
 1734 06f2 FFF7FEFF 		bl	__aeabi_fadd
 1735              	.LVL230:
 1736 06f6 0190     		str	r0, [sp, #4]	@ float
 1737              	.LVL231:
 839:stepper.c     ****       if (dt < dt_max) { time_var = dt_max - dt; } // **Incomplete** At ramp junction.
 1738              		.loc 1 839 0
 1739 06f8 0299     		ldr	r1, [sp, #8]	@ float
 1740 06fa FFF7FEFF 		bl	__aeabi_fcmplt
 1741              	.LVL232:
 1742 06fe 28B1     		cbz	r0, .L158
 1743              		.loc 1 839 0 is_stmt 0 discriminator 1
 1744 0700 0298     		ldr	r0, [sp, #8]	@ float
 1745 0702 0199     		ldr	r1, [sp, #4]	@ float
 1746 0704 FFF7FEFF 		bl	__aeabi_fsub
 1747              	.LVL233:
 1748 0708 8346     		mov	fp, r0
 1749              	.LVL234:
 1750 070a 13E0     		b	.L104
 1751              	.LVL235:
 1752              	.L158:
 840:stepper.c     ****       else {
 841:stepper.c     ****         if (mm_remaining > minimum_mm) { // Check for very slow segments with zero steps.
 1753              		.loc 1 841 0 is_stmt 1
 1754 070c 4846     		mov	r0, r9
 1755 070e 0399     		ldr	r1, [sp, #12]	@ float
 1756 0710 FFF7FEFF 		bl	__aeabi_fcmpgt
 1757              	.LVL236:
 1758 0714 B8B1     		cbz	r0, .L105
 842:stepper.c     ****           // Increase segment time to ensure at least one step in segment. Override and loop
 843:stepper.c     ****           // through distance calculations until minimum_mm or mm_complete.
 844:stepper.c     ****           dt_max += DT_SEGMENT;
 1759              		.loc 1 844 0
 1760 0716 0298     		ldr	r0, [sp, #8]	@ float
 1761 0718 FFF7FEFF 		bl	__aeabi_f2d
 1762              	.LVL237:
 1763 071c 5AA3     		adr	r3, .L166
 1764 071e D3E90023 		ldrd	r2, [r3]
 1765 0722 FFF7FEFF 		bl	__aeabi_dadd
 1766              	.LVL238:
 1767 0726 FFF7FEFF 		bl	__aeabi_d2f
 1768              	.LVL239:
 1769 072a 0290     		str	r0, [sp, #8]	@ float
 1770              	.LVL240:
 845:stepper.c     ****           time_var = dt_max - dt;
 1771              		.loc 1 845 0
 1772 072c 0199     		ldr	r1, [sp, #4]	@ float
 1773 072e FFF7FEFF 		bl	__aeabi_fsub
 1774              	.LVL241:
 1775 0732 8346     		mov	fp, r0
 1776              	.LVL242:
 1777              	.L104:
 846:stepper.c     ****         } else {
 847:stepper.c     ****           break; // **Complete** Exit loop. Segment execution time maxed.
ARM GAS  C:\Users\Bart\AppData\Local\Temp\ccM05RYZ.s 			page 49


 848:stepper.c     ****         }
 849:stepper.c     ****       }
 850:stepper.c     ****     } while (mm_remaining > prep.mm_complete); // **Complete** Exit loop. Profile complete.
 1778              		.loc 1 850 0
 1779 0734 564B     		ldr	r3, .L166+8
 1780 0736 D3F8DC00 		ldr	r0, [r3, #220]	@ float
 1781              	.LVL243:
 1782 073a 4946     		mov	r1, r9
 1783 073c FFF7FEFF 		bl	__aeabi_fcmplt
 1784              	.LVL244:
 1785 0740 0028     		cmp	r0, #0
 1786 0742 7FF466AE 		bne	.L107
 1787              	.L105:
 851:stepper.c     **** 
 852:stepper.c     ****     #ifdef VARIABLE_SPINDLE
 853:stepper.c     ****       /* -----------------------------------------------------------------------------------
 854:stepper.c     ****         Compute spindle speed PWM output for step segment
 855:stepper.c     ****       */
 856:stepper.c     ****       
 857:stepper.c     ****       if (st_prep_block->is_pwm_rate_adjusted || (sys.step_control & STEP_CONTROL_UPDATE_SPINDLE_PW
 1788              		.loc 1 857 0
 1789 0746 524B     		ldr	r3, .L166+8
 1790 0748 D3F80431 		ldr	r3, [r3, #260]
 1791 074c 5B7C     		ldrb	r3, [r3, #17]	@ zero_extendqisi2
 1792 074e 23B9     		cbnz	r3, .L108
 1793              		.loc 1 857 0 is_stmt 0 discriminator 1
 1794 0750 514A     		ldr	r2, .L166+16
 1795 0752 1279     		ldrb	r2, [r2, #4]	@ zero_extendqisi2
 1796 0754 12F0080F 		tst	r2, #8
 1797 0758 26D0     		beq	.L109
 1798              	.L108:
 858:stepper.c     ****         if (pl_block->condition & (PL_COND_FLAG_SPINDLE_CW | PL_COND_FLAG_SPINDLE_CCW)) {
 1799              		.loc 1 858 0 is_stmt 1
 1800 075a 9AF81120 		ldrb	r2, [r10, #17]	@ zero_extendqisi2
 1801 075e 12F0300F 		tst	r2, #48
 1802 0762 15D0     		beq	.L110
 1803              	.LBB7:
 859:stepper.c     ****           float rpm = pl_block->spindle_speed;
 1804              		.loc 1 859 0
 1805 0764 DAF83040 		ldr	r4, [r10, #48]	@ float
 1806              	.LVL245:
 860:stepper.c     ****           // NOTE: Feed and rapid overrides are independent of PWM value and do not alter laser pow
 861:stepper.c     ****           if (st_prep_block->is_pwm_rate_adjusted) { rpm *= (prep.current_speed * prep.inv_rate); }
 1807              		.loc 1 861 0
 1808 0768 5BB1     		cbz	r3, .L111
 1809              		.loc 1 861 0 is_stmt 0 discriminator 1
 1810 076a 494B     		ldr	r3, .L166+8
 1811 076c D3F8E000 		ldr	r0, [r3, #224]	@ float
 1812 0770 D3F8F410 		ldr	r1, [r3, #244]	@ float
 1813 0774 FFF7FEFF 		bl	__aeabi_fmul
 1814              	.LVL246:
 1815 0778 0146     		mov	r1, r0
 1816 077a 2046     		mov	r0, r4
 1817 077c FFF7FEFF 		bl	__aeabi_fmul
 1818              	.LVL247:
 1819 0780 0446     		mov	r4, r0
 1820              	.LVL248:
ARM GAS  C:\Users\Bart\AppData\Local\Temp\ccM05RYZ.s 			page 50


 1821              	.L111:
 862:stepper.c     ****           // If current_speed is zero, then may need to be rpm_min*(100/MAX_SPINDLE_SPEED_OVERRIDE)
 863:stepper.c     ****           // but this would be instantaneous only and during a motion. May not matter at all.
 864:stepper.c     ****           prep.current_spindle_pwm = spindle_compute_pwm_value(rpm);
 1822              		.loc 1 864 0 is_stmt 1
 1823 0782 2046     		mov	r0, r4
 1824 0784 FFF7FEFF 		bl	spindle_compute_pwm_value
 1825              	.LVL249:
 1826 0788 414B     		ldr	r3, .L166+8
 1827 078a 83F8F800 		strb	r0, [r3, #248]
 1828              	.LBE7:
 1829 078e 06E0     		b	.L112
 1830              	.LVL250:
 1831              	.L110:
 865:stepper.c     ****         } else { 
 866:stepper.c     ****           sys.spindle_speed = 0.0;
 1832              		.loc 1 866 0
 1833 0790 0022     		movs	r2, #0
 1834 0792 414B     		ldr	r3, .L166+16
 1835 0794 1A61     		str	r2, [r3, #16]	@ float
 867:stepper.c     ****           prep.current_spindle_pwm = SPINDLE_PWM_OFF_VALUE;
 1836              		.loc 1 867 0
 1837 0796 0022     		movs	r2, #0
 1838 0798 3D4B     		ldr	r3, .L166+8
 1839 079a 83F8F820 		strb	r2, [r3, #248]
 1840              	.L112:
 868:stepper.c     ****         }
 869:stepper.c     ****         bit_false(sys.step_control,STEP_CONTROL_UPDATE_SPINDLE_PWM);
 1841              		.loc 1 869 0
 1842 079e 3E4A     		ldr	r2, .L166+16
 1843 07a0 1379     		ldrb	r3, [r2, #4]	@ zero_extendqisi2
 1844 07a2 23F00803 		bic	r3, r3, #8
 1845 07a6 1371     		strb	r3, [r2, #4]
 1846              	.L109:
 870:stepper.c     ****       }
 871:stepper.c     ****       prep_segment->spindle_pwm = prep.current_spindle_pwm; // Reload segment PWM value
 1847              		.loc 1 871 0
 1848 07a8 394E     		ldr	r6, .L166+8
 1849 07aa 96F8F830 		ldrb	r3, [r6, #248]	@ zero_extendqisi2
 1850 07ae 079A     		ldr	r2, [sp, #28]
 1851 07b0 06EBC208 		add	r8, r6, r2, lsl #3
 1852 07b4 88F83230 		strb	r3, [r8, #50]
 872:stepper.c     **** 
 873:stepper.c     ****     #endif
 874:stepper.c     ****     
 875:stepper.c     ****     /* -----------------------------------------------------------------------------------
 876:stepper.c     ****        Compute segment step rate, steps to execute, and apply necessary rate corrections.
 877:stepper.c     ****        NOTE: Steps are computed by direct scalar conversion of the millimeter distance
 878:stepper.c     ****        remaining in the block, rather than incrementally tallying the steps executed per
 879:stepper.c     ****        segment. This helps in removing floating point round-off issues of several additions.
 880:stepper.c     ****        However, since floats have only 7.2 significant digits, long moves with extremely
 881:stepper.c     ****        high step counts can exceed the precision of floats, which can lead to lost steps.
 882:stepper.c     ****        Fortunately, this scenario is highly unlikely and unrealistic in CNC machines
 883:stepper.c     ****        supported by Grbl (i.e. exceeding 10 meters axis travel at 200 step/mm).
 884:stepper.c     ****     */
 885:stepper.c     ****     float step_dist_remaining = prep.step_per_mm*mm_remaining; // Convert mm_remaining to steps
 1853              		.loc 1 885 0
ARM GAS  C:\Users\Bart\AppData\Local\Temp\ccM05RYZ.s 			page 51


 1854 07b8 D6F8D000 		ldr	r0, [r6, #208]	@ float
 1855 07bc 4946     		mov	r1, r9
 1856 07be FFF7FEFF 		bl	__aeabi_fmul
 1857              	.LVL251:
 1858 07c2 0546     		mov	r5, r0
 1859              	.LVL252:
 886:stepper.c     ****     float n_steps_remaining = ceil(step_dist_remaining); // Round-up current steps remaining
 1860              		.loc 1 886 0
 1861 07c4 FFF7FEFF 		bl	__aeabi_f2d
 1862              	.LVL253:
 1863 07c8 FFF7FEFF 		bl	ceil
 1864              	.LVL254:
 1865 07cc FFF7FEFF 		bl	__aeabi_d2f
 1866              	.LVL255:
 1867 07d0 0446     		mov	r4, r0
 1868              	.LVL256:
 887:stepper.c     ****     float last_n_steps_remaining = ceil(prep.steps_remaining); // Round-up last steps remaining
 1869              		.loc 1 887 0
 1870 07d2 D6F8CC00 		ldr	r0, [r6, #204]	@ float
 1871              	.LVL257:
 1872 07d6 FFF7FEFF 		bl	__aeabi_f2d
 1873              	.LVL258:
 1874 07da FFF7FEFF 		bl	ceil
 1875              	.LVL259:
 1876 07de FFF7FEFF 		bl	__aeabi_d2f
 1877              	.LVL260:
 1878 07e2 0646     		mov	r6, r0
 1879              	.LVL261:
 888:stepper.c     ****     prep_segment->n_step = last_n_steps_remaining-n_steps_remaining; // Compute number of steps to 
 1880              		.loc 1 888 0
 1881 07e4 2146     		mov	r1, r4
 1882 07e6 FFF7FEFF 		bl	__aeabi_fsub
 1883              	.LVL262:
 1884 07ea FFF7FEFF 		bl	__aeabi_f2uiz
 1885              	.LVL263:
 1886 07ee 87B2     		uxth	r7, r0
 1887 07f0 A8F82C70 		strh	r7, [r8, #44]	@ movhi
 889:stepper.c     **** 
 890:stepper.c     ****     // Bail if we are at the end of a feed hold and don't have a step to execute.
 891:stepper.c     ****     if (prep_segment->n_step == 0) {
 1888              		.loc 1 891 0
 1889 07f4 4FB9     		cbnz	r7, .L113
 892:stepper.c     ****       if (sys.step_control & STEP_CONTROL_EXECUTE_HOLD) {
 1890              		.loc 1 892 0
 1891 07f6 284B     		ldr	r3, .L166+16
 1892 07f8 1B79     		ldrb	r3, [r3, #4]	@ zero_extendqisi2
 1893 07fa 13F0020F 		tst	r3, #2
 1894 07fe 04D0     		beq	.L113
 893:stepper.c     ****         // Less than one step to decelerate to zero speed, but already very close. AMASS
 894:stepper.c     ****         // requires full steps to execute. So, just bail.
 895:stepper.c     ****         bit_true(sys.step_control,STEP_CONTROL_END_MOTION);
 1895              		.loc 1 895 0
 1896 0800 43F00103 		orr	r3, r3, #1
 1897 0804 244A     		ldr	r2, .L166+16
 1898 0806 1371     		strb	r3, [r2, #4]
 896:stepper.c     ****         #ifdef PARKING_ENABLE
 897:stepper.c     ****           if (!(prep.recalculate_flag & PREP_FLAG_PARKING)) { prep.recalculate_flag |= PREP_FLAG_HO
ARM GAS  C:\Users\Bart\AppData\Local\Temp\ccM05RYZ.s 			page 52


 898:stepper.c     ****         #endif
 899:stepper.c     ****         return; // Segment not generated, but current step data still retained.
 1899              		.loc 1 899 0
 1900 0808 B7E0     		b	.L53
 1901              	.L113:
 900:stepper.c     ****       }
 901:stepper.c     ****     }
 902:stepper.c     **** 
 903:stepper.c     ****     // Compute segment step rate. Since steps are integers and mm distances traveled are not,
 904:stepper.c     ****     // the end of every segment can have a partial step of varying magnitudes that are not
 905:stepper.c     ****     // executed, because the stepper ISR requires whole steps due to the AMASS algorithm. To
 906:stepper.c     ****     // compensate, we track the time to execute the previous segment's partial step and simply
 907:stepper.c     ****     // apply it with the partial step distance to the current segment, so that it minutely
 908:stepper.c     ****     // adjusts the whole segment rate to keep step output exact. These rate adjustments are
 909:stepper.c     ****     // typically very small and do not adversely effect performance, but ensures that Grbl
 910:stepper.c     ****     // outputs the exact acceleration and velocity profiles as computed by the planner.
 911:stepper.c     ****     dt += prep.dt_remainder; // Apply previous segment partial step execute time
 1902              		.loc 1 911 0
 1903 080a 214B     		ldr	r3, .L166+8
 1904 080c D3F8C800 		ldr	r0, [r3, #200]	@ float
 1905 0810 0199     		ldr	r1, [sp, #4]	@ float
 1906 0812 FFF7FEFF 		bl	__aeabi_fadd
 1907              	.LVL264:
 1908 0816 8046     		mov	r8, r0
 1909              	.LVL265:
 912:stepper.c     ****     float inv_rate = dt/(last_n_steps_remaining - step_dist_remaining); // Compute adjusted step ra
 1910              		.loc 1 912 0
 1911 0818 3046     		mov	r0, r6
 1912              	.LVL266:
 1913 081a 2946     		mov	r1, r5
 1914 081c FFF7FEFF 		bl	__aeabi_fsub
 1915              	.LVL267:
 1916 0820 0146     		mov	r1, r0
 1917 0822 4046     		mov	r0, r8
 1918 0824 FFF7FEFF 		bl	__aeabi_fdiv
 1919              	.LVL268:
 1920 0828 0646     		mov	r6, r0
 1921              	.LVL269:
 913:stepper.c     **** 
 914:stepper.c     ****     // Compute CPU cycles per step for the prepped segment.
 915:stepper.c     ****     uint32_t cycles = ceil( (TICKS_PER_MICROSECOND*1000000*60)*inv_rate ); // (cycles/step)
 1922              		.loc 1 915 0
 1923 082a 1C49     		ldr	r1, .L166+20
 1924 082c FFF7FEFF 		bl	__aeabi_fmul
 1925              	.LVL270:
 1926 0830 FFF7FEFF 		bl	__aeabi_f2d
 1927              	.LVL271:
 1928 0834 FFF7FEFF 		bl	ceil
 1929              	.LVL272:
 1930 0838 FFF7FEFF 		bl	__aeabi_d2uiz
 1931              	.LVL273:
 916:stepper.c     **** 
 917:stepper.c     ****     #ifdef ADAPTIVE_MULTI_AXIS_STEP_SMOOTHING
 918:stepper.c     ****       // Compute step timing and multi-axis smoothing level.
 919:stepper.c     ****       // NOTE: AMASS overdrives the timer with each level, so only one prescalar is required.
 920:stepper.c     ****       if (cycles < AMASS_LEVEL1) { prep_segment->amass_level = 0; }
 1932              		.loc 1 920 0
ARM GAS  C:\Users\Bart\AppData\Local\Temp\ccM05RYZ.s 			page 53


 1933 083c 40F6B733 		movw	r3, #2999
 1934 0840 9842     		cmp	r0, r3
 1935 0842 07D8     		bhi	.L114
 1936              		.loc 1 920 0 is_stmt 0 discriminator 1
 1937 0844 124B     		ldr	r3, .L166+8
 1938 0846 079A     		ldr	r2, [sp, #28]
 1939 0848 03EBC203 		add	r3, r3, r2, lsl #3
 1940 084c 0022     		movs	r2, #0
 1941 084e 83F83120 		strb	r2, [r3, #49]
 1942 0852 35E0     		b	.L115
 1943              	.L114:
 921:stepper.c     ****       else {
 922:stepper.c     ****         if (cycles < AMASS_LEVEL2) { prep_segment->amass_level = 1; }
 1944              		.loc 1 922 0 is_stmt 1
 1945 0854 41F26F73 		movw	r3, #5999
 1946 0858 9842     		cmp	r0, r3
 1947 085a 07D8     		bhi	.L116
 1948              		.loc 1 922 0 is_stmt 0 discriminator 1
 1949 085c 0C4B     		ldr	r3, .L166+8
 1950 085e 079A     		ldr	r2, [sp, #28]
 1951 0860 03EBC203 		add	r3, r3, r2, lsl #3
 1952 0864 0122     		movs	r2, #1
 1953 0866 83F83120 		strb	r2, [r3, #49]
 1954 086a 20E0     		b	.L117
 1955              	.L116:
 923:stepper.c     ****         else if (cycles < AMASS_LEVEL3) { prep_segment->amass_level = 2; }
 1956              		.loc 1 923 0 is_stmt 1
 1957 086c 42F6DF63 		movw	r3, #11999
 1958 0870 9842     		cmp	r0, r3
 1959 0872 15D8     		bhi	.L118
 1960              		.loc 1 923 0 is_stmt 0 discriminator 1
 1961 0874 064B     		ldr	r3, .L166+8
 1962 0876 079A     		ldr	r2, [sp, #28]
 1963 0878 03EBC203 		add	r3, r3, r2, lsl #3
 1964 087c 0222     		movs	r2, #2
 1965 087e 83F83120 		strb	r2, [r3, #49]
 1966 0882 14E0     		b	.L117
 1967              	.L167:
 1968 0884 AFF30080 		.align	3
 1969              	.L166:
 1970 0888 A5E2ECC3 		.word	-1007885659
 1971 088c 67D8253F 		.word	1059444839
 1972 0890 00000000 		.word	.LANCHOR0
 1973 0894 0000E03F 		.word	1071644672
 1974 0898 00000000 		.word	sys
 1975 089c 50A9AB4E 		.word	1319872848
 1976              	.L118:
 924:stepper.c     ****         else { prep_segment->amass_level = 3; }
 1977              		.loc 1 924 0 is_stmt 1
 1978 08a0 374B     		ldr	r3, .L168
 1979 08a2 079A     		ldr	r2, [sp, #28]
 1980 08a4 03EBC203 		add	r3, r3, r2, lsl #3
 1981 08a8 0322     		movs	r2, #3
 1982 08aa 83F83120 		strb	r2, [r3, #49]
 1983              	.L117:
 925:stepper.c     ****         cycles >>= prep_segment->amass_level;
 1984              		.loc 1 925 0
ARM GAS  C:\Users\Bart\AppData\Local\Temp\ccM05RYZ.s 			page 54


 1985 08ae 344B     		ldr	r3, .L168
 1986 08b0 079A     		ldr	r2, [sp, #28]
 1987 08b2 03EBC203 		add	r3, r3, r2, lsl #3
 1988 08b6 93F83120 		ldrb	r2, [r3, #49]	@ zero_extendqisi2
 1989 08ba D040     		lsrs	r0, r0, r2
 1990              	.LVL274:
 926:stepper.c     ****         prep_segment->n_step <<= prep_segment->amass_level;
 1991              		.loc 1 926 0
 1992 08bc 9740     		lsls	r7, r7, r2
 1993 08be 9F85     		strh	r7, [r3, #44]	@ movhi
 1994              	.L115:
 927:stepper.c     ****       }
 928:stepper.c     ****       if (cycles < (1UL << 16)) { prep_segment->cycles_per_tick = cycles; } // < 65536 (4.1ms @ 16M
 1995              		.loc 1 928 0
 1996 08c0 B0F5803F 		cmp	r0, #65536
 1997 08c4 05D2     		bcs	.L119
 1998              		.loc 1 928 0 is_stmt 0 discriminator 1
 1999 08c6 2E4B     		ldr	r3, .L168
 2000 08c8 079A     		ldr	r2, [sp, #28]
 2001 08ca 03EBC203 		add	r3, r3, r2, lsl #3
 2002 08ce D885     		strh	r0, [r3, #46]	@ movhi
 2003 08d0 06E0     		b	.L120
 2004              	.L119:
 929:stepper.c     ****       else { prep_segment->cycles_per_tick = 0xffff; } // Just set the slowest speed possible.
 2005              		.loc 1 929 0 is_stmt 1
 2006 08d2 2B4B     		ldr	r3, .L168
 2007 08d4 079A     		ldr	r2, [sp, #28]
 2008 08d6 03EBC203 		add	r3, r3, r2, lsl #3
 2009 08da 4FF6FF72 		movw	r2, #65535
 2010 08de DA85     		strh	r2, [r3, #46]	@ movhi
 2011              	.L120:
 930:stepper.c     ****     #else
 931:stepper.c     ****       // Compute step timing and timer prescalar for normal step generation.
 932:stepper.c     ****       if (cycles < (1UL << 16)) { // < 65536  (4.1ms @ 16MHz)
 933:stepper.c     ****         prep_segment->prescaler = 1; // prescaler: 0
 934:stepper.c     ****         prep_segment->cycles_per_tick = cycles;
 935:stepper.c     ****       } else if (cycles < (1UL << 19)) { // < 524288 (32.8ms@16MHz)
 936:stepper.c     ****         prep_segment->prescaler = 2; // prescaler: 8
 937:stepper.c     ****         prep_segment->cycles_per_tick = cycles >> 3;
 938:stepper.c     ****       } else {
 939:stepper.c     ****         prep_segment->prescaler = 3; // prescaler: 64
 940:stepper.c     ****         if (cycles < (1UL << 22)) { // < 4194304 (262ms@16MHz)
 941:stepper.c     ****           prep_segment->cycles_per_tick =  cycles >> 6;
 942:stepper.c     ****         } else { // Just set the slowest speed possible. (Around 4 step/sec.)
 943:stepper.c     ****           prep_segment->cycles_per_tick = 0xffff;
 944:stepper.c     ****         }
 945:stepper.c     ****       }
 946:stepper.c     ****     #endif
 947:stepper.c     **** 
 948:stepper.c     ****     // Segment complete! Increment segment buffer indices, so stepper ISR can immediately execute i
 949:stepper.c     ****     segment_buffer_head = segment_next_head;
 2012              		.loc 1 949 0
 2013 08e0 274A     		ldr	r2, .L168
 2014 08e2 92F80031 		ldrb	r3, [r2, #256]	@ zero_extendqisi2
 2015 08e6 82F82A30 		strb	r3, [r2, #42]
 950:stepper.c     ****     if ( ++segment_next_head == SEGMENT_BUFFER_SIZE ) { segment_next_head = 0; }
 2016              		.loc 1 950 0
ARM GAS  C:\Users\Bart\AppData\Local\Temp\ccM05RYZ.s 			page 55


 2017 08ea 0133     		adds	r3, r3, #1
 2018 08ec DBB2     		uxtb	r3, r3
 2019 08ee 82F80031 		strb	r3, [r2, #256]
 2020 08f2 062B     		cmp	r3, #6
 2021 08f4 03D1     		bne	.L121
 2022              		.loc 1 950 0 is_stmt 0 discriminator 1
 2023 08f6 0022     		movs	r2, #0
 2024 08f8 214B     		ldr	r3, .L168
 2025 08fa 83F80021 		strb	r2, [r3, #256]
 2026              	.L121:
 951:stepper.c     **** 
 952:stepper.c     ****     // Update the appropriate planner and segment data.
 953:stepper.c     ****     pl_block->millimeters = mm_remaining;
 2027              		.loc 1 953 0 is_stmt 1
 2028 08fe 204F     		ldr	r7, .L168
 2029 0900 D7F8FC30 		ldr	r3, [r7, #252]
 2030 0904 C3F82090 		str	r9, [r3, #32]	@ float
 954:stepper.c     ****     prep.steps_remaining = n_steps_remaining;
 2031              		.loc 1 954 0
 2032 0908 C7F8CC40 		str	r4, [r7, #204]	@ float
 955:stepper.c     ****     prep.dt_remainder = (n_steps_remaining - step_dist_remaining)*inv_rate;
 2033              		.loc 1 955 0
 2034 090c 2046     		mov	r0, r4
 2035              	.LVL275:
 2036 090e 2946     		mov	r1, r5
 2037 0910 FFF7FEFF 		bl	__aeabi_fsub
 2038              	.LVL276:
 2039 0914 3146     		mov	r1, r6
 2040 0916 FFF7FEFF 		bl	__aeabi_fmul
 2041              	.LVL277:
 2042 091a C7F8C800 		str	r0, [r7, #200]	@ float
 956:stepper.c     **** 
 957:stepper.c     ****     // Check for exit conditions and flag to load next planner block.
 958:stepper.c     ****     if (mm_remaining == prep.mm_complete) {
 2043              		.loc 1 958 0
 2044 091e D7F8DC00 		ldr	r0, [r7, #220]	@ float
 2045 0922 4946     		mov	r1, r9
 2046 0924 FFF7FEFF 		bl	__aeabi_fcmpeq
 2047              	.LVL278:
 2048 0928 F0B1     		cbz	r0, .L122
 959:stepper.c     ****       // End of planner block or forced-termination. No more distance to be executed.
 960:stepper.c     ****       if (mm_remaining > 0.0) { // At end of forced-termination.
 2049              		.loc 1 960 0
 2050 092a 4846     		mov	r0, r9
 2051 092c 0021     		movs	r1, #0
 2052 092e FFF7FEFF 		bl	__aeabi_fcmpgt
 2053              	.LVL279:
 2054 0932 28B1     		cbz	r0, .L159
 961:stepper.c     ****         // Reset prep parameters for resuming and then bail. Allow the stepper ISR to complete
 962:stepper.c     ****         // the segment queue, where realtime protocol will set new state upon receiving the
 963:stepper.c     ****         // cycle stop flag from the ISR. Prep_segment is blocked until then.
 964:stepper.c     ****         bit_true(sys.step_control,STEP_CONTROL_END_MOTION);
 2055              		.loc 1 964 0
 2056 0934 134A     		ldr	r2, .L168+4
 2057 0936 1379     		ldrb	r3, [r2, #4]	@ zero_extendqisi2
 2058 0938 43F00103 		orr	r3, r3, #1
 2059 093c 1371     		strb	r3, [r2, #4]
ARM GAS  C:\Users\Bart\AppData\Local\Temp\ccM05RYZ.s 			page 56


 965:stepper.c     ****         #ifdef PARKING_ENABLE
 966:stepper.c     ****           if (!(prep.recalculate_flag & PREP_FLAG_PARKING)) { prep.recalculate_flag |= PREP_FLAG_HO
 967:stepper.c     ****         #endif
 968:stepper.c     ****         return; // Bail!
 2060              		.loc 1 968 0
 2061 093e 1CE0     		b	.L53
 2062              	.L159:
 969:stepper.c     ****       } else { // End of planner block
 970:stepper.c     ****         // The planner block is complete. All steps are set to be executed in the segment buffer.
 971:stepper.c     ****         if (sys.step_control & STEP_CONTROL_EXECUTE_SYS_MOTION) {
 2063              		.loc 1 971 0
 2064 0940 104B     		ldr	r3, .L168+4
 2065 0942 1B79     		ldrb	r3, [r3, #4]	@ zero_extendqisi2
 2066 0944 13F0040F 		tst	r3, #4
 2067 0948 04D0     		beq	.L126
 972:stepper.c     ****           bit_true(sys.step_control,STEP_CONTROL_END_MOTION);
 2068              		.loc 1 972 0
 2069 094a 43F00103 		orr	r3, r3, #1
 2070 094e 0D4A     		ldr	r2, .L168+4
 2071 0950 1371     		strb	r3, [r2, #4]
 973:stepper.c     ****           return;
 2072              		.loc 1 973 0
 2073 0952 12E0     		b	.L53
 2074              	.L126:
 974:stepper.c     ****         }
 975:stepper.c     ****         pl_block = NULL; // Set pointer to indicate check and load next planner block.
 2075              		.loc 1 975 0
 2076 0954 0022     		movs	r2, #0
 2077 0956 0A4B     		ldr	r3, .L168
 2078 0958 C3F8FC20 		str	r2, [r3, #252]
 976:stepper.c     ****         plan_discard_current_block();
 2079              		.loc 1 976 0
 2080 095c FFF7FEFF 		bl	plan_discard_current_block
 2081              	.LVL280:
 2082 0960 02E0     		b	.L122
 2083              	.LVL281:
 2084              	.L161:
 2085              		.cfi_def_cfa_offset 0
 2086              		.cfi_restore 4
 2087              		.cfi_restore 5
 2088              		.cfi_restore 6
 2089              		.cfi_restore 7
 2090              		.cfi_restore 8
 2091              		.cfi_restore 9
 2092              		.cfi_restore 10
 2093              		.cfi_restore 11
 2094              		.cfi_restore 14
 2095              	.LBE2:
 576:stepper.c     ****   // Block step prep buffer, while in a suspend state and there is no suspend motion to execute.
 2096              		.loc 1 576 0
 2097 0962 2DE9F04F 		push	{r4, r5, r6, r7, r8, r9, r10, fp, lr}
 2098              		.cfi_def_cfa_offset 36
 2099              		.cfi_offset 4, -36
 2100              		.cfi_offset 5, -32
 2101              		.cfi_offset 6, -28
 2102              		.cfi_offset 7, -24
 2103              		.cfi_offset 8, -20
ARM GAS  C:\Users\Bart\AppData\Local\Temp\ccM05RYZ.s 			page 57


 2104              		.cfi_offset 9, -16
 2105              		.cfi_offset 10, -12
 2106              		.cfi_offset 11, -8
 2107              		.cfi_offset 14, -4
 2108 0966 89B0     		sub	sp, sp, #36
 2109              		.cfi_def_cfa_offset 72
 2110              	.L122:
 580:stepper.c     **** 
 2111              		.loc 1 580 0
 2112 0968 054A     		ldr	r2, .L168
 2113 096a 92F82B30 		ldrb	r3, [r2, #43]	@ zero_extendqisi2
 2114 096e DBB2     		uxtb	r3, r3
 2115 0970 92F80021 		ldrb	r2, [r2, #256]	@ zero_extendqisi2
 2116 0974 9342     		cmp	r3, r2
 2117 0976 7FF44AAB 		bne	.L127
 2118              	.L53:
 977:stepper.c     ****       }
 978:stepper.c     ****     }
 979:stepper.c     **** 
 980:stepper.c     ****   }
 981:stepper.c     **** }
 2119              		.loc 1 981 0
 2120 097a 09B0     		add	sp, sp, #36
 2121              		.cfi_def_cfa_offset 36
 2122              		@ sp needed
 2123 097c BDE8F08F 		pop	{r4, r5, r6, r7, r8, r9, r10, fp, pc}
 2124              	.L169:
 2125              		.align	2
 2126              	.L168:
 2127 0980 00000000 		.word	.LANCHOR0
 2128 0984 00000000 		.word	sys
 2129              		.cfi_endproc
 2130              	.LFE71:
 2131              		.size	st_prep_buffer, .-st_prep_buffer
 2132              		.section	.text.st_get_realtime_rate,"ax",%progbits
 2133              		.align	2
 2134              		.global	st_get_realtime_rate
 2135              		.thumb
 2136              		.thumb_func
 2137              		.type	st_get_realtime_rate, %function
 2138              	st_get_realtime_rate:
 2139              	.LFB72:
 982:stepper.c     **** 
 983:stepper.c     **** 
 984:stepper.c     **** // Called by realtime status reporting to fetch the current speed being executed. This value
 985:stepper.c     **** // however is not exactly the current speed, but the speed computed in the last step segment
 986:stepper.c     **** // in the segment buffer. It will always be behind by up to the number of segment blocks (-1)
 987:stepper.c     **** // divided by the ACCELERATION TICKS PER SECOND in seconds.
 988:stepper.c     **** float st_get_realtime_rate()
 989:stepper.c     **** {
 2140              		.loc 1 989 0
 2141              		.cfi_startproc
 2142              		@ args = 0, pretend = 0, frame = 0
 2143              		@ frame_needed = 0, uses_anonymous_args = 0
 2144              		@ link register save eliminated.
 990:stepper.c     ****   if (sys.state & (STATE_CYCLE | STATE_HOMING | STATE_HOLD | STATE_JOG | STATE_SAFETY_DOOR)){
 2145              		.loc 1 990 0
ARM GAS  C:\Users\Bart\AppData\Local\Temp\ccM05RYZ.s 			page 58


 2146 0000 054B     		ldr	r3, .L173
 2147 0002 1B78     		ldrb	r3, [r3]	@ zero_extendqisi2
 2148 0004 13F07C0F 		tst	r3, #124
 2149 0008 03D0     		beq	.L172
 991:stepper.c     ****     return prep.current_speed;
 2150              		.loc 1 991 0
 2151 000a 044B     		ldr	r3, .L173+4
 2152 000c D3F8E000 		ldr	r0, [r3, #224]	@ float
 2153 0010 7047     		bx	lr
 2154              	.L172:
 992:stepper.c     ****   }
 993:stepper.c     ****   return 0.0f;
 2155              		.loc 1 993 0
 2156 0012 0020     		movs	r0, #0
 994:stepper.c     **** }
 2157              		.loc 1 994 0
 2158 0014 7047     		bx	lr
 2159              	.L174:
 2160 0016 00BF     		.align	2
 2161              	.L173:
 2162 0018 00000000 		.word	sys
 2163 001c 00000000 		.word	.LANCHOR0
 2164              		.cfi_endproc
 2165              	.LFE72:
 2166              		.size	st_get_realtime_rate, .-st_get_realtime_rate
 2167              		.comm	exec_lcd_status,1,1
 2168              		.comm	sys_rt_exec_debug,1,1
 2169              		.comm	sys_rt_exec_accessory_override,1,1
 2170              		.comm	sys_rt_exec_motion_override,1,1
 2171              		.comm	sys_rt_exec_alarm,1,1
 2172              		.comm	sys_rt_exec_state,1,1
 2173              		.comm	sys_probe_state,1,1
 2174              		.comm	sys_probe_position,12,4
 2175              		.comm	sys_position,12,4
 2176              		.bss
 2177              		.align	2
 2178              		.set	.LANCHOR0,. + 0
 2179              		.type	st, %object
 2180              		.size	st, 40
 2181              	st:
 2182 0000 00000000 		.space	40
 2182      00000000 
 2182      00000000 
 2182      00000000 
 2182      00000000 
 2183              		.type	step_port_invert_mask, %object
 2184              		.size	step_port_invert_mask, 1
 2185              	step_port_invert_mask:
 2186 0028 00       		.space	1
 2187              		.type	busy, %object
 2188              		.size	busy, 1
 2189              	busy:
 2190 0029 00       		.space	1
 2191              		.type	segment_buffer_head, %object
 2192              		.size	segment_buffer_head, 1
 2193              	segment_buffer_head:
 2194 002a 00       		.space	1
ARM GAS  C:\Users\Bart\AppData\Local\Temp\ccM05RYZ.s 			page 59


 2195              		.type	segment_buffer_tail, %object
 2196              		.size	segment_buffer_tail, 1
 2197              	segment_buffer_tail:
 2198 002b 00       		.space	1
 2199              		.type	segment_buffer, %object
 2200              		.size	segment_buffer, 48
 2201              	segment_buffer:
 2202 002c 00000000 		.space	48
 2202      00000000 
 2202      00000000 
 2202      00000000 
 2202      00000000 
 2203              		.type	st_block_buffer, %object
 2204              		.size	st_block_buffer, 100
 2205              	st_block_buffer:
 2206 005c 00000000 		.space	100
 2206      00000000 
 2206      00000000 
 2206      00000000 
 2206      00000000 
 2207              		.type	dir_port_invert_mask, %object
 2208              		.size	dir_port_invert_mask, 1
 2209              	dir_port_invert_mask:
 2210 00c0 00       		.space	1
 2211 00c1 000000   		.space	3
 2212              		.type	prep, %object
 2213              		.size	prep, 56
 2214              	prep:
 2215 00c4 00000000 		.space	56
 2215      00000000 
 2215      00000000 
 2215      00000000 
 2215      00000000 
 2216              		.type	pl_block, %object
 2217              		.size	pl_block, 4
 2218              	pl_block:
 2219 00fc 00000000 		.space	4
 2220              		.type	segment_next_head, %object
 2221              		.size	segment_next_head, 1
 2222              	segment_next_head:
 2223 0100 00       		.space	1
 2224 0101 000000   		.space	3
 2225              		.type	st_prep_block, %object
 2226              		.size	st_prep_block, 4
 2227              	st_prep_block:
 2228 0104 00000000 		.space	4
 2229              		.text
 2230              	.Letext0:
 2231              		.file 2 "d:\\program files (x86)\\cypress\\psoc creator\\4.0\\psoc creator\\import\\gnu\\arm\\4.9.
 2232              		.file 3 "d:\\program files (x86)\\cypress\\psoc creator\\4.0\\psoc creator\\import\\gnu\\arm\\4.9.
 2233              		.file 4 "Generated_Source\\PSoC5/cytypes.h"
 2234              		.file 5 "settings.h"
 2235              		.file 6 "system.h"
 2236              		.file 7 "planner.h"
 2237              		.file 8 "Generated_Source\\PSoC5/core_cm3.h"
 2238              		.file 9 "lcd_report.h"
 2239              		.file 10 "Generated_Source\\PSoC5/Stepper_Timer.h"
ARM GAS  C:\Users\Bart\AppData\Local\Temp\ccM05RYZ.s 			page 60


 2240              		.file 11 "Generated_Source\\PSoC5/Control_Step_Enable.h"
 2241              		.file 12 "Generated_Source\\PSoC5/CyLib.h"
 2242              		.file 13 "Generated_Source\\PSoC5/Control_Reg_Dir.h"
 2243              		.file 14 "Generated_Source\\PSoC5/Control_Reg_Step.h"
 2244              		.file 15 "spindle_control.h"
 2245              		.file 16 "Generated_Source\\PSoC5/Clock_Step_Pulse.h"
 2246              		.file 17 "Generated_Source\\PSoC5/isr_Step.h"
 2247              		.file 18 "d:\\program files (x86)\\cypress\\psoc creator\\4.0\\psoc creator\\import\\gnu\\arm\\4.9
 2248              		.file 19 "probe.h"