ARM GAS  C:\Users\Bart\AppData\Local\Temp\ccEG920V.s 			page 1


   1              		.syntax unified
   2              		.cpu cortex-m3
   3              		.fpu softvfp
   4              		.eabi_attribute 20, 1
   5              		.eabi_attribute 21, 1
   6              		.eabi_attribute 23, 3
   7              		.eabi_attribute 24, 1
   8              		.eabi_attribute 25, 1
   9              		.eabi_attribute 26, 1
  10              		.eabi_attribute 30, 1
  11              		.eabi_attribute 34, 1
  12              		.eabi_attribute 18, 4
  13              		.thumb
  14              		.file	"Stepper_Timer.c"
  15              		.text
  16              	.Ltext0:
  17              		.cfi_sections	.debug_frame
  18              		.section	.text.Stepper_Timer_Enable,"ax",%progbits
  19              		.align	2
  20              		.global	Stepper_Timer_Enable
  21              		.thumb
  22              		.thumb_func
  23              		.type	Stepper_Timer_Enable, %function
  24              	Stepper_Timer_Enable:
  25              	.LFB1:
  26              		.file 1 "Generated_Source\\PSoC5\\Stepper_Timer.c"
   1:Generated_Source\PSoC5/Stepper_Timer.c **** /*******************************************************************************
   2:Generated_Source\PSoC5/Stepper_Timer.c **** * File Name: Stepper_Timer.c
   3:Generated_Source\PSoC5/Stepper_Timer.c **** * Version 2.70
   4:Generated_Source\PSoC5/Stepper_Timer.c **** *
   5:Generated_Source\PSoC5/Stepper_Timer.c **** * Description:
   6:Generated_Source\PSoC5/Stepper_Timer.c **** *  The Timer component consists of a 8, 16, 24 or 32-bit timer with
   7:Generated_Source\PSoC5/Stepper_Timer.c **** *  a selectable period between 2 and 2^Width - 1.  The timer may free run
   8:Generated_Source\PSoC5/Stepper_Timer.c **** *  or be used as a capture timer as well.  The capture can be initiated
   9:Generated_Source\PSoC5/Stepper_Timer.c **** *  by a positive or negative edge signal as well as via software.
  10:Generated_Source\PSoC5/Stepper_Timer.c **** *  A trigger input can be programmed to enable the timer on rising edge
  11:Generated_Source\PSoC5/Stepper_Timer.c **** *  falling edge, either edge or continous run.
  12:Generated_Source\PSoC5/Stepper_Timer.c **** *  Interrupts may be generated due to a terminal count condition
  13:Generated_Source\PSoC5/Stepper_Timer.c **** *  or a capture event.
  14:Generated_Source\PSoC5/Stepper_Timer.c **** *
  15:Generated_Source\PSoC5/Stepper_Timer.c **** * Note:
  16:Generated_Source\PSoC5/Stepper_Timer.c **** *
  17:Generated_Source\PSoC5/Stepper_Timer.c **** ********************************************************************************
  18:Generated_Source\PSoC5/Stepper_Timer.c **** * Copyright 2008-2014, Cypress Semiconductor Corporation.  All rights reserved.
  19:Generated_Source\PSoC5/Stepper_Timer.c **** * You may use this file only in accordance with the license, terms, conditions,
  20:Generated_Source\PSoC5/Stepper_Timer.c **** * disclaimers, and limitations in the end user license agreement accompanying
  21:Generated_Source\PSoC5/Stepper_Timer.c **** * the software package with which this file was provided.
  22:Generated_Source\PSoC5/Stepper_Timer.c **** ********************************************************************************/
  23:Generated_Source\PSoC5/Stepper_Timer.c **** 
  24:Generated_Source\PSoC5/Stepper_Timer.c **** #include "Stepper_Timer.h"
  25:Generated_Source\PSoC5/Stepper_Timer.c **** 
  26:Generated_Source\PSoC5/Stepper_Timer.c **** uint8 Stepper_Timer_initVar = 0u;
  27:Generated_Source\PSoC5/Stepper_Timer.c **** 
  28:Generated_Source\PSoC5/Stepper_Timer.c **** 
  29:Generated_Source\PSoC5/Stepper_Timer.c **** /*******************************************************************************
  30:Generated_Source\PSoC5/Stepper_Timer.c **** * Function Name: Stepper_Timer_Init
  31:Generated_Source\PSoC5/Stepper_Timer.c **** ********************************************************************************
ARM GAS  C:\Users\Bart\AppData\Local\Temp\ccEG920V.s 			page 2


  32:Generated_Source\PSoC5/Stepper_Timer.c **** *
  33:Generated_Source\PSoC5/Stepper_Timer.c **** * Summary:
  34:Generated_Source\PSoC5/Stepper_Timer.c **** *  Initialize to the schematic state
  35:Generated_Source\PSoC5/Stepper_Timer.c **** *
  36:Generated_Source\PSoC5/Stepper_Timer.c **** * Parameters:
  37:Generated_Source\PSoC5/Stepper_Timer.c **** *  void
  38:Generated_Source\PSoC5/Stepper_Timer.c **** *
  39:Generated_Source\PSoC5/Stepper_Timer.c **** * Return:
  40:Generated_Source\PSoC5/Stepper_Timer.c **** *  void
  41:Generated_Source\PSoC5/Stepper_Timer.c **** *
  42:Generated_Source\PSoC5/Stepper_Timer.c **** *******************************************************************************/
  43:Generated_Source\PSoC5/Stepper_Timer.c **** void Stepper_Timer_Init(void) 
  44:Generated_Source\PSoC5/Stepper_Timer.c **** {
  45:Generated_Source\PSoC5/Stepper_Timer.c ****     #if(!Stepper_Timer_UsingFixedFunction)
  46:Generated_Source\PSoC5/Stepper_Timer.c ****             /* Interrupt State Backup for Critical Region*/
  47:Generated_Source\PSoC5/Stepper_Timer.c ****             uint8 Stepper_Timer_interruptState;
  48:Generated_Source\PSoC5/Stepper_Timer.c ****     #endif /* Interrupt state back up for Fixed Function only */
  49:Generated_Source\PSoC5/Stepper_Timer.c **** 
  50:Generated_Source\PSoC5/Stepper_Timer.c ****     #if (Stepper_Timer_UsingFixedFunction)
  51:Generated_Source\PSoC5/Stepper_Timer.c ****         /* Clear all bits but the enable bit (if it's already set) for Timer operation */
  52:Generated_Source\PSoC5/Stepper_Timer.c ****         Stepper_Timer_CONTROL &= Stepper_Timer_CTRL_ENABLE;
  53:Generated_Source\PSoC5/Stepper_Timer.c **** 
  54:Generated_Source\PSoC5/Stepper_Timer.c ****         /* Clear the mode bits for continuous run mode */
  55:Generated_Source\PSoC5/Stepper_Timer.c ****         #if (CY_PSOC5A)
  56:Generated_Source\PSoC5/Stepper_Timer.c ****             Stepper_Timer_CONTROL2 &= ((uint8)(~Stepper_Timer_CTRL_MODE_MASK));
  57:Generated_Source\PSoC5/Stepper_Timer.c ****         #endif /* Clear bits in CONTROL2 only in PSOC5A */
  58:Generated_Source\PSoC5/Stepper_Timer.c **** 
  59:Generated_Source\PSoC5/Stepper_Timer.c ****         #if (CY_PSOC3 || CY_PSOC5LP)
  60:Generated_Source\PSoC5/Stepper_Timer.c ****             Stepper_Timer_CONTROL3 &= ((uint8)(~Stepper_Timer_CTRL_MODE_MASK));
  61:Generated_Source\PSoC5/Stepper_Timer.c ****         #endif /* CONTROL3 register exists only in PSoC3 OR PSoC5LP */
  62:Generated_Source\PSoC5/Stepper_Timer.c **** 
  63:Generated_Source\PSoC5/Stepper_Timer.c ****         /* Check if One Shot mode is enabled i.e. RunMode !=0*/
  64:Generated_Source\PSoC5/Stepper_Timer.c ****         #if (Stepper_Timer_RunModeUsed != 0x0u)
  65:Generated_Source\PSoC5/Stepper_Timer.c ****             /* Set 3rd bit of Control register to enable one shot mode */
  66:Generated_Source\PSoC5/Stepper_Timer.c ****             Stepper_Timer_CONTROL |= 0x04u;
  67:Generated_Source\PSoC5/Stepper_Timer.c ****         #endif /* One Shot enabled only when RunModeUsed is not Continuous*/
  68:Generated_Source\PSoC5/Stepper_Timer.c **** 
  69:Generated_Source\PSoC5/Stepper_Timer.c ****         #if (Stepper_Timer_RunModeUsed == 2)
  70:Generated_Source\PSoC5/Stepper_Timer.c ****             #if (CY_PSOC5A)
  71:Generated_Source\PSoC5/Stepper_Timer.c ****                 /* Set last 2 bits of control2 register if one shot(halt on
  72:Generated_Source\PSoC5/Stepper_Timer.c ****                 interrupt) is enabled*/
  73:Generated_Source\PSoC5/Stepper_Timer.c ****                 Stepper_Timer_CONTROL2 |= 0x03u;
  74:Generated_Source\PSoC5/Stepper_Timer.c ****             #endif /* Set One-Shot Halt on Interrupt bit in CONTROL2 for PSoC5A */
  75:Generated_Source\PSoC5/Stepper_Timer.c **** 
  76:Generated_Source\PSoC5/Stepper_Timer.c ****             #if (CY_PSOC3 || CY_PSOC5LP)
  77:Generated_Source\PSoC5/Stepper_Timer.c ****                 /* Set last 2 bits of control3 register if one shot(halt on
  78:Generated_Source\PSoC5/Stepper_Timer.c ****                 interrupt) is enabled*/
  79:Generated_Source\PSoC5/Stepper_Timer.c ****                 Stepper_Timer_CONTROL3 |= 0x03u;
  80:Generated_Source\PSoC5/Stepper_Timer.c ****             #endif /* Set One-Shot Halt on Interrupt bit in CONTROL3 for PSoC3 or PSoC5LP */
  81:Generated_Source\PSoC5/Stepper_Timer.c **** 
  82:Generated_Source\PSoC5/Stepper_Timer.c ****         #endif /* Remove section if One Shot Halt on Interrupt is not enabled */
  83:Generated_Source\PSoC5/Stepper_Timer.c **** 
  84:Generated_Source\PSoC5/Stepper_Timer.c ****         #if (Stepper_Timer_UsingHWEnable != 0)
  85:Generated_Source\PSoC5/Stepper_Timer.c ****             #if (CY_PSOC5A)
  86:Generated_Source\PSoC5/Stepper_Timer.c ****                 /* Set the default Run Mode of the Timer to Continuous */
  87:Generated_Source\PSoC5/Stepper_Timer.c ****                 Stepper_Timer_CONTROL2 |= Stepper_Timer_CTRL_MODE_PULSEWIDTH;
  88:Generated_Source\PSoC5/Stepper_Timer.c ****             #endif /* Set Continuous Run Mode in CONTROL2 for PSoC5A */
ARM GAS  C:\Users\Bart\AppData\Local\Temp\ccEG920V.s 			page 3


  89:Generated_Source\PSoC5/Stepper_Timer.c **** 
  90:Generated_Source\PSoC5/Stepper_Timer.c ****             #if (CY_PSOC3 || CY_PSOC5LP)
  91:Generated_Source\PSoC5/Stepper_Timer.c ****                 /* Clear and Set ROD and COD bits of CFG2 register */
  92:Generated_Source\PSoC5/Stepper_Timer.c ****                 Stepper_Timer_CONTROL3 &= ((uint8)(~Stepper_Timer_CTRL_RCOD_MASK));
  93:Generated_Source\PSoC5/Stepper_Timer.c ****                 Stepper_Timer_CONTROL3 |= Stepper_Timer_CTRL_RCOD;
  94:Generated_Source\PSoC5/Stepper_Timer.c **** 
  95:Generated_Source\PSoC5/Stepper_Timer.c ****                 /* Clear and Enable the HW enable bit in CFG2 register */
  96:Generated_Source\PSoC5/Stepper_Timer.c ****                 Stepper_Timer_CONTROL3 &= ((uint8)(~Stepper_Timer_CTRL_ENBL_MASK));
  97:Generated_Source\PSoC5/Stepper_Timer.c ****                 Stepper_Timer_CONTROL3 |= Stepper_Timer_CTRL_ENBL;
  98:Generated_Source\PSoC5/Stepper_Timer.c **** 
  99:Generated_Source\PSoC5/Stepper_Timer.c ****                 /* Set the default Run Mode of the Timer to Continuous */
 100:Generated_Source\PSoC5/Stepper_Timer.c ****                 Stepper_Timer_CONTROL3 |= Stepper_Timer_CTRL_MODE_CONTINUOUS;
 101:Generated_Source\PSoC5/Stepper_Timer.c ****             #endif /* Set Continuous Run Mode in CONTROL3 for PSoC3ES3 or PSoC5A */
 102:Generated_Source\PSoC5/Stepper_Timer.c **** 
 103:Generated_Source\PSoC5/Stepper_Timer.c ****         #endif /* Configure Run Mode with hardware enable */
 104:Generated_Source\PSoC5/Stepper_Timer.c **** 
 105:Generated_Source\PSoC5/Stepper_Timer.c ****         /* Clear and Set SYNCTC and SYNCCMP bits of RT1 register */
 106:Generated_Source\PSoC5/Stepper_Timer.c ****         Stepper_Timer_RT1 &= ((uint8)(~Stepper_Timer_RT1_MASK));
 107:Generated_Source\PSoC5/Stepper_Timer.c ****         Stepper_Timer_RT1 |= Stepper_Timer_SYNC;
 108:Generated_Source\PSoC5/Stepper_Timer.c **** 
 109:Generated_Source\PSoC5/Stepper_Timer.c ****         /*Enable DSI Sync all all inputs of the Timer*/
 110:Generated_Source\PSoC5/Stepper_Timer.c ****         Stepper_Timer_RT1 &= ((uint8)(~Stepper_Timer_SYNCDSI_MASK));
 111:Generated_Source\PSoC5/Stepper_Timer.c ****         Stepper_Timer_RT1 |= Stepper_Timer_SYNCDSI_EN;
 112:Generated_Source\PSoC5/Stepper_Timer.c **** 
 113:Generated_Source\PSoC5/Stepper_Timer.c ****         /* Set the IRQ to use the status register interrupts */
 114:Generated_Source\PSoC5/Stepper_Timer.c ****         Stepper_Timer_CONTROL2 |= Stepper_Timer_CTRL2_IRQ_SEL;
 115:Generated_Source\PSoC5/Stepper_Timer.c ****     #endif /* Configuring registers of fixed function implementation */
 116:Generated_Source\PSoC5/Stepper_Timer.c **** 
 117:Generated_Source\PSoC5/Stepper_Timer.c ****     /* Set Initial values from Configuration */
 118:Generated_Source\PSoC5/Stepper_Timer.c ****     Stepper_Timer_WritePeriod(Stepper_Timer_INIT_PERIOD);
 119:Generated_Source\PSoC5/Stepper_Timer.c ****     Stepper_Timer_WriteCounter(Stepper_Timer_INIT_PERIOD);
 120:Generated_Source\PSoC5/Stepper_Timer.c **** 
 121:Generated_Source\PSoC5/Stepper_Timer.c ****     #if (Stepper_Timer_UsingHWCaptureCounter)/* Capture counter is enabled */
 122:Generated_Source\PSoC5/Stepper_Timer.c ****         Stepper_Timer_CAPTURE_COUNT_CTRL |= Stepper_Timer_CNTR_ENABLE;
 123:Generated_Source\PSoC5/Stepper_Timer.c ****         Stepper_Timer_SetCaptureCount(Stepper_Timer_INIT_CAPTURE_COUNT);
 124:Generated_Source\PSoC5/Stepper_Timer.c ****     #endif /* Configure capture counter value */
 125:Generated_Source\PSoC5/Stepper_Timer.c **** 
 126:Generated_Source\PSoC5/Stepper_Timer.c ****     #if (!Stepper_Timer_UsingFixedFunction)
 127:Generated_Source\PSoC5/Stepper_Timer.c ****         #if (Stepper_Timer_SoftwareCaptureMode)
 128:Generated_Source\PSoC5/Stepper_Timer.c ****             Stepper_Timer_SetCaptureMode(Stepper_Timer_INIT_CAPTURE_MODE);
 129:Generated_Source\PSoC5/Stepper_Timer.c ****         #endif /* Set Capture Mode for UDB implementation if capture mode is software controlled */
 130:Generated_Source\PSoC5/Stepper_Timer.c **** 
 131:Generated_Source\PSoC5/Stepper_Timer.c ****         #if (Stepper_Timer_SoftwareTriggerMode)
 132:Generated_Source\PSoC5/Stepper_Timer.c ****             #if (!Stepper_Timer_UDB_CONTROL_REG_REMOVED)
 133:Generated_Source\PSoC5/Stepper_Timer.c ****                 if (0u == (Stepper_Timer_CONTROL & Stepper_Timer__B_TIMER__TM_SOFTWARE))
 134:Generated_Source\PSoC5/Stepper_Timer.c ****                 {
 135:Generated_Source\PSoC5/Stepper_Timer.c ****                     Stepper_Timer_SetTriggerMode(Stepper_Timer_INIT_TRIGGER_MODE);
 136:Generated_Source\PSoC5/Stepper_Timer.c ****                 }
 137:Generated_Source\PSoC5/Stepper_Timer.c ****             #endif /* (!Stepper_Timer_UDB_CONTROL_REG_REMOVED) */
 138:Generated_Source\PSoC5/Stepper_Timer.c ****         #endif /* Set trigger mode for UDB Implementation if trigger mode is software controlled */
 139:Generated_Source\PSoC5/Stepper_Timer.c **** 
 140:Generated_Source\PSoC5/Stepper_Timer.c ****         /* CyEnterCriticalRegion and CyExitCriticalRegion are used to mark following region critica
 141:Generated_Source\PSoC5/Stepper_Timer.c ****         /* Enter Critical Region*/
 142:Generated_Source\PSoC5/Stepper_Timer.c ****         Stepper_Timer_interruptState = CyEnterCriticalSection();
 143:Generated_Source\PSoC5/Stepper_Timer.c **** 
 144:Generated_Source\PSoC5/Stepper_Timer.c ****         /* Use the interrupt output of the status register for IRQ output */
 145:Generated_Source\PSoC5/Stepper_Timer.c ****         Stepper_Timer_STATUS_AUX_CTRL |= Stepper_Timer_STATUS_ACTL_INT_EN_MASK;
ARM GAS  C:\Users\Bart\AppData\Local\Temp\ccEG920V.s 			page 4


 146:Generated_Source\PSoC5/Stepper_Timer.c **** 
 147:Generated_Source\PSoC5/Stepper_Timer.c ****         /* Exit Critical Region*/
 148:Generated_Source\PSoC5/Stepper_Timer.c ****         CyExitCriticalSection(Stepper_Timer_interruptState);
 149:Generated_Source\PSoC5/Stepper_Timer.c **** 
 150:Generated_Source\PSoC5/Stepper_Timer.c ****         #if (Stepper_Timer_EnableTriggerMode)
 151:Generated_Source\PSoC5/Stepper_Timer.c ****             Stepper_Timer_EnableTrigger();
 152:Generated_Source\PSoC5/Stepper_Timer.c ****         #endif /* Set Trigger enable bit for UDB implementation in the control register*/
 153:Generated_Source\PSoC5/Stepper_Timer.c **** 		
 154:Generated_Source\PSoC5/Stepper_Timer.c **** 		
 155:Generated_Source\PSoC5/Stepper_Timer.c ****         #if (Stepper_Timer_InterruptOnCaptureCount && !Stepper_Timer_UDB_CONTROL_REG_REMOVED)
 156:Generated_Source\PSoC5/Stepper_Timer.c ****             Stepper_Timer_SetInterruptCount(Stepper_Timer_INIT_INT_CAPTURE_COUNT);
 157:Generated_Source\PSoC5/Stepper_Timer.c ****         #endif /* Set interrupt count in UDB implementation if interrupt count feature is checked.*
 158:Generated_Source\PSoC5/Stepper_Timer.c **** 
 159:Generated_Source\PSoC5/Stepper_Timer.c ****         Stepper_Timer_ClearFIFO();
 160:Generated_Source\PSoC5/Stepper_Timer.c ****     #endif /* Configure additional features of UDB implementation */
 161:Generated_Source\PSoC5/Stepper_Timer.c **** 
 162:Generated_Source\PSoC5/Stepper_Timer.c ****     Stepper_Timer_SetInterruptMode(Stepper_Timer_INIT_INTERRUPT_MODE);
 163:Generated_Source\PSoC5/Stepper_Timer.c **** }
 164:Generated_Source\PSoC5/Stepper_Timer.c **** 
 165:Generated_Source\PSoC5/Stepper_Timer.c **** 
 166:Generated_Source\PSoC5/Stepper_Timer.c **** /*******************************************************************************
 167:Generated_Source\PSoC5/Stepper_Timer.c **** * Function Name: Stepper_Timer_Enable
 168:Generated_Source\PSoC5/Stepper_Timer.c **** ********************************************************************************
 169:Generated_Source\PSoC5/Stepper_Timer.c **** *
 170:Generated_Source\PSoC5/Stepper_Timer.c **** * Summary:
 171:Generated_Source\PSoC5/Stepper_Timer.c **** *  Enable the Timer
 172:Generated_Source\PSoC5/Stepper_Timer.c **** *
 173:Generated_Source\PSoC5/Stepper_Timer.c **** * Parameters:
 174:Generated_Source\PSoC5/Stepper_Timer.c **** *  void
 175:Generated_Source\PSoC5/Stepper_Timer.c **** *
 176:Generated_Source\PSoC5/Stepper_Timer.c **** * Return:
 177:Generated_Source\PSoC5/Stepper_Timer.c **** *  void
 178:Generated_Source\PSoC5/Stepper_Timer.c **** *
 179:Generated_Source\PSoC5/Stepper_Timer.c **** *******************************************************************************/
 180:Generated_Source\PSoC5/Stepper_Timer.c **** void Stepper_Timer_Enable(void) 
 181:Generated_Source\PSoC5/Stepper_Timer.c **** {
  27              		.loc 1 181 0
  28              		.cfi_startproc
  29              		@ args = 0, pretend = 0, frame = 0
  30              		@ frame_needed = 0, uses_anonymous_args = 0
  31              		@ link register save eliminated.
 182:Generated_Source\PSoC5/Stepper_Timer.c ****     /* Globally Enable the Fixed Function Block chosen */
 183:Generated_Source\PSoC5/Stepper_Timer.c ****     #if (Stepper_Timer_UsingFixedFunction)
 184:Generated_Source\PSoC5/Stepper_Timer.c ****         Stepper_Timer_GLOBAL_ENABLE |= Stepper_Timer_BLOCK_EN_MASK;
  32              		.loc 1 184 0
  33 0000 084A     		ldr	r2, .L2
  34 0002 1378     		ldrb	r3, [r2]	@ zero_extendqisi2
  35 0004 43F00203 		orr	r3, r3, #2
  36 0008 1370     		strb	r3, [r2]
 185:Generated_Source\PSoC5/Stepper_Timer.c ****         Stepper_Timer_GLOBAL_STBY_ENABLE |= Stepper_Timer_BLOCK_STBY_EN_MASK;
  37              		.loc 1 185 0
  38 000a 1032     		adds	r2, r2, #16
  39 000c 1378     		ldrb	r3, [r2]	@ zero_extendqisi2
  40 000e 43F00203 		orr	r3, r3, #2
  41 0012 1370     		strb	r3, [r2]
 186:Generated_Source\PSoC5/Stepper_Timer.c ****     #endif /* Set Enable bit for enabling Fixed function timer*/
 187:Generated_Source\PSoC5/Stepper_Timer.c **** 
ARM GAS  C:\Users\Bart\AppData\Local\Temp\ccEG920V.s 			page 5


 188:Generated_Source\PSoC5/Stepper_Timer.c ****     /* Remove assignment if control register is removed */
 189:Generated_Source\PSoC5/Stepper_Timer.c ****     #if (!Stepper_Timer_UDB_CONTROL_REG_REMOVED || Stepper_Timer_UsingFixedFunction)
 190:Generated_Source\PSoC5/Stepper_Timer.c ****         Stepper_Timer_CONTROL |= Stepper_Timer_CTRL_ENABLE;
  42              		.loc 1 190 0
  43 0014 02F65932 		addw	r2, r2, #2905
  44 0018 1378     		ldrb	r3, [r2]	@ zero_extendqisi2
  45 001a 43F00103 		orr	r3, r3, #1
  46 001e 1370     		strb	r3, [r2]
  47 0020 7047     		bx	lr
  48              	.L3:
  49 0022 00BF     		.align	2
  50              	.L2:
  51 0024 A3430040 		.word	1073759139
  52              		.cfi_endproc
  53              	.LFE1:
  54              		.size	Stepper_Timer_Enable, .-Stepper_Timer_Enable
  55              		.section	.text.Stepper_Timer_Stop,"ax",%progbits
  56              		.align	2
  57              		.global	Stepper_Timer_Stop
  58              		.thumb
  59              		.thumb_func
  60              		.type	Stepper_Timer_Stop, %function
  61              	Stepper_Timer_Stop:
  62              	.LFB3:
 191:Generated_Source\PSoC5/Stepper_Timer.c ****     #endif /* Remove assignment if control register is removed */
 192:Generated_Source\PSoC5/Stepper_Timer.c **** }
 193:Generated_Source\PSoC5/Stepper_Timer.c **** 
 194:Generated_Source\PSoC5/Stepper_Timer.c **** 
 195:Generated_Source\PSoC5/Stepper_Timer.c **** /*******************************************************************************
 196:Generated_Source\PSoC5/Stepper_Timer.c **** * Function Name: Stepper_Timer_Start
 197:Generated_Source\PSoC5/Stepper_Timer.c **** ********************************************************************************
 198:Generated_Source\PSoC5/Stepper_Timer.c **** *
 199:Generated_Source\PSoC5/Stepper_Timer.c **** * Summary:
 200:Generated_Source\PSoC5/Stepper_Timer.c **** *  The start function initializes the timer with the default values, the
 201:Generated_Source\PSoC5/Stepper_Timer.c **** *  enables the timerto begin counting.  It does not enable interrupts,
 202:Generated_Source\PSoC5/Stepper_Timer.c **** *  the EnableInt command should be called if interrupt generation is required.
 203:Generated_Source\PSoC5/Stepper_Timer.c **** *
 204:Generated_Source\PSoC5/Stepper_Timer.c **** * Parameters:
 205:Generated_Source\PSoC5/Stepper_Timer.c **** *  void
 206:Generated_Source\PSoC5/Stepper_Timer.c **** *
 207:Generated_Source\PSoC5/Stepper_Timer.c **** * Return:
 208:Generated_Source\PSoC5/Stepper_Timer.c **** *  void
 209:Generated_Source\PSoC5/Stepper_Timer.c **** *
 210:Generated_Source\PSoC5/Stepper_Timer.c **** * Global variables:
 211:Generated_Source\PSoC5/Stepper_Timer.c **** *  Stepper_Timer_initVar: Is modified when this function is called for the
 212:Generated_Source\PSoC5/Stepper_Timer.c **** *   first time. Is used to ensure that initialization happens only once.
 213:Generated_Source\PSoC5/Stepper_Timer.c **** *
 214:Generated_Source\PSoC5/Stepper_Timer.c **** *******************************************************************************/
 215:Generated_Source\PSoC5/Stepper_Timer.c **** void Stepper_Timer_Start(void) 
 216:Generated_Source\PSoC5/Stepper_Timer.c **** {
 217:Generated_Source\PSoC5/Stepper_Timer.c ****     if(Stepper_Timer_initVar == 0u)
 218:Generated_Source\PSoC5/Stepper_Timer.c ****     {
 219:Generated_Source\PSoC5/Stepper_Timer.c ****         Stepper_Timer_Init();
 220:Generated_Source\PSoC5/Stepper_Timer.c **** 
 221:Generated_Source\PSoC5/Stepper_Timer.c ****         Stepper_Timer_initVar = 1u;   /* Clear this bit for Initialization */
 222:Generated_Source\PSoC5/Stepper_Timer.c ****     }
 223:Generated_Source\PSoC5/Stepper_Timer.c **** 
ARM GAS  C:\Users\Bart\AppData\Local\Temp\ccEG920V.s 			page 6


 224:Generated_Source\PSoC5/Stepper_Timer.c ****     /* Enable the Timer */
 225:Generated_Source\PSoC5/Stepper_Timer.c ****     Stepper_Timer_Enable();
 226:Generated_Source\PSoC5/Stepper_Timer.c **** }
 227:Generated_Source\PSoC5/Stepper_Timer.c **** 
 228:Generated_Source\PSoC5/Stepper_Timer.c **** 
 229:Generated_Source\PSoC5/Stepper_Timer.c **** /*******************************************************************************
 230:Generated_Source\PSoC5/Stepper_Timer.c **** * Function Name: Stepper_Timer_Stop
 231:Generated_Source\PSoC5/Stepper_Timer.c **** ********************************************************************************
 232:Generated_Source\PSoC5/Stepper_Timer.c **** *
 233:Generated_Source\PSoC5/Stepper_Timer.c **** * Summary:
 234:Generated_Source\PSoC5/Stepper_Timer.c **** *  The stop function halts the timer, but does not change any modes or disable
 235:Generated_Source\PSoC5/Stepper_Timer.c **** *  interrupts.
 236:Generated_Source\PSoC5/Stepper_Timer.c **** *
 237:Generated_Source\PSoC5/Stepper_Timer.c **** * Parameters:
 238:Generated_Source\PSoC5/Stepper_Timer.c **** *  void
 239:Generated_Source\PSoC5/Stepper_Timer.c **** *
 240:Generated_Source\PSoC5/Stepper_Timer.c **** * Return:
 241:Generated_Source\PSoC5/Stepper_Timer.c **** *  void
 242:Generated_Source\PSoC5/Stepper_Timer.c **** *
 243:Generated_Source\PSoC5/Stepper_Timer.c **** * Side Effects: If the Enable mode is set to Hardware only then this function
 244:Generated_Source\PSoC5/Stepper_Timer.c **** *               has no effect on the operation of the timer.
 245:Generated_Source\PSoC5/Stepper_Timer.c **** *
 246:Generated_Source\PSoC5/Stepper_Timer.c **** *******************************************************************************/
 247:Generated_Source\PSoC5/Stepper_Timer.c **** void Stepper_Timer_Stop(void) 
 248:Generated_Source\PSoC5/Stepper_Timer.c **** {
  63              		.loc 1 248 0
  64              		.cfi_startproc
  65              		@ args = 0, pretend = 0, frame = 0
  66              		@ frame_needed = 0, uses_anonymous_args = 0
  67              		@ link register save eliminated.
 249:Generated_Source\PSoC5/Stepper_Timer.c ****     /* Disable Timer */
 250:Generated_Source\PSoC5/Stepper_Timer.c ****     #if(!Stepper_Timer_UDB_CONTROL_REG_REMOVED || Stepper_Timer_UsingFixedFunction)
 251:Generated_Source\PSoC5/Stepper_Timer.c ****         Stepper_Timer_CONTROL &= ((uint8)(~Stepper_Timer_CTRL_ENABLE));
  68              		.loc 1 251 0
  69 0000 084A     		ldr	r2, .L5
  70 0002 1378     		ldrb	r3, [r2]	@ zero_extendqisi2
  71 0004 03F0FE03 		and	r3, r3, #254
  72 0008 1370     		strb	r3, [r2]
 252:Generated_Source\PSoC5/Stepper_Timer.c ****     #endif /* Remove assignment if control register is removed */
 253:Generated_Source\PSoC5/Stepper_Timer.c **** 
 254:Generated_Source\PSoC5/Stepper_Timer.c ****     /* Globally disable the Fixed Function Block chosen */
 255:Generated_Source\PSoC5/Stepper_Timer.c ****     #if (Stepper_Timer_UsingFixedFunction)
 256:Generated_Source\PSoC5/Stepper_Timer.c ****         Stepper_Timer_GLOBAL_ENABLE &= ((uint8)(~Stepper_Timer_BLOCK_EN_MASK));
  73              		.loc 1 256 0
  74 000a A2F66932 		subw	r2, r2, #2921
  75 000e 1378     		ldrb	r3, [r2]	@ zero_extendqisi2
  76 0010 03F0FD03 		and	r3, r3, #253
  77 0014 1370     		strb	r3, [r2]
 257:Generated_Source\PSoC5/Stepper_Timer.c ****         Stepper_Timer_GLOBAL_STBY_ENABLE &= ((uint8)(~Stepper_Timer_BLOCK_STBY_EN_MASK));
  78              		.loc 1 257 0
  79 0016 1032     		adds	r2, r2, #16
  80 0018 1378     		ldrb	r3, [r2]	@ zero_extendqisi2
  81 001a 03F0FD03 		and	r3, r3, #253
  82 001e 1370     		strb	r3, [r2]
  83 0020 7047     		bx	lr
  84              	.L6:
  85 0022 00BF     		.align	2
ARM GAS  C:\Users\Bart\AppData\Local\Temp\ccEG920V.s 			page 7


  86              	.L5:
  87 0024 0C4F0040 		.word	1073762060
  88              		.cfi_endproc
  89              	.LFE3:
  90              		.size	Stepper_Timer_Stop, .-Stepper_Timer_Stop
  91              		.section	.text.Stepper_Timer_SetInterruptMode,"ax",%progbits
  92              		.align	2
  93              		.global	Stepper_Timer_SetInterruptMode
  94              		.thumb
  95              		.thumb_func
  96              		.type	Stepper_Timer_SetInterruptMode, %function
  97              	Stepper_Timer_SetInterruptMode:
  98              	.LFB4:
 258:Generated_Source\PSoC5/Stepper_Timer.c ****     #endif /* Disable global enable for the Timer Fixed function block to stop the Timer*/
 259:Generated_Source\PSoC5/Stepper_Timer.c **** }
 260:Generated_Source\PSoC5/Stepper_Timer.c **** 
 261:Generated_Source\PSoC5/Stepper_Timer.c **** 
 262:Generated_Source\PSoC5/Stepper_Timer.c **** /*******************************************************************************
 263:Generated_Source\PSoC5/Stepper_Timer.c **** * Function Name: Stepper_Timer_SetInterruptMode
 264:Generated_Source\PSoC5/Stepper_Timer.c **** ********************************************************************************
 265:Generated_Source\PSoC5/Stepper_Timer.c **** *
 266:Generated_Source\PSoC5/Stepper_Timer.c **** * Summary:
 267:Generated_Source\PSoC5/Stepper_Timer.c **** *  This function selects which of the interrupt inputs may cause an interrupt.
 268:Generated_Source\PSoC5/Stepper_Timer.c **** *  The twosources are caputure and terminal.  One, both or neither may
 269:Generated_Source\PSoC5/Stepper_Timer.c **** *  be selected.
 270:Generated_Source\PSoC5/Stepper_Timer.c **** *
 271:Generated_Source\PSoC5/Stepper_Timer.c **** * Parameters:
 272:Generated_Source\PSoC5/Stepper_Timer.c **** *  interruptMode:   This parameter is used to enable interrups on either/or
 273:Generated_Source\PSoC5/Stepper_Timer.c **** *                   terminal count or capture.
 274:Generated_Source\PSoC5/Stepper_Timer.c **** *
 275:Generated_Source\PSoC5/Stepper_Timer.c **** * Return:
 276:Generated_Source\PSoC5/Stepper_Timer.c **** *  void
 277:Generated_Source\PSoC5/Stepper_Timer.c **** *
 278:Generated_Source\PSoC5/Stepper_Timer.c **** *******************************************************************************/
 279:Generated_Source\PSoC5/Stepper_Timer.c **** void Stepper_Timer_SetInterruptMode(uint8 interruptMode) 
 280:Generated_Source\PSoC5/Stepper_Timer.c **** {
  99              		.loc 1 280 0
 100              		.cfi_startproc
 101              		@ args = 0, pretend = 0, frame = 0
 102              		@ frame_needed = 0, uses_anonymous_args = 0
 103              		@ link register save eliminated.
 104              	.LVL0:
 281:Generated_Source\PSoC5/Stepper_Timer.c ****     Stepper_Timer_STATUS_MASK = interruptMode;
 105              		.loc 1 281 0
 106 0000 014B     		ldr	r3, .L8
 107 0002 1870     		strb	r0, [r3]
 108 0004 7047     		bx	lr
 109              	.L9:
 110 0006 00BF     		.align	2
 111              	.L8:
 112 0008 0F4F0040 		.word	1073762063
 113              		.cfi_endproc
 114              	.LFE4:
 115              		.size	Stepper_Timer_SetInterruptMode, .-Stepper_Timer_SetInterruptMode
 116              		.section	.text.Stepper_Timer_SoftwareCapture,"ax",%progbits
 117              		.align	2
 118              		.global	Stepper_Timer_SoftwareCapture
ARM GAS  C:\Users\Bart\AppData\Local\Temp\ccEG920V.s 			page 8


 119              		.thumb
 120              		.thumb_func
 121              		.type	Stepper_Timer_SoftwareCapture, %function
 122              	Stepper_Timer_SoftwareCapture:
 123              	.LFB5:
 282:Generated_Source\PSoC5/Stepper_Timer.c **** }
 283:Generated_Source\PSoC5/Stepper_Timer.c **** 
 284:Generated_Source\PSoC5/Stepper_Timer.c **** 
 285:Generated_Source\PSoC5/Stepper_Timer.c **** /*******************************************************************************
 286:Generated_Source\PSoC5/Stepper_Timer.c **** * Function Name: Stepper_Timer_SoftwareCapture
 287:Generated_Source\PSoC5/Stepper_Timer.c **** ********************************************************************************
 288:Generated_Source\PSoC5/Stepper_Timer.c **** *
 289:Generated_Source\PSoC5/Stepper_Timer.c **** * Summary:
 290:Generated_Source\PSoC5/Stepper_Timer.c **** *  This function forces a capture independent of the capture signal.
 291:Generated_Source\PSoC5/Stepper_Timer.c **** *
 292:Generated_Source\PSoC5/Stepper_Timer.c **** * Parameters:
 293:Generated_Source\PSoC5/Stepper_Timer.c **** *  void
 294:Generated_Source\PSoC5/Stepper_Timer.c **** *
 295:Generated_Source\PSoC5/Stepper_Timer.c **** * Return:
 296:Generated_Source\PSoC5/Stepper_Timer.c **** *  void
 297:Generated_Source\PSoC5/Stepper_Timer.c **** *
 298:Generated_Source\PSoC5/Stepper_Timer.c **** * Side Effects:
 299:Generated_Source\PSoC5/Stepper_Timer.c **** *  An existing hardware capture could be overwritten.
 300:Generated_Source\PSoC5/Stepper_Timer.c **** *
 301:Generated_Source\PSoC5/Stepper_Timer.c **** *******************************************************************************/
 302:Generated_Source\PSoC5/Stepper_Timer.c **** void Stepper_Timer_SoftwareCapture(void) 
 303:Generated_Source\PSoC5/Stepper_Timer.c **** {
 124              		.loc 1 303 0
 125              		.cfi_startproc
 126              		@ args = 0, pretend = 0, frame = 0
 127              		@ frame_needed = 0, uses_anonymous_args = 0
 128              		@ link register save eliminated.
 304:Generated_Source\PSoC5/Stepper_Timer.c ****     /* Generate a software capture by reading the counter register */
 305:Generated_Source\PSoC5/Stepper_Timer.c ****     #if(Stepper_Timer_UsingFixedFunction)
 306:Generated_Source\PSoC5/Stepper_Timer.c ****         (void)CY_GET_REG16(Stepper_Timer_COUNTER_LSB_PTR);
 129              		.loc 1 306 0
 130 0000 014B     		ldr	r3, .L11
 131 0002 1B88     		ldrh	r3, [r3]
 132 0004 7047     		bx	lr
 133              	.L12:
 134 0006 00BF     		.align	2
 135              	.L11:
 136 0008 124F0040 		.word	1073762066
 137              		.cfi_endproc
 138              	.LFE5:
 139              		.size	Stepper_Timer_SoftwareCapture, .-Stepper_Timer_SoftwareCapture
 140              		.section	.text.Stepper_Timer_ReadStatusRegister,"ax",%progbits
 141              		.align	2
 142              		.global	Stepper_Timer_ReadStatusRegister
 143              		.thumb
 144              		.thumb_func
 145              		.type	Stepper_Timer_ReadStatusRegister, %function
 146              	Stepper_Timer_ReadStatusRegister:
 147              	.LFB6:
 307:Generated_Source\PSoC5/Stepper_Timer.c ****     #else
 308:Generated_Source\PSoC5/Stepper_Timer.c ****         (void)CY_GET_REG8(Stepper_Timer_COUNTER_LSB_PTR_8BIT);
 309:Generated_Source\PSoC5/Stepper_Timer.c ****     #endif/* (Stepper_Timer_UsingFixedFunction) */
ARM GAS  C:\Users\Bart\AppData\Local\Temp\ccEG920V.s 			page 9


 310:Generated_Source\PSoC5/Stepper_Timer.c ****     /* Capture Data is now in the FIFO */
 311:Generated_Source\PSoC5/Stepper_Timer.c **** }
 312:Generated_Source\PSoC5/Stepper_Timer.c **** 
 313:Generated_Source\PSoC5/Stepper_Timer.c **** 
 314:Generated_Source\PSoC5/Stepper_Timer.c **** /*******************************************************************************
 315:Generated_Source\PSoC5/Stepper_Timer.c **** * Function Name: Stepper_Timer_ReadStatusRegister
 316:Generated_Source\PSoC5/Stepper_Timer.c **** ********************************************************************************
 317:Generated_Source\PSoC5/Stepper_Timer.c **** *
 318:Generated_Source\PSoC5/Stepper_Timer.c **** * Summary:
 319:Generated_Source\PSoC5/Stepper_Timer.c **** *  Reads the status register and returns it's state. This function should use
 320:Generated_Source\PSoC5/Stepper_Timer.c **** *  defined types for the bit-field information as the bits in this register may
 321:Generated_Source\PSoC5/Stepper_Timer.c **** *  be permuteable.
 322:Generated_Source\PSoC5/Stepper_Timer.c **** *
 323:Generated_Source\PSoC5/Stepper_Timer.c **** * Parameters:
 324:Generated_Source\PSoC5/Stepper_Timer.c **** *  void
 325:Generated_Source\PSoC5/Stepper_Timer.c **** *
 326:Generated_Source\PSoC5/Stepper_Timer.c **** * Return:
 327:Generated_Source\PSoC5/Stepper_Timer.c **** *  The contents of the status register
 328:Generated_Source\PSoC5/Stepper_Timer.c **** *
 329:Generated_Source\PSoC5/Stepper_Timer.c **** * Side Effects:
 330:Generated_Source\PSoC5/Stepper_Timer.c **** *  Status register bits may be clear on read.
 331:Generated_Source\PSoC5/Stepper_Timer.c **** *
 332:Generated_Source\PSoC5/Stepper_Timer.c **** *******************************************************************************/
 333:Generated_Source\PSoC5/Stepper_Timer.c **** uint8   Stepper_Timer_ReadStatusRegister(void) 
 334:Generated_Source\PSoC5/Stepper_Timer.c **** {
 148              		.loc 1 334 0
 149              		.cfi_startproc
 150              		@ args = 0, pretend = 0, frame = 0
 151              		@ frame_needed = 0, uses_anonymous_args = 0
 152              		@ link register save eliminated.
 335:Generated_Source\PSoC5/Stepper_Timer.c ****     return (Stepper_Timer_STATUS);
 153              		.loc 1 335 0
 154 0000 014B     		ldr	r3, .L14
 155 0002 1878     		ldrb	r0, [r3]	@ zero_extendqisi2
 336:Generated_Source\PSoC5/Stepper_Timer.c **** }
 156              		.loc 1 336 0
 157 0004 7047     		bx	lr
 158              	.L15:
 159 0006 00BF     		.align	2
 160              	.L14:
 161 0008 0F4F0040 		.word	1073762063
 162              		.cfi_endproc
 163              	.LFE6:
 164              		.size	Stepper_Timer_ReadStatusRegister, .-Stepper_Timer_ReadStatusRegister
 165              		.section	.text.Stepper_Timer_ReadControlRegister,"ax",%progbits
 166              		.align	2
 167              		.global	Stepper_Timer_ReadControlRegister
 168              		.thumb
 169              		.thumb_func
 170              		.type	Stepper_Timer_ReadControlRegister, %function
 171              	Stepper_Timer_ReadControlRegister:
 172              	.LFB7:
 337:Generated_Source\PSoC5/Stepper_Timer.c **** 
 338:Generated_Source\PSoC5/Stepper_Timer.c **** 
 339:Generated_Source\PSoC5/Stepper_Timer.c **** #if (!Stepper_Timer_UDB_CONTROL_REG_REMOVED) /* Remove API if control register is unused */
 340:Generated_Source\PSoC5/Stepper_Timer.c **** 
 341:Generated_Source\PSoC5/Stepper_Timer.c **** 
ARM GAS  C:\Users\Bart\AppData\Local\Temp\ccEG920V.s 			page 10


 342:Generated_Source\PSoC5/Stepper_Timer.c **** /*******************************************************************************
 343:Generated_Source\PSoC5/Stepper_Timer.c **** * Function Name: Stepper_Timer_ReadControlRegister
 344:Generated_Source\PSoC5/Stepper_Timer.c **** ********************************************************************************
 345:Generated_Source\PSoC5/Stepper_Timer.c **** *
 346:Generated_Source\PSoC5/Stepper_Timer.c **** * Summary:
 347:Generated_Source\PSoC5/Stepper_Timer.c **** *  Reads the control register and returns it's value.
 348:Generated_Source\PSoC5/Stepper_Timer.c **** *
 349:Generated_Source\PSoC5/Stepper_Timer.c **** * Parameters:
 350:Generated_Source\PSoC5/Stepper_Timer.c **** *  void
 351:Generated_Source\PSoC5/Stepper_Timer.c **** *
 352:Generated_Source\PSoC5/Stepper_Timer.c **** * Return:
 353:Generated_Source\PSoC5/Stepper_Timer.c **** *  The contents of the control register
 354:Generated_Source\PSoC5/Stepper_Timer.c **** *
 355:Generated_Source\PSoC5/Stepper_Timer.c **** *******************************************************************************/
 356:Generated_Source\PSoC5/Stepper_Timer.c **** uint8 Stepper_Timer_ReadControlRegister(void) 
 357:Generated_Source\PSoC5/Stepper_Timer.c **** {
 173              		.loc 1 357 0
 174              		.cfi_startproc
 175              		@ args = 0, pretend = 0, frame = 0
 176              		@ frame_needed = 0, uses_anonymous_args = 0
 177              		@ link register save eliminated.
 358:Generated_Source\PSoC5/Stepper_Timer.c ****     #if (!Stepper_Timer_UDB_CONTROL_REG_REMOVED) 
 359:Generated_Source\PSoC5/Stepper_Timer.c ****         return ((uint8)Stepper_Timer_CONTROL);
 178              		.loc 1 359 0
 179 0000 014B     		ldr	r3, .L17
 180 0002 1878     		ldrb	r0, [r3]	@ zero_extendqisi2
 360:Generated_Source\PSoC5/Stepper_Timer.c ****     #else
 361:Generated_Source\PSoC5/Stepper_Timer.c ****         return (0);
 362:Generated_Source\PSoC5/Stepper_Timer.c ****     #endif /* (!Stepper_Timer_UDB_CONTROL_REG_REMOVED) */
 363:Generated_Source\PSoC5/Stepper_Timer.c **** }
 181              		.loc 1 363 0
 182 0004 7047     		bx	lr
 183              	.L18:
 184 0006 00BF     		.align	2
 185              	.L17:
 186 0008 0C4F0040 		.word	1073762060
 187              		.cfi_endproc
 188              	.LFE7:
 189              		.size	Stepper_Timer_ReadControlRegister, .-Stepper_Timer_ReadControlRegister
 190              		.section	.text.Stepper_Timer_WriteControlRegister,"ax",%progbits
 191              		.align	2
 192              		.global	Stepper_Timer_WriteControlRegister
 193              		.thumb
 194              		.thumb_func
 195              		.type	Stepper_Timer_WriteControlRegister, %function
 196              	Stepper_Timer_WriteControlRegister:
 197              	.LFB8:
 364:Generated_Source\PSoC5/Stepper_Timer.c **** 
 365:Generated_Source\PSoC5/Stepper_Timer.c **** 
 366:Generated_Source\PSoC5/Stepper_Timer.c **** /*******************************************************************************
 367:Generated_Source\PSoC5/Stepper_Timer.c **** * Function Name: Stepper_Timer_WriteControlRegister
 368:Generated_Source\PSoC5/Stepper_Timer.c **** ********************************************************************************
 369:Generated_Source\PSoC5/Stepper_Timer.c **** *
 370:Generated_Source\PSoC5/Stepper_Timer.c **** * Summary:
 371:Generated_Source\PSoC5/Stepper_Timer.c **** *  Sets the bit-field of the control register.
 372:Generated_Source\PSoC5/Stepper_Timer.c **** *
 373:Generated_Source\PSoC5/Stepper_Timer.c **** * Parameters:
ARM GAS  C:\Users\Bart\AppData\Local\Temp\ccEG920V.s 			page 11


 374:Generated_Source\PSoC5/Stepper_Timer.c **** *  control: The contents of the control register
 375:Generated_Source\PSoC5/Stepper_Timer.c **** *
 376:Generated_Source\PSoC5/Stepper_Timer.c **** * Return:
 377:Generated_Source\PSoC5/Stepper_Timer.c **** *
 378:Generated_Source\PSoC5/Stepper_Timer.c **** *******************************************************************************/
 379:Generated_Source\PSoC5/Stepper_Timer.c **** void Stepper_Timer_WriteControlRegister(uint8 control) 
 380:Generated_Source\PSoC5/Stepper_Timer.c **** {
 198              		.loc 1 380 0
 199              		.cfi_startproc
 200              		@ args = 0, pretend = 0, frame = 0
 201              		@ frame_needed = 0, uses_anonymous_args = 0
 202              		@ link register save eliminated.
 203              	.LVL1:
 381:Generated_Source\PSoC5/Stepper_Timer.c ****     #if (!Stepper_Timer_UDB_CONTROL_REG_REMOVED) 
 382:Generated_Source\PSoC5/Stepper_Timer.c ****         Stepper_Timer_CONTROL = control;
 204              		.loc 1 382 0
 205 0000 014B     		ldr	r3, .L20
 206 0002 1870     		strb	r0, [r3]
 207 0004 7047     		bx	lr
 208              	.L21:
 209 0006 00BF     		.align	2
 210              	.L20:
 211 0008 0C4F0040 		.word	1073762060
 212              		.cfi_endproc
 213              	.LFE8:
 214              		.size	Stepper_Timer_WriteControlRegister, .-Stepper_Timer_WriteControlRegister
 215              		.section	.text.Stepper_Timer_ReadPeriod,"ax",%progbits
 216              		.align	2
 217              		.global	Stepper_Timer_ReadPeriod
 218              		.thumb
 219              		.thumb_func
 220              		.type	Stepper_Timer_ReadPeriod, %function
 221              	Stepper_Timer_ReadPeriod:
 222              	.LFB9:
 383:Generated_Source\PSoC5/Stepper_Timer.c ****     #else
 384:Generated_Source\PSoC5/Stepper_Timer.c ****         control = 0u;
 385:Generated_Source\PSoC5/Stepper_Timer.c ****     #endif /* (!Stepper_Timer_UDB_CONTROL_REG_REMOVED) */
 386:Generated_Source\PSoC5/Stepper_Timer.c **** }
 387:Generated_Source\PSoC5/Stepper_Timer.c **** 
 388:Generated_Source\PSoC5/Stepper_Timer.c **** #endif /* Remove API if control register is unused */
 389:Generated_Source\PSoC5/Stepper_Timer.c **** 
 390:Generated_Source\PSoC5/Stepper_Timer.c **** 
 391:Generated_Source\PSoC5/Stepper_Timer.c **** /*******************************************************************************
 392:Generated_Source\PSoC5/Stepper_Timer.c **** * Function Name: Stepper_Timer_ReadPeriod
 393:Generated_Source\PSoC5/Stepper_Timer.c **** ********************************************************************************
 394:Generated_Source\PSoC5/Stepper_Timer.c **** *
 395:Generated_Source\PSoC5/Stepper_Timer.c **** * Summary:
 396:Generated_Source\PSoC5/Stepper_Timer.c **** *  This function returns the current value of the Period.
 397:Generated_Source\PSoC5/Stepper_Timer.c **** *
 398:Generated_Source\PSoC5/Stepper_Timer.c **** * Parameters:
 399:Generated_Source\PSoC5/Stepper_Timer.c **** *  void
 400:Generated_Source\PSoC5/Stepper_Timer.c **** *
 401:Generated_Source\PSoC5/Stepper_Timer.c **** * Return:
 402:Generated_Source\PSoC5/Stepper_Timer.c **** *  The present value of the counter.
 403:Generated_Source\PSoC5/Stepper_Timer.c **** *
 404:Generated_Source\PSoC5/Stepper_Timer.c **** *******************************************************************************/
 405:Generated_Source\PSoC5/Stepper_Timer.c **** uint16 Stepper_Timer_ReadPeriod(void) 
ARM GAS  C:\Users\Bart\AppData\Local\Temp\ccEG920V.s 			page 12


 406:Generated_Source\PSoC5/Stepper_Timer.c **** {
 223              		.loc 1 406 0
 224              		.cfi_startproc
 225              		@ args = 0, pretend = 0, frame = 0
 226              		@ frame_needed = 0, uses_anonymous_args = 0
 227              		@ link register save eliminated.
 407:Generated_Source\PSoC5/Stepper_Timer.c ****    #if(Stepper_Timer_UsingFixedFunction)
 408:Generated_Source\PSoC5/Stepper_Timer.c ****        return ((uint16)CY_GET_REG16(Stepper_Timer_PERIOD_LSB_PTR));
 228              		.loc 1 408 0
 229 0000 014B     		ldr	r3, .L23
 230 0002 1888     		ldrh	r0, [r3]
 409:Generated_Source\PSoC5/Stepper_Timer.c ****    #else
 410:Generated_Source\PSoC5/Stepper_Timer.c ****        return (CY_GET_REG16(Stepper_Timer_PERIOD_LSB_PTR));
 411:Generated_Source\PSoC5/Stepper_Timer.c ****    #endif /* (Stepper_Timer_UsingFixedFunction) */
 412:Generated_Source\PSoC5/Stepper_Timer.c **** }
 231              		.loc 1 412 0
 232 0004 80B2     		uxth	r0, r0
 233 0006 7047     		bx	lr
 234              	.L24:
 235              		.align	2
 236              	.L23:
 237 0008 104F0040 		.word	1073762064
 238              		.cfi_endproc
 239              	.LFE9:
 240              		.size	Stepper_Timer_ReadPeriod, .-Stepper_Timer_ReadPeriod
 241              		.section	.text.Stepper_Timer_WritePeriod,"ax",%progbits
 242              		.align	2
 243              		.global	Stepper_Timer_WritePeriod
 244              		.thumb
 245              		.thumb_func
 246              		.type	Stepper_Timer_WritePeriod, %function
 247              	Stepper_Timer_WritePeriod:
 248              	.LFB10:
 413:Generated_Source\PSoC5/Stepper_Timer.c **** 
 414:Generated_Source\PSoC5/Stepper_Timer.c **** 
 415:Generated_Source\PSoC5/Stepper_Timer.c **** /*******************************************************************************
 416:Generated_Source\PSoC5/Stepper_Timer.c **** * Function Name: Stepper_Timer_WritePeriod
 417:Generated_Source\PSoC5/Stepper_Timer.c **** ********************************************************************************
 418:Generated_Source\PSoC5/Stepper_Timer.c **** *
 419:Generated_Source\PSoC5/Stepper_Timer.c **** * Summary:
 420:Generated_Source\PSoC5/Stepper_Timer.c **** *  This function is used to change the period of the counter.  The new period
 421:Generated_Source\PSoC5/Stepper_Timer.c **** *  will be loaded the next time terminal count is detected.
 422:Generated_Source\PSoC5/Stepper_Timer.c **** *
 423:Generated_Source\PSoC5/Stepper_Timer.c **** * Parameters:
 424:Generated_Source\PSoC5/Stepper_Timer.c **** *  period: This value may be between 1 and (2^Resolution)-1.  A value of 0 will
 425:Generated_Source\PSoC5/Stepper_Timer.c **** *          result in the counter remaining at zero.
 426:Generated_Source\PSoC5/Stepper_Timer.c **** *
 427:Generated_Source\PSoC5/Stepper_Timer.c **** * Return:
 428:Generated_Source\PSoC5/Stepper_Timer.c **** *  void
 429:Generated_Source\PSoC5/Stepper_Timer.c **** *
 430:Generated_Source\PSoC5/Stepper_Timer.c **** *******************************************************************************/
 431:Generated_Source\PSoC5/Stepper_Timer.c **** void Stepper_Timer_WritePeriod(uint16 period) 
 432:Generated_Source\PSoC5/Stepper_Timer.c **** {
 249              		.loc 1 432 0
 250              		.cfi_startproc
 251              		@ args = 0, pretend = 0, frame = 0
 252              		@ frame_needed = 0, uses_anonymous_args = 0
ARM GAS  C:\Users\Bart\AppData\Local\Temp\ccEG920V.s 			page 13


 253              		@ link register save eliminated.
 254              	.LVL2:
 433:Generated_Source\PSoC5/Stepper_Timer.c ****     #if(Stepper_Timer_UsingFixedFunction)
 434:Generated_Source\PSoC5/Stepper_Timer.c ****         uint16 period_temp = (uint16)period;
 435:Generated_Source\PSoC5/Stepper_Timer.c ****         CY_SET_REG16(Stepper_Timer_PERIOD_LSB_PTR, period_temp);
 255              		.loc 1 435 0
 256 0000 014B     		ldr	r3, .L26
 257 0002 1880     		strh	r0, [r3]	@ movhi
 258 0004 7047     		bx	lr
 259              	.L27:
 260 0006 00BF     		.align	2
 261              	.L26:
 262 0008 104F0040 		.word	1073762064
 263              		.cfi_endproc
 264              	.LFE10:
 265              		.size	Stepper_Timer_WritePeriod, .-Stepper_Timer_WritePeriod
 266              		.section	.text.Stepper_Timer_ReadCapture,"ax",%progbits
 267              		.align	2
 268              		.global	Stepper_Timer_ReadCapture
 269              		.thumb
 270              		.thumb_func
 271              		.type	Stepper_Timer_ReadCapture, %function
 272              	Stepper_Timer_ReadCapture:
 273              	.LFB11:
 436:Generated_Source\PSoC5/Stepper_Timer.c ****     #else
 437:Generated_Source\PSoC5/Stepper_Timer.c ****         CY_SET_REG16(Stepper_Timer_PERIOD_LSB_PTR, period);
 438:Generated_Source\PSoC5/Stepper_Timer.c ****     #endif /*Write Period value with appropriate resolution suffix depending on UDB or fixed functi
 439:Generated_Source\PSoC5/Stepper_Timer.c **** }
 440:Generated_Source\PSoC5/Stepper_Timer.c **** 
 441:Generated_Source\PSoC5/Stepper_Timer.c **** 
 442:Generated_Source\PSoC5/Stepper_Timer.c **** /*******************************************************************************
 443:Generated_Source\PSoC5/Stepper_Timer.c **** * Function Name: Stepper_Timer_ReadCapture
 444:Generated_Source\PSoC5/Stepper_Timer.c **** ********************************************************************************
 445:Generated_Source\PSoC5/Stepper_Timer.c **** *
 446:Generated_Source\PSoC5/Stepper_Timer.c **** * Summary:
 447:Generated_Source\PSoC5/Stepper_Timer.c **** *  This function returns the last value captured.
 448:Generated_Source\PSoC5/Stepper_Timer.c **** *
 449:Generated_Source\PSoC5/Stepper_Timer.c **** * Parameters:
 450:Generated_Source\PSoC5/Stepper_Timer.c **** *  void
 451:Generated_Source\PSoC5/Stepper_Timer.c **** *
 452:Generated_Source\PSoC5/Stepper_Timer.c **** * Return:
 453:Generated_Source\PSoC5/Stepper_Timer.c **** *  Present Capture value.
 454:Generated_Source\PSoC5/Stepper_Timer.c **** *
 455:Generated_Source\PSoC5/Stepper_Timer.c **** *******************************************************************************/
 456:Generated_Source\PSoC5/Stepper_Timer.c **** uint16 Stepper_Timer_ReadCapture(void) 
 457:Generated_Source\PSoC5/Stepper_Timer.c **** {
 274              		.loc 1 457 0
 275              		.cfi_startproc
 276              		@ args = 0, pretend = 0, frame = 0
 277              		@ frame_needed = 0, uses_anonymous_args = 0
 278              		@ link register save eliminated.
 458:Generated_Source\PSoC5/Stepper_Timer.c ****    #if(Stepper_Timer_UsingFixedFunction)
 459:Generated_Source\PSoC5/Stepper_Timer.c ****        return ((uint16)CY_GET_REG16(Stepper_Timer_CAPTURE_LSB_PTR));
 279              		.loc 1 459 0
 280 0000 014B     		ldr	r3, .L29
 281 0002 1888     		ldrh	r0, [r3]
 460:Generated_Source\PSoC5/Stepper_Timer.c ****    #else
ARM GAS  C:\Users\Bart\AppData\Local\Temp\ccEG920V.s 			page 14


 461:Generated_Source\PSoC5/Stepper_Timer.c ****        return (CY_GET_REG16(Stepper_Timer_CAPTURE_LSB_PTR));
 462:Generated_Source\PSoC5/Stepper_Timer.c ****    #endif /* (Stepper_Timer_UsingFixedFunction) */
 463:Generated_Source\PSoC5/Stepper_Timer.c **** }
 282              		.loc 1 463 0
 283 0004 80B2     		uxth	r0, r0
 284 0006 7047     		bx	lr
 285              	.L30:
 286              		.align	2
 287              	.L29:
 288 0008 144F0040 		.word	1073762068
 289              		.cfi_endproc
 290              	.LFE11:
 291              		.size	Stepper_Timer_ReadCapture, .-Stepper_Timer_ReadCapture
 292              		.section	.text.Stepper_Timer_WriteCounter,"ax",%progbits
 293              		.align	2
 294              		.global	Stepper_Timer_WriteCounter
 295              		.thumb
 296              		.thumb_func
 297              		.type	Stepper_Timer_WriteCounter, %function
 298              	Stepper_Timer_WriteCounter:
 299              	.LFB12:
 464:Generated_Source\PSoC5/Stepper_Timer.c **** 
 465:Generated_Source\PSoC5/Stepper_Timer.c **** 
 466:Generated_Source\PSoC5/Stepper_Timer.c **** /*******************************************************************************
 467:Generated_Source\PSoC5/Stepper_Timer.c **** * Function Name: Stepper_Timer_WriteCounter
 468:Generated_Source\PSoC5/Stepper_Timer.c **** ********************************************************************************
 469:Generated_Source\PSoC5/Stepper_Timer.c **** *
 470:Generated_Source\PSoC5/Stepper_Timer.c **** * Summary:
 471:Generated_Source\PSoC5/Stepper_Timer.c **** *  This funtion is used to set the counter to a specific value
 472:Generated_Source\PSoC5/Stepper_Timer.c **** *
 473:Generated_Source\PSoC5/Stepper_Timer.c **** * Parameters:
 474:Generated_Source\PSoC5/Stepper_Timer.c **** *  counter:  New counter value.
 475:Generated_Source\PSoC5/Stepper_Timer.c **** *
 476:Generated_Source\PSoC5/Stepper_Timer.c **** * Return:
 477:Generated_Source\PSoC5/Stepper_Timer.c **** *  void
 478:Generated_Source\PSoC5/Stepper_Timer.c **** *
 479:Generated_Source\PSoC5/Stepper_Timer.c **** *******************************************************************************/
 480:Generated_Source\PSoC5/Stepper_Timer.c **** void Stepper_Timer_WriteCounter(uint16 counter) 
 481:Generated_Source\PSoC5/Stepper_Timer.c **** {
 300              		.loc 1 481 0
 301              		.cfi_startproc
 302              		@ args = 0, pretend = 0, frame = 0
 303              		@ frame_needed = 0, uses_anonymous_args = 0
 304              		@ link register save eliminated.
 305              	.LVL3:
 482:Generated_Source\PSoC5/Stepper_Timer.c ****    #if(Stepper_Timer_UsingFixedFunction)
 483:Generated_Source\PSoC5/Stepper_Timer.c ****         /* This functionality is removed until a FixedFunction HW update to
 484:Generated_Source\PSoC5/Stepper_Timer.c ****          * allow this register to be written
 485:Generated_Source\PSoC5/Stepper_Timer.c ****          */
 486:Generated_Source\PSoC5/Stepper_Timer.c ****         CY_SET_REG16(Stepper_Timer_COUNTER_LSB_PTR, (uint16)counter);
 306              		.loc 1 486 0
 307 0000 014B     		ldr	r3, .L32
 308 0002 1880     		strh	r0, [r3]	@ movhi
 309 0004 7047     		bx	lr
 310              	.L33:
 311 0006 00BF     		.align	2
 312              	.L32:
ARM GAS  C:\Users\Bart\AppData\Local\Temp\ccEG920V.s 			page 15


 313 0008 124F0040 		.word	1073762066
 314              		.cfi_endproc
 315              	.LFE12:
 316              		.size	Stepper_Timer_WriteCounter, .-Stepper_Timer_WriteCounter
 317              		.section	.text.Stepper_Timer_Init,"ax",%progbits
 318              		.align	2
 319              		.global	Stepper_Timer_Init
 320              		.thumb
 321              		.thumb_func
 322              		.type	Stepper_Timer_Init, %function
 323              	Stepper_Timer_Init:
 324              	.LFB0:
  44:Generated_Source\PSoC5/Stepper_Timer.c ****     #if(!Stepper_Timer_UsingFixedFunction)
 325              		.loc 1 44 0
 326              		.cfi_startproc
 327              		@ args = 0, pretend = 0, frame = 0
 328              		@ frame_needed = 0, uses_anonymous_args = 0
 329 0000 08B5     		push	{r3, lr}
 330              		.cfi_def_cfa_offset 8
 331              		.cfi_offset 3, -8
 332              		.cfi_offset 14, -4
  52:Generated_Source\PSoC5/Stepper_Timer.c **** 
 333              		.loc 1 52 0
 334 0002 164A     		ldr	r2, .L36
 335 0004 1378     		ldrb	r3, [r2]	@ zero_extendqisi2
 336 0006 03F00103 		and	r3, r3, #1
 337 000a 1370     		strb	r3, [r2]
  60:Generated_Source\PSoC5/Stepper_Timer.c ****         #endif /* CONTROL3 register exists only in PSoC3 OR PSoC5LP */
 338              		.loc 1 60 0
 339 000c 0232     		adds	r2, r2, #2
 340 000e 1378     		ldrb	r3, [r2]	@ zero_extendqisi2
 341 0010 03F0FC03 		and	r3, r3, #252
 342 0014 1370     		strb	r3, [r2]
 106:Generated_Source\PSoC5/Stepper_Timer.c ****         Stepper_Timer_RT1 |= Stepper_Timer_SYNC;
 343              		.loc 1 106 0
 344 0016 124B     		ldr	r3, .L36+4
 345 0018 1A78     		ldrb	r2, [r3]	@ zero_extendqisi2
 346 001a 02F0CF02 		and	r2, r2, #207
 347 001e 1A70     		strb	r2, [r3]
 107:Generated_Source\PSoC5/Stepper_Timer.c **** 
 348              		.loc 1 107 0
 349 0020 1A78     		ldrb	r2, [r3]	@ zero_extendqisi2
 350 0022 42F03002 		orr	r2, r2, #48
 351 0026 1A70     		strb	r2, [r3]
 110:Generated_Source\PSoC5/Stepper_Timer.c ****         Stepper_Timer_RT1 |= Stepper_Timer_SYNCDSI_EN;
 352              		.loc 1 110 0
 353 0028 1A78     		ldrb	r2, [r3]	@ zero_extendqisi2
 354 002a 02F0F002 		and	r2, r2, #240
 355 002e 1A70     		strb	r2, [r3]
 111:Generated_Source\PSoC5/Stepper_Timer.c **** 
 356              		.loc 1 111 0
 357 0030 1A78     		ldrb	r2, [r3]	@ zero_extendqisi2
 358 0032 42F00F02 		orr	r2, r2, #15
 359 0036 1A70     		strb	r2, [r3]
 114:Generated_Source\PSoC5/Stepper_Timer.c ****     #endif /* Configuring registers of fixed function implementation */
 360              		.loc 1 114 0
 361 0038 0A4A     		ldr	r2, .L36+8
ARM GAS  C:\Users\Bart\AppData\Local\Temp\ccEG920V.s 			page 16


 362 003a 1378     		ldrb	r3, [r2]	@ zero_extendqisi2
 363 003c 43F00103 		orr	r3, r3, #1
 364 0040 1370     		strb	r3, [r2]
 118:Generated_Source\PSoC5/Stepper_Timer.c ****     Stepper_Timer_WriteCounter(Stepper_Timer_INIT_PERIOD);
 365              		.loc 1 118 0
 366 0042 4FF6FF70 		movw	r0, #65535
 367 0046 FFF7FEFF 		bl	Stepper_Timer_WritePeriod
 368              	.LVL4:
 119:Generated_Source\PSoC5/Stepper_Timer.c **** 
 369              		.loc 1 119 0
 370 004a 4FF6FF70 		movw	r0, #65535
 371 004e FFF7FEFF 		bl	Stepper_Timer_WriteCounter
 372              	.LVL5:
 162:Generated_Source\PSoC5/Stepper_Timer.c **** }
 373              		.loc 1 162 0
 374 0052 0820     		movs	r0, #8
 375 0054 FFF7FEFF 		bl	Stepper_Timer_SetInterruptMode
 376              	.LVL6:
 377 0058 08BD     		pop	{r3, pc}
 378              	.L37:
 379 005a 00BF     		.align	2
 380              	.L36:
 381 005c 0C4F0040 		.word	1073762060
 382 0060 174F0040 		.word	1073762071
 383 0064 0D4F0040 		.word	1073762061
 384              		.cfi_endproc
 385              	.LFE0:
 386              		.size	Stepper_Timer_Init, .-Stepper_Timer_Init
 387              		.section	.text.Stepper_Timer_Start,"ax",%progbits
 388              		.align	2
 389              		.global	Stepper_Timer_Start
 390              		.thumb
 391              		.thumb_func
 392              		.type	Stepper_Timer_Start, %function
 393              	Stepper_Timer_Start:
 394              	.LFB2:
 216:Generated_Source\PSoC5/Stepper_Timer.c ****     if(Stepper_Timer_initVar == 0u)
 395              		.loc 1 216 0
 396              		.cfi_startproc
 397              		@ args = 0, pretend = 0, frame = 0
 398              		@ frame_needed = 0, uses_anonymous_args = 0
 399 0000 08B5     		push	{r3, lr}
 400              		.cfi_def_cfa_offset 8
 401              		.cfi_offset 3, -8
 402              		.cfi_offset 14, -4
 217:Generated_Source\PSoC5/Stepper_Timer.c ****     {
 403              		.loc 1 217 0
 404 0002 054B     		ldr	r3, .L41
 405 0004 1B78     		ldrb	r3, [r3]	@ zero_extendqisi2
 406 0006 23B9     		cbnz	r3, .L39
 219:Generated_Source\PSoC5/Stepper_Timer.c **** 
 407              		.loc 1 219 0
 408 0008 FFF7FEFF 		bl	Stepper_Timer_Init
 409              	.LVL7:
 221:Generated_Source\PSoC5/Stepper_Timer.c ****     }
 410              		.loc 1 221 0
 411 000c 0122     		movs	r2, #1
ARM GAS  C:\Users\Bart\AppData\Local\Temp\ccEG920V.s 			page 17


 412 000e 024B     		ldr	r3, .L41
 413 0010 1A70     		strb	r2, [r3]
 414              	.L39:
 225:Generated_Source\PSoC5/Stepper_Timer.c **** }
 415              		.loc 1 225 0
 416 0012 FFF7FEFF 		bl	Stepper_Timer_Enable
 417              	.LVL8:
 418 0016 08BD     		pop	{r3, pc}
 419              	.L42:
 420              		.align	2
 421              	.L41:
 422 0018 00000000 		.word	.LANCHOR0
 423              		.cfi_endproc
 424              	.LFE2:
 425              		.size	Stepper_Timer_Start, .-Stepper_Timer_Start
 426              		.section	.text.Stepper_Timer_ReadCounter,"ax",%progbits
 427              		.align	2
 428              		.global	Stepper_Timer_ReadCounter
 429              		.thumb
 430              		.thumb_func
 431              		.type	Stepper_Timer_ReadCounter, %function
 432              	Stepper_Timer_ReadCounter:
 433              	.LFB13:
 487:Generated_Source\PSoC5/Stepper_Timer.c ****         
 488:Generated_Source\PSoC5/Stepper_Timer.c ****     #else
 489:Generated_Source\PSoC5/Stepper_Timer.c ****         CY_SET_REG16(Stepper_Timer_COUNTER_LSB_PTR, counter);
 490:Generated_Source\PSoC5/Stepper_Timer.c ****     #endif /* Set Write Counter only for the UDB implementation (Write Counter not available in fix
 491:Generated_Source\PSoC5/Stepper_Timer.c **** }
 492:Generated_Source\PSoC5/Stepper_Timer.c **** 
 493:Generated_Source\PSoC5/Stepper_Timer.c **** 
 494:Generated_Source\PSoC5/Stepper_Timer.c **** /*******************************************************************************
 495:Generated_Source\PSoC5/Stepper_Timer.c **** * Function Name: Stepper_Timer_ReadCounter
 496:Generated_Source\PSoC5/Stepper_Timer.c **** ********************************************************************************
 497:Generated_Source\PSoC5/Stepper_Timer.c **** *
 498:Generated_Source\PSoC5/Stepper_Timer.c **** * Summary:
 499:Generated_Source\PSoC5/Stepper_Timer.c **** *  This function returns the current counter value.
 500:Generated_Source\PSoC5/Stepper_Timer.c **** *
 501:Generated_Source\PSoC5/Stepper_Timer.c **** * Parameters:
 502:Generated_Source\PSoC5/Stepper_Timer.c **** *  void
 503:Generated_Source\PSoC5/Stepper_Timer.c **** *
 504:Generated_Source\PSoC5/Stepper_Timer.c **** * Return:
 505:Generated_Source\PSoC5/Stepper_Timer.c **** *  Present compare value.
 506:Generated_Source\PSoC5/Stepper_Timer.c **** *
 507:Generated_Source\PSoC5/Stepper_Timer.c **** *******************************************************************************/
 508:Generated_Source\PSoC5/Stepper_Timer.c **** uint16 Stepper_Timer_ReadCounter(void) 
 509:Generated_Source\PSoC5/Stepper_Timer.c **** {
 434              		.loc 1 509 0
 435              		.cfi_startproc
 436              		@ args = 0, pretend = 0, frame = 0
 437              		@ frame_needed = 0, uses_anonymous_args = 0
 438              		@ link register save eliminated.
 510:Generated_Source\PSoC5/Stepper_Timer.c ****     /* Force capture by reading Accumulator */
 511:Generated_Source\PSoC5/Stepper_Timer.c ****     /* Must first do a software capture to be able to read the counter */
 512:Generated_Source\PSoC5/Stepper_Timer.c ****     /* It is up to the user code to make sure there isn't already captured data in the FIFO */
 513:Generated_Source\PSoC5/Stepper_Timer.c ****     #if(Stepper_Timer_UsingFixedFunction)
 514:Generated_Source\PSoC5/Stepper_Timer.c ****         (void)CY_GET_REG16(Stepper_Timer_COUNTER_LSB_PTR);
 439              		.loc 1 514 0
ARM GAS  C:\Users\Bart\AppData\Local\Temp\ccEG920V.s 			page 18


 440 0000 024B     		ldr	r3, .L44
 441 0002 1B88     		ldrh	r3, [r3]
 515:Generated_Source\PSoC5/Stepper_Timer.c ****     #else
 516:Generated_Source\PSoC5/Stepper_Timer.c ****         (void)CY_GET_REG8(Stepper_Timer_COUNTER_LSB_PTR_8BIT);
 517:Generated_Source\PSoC5/Stepper_Timer.c ****     #endif/* (Stepper_Timer_UsingFixedFunction) */
 518:Generated_Source\PSoC5/Stepper_Timer.c **** 
 519:Generated_Source\PSoC5/Stepper_Timer.c ****     /* Read the data from the FIFO (or capture register for Fixed Function)*/
 520:Generated_Source\PSoC5/Stepper_Timer.c ****     #if(Stepper_Timer_UsingFixedFunction)
 521:Generated_Source\PSoC5/Stepper_Timer.c ****         return ((uint16)CY_GET_REG16(Stepper_Timer_CAPTURE_LSB_PTR));
 442              		.loc 1 521 0
 443 0004 024B     		ldr	r3, .L44+4
 444 0006 1888     		ldrh	r0, [r3]
 522:Generated_Source\PSoC5/Stepper_Timer.c ****     #else
 523:Generated_Source\PSoC5/Stepper_Timer.c ****         return (CY_GET_REG16(Stepper_Timer_CAPTURE_LSB_PTR));
 524:Generated_Source\PSoC5/Stepper_Timer.c ****     #endif /* (Stepper_Timer_UsingFixedFunction) */
 525:Generated_Source\PSoC5/Stepper_Timer.c **** }
 445              		.loc 1 525 0
 446 0008 80B2     		uxth	r0, r0
 447 000a 7047     		bx	lr
 448              	.L45:
 449              		.align	2
 450              	.L44:
 451 000c 124F0040 		.word	1073762066
 452 0010 144F0040 		.word	1073762068
 453              		.cfi_endproc
 454              	.LFE13:
 455              		.size	Stepper_Timer_ReadCounter, .-Stepper_Timer_ReadCounter
 456              		.global	Stepper_Timer_initVar
 457              		.bss
 458              		.set	.LANCHOR0,. + 0
 459              		.type	Stepper_Timer_initVar, %object
 460              		.size	Stepper_Timer_initVar, 1
 461              	Stepper_Timer_initVar:
 462 0000 00       		.space	1
 463              		.text
 464              	.Letext0:
 465              		.file 2 "Generated_Source\\PSoC5\\cytypes.h"